
Nonblocking_Memory_Forensics_Secure.elf:     file format elf32-littlearm

Sections:
Idx Name          Size      VMA       LMA       File off  Algn
  0 .isr_vector   000001f4  0c000000  0c000000  00010000  2**0
                  CONTENTS, ALLOC, LOAD, READONLY, DATA
  1 .text         000079b8  0c0001f4  0c0001f4  000101f4  2**2
                  CONTENTS, ALLOC, LOAD, READONLY, CODE
  2 .rodata       0000055c  0c007bac  0c007bac  00017bac  2**2
                  CONTENTS, ALLOC, LOAD, READONLY, DATA
  3 .ARM.extab    00000000  0c008108  0c008108  0002e040  2**0
                  CONTENTS
  4 .ARM          00000008  0c008108  0c008108  00018108  2**2
                  CONTENTS, ALLOC, LOAD, READONLY, DATA
  5 .preinit_array 00000000  0c008110  0c008110  0002e040  2**0
                  CONTENTS, ALLOC, LOAD, DATA
  6 .init_array   00000004  0c008110  0c008110  00018110  2**2
                  CONTENTS, ALLOC, LOAD, DATA
  7 .fini_array   00000004  0c008114  0c008114  00018114  2**2
                  CONTENTS, ALLOC, LOAD, DATA
  8 .data         00000130  30000000  0c008118  00020000  2**2
                  CONTENTS, ALLOC, LOAD, DATA
  9 .gnu.sgstubs  00000040  0c03e000  0c03e000  0002e000  2**5
                  CONTENTS, ALLOC, LOAD, READONLY, CODE
 10 .bss          00001740  30000130  30000130  00030130  2**2
                  ALLOC
 11 ._user_heap_stack 00000600  30001870  30001870  00030130  2**0
                  ALLOC
 12 .ARM.attributes 00000036  00000000  00000000  0002e040  2**0
                  CONTENTS, READONLY
 13 .debug_info   00016938  00000000  00000000  0002e076  2**0
                  CONTENTS, READONLY, DEBUGGING, OCTETS
 14 .debug_abbrev 00002f0a  00000000  00000000  000449ae  2**0
                  CONTENTS, READONLY, DEBUGGING, OCTETS
 15 .debug_aranges 00001240  00000000  00000000  000478b8  2**3
                  CONTENTS, READONLY, DEBUGGING, OCTETS
 16 .debug_ranges 00001148  00000000  00000000  00048af8  2**3
                  CONTENTS, READONLY, DEBUGGING, OCTETS
 17 .debug_macro  0002bbaa  00000000  00000000  00049c40  2**0
                  CONTENTS, READONLY, DEBUGGING, OCTETS
 18 .debug_line   000166ab  00000000  00000000  000757ea  2**0
                  CONTENTS, READONLY, DEBUGGING, OCTETS
 19 .debug_str    0010e3f8  00000000  00000000  0008be95  2**0
                  CONTENTS, READONLY, DEBUGGING, OCTETS
 20 .comment      00000050  00000000  00000000  0019a28d  2**0
                  CONTENTS, READONLY
 21 .debug_frame  0000541c  00000000  00000000  0019a2e0  2**2
                  CONTENTS, READONLY, DEBUGGING, OCTETS

Disassembly of section .text:

0c0001f4 <__do_global_dtors_aux>:
 c0001f4:	b510      	push	{r4, lr}
 c0001f6:	4c05      	ldr	r4, [pc, #20]	; (c00020c <__do_global_dtors_aux+0x18>)
 c0001f8:	7823      	ldrb	r3, [r4, #0]
 c0001fa:	b933      	cbnz	r3, c00020a <__do_global_dtors_aux+0x16>
 c0001fc:	4b04      	ldr	r3, [pc, #16]	; (c000210 <__do_global_dtors_aux+0x1c>)
 c0001fe:	b113      	cbz	r3, c000206 <__do_global_dtors_aux+0x12>
 c000200:	4804      	ldr	r0, [pc, #16]	; (c000214 <__do_global_dtors_aux+0x20>)
 c000202:	e000      	b.n	c000206 <__do_global_dtors_aux+0x12>
 c000204:	bf00      	nop
 c000206:	2301      	movs	r3, #1
 c000208:	7023      	strb	r3, [r4, #0]
 c00020a:	bd10      	pop	{r4, pc}
 c00020c:	30000130 	.word	0x30000130
 c000210:	00000000 	.word	0x00000000
 c000214:	0c007b94 	.word	0x0c007b94

0c000218 <frame_dummy>:
 c000218:	b508      	push	{r3, lr}
 c00021a:	4b03      	ldr	r3, [pc, #12]	; (c000228 <frame_dummy+0x10>)
 c00021c:	b11b      	cbz	r3, c000226 <frame_dummy+0xe>
 c00021e:	4903      	ldr	r1, [pc, #12]	; (c00022c <frame_dummy+0x14>)
 c000220:	4803      	ldr	r0, [pc, #12]	; (c000230 <frame_dummy+0x18>)
 c000222:	e000      	b.n	c000226 <frame_dummy+0xe>
 c000224:	bf00      	nop
 c000226:	bd08      	pop	{r3, pc}
 c000228:	00000000 	.word	0x00000000
 c00022c:	30000134 	.word	0x30000134
 c000230:	0c007b94 	.word	0x0c007b94

0c000234 <cmse_check_address_range>:
 c000234:	43c3      	mvns	r3, r0
 c000236:	428b      	cmp	r3, r1
 c000238:	d36d      	bcc.n	c000316 <cmse_check_address_range+0xe2>
 c00023a:	f032 031f 	bics.w	r3, r2, #31
 c00023e:	d16a      	bne.n	c000316 <cmse_check_address_range+0xe2>
 c000240:	3901      	subs	r1, #1
 c000242:	f002 0314 	and.w	r3, r2, #20
 c000246:	4401      	add	r1, r0
 c000248:	b500      	push	{lr}
 c00024a:	ea81 0c00 	eor.w	ip, r1, r0
 c00024e:	2b14      	cmp	r3, #20
 c000250:	d80e      	bhi.n	c000270 <cmse_check_address_range+0x3c>
 c000252:	e8df f003 	tbb	[pc, r3]
 c000256:	0d3f      	.short	0x0d3f
 c000258:	0d480d0d 	.word	0x0d480d0d
 c00025c:	0d0d0d0d 	.word	0x0d0d0d0d
 c000260:	0d0d0d0d 	.word	0x0d0d0d0d
 c000264:	0d510d0d 	.word	0x0d510d0d
 c000268:	0d0d      	.short	0x0d0d
 c00026a:	10          	.byte	0x10
 c00026b:	00          	.byte	0x00
 c00026c:	02db      	lsls	r3, r3, #11
 c00026e:	d400      	bmi.n	c000272 <cmse_check_address_range+0x3e>
 c000270:	2000      	movs	r0, #0
 c000272:	f85d fb04 	ldr.w	pc, [sp], #4
 c000276:	f1bc 0f1f 	cmp.w	ip, #31
 c00027a:	e840 f3c0 	ttat	r3, r0
 c00027e:	d904      	bls.n	c00028a <cmse_check_address_range+0x56>
 c000280:	469c      	mov	ip, r3
 c000282:	e841 f3c0 	ttat	r3, r1
 c000286:	459c      	cmp	ip, r3
 c000288:	d1f2      	bne.n	c000270 <cmse_check_address_range+0x3c>
 c00028a:	f022 0214 	bic.w	r2, r2, #20
 c00028e:	3a01      	subs	r2, #1
 c000290:	2a0a      	cmp	r2, #10
 c000292:	d8ed      	bhi.n	c000270 <cmse_check_address_range+0x3c>
 c000294:	a101      	add	r1, pc, #4	; (adr r1, c00029c <cmse_check_address_range+0x68>)
 c000296:	f851 f022 	ldr.w	pc, [r1, r2, lsl #2]
 c00029a:	bf00      	nop
 c00029c:	0c0002cf 	.word	0x0c0002cf
 c0002a0:	0c000311 	.word	0x0c000311
 c0002a4:	0c0002c9 	.word	0x0c0002c9
 c0002a8:	0c000271 	.word	0x0c000271
 c0002ac:	0c000271 	.word	0x0c000271
 c0002b0:	0c000271 	.word	0x0c000271
 c0002b4:	0c000271 	.word	0x0c000271
 c0002b8:	0c00030b 	.word	0x0c00030b
 c0002bc:	0c0002cf 	.word	0x0c0002cf
 c0002c0:	0c00026d 	.word	0x0c00026d
 c0002c4:	0c0002c9 	.word	0x0c0002c9
 c0002c8:	029a      	lsls	r2, r3, #10
 c0002ca:	d4d2      	bmi.n	c000272 <cmse_check_address_range+0x3e>
 c0002cc:	e7d0      	b.n	c000270 <cmse_check_address_range+0x3c>
 c0002ce:	031a      	lsls	r2, r3, #12
 c0002d0:	d4cf      	bmi.n	c000272 <cmse_check_address_range+0x3e>
 c0002d2:	e7cd      	b.n	c000270 <cmse_check_address_range+0x3c>
 c0002d4:	f1bc 0f1f 	cmp.w	ip, #31
 c0002d8:	e840 f300 	tt	r3, r0
 c0002dc:	d9d5      	bls.n	c00028a <cmse_check_address_range+0x56>
 c0002de:	469c      	mov	ip, r3
 c0002e0:	e841 f300 	tt	r3, r1
 c0002e4:	e7cf      	b.n	c000286 <cmse_check_address_range+0x52>
 c0002e6:	f1bc 0f1f 	cmp.w	ip, #31
 c0002ea:	e840 f340 	ttt	r3, r0
 c0002ee:	d9cc      	bls.n	c00028a <cmse_check_address_range+0x56>
 c0002f0:	469c      	mov	ip, r3
 c0002f2:	e841 f340 	ttt	r3, r1
 c0002f6:	e7c6      	b.n	c000286 <cmse_check_address_range+0x52>
 c0002f8:	f1bc 0f1f 	cmp.w	ip, #31
 c0002fc:	e840 f380 	tta	r3, r0
 c000300:	d9c3      	bls.n	c00028a <cmse_check_address_range+0x56>
 c000302:	469c      	mov	ip, r3
 c000304:	e841 f380 	tta	r3, r1
 c000308:	e7bd      	b.n	c000286 <cmse_check_address_range+0x52>
 c00030a:	035b      	lsls	r3, r3, #13
 c00030c:	d5b0      	bpl.n	c000270 <cmse_check_address_range+0x3c>
 c00030e:	e7b0      	b.n	c000272 <cmse_check_address_range+0x3e>
 c000310:	0259      	lsls	r1, r3, #9
 c000312:	d5ae      	bpl.n	c000272 <cmse_check_address_range+0x3e>
 c000314:	e7ac      	b.n	c000270 <cmse_check_address_range+0x3c>
 c000316:	2000      	movs	r0, #0
 c000318:	4770      	bx	lr
 c00031a:	bf00      	nop

0c00031c <__gnu_cmse_nonsecure_call>:
 c00031c:	e92d 4fe0 	stmdb	sp!, {r5, r6, r7, r8, r9, sl, fp, lr}
 c000320:	4627      	mov	r7, r4
 c000322:	46a0      	mov	r8, r4
 c000324:	46a1      	mov	r9, r4
 c000326:	46a2      	mov	sl, r4
 c000328:	46a3      	mov	fp, r4
 c00032a:	46a4      	mov	ip, r4
 c00032c:	ed2d 8b10 	vpush	{d8-d15}
 c000330:	f04f 0500 	mov.w	r5, #0
 c000334:	ec45 5b18 	vmov	d8, r5, r5
 c000338:	ec45 5a19 	vmov	s18, s19, r5, r5
 c00033c:	ec45 5a1a 	vmov	s20, s21, r5, r5
 c000340:	ec45 5a1b 	vmov	s22, s23, r5, r5
 c000344:	ec45 5a1c 	vmov	s24, s25, r5, r5
 c000348:	ec45 5a1d 	vmov	s26, s27, r5, r5
 c00034c:	ec45 5a1e 	vmov	s28, s29, r5, r5
 c000350:	ec45 5a1f 	vmov	s30, s31, r5, r5
 c000354:	eef1 5a10 	vmrs	r5, fpscr
 c000358:	f64f 7660 	movw	r6, #65376	; 0xff60
 c00035c:	f6c0 76ff 	movt	r6, #4095	; 0xfff
 c000360:	4035      	ands	r5, r6
 c000362:	eee1 5a10 	vmsr	fpscr, r5
 c000366:	f384 8800 	msr	CPSR_f, r4
 c00036a:	4625      	mov	r5, r4
 c00036c:	4626      	mov	r6, r4
 c00036e:	47a4      	blxns	r4
 c000370:	ecbd 8b10 	vpop	{d8-d15}
 c000374:	e8bd 8fe0 	ldmia.w	sp!, {r5, r6, r7, r8, r9, sl, fp, pc}

0c000378 <__aeabi_uldivmod>:
 c000378:	b953      	cbnz	r3, c000390 <__aeabi_uldivmod+0x18>
 c00037a:	b94a      	cbnz	r2, c000390 <__aeabi_uldivmod+0x18>
 c00037c:	2900      	cmp	r1, #0
 c00037e:	bf08      	it	eq
 c000380:	2800      	cmpeq	r0, #0
 c000382:	bf1c      	itt	ne
 c000384:	f04f 31ff 	movne.w	r1, #4294967295
 c000388:	f04f 30ff 	movne.w	r0, #4294967295
 c00038c:	f000 b982 	b.w	c000694 <__aeabi_idiv0>
 c000390:	f1ad 0c08 	sub.w	ip, sp, #8
 c000394:	e96d ce04 	strd	ip, lr, [sp, #-16]!
 c000398:	f000 f806 	bl	c0003a8 <__udivmoddi4>
 c00039c:	f8dd e004 	ldr.w	lr, [sp, #4]
 c0003a0:	e9dd 2302 	ldrd	r2, r3, [sp, #8]
 c0003a4:	b004      	add	sp, #16
 c0003a6:	4770      	bx	lr

0c0003a8 <__udivmoddi4>:
 c0003a8:	e92d 4ff0 	stmdb	sp!, {r4, r5, r6, r7, r8, r9, sl, fp, lr}
 c0003ac:	9d09      	ldr	r5, [sp, #36]	; 0x24
 c0003ae:	4604      	mov	r4, r0
 c0003b0:	460f      	mov	r7, r1
 c0003b2:	2b00      	cmp	r3, #0
 c0003b4:	d148      	bne.n	c000448 <__udivmoddi4+0xa0>
 c0003b6:	428a      	cmp	r2, r1
 c0003b8:	4694      	mov	ip, r2
 c0003ba:	d961      	bls.n	c000480 <__udivmoddi4+0xd8>
 c0003bc:	fab2 f382 	clz	r3, r2
 c0003c0:	b143      	cbz	r3, c0003d4 <__udivmoddi4+0x2c>
 c0003c2:	f1c3 0120 	rsb	r1, r3, #32
 c0003c6:	409f      	lsls	r7, r3
 c0003c8:	fa02 fc03 	lsl.w	ip, r2, r3
 c0003cc:	409c      	lsls	r4, r3
 c0003ce:	fa20 f101 	lsr.w	r1, r0, r1
 c0003d2:	430f      	orrs	r7, r1
 c0003d4:	ea4f 411c 	mov.w	r1, ip, lsr #16
 c0003d8:	fa1f fe8c 	uxth.w	lr, ip
 c0003dc:	0c22      	lsrs	r2, r4, #16
 c0003de:	fbb7 f6f1 	udiv	r6, r7, r1
 c0003e2:	fb01 7716 	mls	r7, r1, r6, r7
 c0003e6:	fb06 f00e 	mul.w	r0, r6, lr
 c0003ea:	ea42 4207 	orr.w	r2, r2, r7, lsl #16
 c0003ee:	4290      	cmp	r0, r2
 c0003f0:	d908      	bls.n	c000404 <__udivmoddi4+0x5c>
 c0003f2:	eb1c 0202 	adds.w	r2, ip, r2
 c0003f6:	f106 37ff 	add.w	r7, r6, #4294967295
 c0003fa:	d202      	bcs.n	c000402 <__udivmoddi4+0x5a>
 c0003fc:	4290      	cmp	r0, r2
 c0003fe:	f200 8137 	bhi.w	c000670 <__udivmoddi4+0x2c8>
 c000402:	463e      	mov	r6, r7
 c000404:	1a12      	subs	r2, r2, r0
 c000406:	b2a4      	uxth	r4, r4
 c000408:	fbb2 f0f1 	udiv	r0, r2, r1
 c00040c:	fb01 2210 	mls	r2, r1, r0, r2
 c000410:	fb00 fe0e 	mul.w	lr, r0, lr
 c000414:	ea44 4402 	orr.w	r4, r4, r2, lsl #16
 c000418:	45a6      	cmp	lr, r4
 c00041a:	d908      	bls.n	c00042e <__udivmoddi4+0x86>
 c00041c:	eb1c 0404 	adds.w	r4, ip, r4
 c000420:	f100 32ff 	add.w	r2, r0, #4294967295
 c000424:	d202      	bcs.n	c00042c <__udivmoddi4+0x84>
 c000426:	45a6      	cmp	lr, r4
 c000428:	f200 811c 	bhi.w	c000664 <__udivmoddi4+0x2bc>
 c00042c:	4610      	mov	r0, r2
 c00042e:	ea40 4006 	orr.w	r0, r0, r6, lsl #16
 c000432:	eba4 040e 	sub.w	r4, r4, lr
 c000436:	2600      	movs	r6, #0
 c000438:	b11d      	cbz	r5, c000442 <__udivmoddi4+0x9a>
 c00043a:	40dc      	lsrs	r4, r3
 c00043c:	2300      	movs	r3, #0
 c00043e:	e9c5 4300 	strd	r4, r3, [r5]
 c000442:	4631      	mov	r1, r6
 c000444:	e8bd 8ff0 	ldmia.w	sp!, {r4, r5, r6, r7, r8, r9, sl, fp, pc}
 c000448:	428b      	cmp	r3, r1
 c00044a:	d909      	bls.n	c000460 <__udivmoddi4+0xb8>
 c00044c:	2d00      	cmp	r5, #0
 c00044e:	f000 80fd 	beq.w	c00064c <__udivmoddi4+0x2a4>
 c000452:	2600      	movs	r6, #0
 c000454:	e9c5 0100 	strd	r0, r1, [r5]
 c000458:	4630      	mov	r0, r6
 c00045a:	4631      	mov	r1, r6
 c00045c:	e8bd 8ff0 	ldmia.w	sp!, {r4, r5, r6, r7, r8, r9, sl, fp, pc}
 c000460:	fab3 f683 	clz	r6, r3
 c000464:	2e00      	cmp	r6, #0
 c000466:	d14b      	bne.n	c000500 <__udivmoddi4+0x158>
 c000468:	428b      	cmp	r3, r1
 c00046a:	f0c0 80f2 	bcc.w	c000652 <__udivmoddi4+0x2aa>
 c00046e:	4282      	cmp	r2, r0
 c000470:	f240 80ef 	bls.w	c000652 <__udivmoddi4+0x2aa>
 c000474:	4630      	mov	r0, r6
 c000476:	2d00      	cmp	r5, #0
 c000478:	d0e3      	beq.n	c000442 <__udivmoddi4+0x9a>
 c00047a:	e9c5 4700 	strd	r4, r7, [r5]
 c00047e:	e7e0      	b.n	c000442 <__udivmoddi4+0x9a>
 c000480:	b902      	cbnz	r2, c000484 <__udivmoddi4+0xdc>
 c000482:	deff      	udf	#255	; 0xff
 c000484:	fab2 f382 	clz	r3, r2
 c000488:	2b00      	cmp	r3, #0
 c00048a:	f040 809d 	bne.w	c0005c8 <__udivmoddi4+0x220>
 c00048e:	1a89      	subs	r1, r1, r2
 c000490:	ea4f 4e12 	mov.w	lr, r2, lsr #16
 c000494:	b297      	uxth	r7, r2
 c000496:	2601      	movs	r6, #1
 c000498:	0c20      	lsrs	r0, r4, #16
 c00049a:	fbb1 f2fe 	udiv	r2, r1, lr
 c00049e:	fb0e 1112 	mls	r1, lr, r2, r1
 c0004a2:	ea40 4101 	orr.w	r1, r0, r1, lsl #16
 c0004a6:	fb07 f002 	mul.w	r0, r7, r2
 c0004aa:	4288      	cmp	r0, r1
 c0004ac:	d90f      	bls.n	c0004ce <__udivmoddi4+0x126>
 c0004ae:	eb1c 0101 	adds.w	r1, ip, r1
 c0004b2:	f102 38ff 	add.w	r8, r2, #4294967295
 c0004b6:	bf2c      	ite	cs
 c0004b8:	f04f 0901 	movcs.w	r9, #1
 c0004bc:	f04f 0900 	movcc.w	r9, #0
 c0004c0:	4288      	cmp	r0, r1
 c0004c2:	d903      	bls.n	c0004cc <__udivmoddi4+0x124>
 c0004c4:	f1b9 0f00 	cmp.w	r9, #0
 c0004c8:	f000 80cf 	beq.w	c00066a <__udivmoddi4+0x2c2>
 c0004cc:	4642      	mov	r2, r8
 c0004ce:	1a09      	subs	r1, r1, r0
 c0004d0:	b2a4      	uxth	r4, r4
 c0004d2:	fbb1 f0fe 	udiv	r0, r1, lr
 c0004d6:	fb0e 1110 	mls	r1, lr, r0, r1
 c0004da:	fb00 f707 	mul.w	r7, r0, r7
 c0004de:	ea44 4401 	orr.w	r4, r4, r1, lsl #16
 c0004e2:	42a7      	cmp	r7, r4
 c0004e4:	d908      	bls.n	c0004f8 <__udivmoddi4+0x150>
 c0004e6:	eb1c 0404 	adds.w	r4, ip, r4
 c0004ea:	f100 31ff 	add.w	r1, r0, #4294967295
 c0004ee:	d202      	bcs.n	c0004f6 <__udivmoddi4+0x14e>
 c0004f0:	42a7      	cmp	r7, r4
 c0004f2:	f200 80b4 	bhi.w	c00065e <__udivmoddi4+0x2b6>
 c0004f6:	4608      	mov	r0, r1
 c0004f8:	1be4      	subs	r4, r4, r7
 c0004fa:	ea40 4002 	orr.w	r0, r0, r2, lsl #16
 c0004fe:	e79b      	b.n	c000438 <__udivmoddi4+0x90>
 c000500:	f1c6 0720 	rsb	r7, r6, #32
 c000504:	40b3      	lsls	r3, r6
 c000506:	fa01 f406 	lsl.w	r4, r1, r6
 c00050a:	fa22 fc07 	lsr.w	ip, r2, r7
 c00050e:	40f9      	lsrs	r1, r7
 c000510:	40b2      	lsls	r2, r6
 c000512:	ea4c 0c03 	orr.w	ip, ip, r3
 c000516:	fa20 f307 	lsr.w	r3, r0, r7
 c00051a:	ea4f 491c 	mov.w	r9, ip, lsr #16
 c00051e:	431c      	orrs	r4, r3
 c000520:	fa1f fe8c 	uxth.w	lr, ip
 c000524:	fa00 f306 	lsl.w	r3, r0, r6
 c000528:	0c20      	lsrs	r0, r4, #16
 c00052a:	fbb1 f8f9 	udiv	r8, r1, r9
 c00052e:	fb09 1118 	mls	r1, r9, r8, r1
 c000532:	ea40 4101 	orr.w	r1, r0, r1, lsl #16
 c000536:	fb08 f00e 	mul.w	r0, r8, lr
 c00053a:	4288      	cmp	r0, r1
 c00053c:	d90f      	bls.n	c00055e <__udivmoddi4+0x1b6>
 c00053e:	eb1c 0101 	adds.w	r1, ip, r1
 c000542:	f108 3aff 	add.w	sl, r8, #4294967295
 c000546:	bf2c      	ite	cs
 c000548:	f04f 0b01 	movcs.w	fp, #1
 c00054c:	f04f 0b00 	movcc.w	fp, #0
 c000550:	4288      	cmp	r0, r1
 c000552:	d903      	bls.n	c00055c <__udivmoddi4+0x1b4>
 c000554:	f1bb 0f00 	cmp.w	fp, #0
 c000558:	f000 808d 	beq.w	c000676 <__udivmoddi4+0x2ce>
 c00055c:	46d0      	mov	r8, sl
 c00055e:	1a09      	subs	r1, r1, r0
 c000560:	b2a4      	uxth	r4, r4
 c000562:	fbb1 f0f9 	udiv	r0, r1, r9
 c000566:	fb09 1110 	mls	r1, r9, r0, r1
 c00056a:	fb00 fe0e 	mul.w	lr, r0, lr
 c00056e:	ea44 4101 	orr.w	r1, r4, r1, lsl #16
 c000572:	458e      	cmp	lr, r1
 c000574:	d907      	bls.n	c000586 <__udivmoddi4+0x1de>
 c000576:	eb1c 0101 	adds.w	r1, ip, r1
 c00057a:	f100 34ff 	add.w	r4, r0, #4294967295
 c00057e:	d201      	bcs.n	c000584 <__udivmoddi4+0x1dc>
 c000580:	458e      	cmp	lr, r1
 c000582:	d87f      	bhi.n	c000684 <__udivmoddi4+0x2dc>
 c000584:	4620      	mov	r0, r4
 c000586:	ea40 4008 	orr.w	r0, r0, r8, lsl #16
 c00058a:	eba1 010e 	sub.w	r1, r1, lr
 c00058e:	fba0 9802 	umull	r9, r8, r0, r2
 c000592:	4541      	cmp	r1, r8
 c000594:	464c      	mov	r4, r9
 c000596:	46c6      	mov	lr, r8
 c000598:	d302      	bcc.n	c0005a0 <__udivmoddi4+0x1f8>
 c00059a:	d106      	bne.n	c0005aa <__udivmoddi4+0x202>
 c00059c:	454b      	cmp	r3, r9
 c00059e:	d204      	bcs.n	c0005aa <__udivmoddi4+0x202>
 c0005a0:	3801      	subs	r0, #1
 c0005a2:	ebb9 0402 	subs.w	r4, r9, r2
 c0005a6:	eb68 0e0c 	sbc.w	lr, r8, ip
 c0005aa:	2d00      	cmp	r5, #0
 c0005ac:	d070      	beq.n	c000690 <__udivmoddi4+0x2e8>
 c0005ae:	1b1a      	subs	r2, r3, r4
 c0005b0:	eb61 010e 	sbc.w	r1, r1, lr
 c0005b4:	fa22 f306 	lsr.w	r3, r2, r6
 c0005b8:	fa01 f707 	lsl.w	r7, r1, r7
 c0005bc:	40f1      	lsrs	r1, r6
 c0005be:	2600      	movs	r6, #0
 c0005c0:	431f      	orrs	r7, r3
 c0005c2:	e9c5 7100 	strd	r7, r1, [r5]
 c0005c6:	e73c      	b.n	c000442 <__udivmoddi4+0x9a>
 c0005c8:	fa02 fc03 	lsl.w	ip, r2, r3
 c0005cc:	f1c3 0020 	rsb	r0, r3, #32
 c0005d0:	fa01 f203 	lsl.w	r2, r1, r3
 c0005d4:	fa21 f600 	lsr.w	r6, r1, r0
 c0005d8:	ea4f 4e1c 	mov.w	lr, ip, lsr #16
 c0005dc:	fa24 f100 	lsr.w	r1, r4, r0
 c0005e0:	fa1f f78c 	uxth.w	r7, ip
 c0005e4:	409c      	lsls	r4, r3
 c0005e6:	4311      	orrs	r1, r2
 c0005e8:	fbb6 f0fe 	udiv	r0, r6, lr
 c0005ec:	0c0a      	lsrs	r2, r1, #16
 c0005ee:	fb0e 6610 	mls	r6, lr, r0, r6
 c0005f2:	ea42 4206 	orr.w	r2, r2, r6, lsl #16
 c0005f6:	fb00 f607 	mul.w	r6, r0, r7
 c0005fa:	4296      	cmp	r6, r2
 c0005fc:	d90e      	bls.n	c00061c <__udivmoddi4+0x274>
 c0005fe:	eb1c 0202 	adds.w	r2, ip, r2
 c000602:	f100 38ff 	add.w	r8, r0, #4294967295
 c000606:	bf2c      	ite	cs
 c000608:	f04f 0901 	movcs.w	r9, #1
 c00060c:	f04f 0900 	movcc.w	r9, #0
 c000610:	4296      	cmp	r6, r2
 c000612:	d902      	bls.n	c00061a <__udivmoddi4+0x272>
 c000614:	f1b9 0f00 	cmp.w	r9, #0
 c000618:	d031      	beq.n	c00067e <__udivmoddi4+0x2d6>
 c00061a:	4640      	mov	r0, r8
 c00061c:	1b92      	subs	r2, r2, r6
 c00061e:	b289      	uxth	r1, r1
 c000620:	fbb2 f6fe 	udiv	r6, r2, lr
 c000624:	fb0e 2216 	mls	r2, lr, r6, r2
 c000628:	ea41 4102 	orr.w	r1, r1, r2, lsl #16
 c00062c:	fb06 f207 	mul.w	r2, r6, r7
 c000630:	428a      	cmp	r2, r1
 c000632:	d907      	bls.n	c000644 <__udivmoddi4+0x29c>
 c000634:	eb1c 0101 	adds.w	r1, ip, r1
 c000638:	f106 38ff 	add.w	r8, r6, #4294967295
 c00063c:	d201      	bcs.n	c000642 <__udivmoddi4+0x29a>
 c00063e:	428a      	cmp	r2, r1
 c000640:	d823      	bhi.n	c00068a <__udivmoddi4+0x2e2>
 c000642:	4646      	mov	r6, r8
 c000644:	1a89      	subs	r1, r1, r2
 c000646:	ea46 4600 	orr.w	r6, r6, r0, lsl #16
 c00064a:	e725      	b.n	c000498 <__udivmoddi4+0xf0>
 c00064c:	462e      	mov	r6, r5
 c00064e:	4628      	mov	r0, r5
 c000650:	e6f7      	b.n	c000442 <__udivmoddi4+0x9a>
 c000652:	1a84      	subs	r4, r0, r2
 c000654:	eb61 0303 	sbc.w	r3, r1, r3
 c000658:	2001      	movs	r0, #1
 c00065a:	461f      	mov	r7, r3
 c00065c:	e70b      	b.n	c000476 <__udivmoddi4+0xce>
 c00065e:	4464      	add	r4, ip
 c000660:	3802      	subs	r0, #2
 c000662:	e749      	b.n	c0004f8 <__udivmoddi4+0x150>
 c000664:	4464      	add	r4, ip
 c000666:	3802      	subs	r0, #2
 c000668:	e6e1      	b.n	c00042e <__udivmoddi4+0x86>
 c00066a:	3a02      	subs	r2, #2
 c00066c:	4461      	add	r1, ip
 c00066e:	e72e      	b.n	c0004ce <__udivmoddi4+0x126>
 c000670:	3e02      	subs	r6, #2
 c000672:	4462      	add	r2, ip
 c000674:	e6c6      	b.n	c000404 <__udivmoddi4+0x5c>
 c000676:	f1a8 0802 	sub.w	r8, r8, #2
 c00067a:	4461      	add	r1, ip
 c00067c:	e76f      	b.n	c00055e <__udivmoddi4+0x1b6>
 c00067e:	3802      	subs	r0, #2
 c000680:	4462      	add	r2, ip
 c000682:	e7cb      	b.n	c00061c <__udivmoddi4+0x274>
 c000684:	3802      	subs	r0, #2
 c000686:	4461      	add	r1, ip
 c000688:	e77d      	b.n	c000586 <__udivmoddi4+0x1de>
 c00068a:	3e02      	subs	r6, #2
 c00068c:	4461      	add	r1, ip
 c00068e:	e7d9      	b.n	c000644 <__udivmoddi4+0x29c>
 c000690:	462e      	mov	r6, r5
 c000692:	e6d6      	b.n	c000442 <__udivmoddi4+0x9a>

0c000694 <__aeabi_idiv0>:
 c000694:	4770      	bx	lr
 c000696:	bf00      	nop

0c000698 <main>:
/**
  * @brief  The application entry point.
  * @retval int
  */
int main(void)
{
 c000698:	b580      	push	{r7, lr}
 c00069a:	b086      	sub	sp, #24
 c00069c:	af02      	add	r7, sp, #8
  /* USER CODE END 1 */

  /* MCU Configuration--------------------------------------------------------*/

  /* Reset of all peripherals, Initializes the Flash interface and the Systick. */
  HAL_Init();
 c00069e:	f001 fca4 	bl	c001fea <HAL_Init>
  /* USER CODE BEGIN Init */

  /* USER CODE END Init */

  /* Configure the system clock */
  SystemClock_Config();
 c0006a2:	f000 f8e1 	bl	c000868 <SystemClock_Config>
  /* GTZC initialisation */
  MX_GTZC_S_Init();
 c0006a6:	f000 f935 	bl	c000914 <MX_GTZC_S_Init>
  /* USER CODE BEGIN SysInit */

  /* USER CODE END SysInit */

  /* Initialize all configured peripherals */
  MX_GPIO_Init();
 c0006aa:	f000 fb6b 	bl	c000d84 <MX_GPIO_Init>
  MX_DMA_Init();
 c0006ae:	f000 fa87 	bl	c000bc0 <MX_DMA_Init>
  MX_ICACHE_Init();
 c0006b2:	f000 f9e5 	bl	c000a80 <MX_ICACHE_Init>
  MX_SPI3_Init();
 c0006b6:	f000 f9f7 	bl	c000aa8 <MX_SPI3_Init>
  MX_USART1_UART_Init();
 c0006ba:	f000 fa33 	bl	c000b24 <MX_USART1_UART_Init>
//  MX_IWDG_Init();
  MX_HASH_Init();
 c0006be:	f000 f9cd 	bl	c000a5c <MX_HASH_Init>

  /* USER CODE BEGIN 2 */
  HAL_DMA_RegisterCallback(&hdma_memtomem_dma1_channel1, HAL_DMA_XFER_CPLT_CB_ID, NonsecureToSecureTransferComplete);
 c0006c2:	4a36      	ldr	r2, [pc, #216]	; (c00079c <main+0x104>)
 c0006c4:	2100      	movs	r1, #0
 c0006c6:	4836      	ldr	r0, [pc, #216]	; (c0007a0 <main+0x108>)
 c0006c8:	f002 f85e 	bl	c002788 <HAL_DMA_RegisterCallback>
  HAL_DMA_RegisterCallback(&hdma_memtomem_dma1_channel1, HAL_DMA_XFER_ERROR_CB_ID, NonsecureToSecureTransferError);
 c0006cc:	4a35      	ldr	r2, [pc, #212]	; (c0007a4 <main+0x10c>)
 c0006ce:	2104      	movs	r1, #4
 c0006d0:	4833      	ldr	r0, [pc, #204]	; (c0007a0 <main+0x108>)
 c0006d2:	f002 f859 	bl	c002788 <HAL_DMA_RegisterCallback>

  /************* NOT USED *******************/
  /* DMA1 Channel4: Select Callbacks functions called after Transfer complete and Transfer error */ /*NOT USED***********/
  HAL_DMA_RegisterCallback(&hdma_memtomem_dma1_channel4, HAL_DMA_XFER_CPLT_CB_ID, SecureToSecureTransferComplete);
 c0006d6:	4a34      	ldr	r2, [pc, #208]	; (c0007a8 <main+0x110>)
 c0006d8:	2100      	movs	r1, #0
 c0006da:	4834      	ldr	r0, [pc, #208]	; (c0007ac <main+0x114>)
 c0006dc:	f002 f854 	bl	c002788 <HAL_DMA_RegisterCallback>
  HAL_DMA_RegisterCallback(&hdma_memtomem_dma1_channel4, HAL_DMA_XFER_ERROR_CB_ID, SecureToSecureTransferError);
 c0006e0:	4a33      	ldr	r2, [pc, #204]	; (c0007b0 <main+0x118>)
 c0006e2:	2104      	movs	r1, #4
 c0006e4:	4831      	ldr	r0, [pc, #196]	; (c0007ac <main+0x114>)
 c0006e6:	f002 f84f 	bl	c002788 <HAL_DMA_RegisterCallback>


  /******************************* BUILD THE INITIAL MEMORY HASH TABLE *********************************************/
  printf("SECURE START: \n\r");
 c0006ea:	4832      	ldr	r0, [pc, #200]	; (c0007b4 <main+0x11c>)
 c0006ec:	f006 f8c6 	bl	c00687c <iprintf>
  uint32_t* current_address = (uint32_t*) NSEC_MEM_START;
 c0006f0:	4b31      	ldr	r3, [pc, #196]	; (c0007b8 <main+0x120>)
 c0006f2:	60fb      	str	r3, [r7, #12]
  int count = 0;
 c0006f4:	2300      	movs	r3, #0
 c0006f6:	60bb      	str	r3, [r7, #8]
  while((uint32_t) current_address <= NSEC_MEM_END && (NSEC_MEM_END - (uint32_t)current_address) +1 >= BUFFER_SIZE){
 c0006f8:	e040      	b.n	c00077c <main+0xe4>
	  //get the current block
	  if(HAL_DMA_Start_IT(&hdma_memtomem_dma1_channel1, (uint32_t)current_address, (uint32_t)&SEC_Mem_Buffer, BUFFER_SIZE/4) != HAL_OK){
 c0006fa:	68f9      	ldr	r1, [r7, #12]
 c0006fc:	4a2f      	ldr	r2, [pc, #188]	; (c0007bc <main+0x124>)
 c0006fe:	f44f 7380 	mov.w	r3, #256	; 0x100
 c000702:	4827      	ldr	r0, [pc, #156]	; (c0007a0 <main+0x108>)
 c000704:	f001 fec4 	bl	c002490 <HAL_DMA_Start_IT>
 c000708:	4603      	mov	r3, r0
 c00070a:	2b00      	cmp	r3, #0
 c00070c:	d002      	beq.n	c000714 <main+0x7c>
	 	  printf("could not start the secure to secure memory transfer.\n\r");
 c00070e:	482c      	ldr	r0, [pc, #176]	; (c0007c0 <main+0x128>)
 c000710:	f006 f8b4 	bl	c00687c <iprintf>
	   }
	  //wait for completion
	  while ((NonsecureToSecureTransferCompleteDetected == 0) &&
 c000714:	bf00      	nop
 c000716:	4b2b      	ldr	r3, [pc, #172]	; (c0007c4 <main+0x12c>)
 c000718:	681b      	ldr	r3, [r3, #0]
 c00071a:	2b00      	cmp	r3, #0
 c00071c:	d103      	bne.n	c000726 <main+0x8e>
	         (NonsecureToSecureTransferErrorDetected == 0));
 c00071e:	4b2a      	ldr	r3, [pc, #168]	; (c0007c8 <main+0x130>)
 c000720:	681b      	ldr	r3, [r3, #0]
	  while ((NonsecureToSecureTransferCompleteDetected == 0) &&
 c000722:	2b00      	cmp	r3, #0
 c000724:	d0f7      	beq.n	c000716 <main+0x7e>

	  //compute the hash
	  if(HAL_HASH_MD5_Start(&hhash, (uint8_t*)SEC_Mem_Buffer, BUFFER_SIZE, SEC_Mem_Digest, 0xff) != HAL_OK){
 c000726:	23ff      	movs	r3, #255	; 0xff
 c000728:	9300      	str	r3, [sp, #0]
 c00072a:	4b28      	ldr	r3, [pc, #160]	; (c0007cc <main+0x134>)
 c00072c:	f44f 6280 	mov.w	r2, #1024	; 0x400
 c000730:	4922      	ldr	r1, [pc, #136]	; (c0007bc <main+0x124>)
 c000732:	4827      	ldr	r0, [pc, #156]	; (c0007d0 <main+0x138>)
 c000734:	f002 fd24 	bl	c003180 <HAL_HASH_MD5_Start>
 c000738:	4603      	mov	r3, r0
 c00073a:	2b00      	cmp	r3, #0
 c00073c:	d002      	beq.n	c000744 <main+0xac>
		  printf("There's an issue with the hash operation\n\r");
 c00073e:	4825      	ldr	r0, [pc, #148]	; (c0007d4 <main+0x13c>)
 c000740:	f006 f89c 	bl	c00687c <iprintf>
	  }

	  //store the hash in the memory hashes buffer
	  for(int i = 0; i < 16; i++){
 c000744:	2300      	movs	r3, #0
 c000746:	607b      	str	r3, [r7, #4]
 c000748:	e00e      	b.n	c000768 <main+0xd0>
		  SEC_Mem_Hashes[count][i] = SEC_Mem_Digest[i];
 c00074a:	4a20      	ldr	r2, [pc, #128]	; (c0007cc <main+0x134>)
 c00074c:	687b      	ldr	r3, [r7, #4]
 c00074e:	4413      	add	r3, r2
 c000750:	7819      	ldrb	r1, [r3, #0]
 c000752:	4a21      	ldr	r2, [pc, #132]	; (c0007d8 <main+0x140>)
 c000754:	68bb      	ldr	r3, [r7, #8]
 c000756:	011b      	lsls	r3, r3, #4
 c000758:	441a      	add	r2, r3
 c00075a:	687b      	ldr	r3, [r7, #4]
 c00075c:	4413      	add	r3, r2
 c00075e:	460a      	mov	r2, r1
 c000760:	701a      	strb	r2, [r3, #0]
	  for(int i = 0; i < 16; i++){
 c000762:	687b      	ldr	r3, [r7, #4]
 c000764:	3301      	adds	r3, #1
 c000766:	607b      	str	r3, [r7, #4]
 c000768:	687b      	ldr	r3, [r7, #4]
 c00076a:	2b0f      	cmp	r3, #15
 c00076c:	dded      	ble.n	c00074a <main+0xb2>
	  }

	  //increment variables
	  count++;
 c00076e:	68bb      	ldr	r3, [r7, #8]
 c000770:	3301      	adds	r3, #1
 c000772:	60bb      	str	r3, [r7, #8]
	  current_address += BUFFER_SIZE/4;
 c000774:	68fb      	ldr	r3, [r7, #12]
 c000776:	f503 6380 	add.w	r3, r3, #1024	; 0x400
 c00077a:	60fb      	str	r3, [r7, #12]
  while((uint32_t) current_address <= NSEC_MEM_END && (NSEC_MEM_END - (uint32_t)current_address) +1 >= BUFFER_SIZE){
 c00077c:	68fb      	ldr	r3, [r7, #12]
 c00077e:	4a17      	ldr	r2, [pc, #92]	; (c0007dc <main+0x144>)
 c000780:	4293      	cmp	r3, r2
 c000782:	d807      	bhi.n	c000794 <main+0xfc>
 c000784:	68fb      	ldr	r3, [r7, #12]
 c000786:	f1c3 6300 	rsb	r3, r3, #134217728	; 0x8000000
 c00078a:	f503 2300 	add.w	r3, r3, #524288	; 0x80000
 c00078e:	f5b3 6f80 	cmp.w	r3, #1024	; 0x400
 c000792:	d2b2      	bcs.n	c0006fa <main+0x62>

  /* USER CODE END 2 */

  /*************** Setup and jump to non-secure *******************************/

  NonSecure_Init();
 c000794:	f000 f824 	bl	c0007e0 <NonSecure_Init>

  /* Non-secure software does not return, this code is not executed */
  /* Infinite loop */
  /* USER CODE BEGIN WHILE */
  while (1)
 c000798:	e7fe      	b.n	c000798 <main+0x100>
 c00079a:	bf00      	nop
 c00079c:	0c000eb5 	.word	0x0c000eb5
 c0007a0:	30000358 	.word	0x30000358
 c0007a4:	0c000ed5 	.word	0x0c000ed5
 c0007a8:	0c000ef5 	.word	0x0c000ef5
 c0007ac:	300003c0 	.word	0x300003c0
 c0007b0:	0c000f15 	.word	0x0c000f15
 c0007b4:	0c007bac 	.word	0x0c007bac
 c0007b8:	08040000 	.word	0x08040000
 c0007bc:	3000043c 	.word	0x3000043c
 c0007c0:	0c007bc0 	.word	0x0c007bc0
 c0007c4:	3000042c 	.word	0x3000042c
 c0007c8:	30000430 	.word	0x30000430
 c0007cc:	3000083c 	.word	0x3000083c
 c0007d0:	3000014c 	.word	0x3000014c
 c0007d4:	0c007bf8 	.word	0x0c007bf8
 c0007d8:	3000084c 	.word	0x3000084c
 c0007dc:	0807ffff 	.word	0x0807ffff

0c0007e0 <NonSecure_Init>:
  *         This function is responsible for Non-secure initialization and switch
  *         to non-secure state
  * @retval None
  */
static void NonSecure_Init(void)
{
 c0007e0:	b590      	push	{r4, r7, lr}
 c0007e2:	b083      	sub	sp, #12
 c0007e4:	af00      	add	r7, sp, #0
  funcptr_NS NonSecure_ResetHandler;

  SCB_NS->VTOR = VTOR_TABLE_NS_START_ADDR;
 c0007e6:	4b1d      	ldr	r3, [pc, #116]	; (c00085c <NonSecure_Init+0x7c>)
 c0007e8:	4a1d      	ldr	r2, [pc, #116]	; (c000860 <NonSecure_Init+0x80>)
 c0007ea:	609a      	str	r2, [r3, #8]

  /* Set non-secure main stack (MSP_NS) */
  __TZ_set_MSP_NS((*(uint32_t *)VTOR_TABLE_NS_START_ADDR));
 c0007ec:	4b1c      	ldr	r3, [pc, #112]	; (c000860 <NonSecure_Init+0x80>)
 c0007ee:	681b      	ldr	r3, [r3, #0]
 c0007f0:	603b      	str	r3, [r7, #0]
  \details Assigns the given value to the non-secure Main Stack Pointer (MSP) when in secure state.
  \param [in]    topOfMainStack  Main Stack Pointer value to set
 */
__STATIC_FORCEINLINE void __TZ_set_MSP_NS(uint32_t topOfMainStack)
{
  __ASM volatile ("MSR msp_ns, %0" : : "r" (topOfMainStack) : );
 c0007f2:	683b      	ldr	r3, [r7, #0]
 c0007f4:	f383 8888 	msr	MSP_NS, r3
}
 c0007f8:	bf00      	nop

  /* Get non-secure reset handler */
  NonSecure_ResetHandler = (funcptr_NS)(*((uint32_t *)((VTOR_TABLE_NS_START_ADDR) + 4U)));
 c0007fa:	4b1a      	ldr	r3, [pc, #104]	; (c000864 <NonSecure_Init+0x84>)
 c0007fc:	681b      	ldr	r3, [r3, #0]
 c0007fe:	607b      	str	r3, [r7, #4]

  /* Start non-secure state software application */
  NonSecure_ResetHandler();
 c000800:	687b      	ldr	r3, [r7, #4]
 c000802:	461c      	mov	r4, r3
 c000804:	0864      	lsrs	r4, r4, #1
 c000806:	0064      	lsls	r4, r4, #1
 c000808:	4620      	mov	r0, r4
 c00080a:	4621      	mov	r1, r4
 c00080c:	4622      	mov	r2, r4
 c00080e:	4623      	mov	r3, r4
 c000810:	eeb7 0a00 	vmov.f32	s0, #112	; 0x3f800000  1.0
 c000814:	eef7 0a00 	vmov.f32	s1, #112	; 0x3f800000  1.0
 c000818:	eeb7 1a00 	vmov.f32	s2, #112	; 0x3f800000  1.0
 c00081c:	eef7 1a00 	vmov.f32	s3, #112	; 0x3f800000  1.0
 c000820:	eeb7 2a00 	vmov.f32	s4, #112	; 0x3f800000  1.0
 c000824:	eef7 2a00 	vmov.f32	s5, #112	; 0x3f800000  1.0
 c000828:	eeb7 3a00 	vmov.f32	s6, #112	; 0x3f800000  1.0
 c00082c:	eef7 3a00 	vmov.f32	s7, #112	; 0x3f800000  1.0
 c000830:	eeb7 4a00 	vmov.f32	s8, #112	; 0x3f800000  1.0
 c000834:	eef7 4a00 	vmov.f32	s9, #112	; 0x3f800000  1.0
 c000838:	eeb7 5a00 	vmov.f32	s10, #112	; 0x3f800000  1.0
 c00083c:	eef7 5a00 	vmov.f32	s11, #112	; 0x3f800000  1.0
 c000840:	eeb7 6a00 	vmov.f32	s12, #112	; 0x3f800000  1.0
 c000844:	eef7 6a00 	vmov.f32	s13, #112	; 0x3f800000  1.0
 c000848:	eeb7 7a00 	vmov.f32	s14, #112	; 0x3f800000  1.0
 c00084c:	eef7 7a00 	vmov.f32	s15, #112	; 0x3f800000  1.0
 c000850:	f7ff fd64 	bl	c00031c <__gnu_cmse_nonsecure_call>
}
 c000854:	bf00      	nop
 c000856:	370c      	adds	r7, #12
 c000858:	46bd      	mov	sp, r7
 c00085a:	bd90      	pop	{r4, r7, pc}
 c00085c:	e002ed00 	.word	0xe002ed00
 c000860:	08040000 	.word	0x08040000
 c000864:	08040004 	.word	0x08040004

0c000868 <SystemClock_Config>:
/**
  * @brief System Clock Configuration
  * @retval None
  */
void SystemClock_Config(void)
{
 c000868:	b580      	push	{r7, lr}
 c00086a:	b098      	sub	sp, #96	; 0x60
 c00086c:	af00      	add	r7, sp, #0
  RCC_OscInitTypeDef RCC_OscInitStruct = {0};
 c00086e:	f107 0318 	add.w	r3, r7, #24
 c000872:	2248      	movs	r2, #72	; 0x48
 c000874:	2100      	movs	r1, #0
 c000876:	4618      	mov	r0, r3
 c000878:	f005 fff8 	bl	c00686c <memset>
  RCC_ClkInitTypeDef RCC_ClkInitStruct = {0};
 c00087c:	1d3b      	adds	r3, r7, #4
 c00087e:	2200      	movs	r2, #0
 c000880:	601a      	str	r2, [r3, #0]
 c000882:	605a      	str	r2, [r3, #4]
 c000884:	609a      	str	r2, [r3, #8]
 c000886:	60da      	str	r2, [r3, #12]
 c000888:	611a      	str	r2, [r3, #16]

  /** Configure the main internal regulator output voltage
  */
  if (HAL_PWREx_ControlVoltageScaling(PWR_REGULATOR_VOLTAGE_SCALE0) != HAL_OK)
 c00088a:	2000      	movs	r0, #0
 c00088c:	f002 ffca 	bl	c003824 <HAL_PWREx_ControlVoltageScaling>
 c000890:	4603      	mov	r3, r0
 c000892:	2b00      	cmp	r3, #0
 c000894:	d001      	beq.n	c00089a <SystemClock_Config+0x32>
  {
    Error_Handler();
 c000896:	f000 fb4d 	bl	c000f34 <Error_Handler>
  }

  /** Initializes the RCC Oscillators according to the specified parameters
  * in the RCC_OscInitTypeDef structure.
  */
  RCC_OscInitStruct.OscillatorType = RCC_OSCILLATORTYPE_LSI|RCC_OSCILLATORTYPE_MSI;
 c00089a:	2318      	movs	r3, #24
 c00089c:	61bb      	str	r3, [r7, #24]
  RCC_OscInitStruct.LSIDiv = RCC_LSI_DIV1;
 c00089e:	2300      	movs	r3, #0
 c0008a0:	633b      	str	r3, [r7, #48]	; 0x30
  RCC_OscInitStruct.LSIState = RCC_LSI_ON;
 c0008a2:	2301      	movs	r3, #1
 c0008a4:	62fb      	str	r3, [r7, #44]	; 0x2c
  RCC_OscInitStruct.MSIState = RCC_MSI_ON;
 c0008a6:	2301      	movs	r3, #1
 c0008a8:	637b      	str	r3, [r7, #52]	; 0x34
  RCC_OscInitStruct.MSICalibrationValue = RCC_MSICALIBRATION_DEFAULT;
 c0008aa:	2300      	movs	r3, #0
 c0008ac:	63bb      	str	r3, [r7, #56]	; 0x38
  RCC_OscInitStruct.MSIClockRange = RCC_MSIRANGE_11;
 c0008ae:	23b0      	movs	r3, #176	; 0xb0
 c0008b0:	63fb      	str	r3, [r7, #60]	; 0x3c
  RCC_OscInitStruct.PLL.PLLState = RCC_PLL_ON;
 c0008b2:	2302      	movs	r3, #2
 c0008b4:	647b      	str	r3, [r7, #68]	; 0x44
  RCC_OscInitStruct.PLL.PLLSource = RCC_PLLSOURCE_MSI;
 c0008b6:	2301      	movs	r3, #1
 c0008b8:	64bb      	str	r3, [r7, #72]	; 0x48
  RCC_OscInitStruct.PLL.PLLM = 12;
 c0008ba:	230c      	movs	r3, #12
 c0008bc:	64fb      	str	r3, [r7, #76]	; 0x4c
  RCC_OscInitStruct.PLL.PLLN = 55;
 c0008be:	2337      	movs	r3, #55	; 0x37
 c0008c0:	653b      	str	r3, [r7, #80]	; 0x50
  RCC_OscInitStruct.PLL.PLLP = RCC_PLLP_DIV7;
 c0008c2:	2307      	movs	r3, #7
 c0008c4:	657b      	str	r3, [r7, #84]	; 0x54
  RCC_OscInitStruct.PLL.PLLQ = RCC_PLLQ_DIV2;
 c0008c6:	2302      	movs	r3, #2
 c0008c8:	65bb      	str	r3, [r7, #88]	; 0x58
  RCC_OscInitStruct.PLL.PLLR = RCC_PLLR_DIV2;
 c0008ca:	2302      	movs	r3, #2
 c0008cc:	65fb      	str	r3, [r7, #92]	; 0x5c
  if (HAL_RCC_OscConfig(&RCC_OscInitStruct) != HAL_OK)
 c0008ce:	f107 0318 	add.w	r3, r7, #24
 c0008d2:	4618      	mov	r0, r3
 c0008d4:	f003 f846 	bl	c003964 <HAL_RCC_OscConfig>
 c0008d8:	4603      	mov	r3, r0
 c0008da:	2b00      	cmp	r3, #0
 c0008dc:	d001      	beq.n	c0008e2 <SystemClock_Config+0x7a>
  {
    Error_Handler();
 c0008de:	f000 fb29 	bl	c000f34 <Error_Handler>
  }

  /** Initializes the CPU, AHB and APB buses clocks
  */
  RCC_ClkInitStruct.ClockType = RCC_CLOCKTYPE_HCLK|RCC_CLOCKTYPE_SYSCLK
 c0008e2:	230f      	movs	r3, #15
 c0008e4:	607b      	str	r3, [r7, #4]
                              |RCC_CLOCKTYPE_PCLK1|RCC_CLOCKTYPE_PCLK2;
  RCC_ClkInitStruct.SYSCLKSource = RCC_SYSCLKSOURCE_PLLCLK;
 c0008e6:	2303      	movs	r3, #3
 c0008e8:	60bb      	str	r3, [r7, #8]
  RCC_ClkInitStruct.AHBCLKDivider = RCC_SYSCLK_DIV1;
 c0008ea:	2300      	movs	r3, #0
 c0008ec:	60fb      	str	r3, [r7, #12]
  RCC_ClkInitStruct.APB1CLKDivider = RCC_HCLK_DIV1;
 c0008ee:	2300      	movs	r3, #0
 c0008f0:	613b      	str	r3, [r7, #16]
  RCC_ClkInitStruct.APB2CLKDivider = RCC_HCLK_DIV1;
 c0008f2:	2300      	movs	r3, #0
 c0008f4:	617b      	str	r3, [r7, #20]

  if (HAL_RCC_ClockConfig(&RCC_ClkInitStruct, FLASH_LATENCY_5) != HAL_OK)
 c0008f6:	1d3b      	adds	r3, r7, #4
 c0008f8:	2105      	movs	r1, #5
 c0008fa:	4618      	mov	r0, r3
 c0008fc:	f003 fd08 	bl	c004310 <HAL_RCC_ClockConfig>
 c000900:	4603      	mov	r3, r0
 c000902:	2b00      	cmp	r3, #0
 c000904:	d001      	beq.n	c00090a <SystemClock_Config+0xa2>
  {
    Error_Handler();
 c000906:	f000 fb15 	bl	c000f34 <Error_Handler>
  }
}
 c00090a:	bf00      	nop
 c00090c:	3760      	adds	r7, #96	; 0x60
 c00090e:	46bd      	mov	sp, r7
 c000910:	bd80      	pop	{r7, pc}
	...

0c000914 <MX_GTZC_S_Init>:
  * @brief GTZC_S Initialization Function
  * @param None
  * @retval None
  */
static void MX_GTZC_S_Init(void)
{
 c000914:	b580      	push	{r7, lr}
 c000916:	b09c      	sub	sp, #112	; 0x70
 c000918:	af00      	add	r7, sp, #0

  /* USER CODE BEGIN GTZC_S_Init 0 */

  /* USER CODE END GTZC_S_Init 0 */

  MPCBB_ConfigTypeDef MPCBB_NonSecureArea_Desc = {0};
 c00091a:	1d3b      	adds	r3, r7, #4
 c00091c:	226c      	movs	r2, #108	; 0x6c
 c00091e:	2100      	movs	r1, #0
 c000920:	4618      	mov	r0, r3
 c000922:	f005 ffa3 	bl	c00686c <memset>

  /* USER CODE BEGIN GTZC_S_Init 1 */

  /* USER CODE END GTZC_S_Init 1 */
  if (HAL_GTZC_TZSC_ConfigPeriphAttributes(GTZC_PERIPH_IWDG, GTZC_TZSC_PERIPH_SEC|GTZC_TZSC_PERIPH_NPRIV) != HAL_OK)
 c000926:	f240 3101 	movw	r1, #769	; 0x301
 c00092a:	2007      	movs	r0, #7
 c00092c:	f002 fa78 	bl	c002e20 <HAL_GTZC_TZSC_ConfigPeriphAttributes>
 c000930:	4603      	mov	r3, r0
 c000932:	2b00      	cmp	r3, #0
 c000934:	d001      	beq.n	c00093a <MX_GTZC_S_Init+0x26>
  {
    Error_Handler();
 c000936:	f000 fafd 	bl	c000f34 <Error_Handler>
  }
  if (HAL_GTZC_TZSC_ConfigPeriphAttributes(GTZC_PERIPH_SPI3, GTZC_TZSC_PERIPH_SEC|GTZC_TZSC_PERIPH_NPRIV) != HAL_OK)
 c00093a:	f240 3101 	movw	r1, #769	; 0x301
 c00093e:	2009      	movs	r0, #9
 c000940:	f002 fa6e 	bl	c002e20 <HAL_GTZC_TZSC_ConfigPeriphAttributes>
 c000944:	4603      	mov	r3, r0
 c000946:	2b00      	cmp	r3, #0
 c000948:	d001      	beq.n	c00094e <MX_GTZC_S_Init+0x3a>
  {
    Error_Handler();
 c00094a:	f000 faf3 	bl	c000f34 <Error_Handler>
  }
  if (HAL_GTZC_TZSC_ConfigPeriphAttributes(GTZC_PERIPH_USART1, GTZC_TZSC_PERIPH_SEC|GTZC_TZSC_PERIPH_NPRIV) != HAL_OK)
 c00094e:	f240 3101 	movw	r1, #769	; 0x301
 c000952:	483f      	ldr	r0, [pc, #252]	; (c000a50 <MX_GTZC_S_Init+0x13c>)
 c000954:	f002 fa64 	bl	c002e20 <HAL_GTZC_TZSC_ConfigPeriphAttributes>
 c000958:	4603      	mov	r3, r0
 c00095a:	2b00      	cmp	r3, #0
 c00095c:	d001      	beq.n	c000962 <MX_GTZC_S_Init+0x4e>
  {
    Error_Handler();
 c00095e:	f000 fae9 	bl	c000f34 <Error_Handler>
  }
  if (HAL_GTZC_TZSC_ConfigPeriphAttributes(GTZC_PERIPH_HASH, GTZC_TZSC_PERIPH_SEC|GTZC_TZSC_PERIPH_NPRIV) != HAL_OK)
 c000962:	f240 3101 	movw	r1, #769	; 0x301
 c000966:	483b      	ldr	r0, [pc, #236]	; (c000a54 <MX_GTZC_S_Init+0x140>)
 c000968:	f002 fa5a 	bl	c002e20 <HAL_GTZC_TZSC_ConfigPeriphAttributes>
 c00096c:	4603      	mov	r3, r0
 c00096e:	2b00      	cmp	r3, #0
 c000970:	d001      	beq.n	c000976 <MX_GTZC_S_Init+0x62>
  {
    Error_Handler();
 c000972:	f000 fadf 	bl	c000f34 <Error_Handler>
  }
  MPCBB_NonSecureArea_Desc.SecureRWIllegalMode = GTZC_MPCBB_SRWILADIS_ENABLE;
 c000976:	2300      	movs	r3, #0
 c000978:	607b      	str	r3, [r7, #4]
  MPCBB_NonSecureArea_Desc.InvertSecureState = GTZC_MPCBB_INVSECSTATE_NOT_INVERTED;
 c00097a:	2300      	movs	r3, #0
 c00097c:	60bb      	str	r3, [r7, #8]
  MPCBB_NonSecureArea_Desc.AttributeConfig.MPCBB_SecConfig_array[0] =   0xFFFFFFFF;
 c00097e:	f04f 33ff 	mov.w	r3, #4294967295
 c000982:	60fb      	str	r3, [r7, #12]
  MPCBB_NonSecureArea_Desc.AttributeConfig.MPCBB_SecConfig_array[1] =   0xFFFFFFFF;
 c000984:	f04f 33ff 	mov.w	r3, #4294967295
 c000988:	613b      	str	r3, [r7, #16]
  MPCBB_NonSecureArea_Desc.AttributeConfig.MPCBB_SecConfig_array[2] =   0xFFFFFFFF;
 c00098a:	f04f 33ff 	mov.w	r3, #4294967295
 c00098e:	617b      	str	r3, [r7, #20]
  MPCBB_NonSecureArea_Desc.AttributeConfig.MPCBB_SecConfig_array[3] =   0xFFFFFFFF;
 c000990:	f04f 33ff 	mov.w	r3, #4294967295
 c000994:	61bb      	str	r3, [r7, #24]
  MPCBB_NonSecureArea_Desc.AttributeConfig.MPCBB_SecConfig_array[4] =   0xFFFFFFFF;
 c000996:	f04f 33ff 	mov.w	r3, #4294967295
 c00099a:	61fb      	str	r3, [r7, #28]
  MPCBB_NonSecureArea_Desc.AttributeConfig.MPCBB_SecConfig_array[5] =   0xFFFFFFFF;
 c00099c:	f04f 33ff 	mov.w	r3, #4294967295
 c0009a0:	623b      	str	r3, [r7, #32]
  MPCBB_NonSecureArea_Desc.AttributeConfig.MPCBB_SecConfig_array[6] =   0xFFFFFFFF;
 c0009a2:	f04f 33ff 	mov.w	r3, #4294967295
 c0009a6:	627b      	str	r3, [r7, #36]	; 0x24
  MPCBB_NonSecureArea_Desc.AttributeConfig.MPCBB_SecConfig_array[7] =   0xFFFFFFFF;
 c0009a8:	f04f 33ff 	mov.w	r3, #4294967295
 c0009ac:	62bb      	str	r3, [r7, #40]	; 0x28
  MPCBB_NonSecureArea_Desc.AttributeConfig.MPCBB_SecConfig_array[8] =   0xFFFFFFFF;
 c0009ae:	f04f 33ff 	mov.w	r3, #4294967295
 c0009b2:	62fb      	str	r3, [r7, #44]	; 0x2c
  MPCBB_NonSecureArea_Desc.AttributeConfig.MPCBB_SecConfig_array[9] =   0xFFFFFFFF;
 c0009b4:	f04f 33ff 	mov.w	r3, #4294967295
 c0009b8:	633b      	str	r3, [r7, #48]	; 0x30
  MPCBB_NonSecureArea_Desc.AttributeConfig.MPCBB_SecConfig_array[10] =   0xFFFFFFFF;
 c0009ba:	f04f 33ff 	mov.w	r3, #4294967295
 c0009be:	637b      	str	r3, [r7, #52]	; 0x34
  MPCBB_NonSecureArea_Desc.AttributeConfig.MPCBB_SecConfig_array[11] =   0xFFFFFFFF;
 c0009c0:	f04f 33ff 	mov.w	r3, #4294967295
 c0009c4:	63bb      	str	r3, [r7, #56]	; 0x38
  MPCBB_NonSecureArea_Desc.AttributeConfig.MPCBB_SecConfig_array[12] =   0x00000000;
 c0009c6:	2300      	movs	r3, #0
 c0009c8:	63fb      	str	r3, [r7, #60]	; 0x3c
  MPCBB_NonSecureArea_Desc.AttributeConfig.MPCBB_SecConfig_array[13] =   0x00000000;
 c0009ca:	2300      	movs	r3, #0
 c0009cc:	643b      	str	r3, [r7, #64]	; 0x40
  MPCBB_NonSecureArea_Desc.AttributeConfig.MPCBB_SecConfig_array[14] =   0x00000000;
 c0009ce:	2300      	movs	r3, #0
 c0009d0:	647b      	str	r3, [r7, #68]	; 0x44
  MPCBB_NonSecureArea_Desc.AttributeConfig.MPCBB_SecConfig_array[15] =   0x00000000;
 c0009d2:	2300      	movs	r3, #0
 c0009d4:	64bb      	str	r3, [r7, #72]	; 0x48
  MPCBB_NonSecureArea_Desc.AttributeConfig.MPCBB_SecConfig_array[16] =   0x00000000;
 c0009d6:	2300      	movs	r3, #0
 c0009d8:	64fb      	str	r3, [r7, #76]	; 0x4c
  MPCBB_NonSecureArea_Desc.AttributeConfig.MPCBB_SecConfig_array[17] =   0x00000000;
 c0009da:	2300      	movs	r3, #0
 c0009dc:	653b      	str	r3, [r7, #80]	; 0x50
  MPCBB_NonSecureArea_Desc.AttributeConfig.MPCBB_SecConfig_array[18] =   0x00000000;
 c0009de:	2300      	movs	r3, #0
 c0009e0:	657b      	str	r3, [r7, #84]	; 0x54
  MPCBB_NonSecureArea_Desc.AttributeConfig.MPCBB_SecConfig_array[19] =   0x00000000;
 c0009e2:	2300      	movs	r3, #0
 c0009e4:	65bb      	str	r3, [r7, #88]	; 0x58
  MPCBB_NonSecureArea_Desc.AttributeConfig.MPCBB_SecConfig_array[20] =   0x00000000;
 c0009e6:	2300      	movs	r3, #0
 c0009e8:	65fb      	str	r3, [r7, #92]	; 0x5c
  MPCBB_NonSecureArea_Desc.AttributeConfig.MPCBB_SecConfig_array[21] =   0x00000000;
 c0009ea:	2300      	movs	r3, #0
 c0009ec:	663b      	str	r3, [r7, #96]	; 0x60
  MPCBB_NonSecureArea_Desc.AttributeConfig.MPCBB_SecConfig_array[22] =   0x00000000;
 c0009ee:	2300      	movs	r3, #0
 c0009f0:	667b      	str	r3, [r7, #100]	; 0x64
  MPCBB_NonSecureArea_Desc.AttributeConfig.MPCBB_SecConfig_array[23] =   0x00000000;
 c0009f2:	2300      	movs	r3, #0
 c0009f4:	66bb      	str	r3, [r7, #104]	; 0x68
  MPCBB_NonSecureArea_Desc.AttributeConfig.MPCBB_LockConfig_array[0] =   0x00000000;
 c0009f6:	2300      	movs	r3, #0
 c0009f8:	66fb      	str	r3, [r7, #108]	; 0x6c
  if (HAL_GTZC_MPCBB_ConfigMem(SRAM1_BASE, &MPCBB_NonSecureArea_Desc) != HAL_OK)
 c0009fa:	1d3b      	adds	r3, r7, #4
 c0009fc:	4619      	mov	r1, r3
 c0009fe:	f04f 5040 	mov.w	r0, #805306368	; 0x30000000
 c000a02:	f002 fae5 	bl	c002fd0 <HAL_GTZC_MPCBB_ConfigMem>
 c000a06:	4603      	mov	r3, r0
 c000a08:	2b00      	cmp	r3, #0
 c000a0a:	d001      	beq.n	c000a10 <MX_GTZC_S_Init+0xfc>
  {
    Error_Handler();
 c000a0c:	f000 fa92 	bl	c000f34 <Error_Handler>
  }
  MPCBB_NonSecureArea_Desc.AttributeConfig.MPCBB_SecConfig_array[0] =   0x00000000;
 c000a10:	2300      	movs	r3, #0
 c000a12:	60fb      	str	r3, [r7, #12]
  MPCBB_NonSecureArea_Desc.AttributeConfig.MPCBB_SecConfig_array[1] =   0x00000000;
 c000a14:	2300      	movs	r3, #0
 c000a16:	613b      	str	r3, [r7, #16]
  MPCBB_NonSecureArea_Desc.AttributeConfig.MPCBB_SecConfig_array[2] =   0x00000000;
 c000a18:	2300      	movs	r3, #0
 c000a1a:	617b      	str	r3, [r7, #20]
  MPCBB_NonSecureArea_Desc.AttributeConfig.MPCBB_SecConfig_array[3] =   0x00000000;
 c000a1c:	2300      	movs	r3, #0
 c000a1e:	61bb      	str	r3, [r7, #24]
  MPCBB_NonSecureArea_Desc.AttributeConfig.MPCBB_SecConfig_array[4] =   0x00000000;
 c000a20:	2300      	movs	r3, #0
 c000a22:	61fb      	str	r3, [r7, #28]
  MPCBB_NonSecureArea_Desc.AttributeConfig.MPCBB_SecConfig_array[5] =   0x00000000;
 c000a24:	2300      	movs	r3, #0
 c000a26:	623b      	str	r3, [r7, #32]
  MPCBB_NonSecureArea_Desc.AttributeConfig.MPCBB_SecConfig_array[6] =   0x00000000;
 c000a28:	2300      	movs	r3, #0
 c000a2a:	627b      	str	r3, [r7, #36]	; 0x24
  MPCBB_NonSecureArea_Desc.AttributeConfig.MPCBB_SecConfig_array[7] =   0x00000000;
 c000a2c:	2300      	movs	r3, #0
 c000a2e:	62bb      	str	r3, [r7, #40]	; 0x28
  MPCBB_NonSecureArea_Desc.AttributeConfig.MPCBB_LockConfig_array[0] =   0x00000000;
 c000a30:	2300      	movs	r3, #0
 c000a32:	66fb      	str	r3, [r7, #108]	; 0x6c
  if (HAL_GTZC_MPCBB_ConfigMem(SRAM2_BASE, &MPCBB_NonSecureArea_Desc) != HAL_OK)
 c000a34:	1d3b      	adds	r3, r7, #4
 c000a36:	4619      	mov	r1, r3
 c000a38:	4807      	ldr	r0, [pc, #28]	; (c000a58 <MX_GTZC_S_Init+0x144>)
 c000a3a:	f002 fac9 	bl	c002fd0 <HAL_GTZC_MPCBB_ConfigMem>
 c000a3e:	4603      	mov	r3, r0
 c000a40:	2b00      	cmp	r3, #0
 c000a42:	d001      	beq.n	c000a48 <MX_GTZC_S_Init+0x134>
  {
    Error_Handler();
 c000a44:	f000 fa76 	bl	c000f34 <Error_Handler>
  }
  /* USER CODE BEGIN GTZC_S_Init 2 */

  /* USER CODE END GTZC_S_Init 2 */

}
 c000a48:	bf00      	nop
 c000a4a:	3770      	adds	r7, #112	; 0x70
 c000a4c:	46bd      	mov	sp, r7
 c000a4e:	bd80      	pop	{r7, pc}
 c000a50:	10000001 	.word	0x10000001
 c000a54:	1000000d 	.word	0x1000000d
 c000a58:	30030000 	.word	0x30030000

0c000a5c <MX_HASH_Init>:
  * @brief HASH Initialization Function
  * @param None
  * @retval None
  */
static void MX_HASH_Init(void)
{
 c000a5c:	b580      	push	{r7, lr}
 c000a5e:	af00      	add	r7, sp, #0
  /* USER CODE END HASH_Init 0 */

  /* USER CODE BEGIN HASH_Init 1 */

  /* USER CODE END HASH_Init 1 */
  hhash.Init.DataType = HASH_DATATYPE_32B;
 c000a60:	4b06      	ldr	r3, [pc, #24]	; (c000a7c <MX_HASH_Init+0x20>)
 c000a62:	2200      	movs	r2, #0
 c000a64:	601a      	str	r2, [r3, #0]
  if (HAL_HASH_Init(&hhash) != HAL_OK)
 c000a66:	4805      	ldr	r0, [pc, #20]	; (c000a7c <MX_HASH_Init+0x20>)
 c000a68:	f002 fb36 	bl	c0030d8 <HAL_HASH_Init>
 c000a6c:	4603      	mov	r3, r0
 c000a6e:	2b00      	cmp	r3, #0
 c000a70:	d001      	beq.n	c000a76 <MX_HASH_Init+0x1a>
  {
    Error_Handler();
 c000a72:	f000 fa5f 	bl	c000f34 <Error_Handler>
  }
  /* USER CODE BEGIN HASH_Init 2 */

  /* USER CODE END HASH_Init 2 */

}
 c000a76:	bf00      	nop
 c000a78:	bd80      	pop	{r7, pc}
 c000a7a:	bf00      	nop
 c000a7c:	3000014c 	.word	0x3000014c

0c000a80 <MX_ICACHE_Init>:
  * @brief ICACHE Initialization Function
  * @param None
  * @retval None
  */
static void MX_ICACHE_Init(void)
{
 c000a80:	b580      	push	{r7, lr}
 c000a82:	af00      	add	r7, sp, #0

  /* USER CODE END ICACHE_Init 1 */

  /** Enable instruction cache in 1-way (direct mapped cache)
  */
  if (HAL_ICACHE_ConfigAssociativityMode(ICACHE_1WAY) != HAL_OK)
 c000a84:	2000      	movs	r0, #0
 c000a86:	f002 fe8f 	bl	c0037a8 <HAL_ICACHE_ConfigAssociativityMode>
 c000a8a:	4603      	mov	r3, r0
 c000a8c:	2b00      	cmp	r3, #0
 c000a8e:	d001      	beq.n	c000a94 <MX_ICACHE_Init+0x14>
  {
    Error_Handler();
 c000a90:	f000 fa50 	bl	c000f34 <Error_Handler>
  }
  if (HAL_ICACHE_Enable() != HAL_OK)
 c000a94:	f002 fea8 	bl	c0037e8 <HAL_ICACHE_Enable>
 c000a98:	4603      	mov	r3, r0
 c000a9a:	2b00      	cmp	r3, #0
 c000a9c:	d001      	beq.n	c000aa2 <MX_ICACHE_Init+0x22>
  {
    Error_Handler();
 c000a9e:	f000 fa49 	bl	c000f34 <Error_Handler>
  }
  /* USER CODE BEGIN ICACHE_Init 2 */

  /* USER CODE END ICACHE_Init 2 */

}
 c000aa2:	bf00      	nop
 c000aa4:	bd80      	pop	{r7, pc}
	...

0c000aa8 <MX_SPI3_Init>:
  * @brief SPI3 Initialization Function
  * @param None
  * @retval None
  */
static void MX_SPI3_Init(void)
{
 c000aa8:	b580      	push	{r7, lr}
 c000aaa:	af00      	add	r7, sp, #0

  /* USER CODE BEGIN SPI3_Init 1 */

  /* USER CODE END SPI3_Init 1 */
  /* SPI3 parameter configuration*/
  hspi3.Instance = SPI3;
 c000aac:	4b1b      	ldr	r3, [pc, #108]	; (c000b1c <MX_SPI3_Init+0x74>)
 c000aae:	4a1c      	ldr	r2, [pc, #112]	; (c000b20 <MX_SPI3_Init+0x78>)
 c000ab0:	601a      	str	r2, [r3, #0]
  hspi3.Init.Mode = SPI_MODE_MASTER;
 c000ab2:	4b1a      	ldr	r3, [pc, #104]	; (c000b1c <MX_SPI3_Init+0x74>)
 c000ab4:	f44f 7282 	mov.w	r2, #260	; 0x104
 c000ab8:	605a      	str	r2, [r3, #4]
  hspi3.Init.Direction = SPI_DIRECTION_2LINES;
 c000aba:	4b18      	ldr	r3, [pc, #96]	; (c000b1c <MX_SPI3_Init+0x74>)
 c000abc:	2200      	movs	r2, #0
 c000abe:	609a      	str	r2, [r3, #8]
  hspi3.Init.DataSize = SPI_DATASIZE_8BIT;
 c000ac0:	4b16      	ldr	r3, [pc, #88]	; (c000b1c <MX_SPI3_Init+0x74>)
 c000ac2:	f44f 62e0 	mov.w	r2, #1792	; 0x700
 c000ac6:	60da      	str	r2, [r3, #12]
  hspi3.Init.CLKPolarity = SPI_POLARITY_LOW;
 c000ac8:	4b14      	ldr	r3, [pc, #80]	; (c000b1c <MX_SPI3_Init+0x74>)
 c000aca:	2200      	movs	r2, #0
 c000acc:	611a      	str	r2, [r3, #16]
  hspi3.Init.CLKPhase = SPI_PHASE_1EDGE;
 c000ace:	4b13      	ldr	r3, [pc, #76]	; (c000b1c <MX_SPI3_Init+0x74>)
 c000ad0:	2200      	movs	r2, #0
 c000ad2:	615a      	str	r2, [r3, #20]
  hspi3.Init.NSS = SPI_NSS_SOFT;
 c000ad4:	4b11      	ldr	r3, [pc, #68]	; (c000b1c <MX_SPI3_Init+0x74>)
 c000ad6:	f44f 7200 	mov.w	r2, #512	; 0x200
 c000ada:	619a      	str	r2, [r3, #24]
  hspi3.Init.BaudRatePrescaler = SPI_BAUDRATEPRESCALER_32;
 c000adc:	4b0f      	ldr	r3, [pc, #60]	; (c000b1c <MX_SPI3_Init+0x74>)
 c000ade:	2220      	movs	r2, #32
 c000ae0:	61da      	str	r2, [r3, #28]
  hspi3.Init.FirstBit = SPI_FIRSTBIT_MSB;
 c000ae2:	4b0e      	ldr	r3, [pc, #56]	; (c000b1c <MX_SPI3_Init+0x74>)
 c000ae4:	2200      	movs	r2, #0
 c000ae6:	621a      	str	r2, [r3, #32]
  hspi3.Init.TIMode = SPI_TIMODE_DISABLE;
 c000ae8:	4b0c      	ldr	r3, [pc, #48]	; (c000b1c <MX_SPI3_Init+0x74>)
 c000aea:	2200      	movs	r2, #0
 c000aec:	625a      	str	r2, [r3, #36]	; 0x24
  hspi3.Init.CRCCalculation = SPI_CRCCALCULATION_DISABLE;
 c000aee:	4b0b      	ldr	r3, [pc, #44]	; (c000b1c <MX_SPI3_Init+0x74>)
 c000af0:	2200      	movs	r2, #0
 c000af2:	629a      	str	r2, [r3, #40]	; 0x28
  hspi3.Init.CRCPolynomial = 7;
 c000af4:	4b09      	ldr	r3, [pc, #36]	; (c000b1c <MX_SPI3_Init+0x74>)
 c000af6:	2207      	movs	r2, #7
 c000af8:	62da      	str	r2, [r3, #44]	; 0x2c
  hspi3.Init.CRCLength = SPI_CRC_LENGTH_DATASIZE;
 c000afa:	4b08      	ldr	r3, [pc, #32]	; (c000b1c <MX_SPI3_Init+0x74>)
 c000afc:	2200      	movs	r2, #0
 c000afe:	631a      	str	r2, [r3, #48]	; 0x30
  hspi3.Init.NSSPMode = SPI_NSS_PULSE_ENABLE;
 c000b00:	4b06      	ldr	r3, [pc, #24]	; (c000b1c <MX_SPI3_Init+0x74>)
 c000b02:	2208      	movs	r2, #8
 c000b04:	635a      	str	r2, [r3, #52]	; 0x34
  if (HAL_SPI_Init(&hspi3) != HAL_OK)
 c000b06:	4805      	ldr	r0, [pc, #20]	; (c000b1c <MX_SPI3_Init+0x74>)
 c000b08:	f004 fbfc 	bl	c005304 <HAL_SPI_Init>
 c000b0c:	4603      	mov	r3, r0
 c000b0e:	2b00      	cmp	r3, #0
 c000b10:	d001      	beq.n	c000b16 <MX_SPI3_Init+0x6e>
  {
    Error_Handler();
 c000b12:	f000 fa0f 	bl	c000f34 <Error_Handler>
  }
  /* USER CODE BEGIN SPI3_Init 2 */

  /* USER CODE END SPI3_Init 2 */

}
 c000b16:	bf00      	nop
 c000b18:	bd80      	pop	{r7, pc}
 c000b1a:	bf00      	nop
 c000b1c:	30000190 	.word	0x30000190
 c000b20:	50003c00 	.word	0x50003c00

0c000b24 <MX_USART1_UART_Init>:
  * @brief USART1 Initialization Function
  * @param None
  * @retval None
  */
static void MX_USART1_UART_Init(void)
{
 c000b24:	b580      	push	{r7, lr}
 c000b26:	af00      	add	r7, sp, #0
  /* USER CODE END USART1_Init 0 */

  /* USER CODE BEGIN USART1_Init 1 */

  /* USER CODE END USART1_Init 1 */
  huart1.Instance = USART1;
 c000b28:	4b23      	ldr	r3, [pc, #140]	; (c000bb8 <MX_USART1_UART_Init+0x94>)
 c000b2a:	4a24      	ldr	r2, [pc, #144]	; (c000bbc <MX_USART1_UART_Init+0x98>)
 c000b2c:	601a      	str	r2, [r3, #0]
  huart1.Init.BaudRate = 115200;
 c000b2e:	4b22      	ldr	r3, [pc, #136]	; (c000bb8 <MX_USART1_UART_Init+0x94>)
 c000b30:	f44f 32e1 	mov.w	r2, #115200	; 0x1c200
 c000b34:	605a      	str	r2, [r3, #4]
  huart1.Init.WordLength = UART_WORDLENGTH_8B;
 c000b36:	4b20      	ldr	r3, [pc, #128]	; (c000bb8 <MX_USART1_UART_Init+0x94>)
 c000b38:	2200      	movs	r2, #0
 c000b3a:	609a      	str	r2, [r3, #8]
  huart1.Init.StopBits = UART_STOPBITS_1;
 c000b3c:	4b1e      	ldr	r3, [pc, #120]	; (c000bb8 <MX_USART1_UART_Init+0x94>)
 c000b3e:	2200      	movs	r2, #0
 c000b40:	60da      	str	r2, [r3, #12]
  huart1.Init.Parity = UART_PARITY_ODD;
 c000b42:	4b1d      	ldr	r3, [pc, #116]	; (c000bb8 <MX_USART1_UART_Init+0x94>)
 c000b44:	f44f 62c0 	mov.w	r2, #1536	; 0x600
 c000b48:	611a      	str	r2, [r3, #16]
  huart1.Init.Mode = UART_MODE_TX_RX;
 c000b4a:	4b1b      	ldr	r3, [pc, #108]	; (c000bb8 <MX_USART1_UART_Init+0x94>)
 c000b4c:	220c      	movs	r2, #12
 c000b4e:	615a      	str	r2, [r3, #20]
  huart1.Init.HwFlowCtl = UART_HWCONTROL_NONE;
 c000b50:	4b19      	ldr	r3, [pc, #100]	; (c000bb8 <MX_USART1_UART_Init+0x94>)
 c000b52:	2200      	movs	r2, #0
 c000b54:	619a      	str	r2, [r3, #24]
  huart1.Init.OverSampling = UART_OVERSAMPLING_16;
 c000b56:	4b18      	ldr	r3, [pc, #96]	; (c000bb8 <MX_USART1_UART_Init+0x94>)
 c000b58:	2200      	movs	r2, #0
 c000b5a:	61da      	str	r2, [r3, #28]
  huart1.Init.OneBitSampling = UART_ONE_BIT_SAMPLE_DISABLE;
 c000b5c:	4b16      	ldr	r3, [pc, #88]	; (c000bb8 <MX_USART1_UART_Init+0x94>)
 c000b5e:	2200      	movs	r2, #0
 c000b60:	621a      	str	r2, [r3, #32]
  huart1.Init.ClockPrescaler = UART_PRESCALER_DIV1;
 c000b62:	4b15      	ldr	r3, [pc, #84]	; (c000bb8 <MX_USART1_UART_Init+0x94>)
 c000b64:	2200      	movs	r2, #0
 c000b66:	625a      	str	r2, [r3, #36]	; 0x24
  huart1.AdvancedInit.AdvFeatureInit = UART_ADVFEATURE_NO_INIT;
 c000b68:	4b13      	ldr	r3, [pc, #76]	; (c000bb8 <MX_USART1_UART_Init+0x94>)
 c000b6a:	2200      	movs	r2, #0
 c000b6c:	629a      	str	r2, [r3, #40]	; 0x28
  if (HAL_UART_Init(&huart1) != HAL_OK)
 c000b6e:	4812      	ldr	r0, [pc, #72]	; (c000bb8 <MX_USART1_UART_Init+0x94>)
 c000b70:	f004 ff5a 	bl	c005a28 <HAL_UART_Init>
 c000b74:	4603      	mov	r3, r0
 c000b76:	2b00      	cmp	r3, #0
 c000b78:	d001      	beq.n	c000b7e <MX_USART1_UART_Init+0x5a>
  {
    Error_Handler();
 c000b7a:	f000 f9db 	bl	c000f34 <Error_Handler>
  }
  if (HAL_UARTEx_SetTxFifoThreshold(&huart1, UART_TXFIFO_THRESHOLD_1_8) != HAL_OK)
 c000b7e:	2100      	movs	r1, #0
 c000b80:	480d      	ldr	r0, [pc, #52]	; (c000bb8 <MX_USART1_UART_Init+0x94>)
 c000b82:	f005 fd7f 	bl	c006684 <HAL_UARTEx_SetTxFifoThreshold>
 c000b86:	4603      	mov	r3, r0
 c000b88:	2b00      	cmp	r3, #0
 c000b8a:	d001      	beq.n	c000b90 <MX_USART1_UART_Init+0x6c>
  {
    Error_Handler();
 c000b8c:	f000 f9d2 	bl	c000f34 <Error_Handler>
  }
  if (HAL_UARTEx_SetRxFifoThreshold(&huart1, UART_RXFIFO_THRESHOLD_1_8) != HAL_OK)
 c000b90:	2100      	movs	r1, #0
 c000b92:	4809      	ldr	r0, [pc, #36]	; (c000bb8 <MX_USART1_UART_Init+0x94>)
 c000b94:	f005 fdb4 	bl	c006700 <HAL_UARTEx_SetRxFifoThreshold>
 c000b98:	4603      	mov	r3, r0
 c000b9a:	2b00      	cmp	r3, #0
 c000b9c:	d001      	beq.n	c000ba2 <MX_USART1_UART_Init+0x7e>
  {
    Error_Handler();
 c000b9e:	f000 f9c9 	bl	c000f34 <Error_Handler>
  }
  if (HAL_UARTEx_DisableFifoMode(&huart1) != HAL_OK)
 c000ba2:	4805      	ldr	r0, [pc, #20]	; (c000bb8 <MX_USART1_UART_Init+0x94>)
 c000ba4:	f005 fd35 	bl	c006612 <HAL_UARTEx_DisableFifoMode>
 c000ba8:	4603      	mov	r3, r0
 c000baa:	2b00      	cmp	r3, #0
 c000bac:	d001      	beq.n	c000bb2 <MX_USART1_UART_Init+0x8e>
  {
    Error_Handler();
 c000bae:	f000 f9c1 	bl	c000f34 <Error_Handler>
  }
  /* USER CODE BEGIN USART1_Init 2 */

  /* USER CODE END USART1_Init 2 */

}
 c000bb2:	bf00      	nop
 c000bb4:	bd80      	pop	{r7, pc}
 c000bb6:	bf00      	nop
 c000bb8:	300002c4 	.word	0x300002c4
 c000bbc:	50013800 	.word	0x50013800

0c000bc0 <MX_DMA_Init>:
  * Configure DMA for memory to memory transfers
  *   hdma_memtomem_dma1_channel1
  *   hdma_memtomem_dma1_channel4
  */
static void MX_DMA_Init(void)
{
 c000bc0:	b580      	push	{r7, lr}
 c000bc2:	b082      	sub	sp, #8
 c000bc4:	af00      	add	r7, sp, #0

  /* DMA controller clock enable */
  __HAL_RCC_DMAMUX1_CLK_ENABLE();
 c000bc6:	4b6a      	ldr	r3, [pc, #424]	; (c000d70 <MX_DMA_Init+0x1b0>)
 c000bc8:	6c9b      	ldr	r3, [r3, #72]	; 0x48
 c000bca:	4a69      	ldr	r2, [pc, #420]	; (c000d70 <MX_DMA_Init+0x1b0>)
 c000bcc:	f043 0304 	orr.w	r3, r3, #4
 c000bd0:	6493      	str	r3, [r2, #72]	; 0x48
 c000bd2:	4b67      	ldr	r3, [pc, #412]	; (c000d70 <MX_DMA_Init+0x1b0>)
 c000bd4:	6c9b      	ldr	r3, [r3, #72]	; 0x48
 c000bd6:	f003 0304 	and.w	r3, r3, #4
 c000bda:	607b      	str	r3, [r7, #4]
 c000bdc:	687b      	ldr	r3, [r7, #4]
  __HAL_RCC_DMA1_CLK_ENABLE();
 c000bde:	4b64      	ldr	r3, [pc, #400]	; (c000d70 <MX_DMA_Init+0x1b0>)
 c000be0:	6c9b      	ldr	r3, [r3, #72]	; 0x48
 c000be2:	4a63      	ldr	r2, [pc, #396]	; (c000d70 <MX_DMA_Init+0x1b0>)
 c000be4:	f043 0301 	orr.w	r3, r3, #1
 c000be8:	6493      	str	r3, [r2, #72]	; 0x48
 c000bea:	4b61      	ldr	r3, [pc, #388]	; (c000d70 <MX_DMA_Init+0x1b0>)
 c000bec:	6c9b      	ldr	r3, [r3, #72]	; 0x48
 c000bee:	f003 0301 	and.w	r3, r3, #1
 c000bf2:	603b      	str	r3, [r7, #0]
 c000bf4:	683b      	ldr	r3, [r7, #0]

  /* Configure DMA request hdma_memtomem_dma1_channel1 on DMA1_Channel1 */
  hdma_memtomem_dma1_channel1.Instance = DMA1_Channel1;
 c000bf6:	4b5f      	ldr	r3, [pc, #380]	; (c000d74 <MX_DMA_Init+0x1b4>)
 c000bf8:	4a5f      	ldr	r2, [pc, #380]	; (c000d78 <MX_DMA_Init+0x1b8>)
 c000bfa:	601a      	str	r2, [r3, #0]
  hdma_memtomem_dma1_channel1.Init.Request = DMA_REQUEST_MEM2MEM;
 c000bfc:	4b5d      	ldr	r3, [pc, #372]	; (c000d74 <MX_DMA_Init+0x1b4>)
 c000bfe:	2200      	movs	r2, #0
 c000c00:	605a      	str	r2, [r3, #4]
  hdma_memtomem_dma1_channel1.Init.Direction = DMA_MEMORY_TO_MEMORY;
 c000c02:	4b5c      	ldr	r3, [pc, #368]	; (c000d74 <MX_DMA_Init+0x1b4>)
 c000c04:	f44f 4280 	mov.w	r2, #16384	; 0x4000
 c000c08:	609a      	str	r2, [r3, #8]
  hdma_memtomem_dma1_channel1.Init.PeriphInc = DMA_PINC_ENABLE;
 c000c0a:	4b5a      	ldr	r3, [pc, #360]	; (c000d74 <MX_DMA_Init+0x1b4>)
 c000c0c:	2240      	movs	r2, #64	; 0x40
 c000c0e:	60da      	str	r2, [r3, #12]
  hdma_memtomem_dma1_channel1.Init.MemInc = DMA_MINC_ENABLE;
 c000c10:	4b58      	ldr	r3, [pc, #352]	; (c000d74 <MX_DMA_Init+0x1b4>)
 c000c12:	2280      	movs	r2, #128	; 0x80
 c000c14:	611a      	str	r2, [r3, #16]
  hdma_memtomem_dma1_channel1.Init.PeriphDataAlignment = DMA_PDATAALIGN_WORD;
 c000c16:	4b57      	ldr	r3, [pc, #348]	; (c000d74 <MX_DMA_Init+0x1b4>)
 c000c18:	f44f 7200 	mov.w	r2, #512	; 0x200
 c000c1c:	615a      	str	r2, [r3, #20]
  hdma_memtomem_dma1_channel1.Init.MemDataAlignment = DMA_MDATAALIGN_WORD;
 c000c1e:	4b55      	ldr	r3, [pc, #340]	; (c000d74 <MX_DMA_Init+0x1b4>)
 c000c20:	f44f 6200 	mov.w	r2, #2048	; 0x800
 c000c24:	619a      	str	r2, [r3, #24]
  hdma_memtomem_dma1_channel1.Init.Mode = DMA_NORMAL;
 c000c26:	4b53      	ldr	r3, [pc, #332]	; (c000d74 <MX_DMA_Init+0x1b4>)
 c000c28:	2200      	movs	r2, #0
 c000c2a:	61da      	str	r2, [r3, #28]
  hdma_memtomem_dma1_channel1.Init.Priority = DMA_PRIORITY_LOW;
 c000c2c:	4b51      	ldr	r3, [pc, #324]	; (c000d74 <MX_DMA_Init+0x1b4>)
 c000c2e:	2200      	movs	r2, #0
 c000c30:	621a      	str	r2, [r3, #32]
  if (HAL_DMA_Init(&hdma_memtomem_dma1_channel1) != HAL_OK)
 c000c32:	4850      	ldr	r0, [pc, #320]	; (c000d74 <MX_DMA_Init+0x1b4>)
 c000c34:	f001 fb84 	bl	c002340 <HAL_DMA_Init>
 c000c38:	4603      	mov	r3, r0
 c000c3a:	2b00      	cmp	r3, #0
 c000c3c:	d001      	beq.n	c000c42 <MX_DMA_Init+0x82>
  {
    Error_Handler( );
 c000c3e:	f000 f979 	bl	c000f34 <Error_Handler>
  }

  /*  */
  if (HAL_DMA_ConfigChannelAttributes(&hdma_memtomem_dma1_channel1, DMA_CHANNEL_NPRIV) != HAL_OK)
 c000c42:	2110      	movs	r1, #16
 c000c44:	484b      	ldr	r0, [pc, #300]	; (c000d74 <MX_DMA_Init+0x1b4>)
 c000c46:	f001 fdf3 	bl	c002830 <HAL_DMA_ConfigChannelAttributes>
 c000c4a:	4603      	mov	r3, r0
 c000c4c:	2b00      	cmp	r3, #0
 c000c4e:	d001      	beq.n	c000c54 <MX_DMA_Init+0x94>
  {
    Error_Handler( );
 c000c50:	f000 f970 	bl	c000f34 <Error_Handler>
  }

  /*  */
  if (HAL_DMA_ConfigChannelAttributes(&hdma_memtomem_dma1_channel1, DMA_CHANNEL_SEC) != HAL_OK)
 c000c54:	f04f 1102 	mov.w	r1, #131074	; 0x20002
 c000c58:	4846      	ldr	r0, [pc, #280]	; (c000d74 <MX_DMA_Init+0x1b4>)
 c000c5a:	f001 fde9 	bl	c002830 <HAL_DMA_ConfigChannelAttributes>
 c000c5e:	4603      	mov	r3, r0
 c000c60:	2b00      	cmp	r3, #0
 c000c62:	d001      	beq.n	c000c68 <MX_DMA_Init+0xa8>
  {
    Error_Handler( );
 c000c64:	f000 f966 	bl	c000f34 <Error_Handler>
  }

  /*  */
  if (HAL_DMA_ConfigChannelAttributes(&hdma_memtomem_dma1_channel1, DMA_CHANNEL_SRC_NSEC) != HAL_OK)
 c000c68:	2104      	movs	r1, #4
 c000c6a:	4842      	ldr	r0, [pc, #264]	; (c000d74 <MX_DMA_Init+0x1b4>)
 c000c6c:	f001 fde0 	bl	c002830 <HAL_DMA_ConfigChannelAttributes>
 c000c70:	4603      	mov	r3, r0
 c000c72:	2b00      	cmp	r3, #0
 c000c74:	d001      	beq.n	c000c7a <MX_DMA_Init+0xba>
  {
    Error_Handler( );
 c000c76:	f000 f95d 	bl	c000f34 <Error_Handler>
  }

  /*  */
  if (HAL_DMA_ConfigChannelAttributes(&hdma_memtomem_dma1_channel1, DMA_CHANNEL_DEST_SEC) != HAL_OK)
 c000c7a:	f04f 1108 	mov.w	r1, #524296	; 0x80008
 c000c7e:	483d      	ldr	r0, [pc, #244]	; (c000d74 <MX_DMA_Init+0x1b4>)
 c000c80:	f001 fdd6 	bl	c002830 <HAL_DMA_ConfigChannelAttributes>
 c000c84:	4603      	mov	r3, r0
 c000c86:	2b00      	cmp	r3, #0
 c000c88:	d001      	beq.n	c000c8e <MX_DMA_Init+0xce>
  {
    Error_Handler( );
 c000c8a:	f000 f953 	bl	c000f34 <Error_Handler>
  }

  /* Configure DMA request hdma_memtomem_dma1_channel4 on DMA1_Channel4 */
  hdma_memtomem_dma1_channel4.Instance = DMA1_Channel4;
 c000c8e:	4b3b      	ldr	r3, [pc, #236]	; (c000d7c <MX_DMA_Init+0x1bc>)
 c000c90:	4a3b      	ldr	r2, [pc, #236]	; (c000d80 <MX_DMA_Init+0x1c0>)
 c000c92:	601a      	str	r2, [r3, #0]
  hdma_memtomem_dma1_channel4.Init.Request = DMA_REQUEST_MEM2MEM;
 c000c94:	4b39      	ldr	r3, [pc, #228]	; (c000d7c <MX_DMA_Init+0x1bc>)
 c000c96:	2200      	movs	r2, #0
 c000c98:	605a      	str	r2, [r3, #4]
  hdma_memtomem_dma1_channel4.Init.Direction = DMA_MEMORY_TO_MEMORY;
 c000c9a:	4b38      	ldr	r3, [pc, #224]	; (c000d7c <MX_DMA_Init+0x1bc>)
 c000c9c:	f44f 4280 	mov.w	r2, #16384	; 0x4000
 c000ca0:	609a      	str	r2, [r3, #8]
  hdma_memtomem_dma1_channel4.Init.PeriphInc = DMA_PINC_ENABLE;
 c000ca2:	4b36      	ldr	r3, [pc, #216]	; (c000d7c <MX_DMA_Init+0x1bc>)
 c000ca4:	2240      	movs	r2, #64	; 0x40
 c000ca6:	60da      	str	r2, [r3, #12]
  hdma_memtomem_dma1_channel4.Init.MemInc = DMA_MINC_ENABLE;
 c000ca8:	4b34      	ldr	r3, [pc, #208]	; (c000d7c <MX_DMA_Init+0x1bc>)
 c000caa:	2280      	movs	r2, #128	; 0x80
 c000cac:	611a      	str	r2, [r3, #16]
  hdma_memtomem_dma1_channel4.Init.PeriphDataAlignment = DMA_PDATAALIGN_WORD;
 c000cae:	4b33      	ldr	r3, [pc, #204]	; (c000d7c <MX_DMA_Init+0x1bc>)
 c000cb0:	f44f 7200 	mov.w	r2, #512	; 0x200
 c000cb4:	615a      	str	r2, [r3, #20]
  hdma_memtomem_dma1_channel4.Init.MemDataAlignment = DMA_MDATAALIGN_WORD;
 c000cb6:	4b31      	ldr	r3, [pc, #196]	; (c000d7c <MX_DMA_Init+0x1bc>)
 c000cb8:	f44f 6200 	mov.w	r2, #2048	; 0x800
 c000cbc:	619a      	str	r2, [r3, #24]
  hdma_memtomem_dma1_channel4.Init.Mode = DMA_NORMAL;
 c000cbe:	4b2f      	ldr	r3, [pc, #188]	; (c000d7c <MX_DMA_Init+0x1bc>)
 c000cc0:	2200      	movs	r2, #0
 c000cc2:	61da      	str	r2, [r3, #28]
  hdma_memtomem_dma1_channel4.Init.Priority = DMA_PRIORITY_LOW;
 c000cc4:	4b2d      	ldr	r3, [pc, #180]	; (c000d7c <MX_DMA_Init+0x1bc>)
 c000cc6:	2200      	movs	r2, #0
 c000cc8:	621a      	str	r2, [r3, #32]
  if (HAL_DMA_Init(&hdma_memtomem_dma1_channel4) != HAL_OK)
 c000cca:	482c      	ldr	r0, [pc, #176]	; (c000d7c <MX_DMA_Init+0x1bc>)
 c000ccc:	f001 fb38 	bl	c002340 <HAL_DMA_Init>
 c000cd0:	4603      	mov	r3, r0
 c000cd2:	2b00      	cmp	r3, #0
 c000cd4:	d001      	beq.n	c000cda <MX_DMA_Init+0x11a>
  {
    Error_Handler( );
 c000cd6:	f000 f92d 	bl	c000f34 <Error_Handler>
  }

  /*  */
  if (HAL_DMA_ConfigChannelAttributes(&hdma_memtomem_dma1_channel4, DMA_CHANNEL_NPRIV) != HAL_OK)
 c000cda:	2110      	movs	r1, #16
 c000cdc:	4827      	ldr	r0, [pc, #156]	; (c000d7c <MX_DMA_Init+0x1bc>)
 c000cde:	f001 fda7 	bl	c002830 <HAL_DMA_ConfigChannelAttributes>
 c000ce2:	4603      	mov	r3, r0
 c000ce4:	2b00      	cmp	r3, #0
 c000ce6:	d001      	beq.n	c000cec <MX_DMA_Init+0x12c>
  {
    Error_Handler( );
 c000ce8:	f000 f924 	bl	c000f34 <Error_Handler>
  }

  /*  */
  if (HAL_DMA_ConfigChannelAttributes(&hdma_memtomem_dma1_channel4, DMA_CHANNEL_SEC) != HAL_OK)
 c000cec:	f04f 1102 	mov.w	r1, #131074	; 0x20002
 c000cf0:	4822      	ldr	r0, [pc, #136]	; (c000d7c <MX_DMA_Init+0x1bc>)
 c000cf2:	f001 fd9d 	bl	c002830 <HAL_DMA_ConfigChannelAttributes>
 c000cf6:	4603      	mov	r3, r0
 c000cf8:	2b00      	cmp	r3, #0
 c000cfa:	d001      	beq.n	c000d00 <MX_DMA_Init+0x140>
  {
    Error_Handler( );
 c000cfc:	f000 f91a 	bl	c000f34 <Error_Handler>
  }

  /*  */
  if (HAL_DMA_ConfigChannelAttributes(&hdma_memtomem_dma1_channel4, DMA_CHANNEL_SRC_SEC) != HAL_OK)
 c000d00:	f04f 1104 	mov.w	r1, #262148	; 0x40004
 c000d04:	481d      	ldr	r0, [pc, #116]	; (c000d7c <MX_DMA_Init+0x1bc>)
 c000d06:	f001 fd93 	bl	c002830 <HAL_DMA_ConfigChannelAttributes>
 c000d0a:	4603      	mov	r3, r0
 c000d0c:	2b00      	cmp	r3, #0
 c000d0e:	d001      	beq.n	c000d14 <MX_DMA_Init+0x154>
  {
    Error_Handler( );
 c000d10:	f000 f910 	bl	c000f34 <Error_Handler>
  }

  /*  */
  if (HAL_DMA_ConfigChannelAttributes(&hdma_memtomem_dma1_channel4, DMA_CHANNEL_DEST_SEC) != HAL_OK)
 c000d14:	f04f 1108 	mov.w	r1, #524296	; 0x80008
 c000d18:	4818      	ldr	r0, [pc, #96]	; (c000d7c <MX_DMA_Init+0x1bc>)
 c000d1a:	f001 fd89 	bl	c002830 <HAL_DMA_ConfigChannelAttributes>
 c000d1e:	4603      	mov	r3, r0
 c000d20:	2b00      	cmp	r3, #0
 c000d22:	d001      	beq.n	c000d28 <MX_DMA_Init+0x168>
  {
    Error_Handler( );
 c000d24:	f000 f906 	bl	c000f34 <Error_Handler>
  }

  /* DMA interrupt init */
  HAL_NVIC_SetPriority(DMA1_Channel1_IRQn, 0, 0);
 c000d28:	2200      	movs	r2, #0
 c000d2a:	2100      	movs	r1, #0
 c000d2c:	201d      	movs	r0, #29
 c000d2e:	f001 fad2 	bl	c0022d6 <HAL_NVIC_SetPriority>
  HAL_NVIC_EnableIRQ(DMA1_Channel1_IRQn);
 c000d32:	201d      	movs	r0, #29
 c000d34:	f001 fae9 	bl	c00230a <HAL_NVIC_EnableIRQ>
  /* DMA1_Channel2_IRQn interrupt configuration */
  HAL_NVIC_SetPriority(DMA1_Channel2_IRQn, 0, 0);
 c000d38:	2200      	movs	r2, #0
 c000d3a:	2100      	movs	r1, #0
 c000d3c:	201e      	movs	r0, #30
 c000d3e:	f001 faca 	bl	c0022d6 <HAL_NVIC_SetPriority>
  HAL_NVIC_EnableIRQ(DMA1_Channel2_IRQn);
 c000d42:	201e      	movs	r0, #30
 c000d44:	f001 fae1 	bl	c00230a <HAL_NVIC_EnableIRQ>
  /* DMA1_Channel3_IRQn interrupt configuration */
  HAL_NVIC_SetPriority(DMA1_Channel3_IRQn, 0, 0);
 c000d48:	2200      	movs	r2, #0
 c000d4a:	2100      	movs	r1, #0
 c000d4c:	201f      	movs	r0, #31
 c000d4e:	f001 fac2 	bl	c0022d6 <HAL_NVIC_SetPriority>
  HAL_NVIC_EnableIRQ(DMA1_Channel3_IRQn);
 c000d52:	201f      	movs	r0, #31
 c000d54:	f001 fad9 	bl	c00230a <HAL_NVIC_EnableIRQ>
  /* DMA1_Channel4_IRQn interrupt configuration */
  HAL_NVIC_SetPriority(DMA1_Channel4_IRQn, 0, 0);
 c000d58:	2200      	movs	r2, #0
 c000d5a:	2100      	movs	r1, #0
 c000d5c:	2020      	movs	r0, #32
 c000d5e:	f001 faba 	bl	c0022d6 <HAL_NVIC_SetPriority>
  HAL_NVIC_EnableIRQ(DMA1_Channel4_IRQn);
 c000d62:	2020      	movs	r0, #32
 c000d64:	f001 fad1 	bl	c00230a <HAL_NVIC_EnableIRQ>

}
 c000d68:	bf00      	nop
 c000d6a:	3708      	adds	r7, #8
 c000d6c:	46bd      	mov	sp, r7
 c000d6e:	bd80      	pop	{r7, pc}
 c000d70:	50021000 	.word	0x50021000
 c000d74:	30000358 	.word	0x30000358
 c000d78:	50020008 	.word	0x50020008
 c000d7c:	300003c0 	.word	0x300003c0
 c000d80:	50020044 	.word	0x50020044

0c000d84 <MX_GPIO_Init>:
  * @brief GPIO Initialization Function
  * @param None
  * @retval None
  */
static void MX_GPIO_Init(void)
{
 c000d84:	b580      	push	{r7, lr}
 c000d86:	b08a      	sub	sp, #40	; 0x28
 c000d88:	af00      	add	r7, sp, #0
  GPIO_InitTypeDef GPIO_InitStruct = {0};
 c000d8a:	f107 0314 	add.w	r3, r7, #20
 c000d8e:	2200      	movs	r2, #0
 c000d90:	601a      	str	r2, [r3, #0]
 c000d92:	605a      	str	r2, [r3, #4]
 c000d94:	609a      	str	r2, [r3, #8]
 c000d96:	60da      	str	r2, [r3, #12]
 c000d98:	611a      	str	r2, [r3, #16]
/* USER CODE BEGIN MX_GPIO_Init_1 */
/* USER CODE END MX_GPIO_Init_1 */

  /* GPIO Ports Clock Enable */
  __HAL_RCC_GPIOD_CLK_ENABLE();
 c000d9a:	4b31      	ldr	r3, [pc, #196]	; (c000e60 <MX_GPIO_Init+0xdc>)
 c000d9c:	6cdb      	ldr	r3, [r3, #76]	; 0x4c
 c000d9e:	4a30      	ldr	r2, [pc, #192]	; (c000e60 <MX_GPIO_Init+0xdc>)
 c000da0:	f043 0308 	orr.w	r3, r3, #8
 c000da4:	64d3      	str	r3, [r2, #76]	; 0x4c
 c000da6:	4b2e      	ldr	r3, [pc, #184]	; (c000e60 <MX_GPIO_Init+0xdc>)
 c000da8:	6cdb      	ldr	r3, [r3, #76]	; 0x4c
 c000daa:	f003 0308 	and.w	r3, r3, #8
 c000dae:	613b      	str	r3, [r7, #16]
 c000db0:	693b      	ldr	r3, [r7, #16]
  __HAL_RCC_GPIOC_CLK_ENABLE();
 c000db2:	4b2b      	ldr	r3, [pc, #172]	; (c000e60 <MX_GPIO_Init+0xdc>)
 c000db4:	6cdb      	ldr	r3, [r3, #76]	; 0x4c
 c000db6:	4a2a      	ldr	r2, [pc, #168]	; (c000e60 <MX_GPIO_Init+0xdc>)
 c000db8:	f043 0304 	orr.w	r3, r3, #4
 c000dbc:	64d3      	str	r3, [r2, #76]	; 0x4c
 c000dbe:	4b28      	ldr	r3, [pc, #160]	; (c000e60 <MX_GPIO_Init+0xdc>)
 c000dc0:	6cdb      	ldr	r3, [r3, #76]	; 0x4c
 c000dc2:	f003 0304 	and.w	r3, r3, #4
 c000dc6:	60fb      	str	r3, [r7, #12]
 c000dc8:	68fb      	ldr	r3, [r7, #12]
  __HAL_RCC_GPIOG_CLK_ENABLE();
 c000dca:	4b25      	ldr	r3, [pc, #148]	; (c000e60 <MX_GPIO_Init+0xdc>)
 c000dcc:	6cdb      	ldr	r3, [r3, #76]	; 0x4c
 c000dce:	4a24      	ldr	r2, [pc, #144]	; (c000e60 <MX_GPIO_Init+0xdc>)
 c000dd0:	f043 0340 	orr.w	r3, r3, #64	; 0x40
 c000dd4:	64d3      	str	r3, [r2, #76]	; 0x4c
 c000dd6:	4b22      	ldr	r3, [pc, #136]	; (c000e60 <MX_GPIO_Init+0xdc>)
 c000dd8:	6cdb      	ldr	r3, [r3, #76]	; 0x4c
 c000dda:	f003 0340 	and.w	r3, r3, #64	; 0x40
 c000dde:	60bb      	str	r3, [r7, #8]
 c000de0:	68bb      	ldr	r3, [r7, #8]
  HAL_PWREx_EnableVddIO2();
 c000de2:	f002 fd7b 	bl	c0038dc <HAL_PWREx_EnableVddIO2>
  __HAL_RCC_GPIOB_CLK_ENABLE();
 c000de6:	4b1e      	ldr	r3, [pc, #120]	; (c000e60 <MX_GPIO_Init+0xdc>)
 c000de8:	6cdb      	ldr	r3, [r3, #76]	; 0x4c
 c000dea:	4a1d      	ldr	r2, [pc, #116]	; (c000e60 <MX_GPIO_Init+0xdc>)
 c000dec:	f043 0302 	orr.w	r3, r3, #2
 c000df0:	64d3      	str	r3, [r2, #76]	; 0x4c
 c000df2:	4b1b      	ldr	r3, [pc, #108]	; (c000e60 <MX_GPIO_Init+0xdc>)
 c000df4:	6cdb      	ldr	r3, [r3, #76]	; 0x4c
 c000df6:	f003 0302 	and.w	r3, r3, #2
 c000dfa:	607b      	str	r3, [r7, #4]
 c000dfc:	687b      	ldr	r3, [r7, #4]
  __HAL_RCC_GPIOA_CLK_ENABLE();
 c000dfe:	4b18      	ldr	r3, [pc, #96]	; (c000e60 <MX_GPIO_Init+0xdc>)
 c000e00:	6cdb      	ldr	r3, [r3, #76]	; 0x4c
 c000e02:	4a17      	ldr	r2, [pc, #92]	; (c000e60 <MX_GPIO_Init+0xdc>)
 c000e04:	f043 0301 	orr.w	r3, r3, #1
 c000e08:	64d3      	str	r3, [r2, #76]	; 0x4c
 c000e0a:	4b15      	ldr	r3, [pc, #84]	; (c000e60 <MX_GPIO_Init+0xdc>)
 c000e0c:	6cdb      	ldr	r3, [r3, #76]	; 0x4c
 c000e0e:	f003 0301 	and.w	r3, r3, #1
 c000e12:	603b      	str	r3, [r7, #0]
 c000e14:	683b      	ldr	r3, [r7, #0]

  /*Configure GPIO pin Output Level */
  HAL_GPIO_WritePin(GPIOB, GPIO_PIN_13, GPIO_PIN_SET);
 c000e16:	2201      	movs	r2, #1
 c000e18:	f44f 5100 	mov.w	r1, #8192	; 0x2000
 c000e1c:	4811      	ldr	r0, [pc, #68]	; (c000e64 <MX_GPIO_Init+0xe0>)
 c000e1e:	f001 ffaf 	bl	c002d80 <HAL_GPIO_WritePin>

  /*IO attributes management functions */
  HAL_GPIO_ConfigPinAttributes(GPIOC, GPIO_PIN_11|GPIO_PIN_10|GPIO_PIN_14|GPIO_PIN_15
 c000e22:	2200      	movs	r2, #0
 c000e24:	f64c 4140 	movw	r1, #52288	; 0xcc40
 c000e28:	480f      	ldr	r0, [pc, #60]	; (c000e68 <MX_GPIO_Init+0xe4>)
 c000e2a:	f001 ffc1 	bl	c002db0 <HAL_GPIO_ConfigPinAttributes>
                          |WHITE_LED_Pin, GPIO_PIN_NSEC);

  /*IO attributes management functions */
  HAL_GPIO_ConfigPinAttributes(IR_SENSOR_PIN_GPIO_Port, IR_SENSOR_PIN_Pin, GPIO_PIN_NSEC);
 c000e2e:	2200      	movs	r2, #0
 c000e30:	f44f 6100 	mov.w	r1, #2048	; 0x800
 c000e34:	480d      	ldr	r0, [pc, #52]	; (c000e6c <MX_GPIO_Init+0xe8>)
 c000e36:	f001 ffbb 	bl	c002db0 <HAL_GPIO_ConfigPinAttributes>

  /*Configure GPIO pin : PB13 */
  GPIO_InitStruct.Pin = GPIO_PIN_13;
 c000e3a:	f44f 5300 	mov.w	r3, #8192	; 0x2000
 c000e3e:	617b      	str	r3, [r7, #20]
  GPIO_InitStruct.Mode = GPIO_MODE_OUTPUT_PP;
 c000e40:	2301      	movs	r3, #1
 c000e42:	61bb      	str	r3, [r7, #24]
  GPIO_InitStruct.Pull = GPIO_PULLUP;
 c000e44:	2301      	movs	r3, #1
 c000e46:	61fb      	str	r3, [r7, #28]
  GPIO_InitStruct.Speed = GPIO_SPEED_FREQ_LOW;
 c000e48:	2300      	movs	r3, #0
 c000e4a:	623b      	str	r3, [r7, #32]
  HAL_GPIO_Init(GPIOB, &GPIO_InitStruct);
 c000e4c:	f107 0314 	add.w	r3, r7, #20
 c000e50:	4619      	mov	r1, r3
 c000e52:	4804      	ldr	r0, [pc, #16]	; (c000e64 <MX_GPIO_Init+0xe0>)
 c000e54:	f001 fe14 	bl	c002a80 <HAL_GPIO_Init>

/* USER CODE BEGIN MX_GPIO_Init_2 */
/* USER CODE END MX_GPIO_Init_2 */
}
 c000e58:	bf00      	nop
 c000e5a:	3728      	adds	r7, #40	; 0x28
 c000e5c:	46bd      	mov	sp, r7
 c000e5e:	bd80      	pop	{r7, pc}
 c000e60:	50021000 	.word	0x50021000
 c000e64:	52020400 	.word	0x52020400
 c000e68:	52020800 	.word	0x52020800
 c000e6c:	52020c00 	.word	0x52020c00

0c000e70 <HAL_SPI_TxCpltCallback>:
  wTransferState = TRANSFER_COMPLETE;
}


void HAL_SPI_TxCpltCallback(SPI_HandleTypeDef *hspi)
{
 c000e70:	b480      	push	{r7}
 c000e72:	b083      	sub	sp, #12
 c000e74:	af00      	add	r7, sp, #0
 c000e76:	6078      	str	r0, [r7, #4]
//  printf("SPI transmission complete.\n\r");
  wTransferState = TRANSFER_COMPLETE;
 c000e78:	4b04      	ldr	r3, [pc, #16]	; (c000e8c <HAL_SPI_TxCpltCallback+0x1c>)
 c000e7a:	2201      	movs	r2, #1
 c000e7c:	601a      	str	r2, [r3, #0]
}
 c000e7e:	bf00      	nop
 c000e80:	370c      	adds	r7, #12
 c000e82:	46bd      	mov	sp, r7
 c000e84:	f85d 7b04 	ldr.w	r7, [sp], #4
 c000e88:	4770      	bx	lr
 c000e8a:	bf00      	nop
 c000e8c:	30000428 	.word	0x30000428

0c000e90 <__io_putchar>:
}


//redirects printf output to USART1 for displaying logs in a serial console
PUTCHAR_PROTOTYPE
{
 c000e90:	b580      	push	{r7, lr}
 c000e92:	b082      	sub	sp, #8
 c000e94:	af00      	add	r7, sp, #0
 c000e96:	6078      	str	r0, [r7, #4]
  /* Place your implementation of fputc here */
  /* e.g. write a character to the USART3 and Loop until the end of transmission */
  HAL_UART_Transmit(&huart1, (uint8_t *)&ch, 1, 0xFFFF);
 c000e98:	1d39      	adds	r1, r7, #4
 c000e9a:	f64f 73ff 	movw	r3, #65535	; 0xffff
 c000e9e:	2201      	movs	r2, #1
 c000ea0:	4803      	ldr	r0, [pc, #12]	; (c000eb0 <__io_putchar+0x20>)
 c000ea2:	f004 fe11 	bl	c005ac8 <HAL_UART_Transmit>

  return ch;
 c000ea6:	687b      	ldr	r3, [r7, #4]
}
 c000ea8:	4618      	mov	r0, r3
 c000eaa:	3708      	adds	r7, #8
 c000eac:	46bd      	mov	sp, r7
 c000eae:	bd80      	pop	{r7, pc}
 c000eb0:	300002c4 	.word	0x300002c4

0c000eb4 <NonsecureToSecureTransferComplete>:
}


//callback functions for nonsecure --> secure mem transfer
static void NonsecureToSecureTransferComplete(DMA_HandleTypeDef *hdma_memtomem_dma1_channel1)
{
 c000eb4:	b480      	push	{r7}
 c000eb6:	b083      	sub	sp, #12
 c000eb8:	af00      	add	r7, sp, #0
 c000eba:	6078      	str	r0, [r7, #4]
//	printf("nonsecure to secure transf complete executed.\n\r");
  NonsecureToSecureTransferCompleteDetected = 1;
 c000ebc:	4b04      	ldr	r3, [pc, #16]	; (c000ed0 <NonsecureToSecureTransferComplete+0x1c>)
 c000ebe:	2201      	movs	r2, #1
 c000ec0:	601a      	str	r2, [r3, #0]
}
 c000ec2:	bf00      	nop
 c000ec4:	370c      	adds	r7, #12
 c000ec6:	46bd      	mov	sp, r7
 c000ec8:	f85d 7b04 	ldr.w	r7, [sp], #4
 c000ecc:	4770      	bx	lr
 c000ece:	bf00      	nop
 c000ed0:	3000042c 	.word	0x3000042c

0c000ed4 <NonsecureToSecureTransferError>:
  * @note   This function is executed when the transfer error interrupt
  *         is generated during DMA transfer
  * @retval None
  */
static void NonsecureToSecureTransferError(DMA_HandleTypeDef *hdma_memtomem_dma1_channel1)
{
 c000ed4:	b480      	push	{r7}
 c000ed6:	b083      	sub	sp, #12
 c000ed8:	af00      	add	r7, sp, #0
 c000eda:	6078      	str	r0, [r7, #4]
  NonsecureToSecureTransferErrorDetected = 1;
 c000edc:	4b04      	ldr	r3, [pc, #16]	; (c000ef0 <NonsecureToSecureTransferError+0x1c>)
 c000ede:	2201      	movs	r2, #1
 c000ee0:	601a      	str	r2, [r3, #0]
}
 c000ee2:	bf00      	nop
 c000ee4:	370c      	adds	r7, #12
 c000ee6:	46bd      	mov	sp, r7
 c000ee8:	f85d 7b04 	ldr.w	r7, [sp], #4
 c000eec:	4770      	bx	lr
 c000eee:	bf00      	nop
 c000ef0:	30000430 	.word	0x30000430

0c000ef4 <SecureToSecureTransferComplete>:
  * @note   This function is executed when the transfer complete interrupt
  *         is generated
  * @retval None
  */
static void SecureToSecureTransferComplete(DMA_HandleTypeDef *hdma_memtomem_dma1_channel4)
{
 c000ef4:	b480      	push	{r7}
 c000ef6:	b083      	sub	sp, #12
 c000ef8:	af00      	add	r7, sp, #0
 c000efa:	6078      	str	r0, [r7, #4]
  SecureToSecureTransferCompleteDetected = 1;
 c000efc:	4b04      	ldr	r3, [pc, #16]	; (c000f10 <SecureToSecureTransferComplete+0x1c>)
 c000efe:	2201      	movs	r2, #1
 c000f00:	601a      	str	r2, [r3, #0]
}
 c000f02:	bf00      	nop
 c000f04:	370c      	adds	r7, #12
 c000f06:	46bd      	mov	sp, r7
 c000f08:	f85d 7b04 	ldr.w	r7, [sp], #4
 c000f0c:	4770      	bx	lr
 c000f0e:	bf00      	nop
 c000f10:	30000438 	.word	0x30000438

0c000f14 <SecureToSecureTransferError>:
  * @note   This function is executed when the transfer error interrupt
  *         is generated during DMA transfer
  * @retval None
  */
static void SecureToSecureTransferError(DMA_HandleTypeDef *hdma_memtomem_dma1_channel4)
{
 c000f14:	b480      	push	{r7}
 c000f16:	b083      	sub	sp, #12
 c000f18:	af00      	add	r7, sp, #0
 c000f1a:	6078      	str	r0, [r7, #4]
  SecureToSecureTransferErrorDetected = 1;
 c000f1c:	4b04      	ldr	r3, [pc, #16]	; (c000f30 <SecureToSecureTransferError+0x1c>)
 c000f1e:	2201      	movs	r2, #1
 c000f20:	601a      	str	r2, [r3, #0]
}
 c000f22:	bf00      	nop
 c000f24:	370c      	adds	r7, #12
 c000f26:	46bd      	mov	sp, r7
 c000f28:	f85d 7b04 	ldr.w	r7, [sp], #4
 c000f2c:	4770      	bx	lr
 c000f2e:	bf00      	nop
 c000f30:	30000434 	.word	0x30000434

0c000f34 <Error_Handler>:
/**
  * @brief  This function is executed in case of error occurrence.
  * @retval None
  */
void Error_Handler(void)
{
 c000f34:	b480      	push	{r7}
 c000f36:	af00      	add	r7, sp, #0
  __ASM volatile ("cpsid i" : : : "memory");
 c000f38:	b672      	cpsid	i
}
 c000f3a:	bf00      	nop
  /* USER CODE BEGIN Error_Handler_Debug */
  /* User can add his own implementation to report the HAL error return state */
  __disable_irq();
  while (1)
 c000f3c:	e7fe      	b.n	c000f3c <Error_Handler+0x8>

0c000f3e <__acle_se_SECURE_print_Log>:
/* Private function prototypes -----------------------------------------------*/
/* Private functions ---------------------------------------------------------*/


//secure service for logging messages
CMSE_NS_ENTRY void SECURE_print_Log(char* string){
 c000f3e:	b580      	push	{r7, lr}
 c000f40:	b082      	sub	sp, #8
 c000f42:	af00      	add	r7, sp, #0
 c000f44:	6078      	str	r0, [r7, #4]
	printf(string);
 c000f46:	6878      	ldr	r0, [r7, #4]
 c000f48:	f005 fc98 	bl	c00687c <iprintf>
}
 c000f4c:	bf00      	nop
 c000f4e:	3708      	adds	r7, #8
 c000f50:	46bd      	mov	sp, r7
 c000f52:	e8bd 4080 	ldmia.w	sp!, {r7, lr}
 c000f56:	4670      	mov	r0, lr
 c000f58:	4671      	mov	r1, lr
 c000f5a:	4672      	mov	r2, lr
 c000f5c:	4673      	mov	r3, lr
 c000f5e:	eeb7 0a00 	vmov.f32	s0, #112	; 0x3f800000  1.0
 c000f62:	eef7 0a00 	vmov.f32	s1, #112	; 0x3f800000  1.0
 c000f66:	eeb7 1a00 	vmov.f32	s2, #112	; 0x3f800000  1.0
 c000f6a:	eef7 1a00 	vmov.f32	s3, #112	; 0x3f800000  1.0
 c000f6e:	eeb7 2a00 	vmov.f32	s4, #112	; 0x3f800000  1.0
 c000f72:	eef7 2a00 	vmov.f32	s5, #112	; 0x3f800000  1.0
 c000f76:	eeb7 3a00 	vmov.f32	s6, #112	; 0x3f800000  1.0
 c000f7a:	eef7 3a00 	vmov.f32	s7, #112	; 0x3f800000  1.0
 c000f7e:	eeb7 4a00 	vmov.f32	s8, #112	; 0x3f800000  1.0
 c000f82:	eef7 4a00 	vmov.f32	s9, #112	; 0x3f800000  1.0
 c000f86:	eeb7 5a00 	vmov.f32	s10, #112	; 0x3f800000  1.0
 c000f8a:	eef7 5a00 	vmov.f32	s11, #112	; 0x3f800000  1.0
 c000f8e:	eeb7 6a00 	vmov.f32	s12, #112	; 0x3f800000  1.0
 c000f92:	eef7 6a00 	vmov.f32	s13, #112	; 0x3f800000  1.0
 c000f96:	eeb7 7a00 	vmov.f32	s14, #112	; 0x3f800000  1.0
 c000f9a:	eef7 7a00 	vmov.f32	s15, #112	; 0x3f800000  1.0
 c000f9e:	f38e 8c00 	msr	CPSR_fs, lr
 c000fa2:	b410      	push	{r4}
 c000fa4:	eef1 ca10 	vmrs	ip, fpscr
 c000fa8:	f64f 7460 	movw	r4, #65376	; 0xff60
 c000fac:	f6c0 74ff 	movt	r4, #4095	; 0xfff
 c000fb0:	ea0c 0c04 	and.w	ip, ip, r4
 c000fb4:	eee1 ca10 	vmsr	fpscr, ip
 c000fb8:	bc10      	pop	{r4}
 c000fba:	46f4      	mov	ip, lr
 c000fbc:	4774      	bxns	lr
	...

0c000fc0 <__acle_se_SECURE_print_Num>:


//secure service for logging messages containing integer data
CMSE_NS_ENTRY void SECURE_print_Num(char* string, int num){
 c000fc0:	b580      	push	{r7, lr}
 c000fc2:	b082      	sub	sp, #8
 c000fc4:	af00      	add	r7, sp, #0
 c000fc6:	6078      	str	r0, [r7, #4]
 c000fc8:	6039      	str	r1, [r7, #0]
	printf("%s %d\n\r", string, num);
 c000fca:	683a      	ldr	r2, [r7, #0]
 c000fcc:	6879      	ldr	r1, [r7, #4]
 c000fce:	481e      	ldr	r0, [pc, #120]	; (c001048 <__acle_se_SECURE_print_Num+0x88>)
 c000fd0:	f005 fc54 	bl	c00687c <iprintf>
}
 c000fd4:	bf00      	nop
 c000fd6:	3708      	adds	r7, #8
 c000fd8:	46bd      	mov	sp, r7
 c000fda:	e8bd 4080 	ldmia.w	sp!, {r7, lr}
 c000fde:	4670      	mov	r0, lr
 c000fe0:	4671      	mov	r1, lr
 c000fe2:	4672      	mov	r2, lr
 c000fe4:	4673      	mov	r3, lr
 c000fe6:	eeb7 0a00 	vmov.f32	s0, #112	; 0x3f800000  1.0
 c000fea:	eef7 0a00 	vmov.f32	s1, #112	; 0x3f800000  1.0
 c000fee:	eeb7 1a00 	vmov.f32	s2, #112	; 0x3f800000  1.0
 c000ff2:	eef7 1a00 	vmov.f32	s3, #112	; 0x3f800000  1.0
 c000ff6:	eeb7 2a00 	vmov.f32	s4, #112	; 0x3f800000  1.0
 c000ffa:	eef7 2a00 	vmov.f32	s5, #112	; 0x3f800000  1.0
 c000ffe:	eeb7 3a00 	vmov.f32	s6, #112	; 0x3f800000  1.0
 c001002:	eef7 3a00 	vmov.f32	s7, #112	; 0x3f800000  1.0
 c001006:	eeb7 4a00 	vmov.f32	s8, #112	; 0x3f800000  1.0
 c00100a:	eef7 4a00 	vmov.f32	s9, #112	; 0x3f800000  1.0
 c00100e:	eeb7 5a00 	vmov.f32	s10, #112	; 0x3f800000  1.0
 c001012:	eef7 5a00 	vmov.f32	s11, #112	; 0x3f800000  1.0
 c001016:	eeb7 6a00 	vmov.f32	s12, #112	; 0x3f800000  1.0
 c00101a:	eef7 6a00 	vmov.f32	s13, #112	; 0x3f800000  1.0
 c00101e:	eeb7 7a00 	vmov.f32	s14, #112	; 0x3f800000  1.0
 c001022:	eef7 7a00 	vmov.f32	s15, #112	; 0x3f800000  1.0
 c001026:	f38e 8c00 	msr	CPSR_fs, lr
 c00102a:	b410      	push	{r4}
 c00102c:	eef1 ca10 	vmrs	ip, fpscr
 c001030:	f64f 7460 	movw	r4, #65376	; 0xff60
 c001034:	f6c0 74ff 	movt	r4, #4095	; 0xfff
 c001038:	ea0c 0c04 	and.w	ip, ip, r4
 c00103c:	eee1 ca10 	vmsr	fpscr, ip
 c001040:	bc10      	pop	{r4}
 c001042:	46f4      	mov	ip, lr
 c001044:	4774      	bxns	lr
 c001046:	bf00      	nop
 c001048:	0c007db0 	.word	0x0c007db0

0c00104c <__acle_se_SECURE_Send_Mem>:
//		SECURE_SPI_Toggle_Comm(1);
//	    SECURE_print_Log("Total number of bytes sent:\n\r");
//	    SECURE_print_Num(numBytesSent);
//}

CMSE_NS_ENTRY void SECURE_Send_Mem(){
 c00104c:	e92d 43f0 	stmdb	sp!, {r4, r5, r6, r7, r8, r9, lr}
 c001050:	f2ad 4d2c 	subw	sp, sp, #1068	; 0x42c
 c001054:	af00      	add	r7, sp, #0
 c001056:	466b      	mov	r3, sp
 c001058:	461e      	mov	r6, r3

	int modifiedBlockNums[256] = {0, 1, 10, 21, 100};
 c00105a:	f507 6385 	add.w	r3, r7, #1064	; 0x428
 c00105e:	f5a3 6384 	sub.w	r3, r3, #1056	; 0x420
 c001062:	4618      	mov	r0, r3
 c001064:	f44f 6380 	mov.w	r3, #1024	; 0x400
 c001068:	461a      	mov	r2, r3
 c00106a:	2100      	movs	r1, #0
 c00106c:	f005 fbfe 	bl	c00686c <memset>
 c001070:	f507 6385 	add.w	r3, r7, #1064	; 0x428
 c001074:	f5a3 6384 	sub.w	r3, r3, #1056	; 0x420
 c001078:	2201      	movs	r2, #1
 c00107a:	605a      	str	r2, [r3, #4]
 c00107c:	f507 6385 	add.w	r3, r7, #1064	; 0x428
 c001080:	f5a3 6384 	sub.w	r3, r3, #1056	; 0x420
 c001084:	220a      	movs	r2, #10
 c001086:	609a      	str	r2, [r3, #8]
 c001088:	f507 6385 	add.w	r3, r7, #1064	; 0x428
 c00108c:	f5a3 6384 	sub.w	r3, r3, #1056	; 0x420
 c001090:	2215      	movs	r2, #21
 c001092:	60da      	str	r2, [r3, #12]
 c001094:	f507 6385 	add.w	r3, r7, #1064	; 0x428
 c001098:	f5a3 6384 	sub.w	r3, r3, #1056	; 0x420
 c00109c:	2264      	movs	r2, #100	; 0x64
 c00109e:	611a      	str	r2, [r3, #16]
	int numModified = 5;
 c0010a0:	f507 6385 	add.w	r3, r7, #1064	; 0x428
 c0010a4:	f2a3 4324 	subw	r3, r3, #1060	; 0x424
 c0010a8:	2205      	movs	r2, #5
 c0010aa:	601a      	str	r2, [r3, #0]
//	int numModified = 0;
	blockNum = 0;
 c0010ac:	4bc5      	ldr	r3, [pc, #788]	; (c0013c4 <__acle_se_SECURE_Send_Mem+0x378>)
 c0010ae:	2200      	movs	r2, #0
 c0010b0:	601a      	str	r2, [r3, #0]
	int max_blocks_modified = 8;
 c0010b2:	2308      	movs	r3, #8
 c0010b4:	f8c7 341c 	str.w	r3, [r7, #1052]	; 0x41c
	int max_block_list_size = 3 * max_blocks_modified + max_blocks_modified;
 c0010b8:	f8d7 341c 	ldr.w	r3, [r7, #1052]	; 0x41c
 c0010bc:	009b      	lsls	r3, r3, #2
 c0010be:	f8c7 3418 	str.w	r3, [r7, #1048]	; 0x418
//		  current_address += BUFFER_SIZE/4;
//	  }

	  //if 8 or fewer blocks have changed, send them in a blocking manner to esp32
//	if(numModified <= 8 && numModified > 0){
		printf("%d blocks have changed\n\r", numModified);
 c0010c2:	f507 6385 	add.w	r3, r7, #1064	; 0x428
 c0010c6:	f2a3 4324 	subw	r3, r3, #1060	; 0x424
 c0010ca:	681b      	ldr	r3, [r3, #0]
 c0010cc:	4619      	mov	r1, r3
 c0010ce:	48be      	ldr	r0, [pc, #760]	; (c0013c8 <__acle_se_SECURE_Send_Mem+0x37c>)
 c0010d0:	f005 fbd4 	bl	c00687c <iprintf>

		//build list of modified block numbers
		char formattedBlockNums[max_block_list_size];
 c0010d4:	f8d7 1418 	ldr.w	r1, [r7, #1048]	; 0x418
 c0010d8:	1e4b      	subs	r3, r1, #1
 c0010da:	f8c7 3414 	str.w	r3, [r7, #1044]	; 0x414
 c0010de:	460a      	mov	r2, r1
 c0010e0:	2300      	movs	r3, #0
 c0010e2:	4690      	mov	r8, r2
 c0010e4:	4699      	mov	r9, r3
 c0010e6:	f04f 0200 	mov.w	r2, #0
 c0010ea:	f04f 0300 	mov.w	r3, #0
 c0010ee:	ea4f 03c9 	mov.w	r3, r9, lsl #3
 c0010f2:	ea43 7358 	orr.w	r3, r3, r8, lsr #29
 c0010f6:	ea4f 02c8 	mov.w	r2, r8, lsl #3
 c0010fa:	460a      	mov	r2, r1
 c0010fc:	2300      	movs	r3, #0
 c0010fe:	4614      	mov	r4, r2
 c001100:	461d      	mov	r5, r3
 c001102:	f04f 0200 	mov.w	r2, #0
 c001106:	f04f 0300 	mov.w	r3, #0
 c00110a:	00eb      	lsls	r3, r5, #3
 c00110c:	ea43 7354 	orr.w	r3, r3, r4, lsr #29
 c001110:	00e2      	lsls	r2, r4, #3
 c001112:	460b      	mov	r3, r1
 c001114:	3307      	adds	r3, #7
 c001116:	08db      	lsrs	r3, r3, #3
 c001118:	00db      	lsls	r3, r3, #3
 c00111a:	ebad 0d03 	sub.w	sp, sp, r3
 c00111e:	466b      	mov	r3, sp
 c001120:	3300      	adds	r3, #0
 c001122:	f8c7 3410 	str.w	r3, [r7, #1040]	; 0x410
		int inc = 0;
 c001126:	2300      	movs	r3, #0
 c001128:	f8c7 340c 	str.w	r3, [r7, #1036]	; 0x40c
		int pos = 0;
 c00112c:	f507 6385 	add.w	r3, r7, #1064	; 0x428
 c001130:	f5a3 6385 	sub.w	r3, r3, #1064	; 0x428
 c001134:	2200      	movs	r2, #0
 c001136:	601a      	str	r2, [r3, #0]
		inc = snprintf(&formattedBlockNums[pos], max_block_list_size, "%d", modifiedBlockNums[0]);
 c001138:	f507 6385 	add.w	r3, r7, #1064	; 0x428
 c00113c:	f5a3 6385 	sub.w	r3, r3, #1064	; 0x428
 c001140:	681b      	ldr	r3, [r3, #0]
 c001142:	f8d7 2410 	ldr.w	r2, [r7, #1040]	; 0x410
 c001146:	18d0      	adds	r0, r2, r3
 c001148:	f8d7 1418 	ldr.w	r1, [r7, #1048]	; 0x418
 c00114c:	f507 6385 	add.w	r3, r7, #1064	; 0x428
 c001150:	f5a3 6384 	sub.w	r3, r3, #1056	; 0x420
 c001154:	681b      	ldr	r3, [r3, #0]
 c001156:	4a9d      	ldr	r2, [pc, #628]	; (c0013cc <__acle_se_SECURE_Send_Mem+0x380>)
 c001158:	f005 fba8 	bl	c0068ac <sniprintf>
 c00115c:	f8c7 040c 	str.w	r0, [r7, #1036]	; 0x40c
		pos += inc;
 c001160:	f507 6385 	add.w	r3, r7, #1064	; 0x428
 c001164:	f5a3 6385 	sub.w	r3, r3, #1064	; 0x428
 c001168:	681a      	ldr	r2, [r3, #0]
 c00116a:	f8d7 340c 	ldr.w	r3, [r7, #1036]	; 0x40c
 c00116e:	441a      	add	r2, r3
 c001170:	f507 6385 	add.w	r3, r7, #1064	; 0x428
 c001174:	f5a3 6385 	sub.w	r3, r3, #1064	; 0x428
 c001178:	601a      	str	r2, [r3, #0]
		//send the block list out through spi as a comma separated list
		for(int i = 1; i < numModified; i++){
 c00117a:	2301      	movs	r3, #1
 c00117c:	f8c7 3420 	str.w	r3, [r7, #1056]	; 0x420
 c001180:	e030      	b.n	c0011e4 <__acle_se_SECURE_Send_Mem+0x198>
			inc = snprintf(&formattedBlockNums[pos], max_block_list_size-pos+1, ",%d",modifiedBlockNums[i]);
 c001182:	f507 6385 	add.w	r3, r7, #1064	; 0x428
 c001186:	f5a3 6385 	sub.w	r3, r3, #1064	; 0x428
 c00118a:	681b      	ldr	r3, [r3, #0]
 c00118c:	f8d7 2410 	ldr.w	r2, [r7, #1040]	; 0x410
 c001190:	18d0      	adds	r0, r2, r3
 c001192:	f507 6385 	add.w	r3, r7, #1064	; 0x428
 c001196:	f5a3 6385 	sub.w	r3, r3, #1064	; 0x428
 c00119a:	681b      	ldr	r3, [r3, #0]
 c00119c:	f8d7 2418 	ldr.w	r2, [r7, #1048]	; 0x418
 c0011a0:	1ad3      	subs	r3, r2, r3
 c0011a2:	3301      	adds	r3, #1
 c0011a4:	4619      	mov	r1, r3
 c0011a6:	f507 6385 	add.w	r3, r7, #1064	; 0x428
 c0011aa:	f5a3 6384 	sub.w	r3, r3, #1056	; 0x420
 c0011ae:	f8d7 2420 	ldr.w	r2, [r7, #1056]	; 0x420
 c0011b2:	f853 3022 	ldr.w	r3, [r3, r2, lsl #2]
 c0011b6:	4a86      	ldr	r2, [pc, #536]	; (c0013d0 <__acle_se_SECURE_Send_Mem+0x384>)
 c0011b8:	f005 fb78 	bl	c0068ac <sniprintf>
 c0011bc:	f8c7 040c 	str.w	r0, [r7, #1036]	; 0x40c
			pos+= inc;
 c0011c0:	f507 6385 	add.w	r3, r7, #1064	; 0x428
 c0011c4:	f5a3 6385 	sub.w	r3, r3, #1064	; 0x428
 c0011c8:	681a      	ldr	r2, [r3, #0]
 c0011ca:	f8d7 340c 	ldr.w	r3, [r7, #1036]	; 0x40c
 c0011ce:	441a      	add	r2, r3
 c0011d0:	f507 6385 	add.w	r3, r7, #1064	; 0x428
 c0011d4:	f5a3 6385 	sub.w	r3, r3, #1064	; 0x428
 c0011d8:	601a      	str	r2, [r3, #0]
		for(int i = 1; i < numModified; i++){
 c0011da:	f8d7 3420 	ldr.w	r3, [r7, #1056]	; 0x420
 c0011de:	3301      	adds	r3, #1
 c0011e0:	f8c7 3420 	str.w	r3, [r7, #1056]	; 0x420
 c0011e4:	f507 6385 	add.w	r3, r7, #1064	; 0x428
 c0011e8:	f2a3 4324 	subw	r3, r3, #1060	; 0x424
 c0011ec:	681b      	ldr	r3, [r3, #0]
 c0011ee:	f8d7 2420 	ldr.w	r2, [r7, #1056]	; 0x420
 c0011f2:	429a      	cmp	r2, r3
 c0011f4:	dbc5      	blt.n	c001182 <__acle_se_SECURE_Send_Mem+0x136>
		}

		//toggle spi communication
		SECURE_SPI_Toggle_Comm(0);
 c0011f6:	2000      	movs	r0, #0
 c0011f8:	f000 fa28 	bl	c00164c <SECURE_SPI_Toggle_Comm>
		//send the start size signal through SPI
		SECURE_SPI_Send_Signal(START_SIZE_SIG, START_SIZE_SIG_SIZE);
 c0011fc:	4b75      	ldr	r3, [pc, #468]	; (c0013d4 <__acle_se_SECURE_Send_Mem+0x388>)
 c0011fe:	681b      	ldr	r3, [r3, #0]
 c001200:	4619      	mov	r1, r3
 c001202:	4875      	ldr	r0, [pc, #468]	; (c0013d8 <__acle_se_SECURE_Send_Mem+0x38c>)
 c001204:	f000 f906 	bl	c001414 <SECURE_SPI_Send_Signal>
		HAL_Delay(800);
 c001208:	f44f 7048 	mov.w	r0, #800	; 0x320
 c00120c:	f000 ff64 	bl	c0020d8 <HAL_Delay>
		//send the number of modified blocks
		SECURE_SPI_Send_Size((uint8_t*) &numModified);
 c001210:	1d3b      	adds	r3, r7, #4
 c001212:	4618      	mov	r0, r3
 c001214:	f000 f938 	bl	c001488 <SECURE_SPI_Send_Size>
		HAL_Delay(800);
 c001218:	f44f 7048 	mov.w	r0, #800	; 0x320
 c00121c:	f000 ff5c 	bl	c0020d8 <HAL_Delay>
		//end the end size signal
		SECURE_SPI_Send_Signal(END_SIZE_SIG, END_SIZE_SIG_SIZE);
 c001220:	4b6e      	ldr	r3, [pc, #440]	; (c0013dc <__acle_se_SECURE_Send_Mem+0x390>)
 c001222:	681b      	ldr	r3, [r3, #0]
 c001224:	4619      	mov	r1, r3
 c001226:	486e      	ldr	r0, [pc, #440]	; (c0013e0 <__acle_se_SECURE_Send_Mem+0x394>)
 c001228:	f000 f8f4 	bl	c001414 <SECURE_SPI_Send_Signal>
		HAL_Delay(800);
 c00122c:	f44f 7048 	mov.w	r0, #800	; 0x320
 c001230:	f000 ff52 	bl	c0020d8 <HAL_Delay>
		SECURE_SPI_Toggle_Comm(1);
 c001234:	2001      	movs	r0, #1
 c001236:	f000 fa09 	bl	c00164c <SECURE_SPI_Toggle_Comm>
		HAL_Delay(1000);
 c00123a:	f44f 707a 	mov.w	r0, #1000	; 0x3e8
 c00123e:	f000 ff4b 	bl	c0020d8 <HAL_Delay>
		//send size of modified block list
		SECURE_SPI_Toggle_Comm(0);
 c001242:	2000      	movs	r0, #0
 c001244:	f000 fa02 	bl	c00164c <SECURE_SPI_Toggle_Comm>
		//send the start size signal through SPI
		SECURE_SPI_Send_Signal(START_BLOCK_LIST_SIZE_SIG, START_BLOCK_LIST_SIZE);
 c001248:	4b66      	ldr	r3, [pc, #408]	; (c0013e4 <__acle_se_SECURE_Send_Mem+0x398>)
 c00124a:	681b      	ldr	r3, [r3, #0]
 c00124c:	4619      	mov	r1, r3
 c00124e:	4866      	ldr	r0, [pc, #408]	; (c0013e8 <__acle_se_SECURE_Send_Mem+0x39c>)
 c001250:	f000 f8e0 	bl	c001414 <SECURE_SPI_Send_Signal>
		HAL_Delay(800);
 c001254:	f44f 7048 	mov.w	r0, #800	; 0x320
 c001258:	f000 ff3e 	bl	c0020d8 <HAL_Delay>
		//send the number of modified blocks
		SECURE_SPI_Send_Size((uint8_t*) &pos);
 c00125c:	463b      	mov	r3, r7
 c00125e:	4618      	mov	r0, r3
 c001260:	f000 f912 	bl	c001488 <SECURE_SPI_Send_Size>
		HAL_Delay(800);
 c001264:	f44f 7048 	mov.w	r0, #800	; 0x320
 c001268:	f000 ff36 	bl	c0020d8 <HAL_Delay>
		//end the end size signal
		SECURE_SPI_Send_Signal(END_BLOCK_LIST_SIZE_SIG, END_BLOCK_LIST_SIZE);
 c00126c:	4b5f      	ldr	r3, [pc, #380]	; (c0013ec <__acle_se_SECURE_Send_Mem+0x3a0>)
 c00126e:	681b      	ldr	r3, [r3, #0]
 c001270:	4619      	mov	r1, r3
 c001272:	485f      	ldr	r0, [pc, #380]	; (c0013f0 <__acle_se_SECURE_Send_Mem+0x3a4>)
 c001274:	f000 f8ce 	bl	c001414 <SECURE_SPI_Send_Signal>
		HAL_Delay(800);
 c001278:	f44f 7048 	mov.w	r0, #800	; 0x320
 c00127c:	f000 ff2c 	bl	c0020d8 <HAL_Delay>
		SECURE_SPI_Toggle_Comm(1);
 c001280:	2001      	movs	r0, #1
 c001282:	f000 f9e3 	bl	c00164c <SECURE_SPI_Toggle_Comm>
		//send the modified block list
		SECURE_SPI_Toggle_Comm(0);
 c001286:	2000      	movs	r0, #0
 c001288:	f000 f9e0 	bl	c00164c <SECURE_SPI_Toggle_Comm>
		SECURE_SPI_Send_Signal(START_BLOCK_NUMS_SIG, START_BLOCK_NUMS_SIZE);
 c00128c:	4b59      	ldr	r3, [pc, #356]	; (c0013f4 <__acle_se_SECURE_Send_Mem+0x3a8>)
 c00128e:	681b      	ldr	r3, [r3, #0]
 c001290:	4619      	mov	r1, r3
 c001292:	4859      	ldr	r0, [pc, #356]	; (c0013f8 <__acle_se_SECURE_Send_Mem+0x3ac>)
 c001294:	f000 f8be 	bl	c001414 <SECURE_SPI_Send_Signal>
		HAL_Delay(800);
 c001298:	f44f 7048 	mov.w	r0, #800	; 0x320
 c00129c:	f000 ff1c 	bl	c0020d8 <HAL_Delay>
		SECURE_SPI_Send_Block_List(formattedBlockNums, pos);
 c0012a0:	f507 6385 	add.w	r3, r7, #1064	; 0x428
 c0012a4:	f5a3 6385 	sub.w	r3, r3, #1064	; 0x428
 c0012a8:	681b      	ldr	r3, [r3, #0]
 c0012aa:	4619      	mov	r1, r3
 c0012ac:	f8d7 0410 	ldr.w	r0, [r7, #1040]	; 0x410
 c0012b0:	f000 f994 	bl	c0015dc <SECURE_SPI_Send_Block_List>
		HAL_Delay(800);
 c0012b4:	f44f 7048 	mov.w	r0, #800	; 0x320
 c0012b8:	f000 ff0e 	bl	c0020d8 <HAL_Delay>
		SECURE_SPI_Send_Signal(END_BLOCK_NUMS_SIG, END_BLOCK_NUMS_SIZE);
 c0012bc:	4b4f      	ldr	r3, [pc, #316]	; (c0013fc <__acle_se_SECURE_Send_Mem+0x3b0>)
 c0012be:	681b      	ldr	r3, [r3, #0]
 c0012c0:	4619      	mov	r1, r3
 c0012c2:	484f      	ldr	r0, [pc, #316]	; (c001400 <__acle_se_SECURE_Send_Mem+0x3b4>)
 c0012c4:	f000 f8a6 	bl	c001414 <SECURE_SPI_Send_Signal>
		HAL_Delay(800);
 c0012c8:	f44f 7048 	mov.w	r0, #800	; 0x320
 c0012cc:	f000 ff04 	bl	c0020d8 <HAL_Delay>
		SECURE_SPI_Toggle_Comm(1);
 c0012d0:	2001      	movs	r0, #1
 c0012d2:	f000 f9bb 	bl	c00164c <SECURE_SPI_Toggle_Comm>
		HAL_Delay(1000);
 c0012d6:	f44f 707a 	mov.w	r0, #1000	; 0x3e8
 c0012da:	f000 fefd 	bl	c0020d8 <HAL_Delay>
		SECURE_SPI_Toggle_Comm(0);
 c0012de:	2000      	movs	r0, #0
 c0012e0:	f000 f9b4 	bl	c00164c <SECURE_SPI_Toggle_Comm>
		//send the start signal
		SECURE_SPI_Send_Signal(START_TRANSMISSION_SIG, START_TRANS_SIZE);
 c0012e4:	4b47      	ldr	r3, [pc, #284]	; (c001404 <__acle_se_SECURE_Send_Mem+0x3b8>)
 c0012e6:	681b      	ldr	r3, [r3, #0]
 c0012e8:	4619      	mov	r1, r3
 c0012ea:	4847      	ldr	r0, [pc, #284]	; (c001408 <__acle_se_SECURE_Send_Mem+0x3bc>)
 c0012ec:	f000 f892 	bl	c001414 <SECURE_SPI_Send_Signal>
		//now send each of the blocks
		for(int i = 0; i < numModified; i++){
 c0012f0:	2300      	movs	r3, #0
 c0012f2:	f8c7 3424 	str.w	r3, [r7, #1060]	; 0x424
 c0012f6:	e017      	b.n	c001328 <__acle_se_SECURE_Send_Mem+0x2dc>
			//calculate the address of the next block to send
			uint32_t addrOfNextBlock = NSEC_MEM_START + modifiedBlockNums[i]*BUFFER_SIZE;
 c0012f8:	f507 6385 	add.w	r3, r7, #1064	; 0x428
 c0012fc:	f5a3 6384 	sub.w	r3, r3, #1056	; 0x420
 c001300:	f8d7 2424 	ldr.w	r2, [r7, #1060]	; 0x424
 c001304:	f853 3022 	ldr.w	r3, [r3, r2, lsl #2]
 c001308:	f503 3300 	add.w	r3, r3, #131072	; 0x20000
 c00130c:	f503 7380 	add.w	r3, r3, #256	; 0x100
 c001310:	029b      	lsls	r3, r3, #10
 c001312:	f8c7 3408 	str.w	r3, [r7, #1032]	; 0x408
			//send through SPI
			SECURE_SPI_Send_Data_Block(addrOfNextBlock);
 c001316:	f8d7 0408 	ldr.w	r0, [r7, #1032]	; 0x408
 c00131a:	f000 f8eb 	bl	c0014f4 <SECURE_SPI_Send_Data_Block>
		for(int i = 0; i < numModified; i++){
 c00131e:	f8d7 3424 	ldr.w	r3, [r7, #1060]	; 0x424
 c001322:	3301      	adds	r3, #1
 c001324:	f8c7 3424 	str.w	r3, [r7, #1060]	; 0x424
 c001328:	f507 6385 	add.w	r3, r7, #1064	; 0x428
 c00132c:	f2a3 4324 	subw	r3, r3, #1060	; 0x424
 c001330:	681b      	ldr	r3, [r3, #0]
 c001332:	f8d7 2424 	ldr.w	r2, [r7, #1060]	; 0x424
 c001336:	429a      	cmp	r2, r3
 c001338:	dbde      	blt.n	c0012f8 <__acle_se_SECURE_Send_Mem+0x2ac>
		}
		//send the end signal
		SECURE_SPI_Send_Signal(END_TRANSMISSION_SIG, END_TRANS_SIZE);
 c00133a:	4b34      	ldr	r3, [pc, #208]	; (c00140c <__acle_se_SECURE_Send_Mem+0x3c0>)
 c00133c:	681b      	ldr	r3, [r3, #0]
 c00133e:	4619      	mov	r1, r3
 c001340:	4833      	ldr	r0, [pc, #204]	; (c001410 <__acle_se_SECURE_Send_Mem+0x3c4>)
 c001342:	f000 f867 	bl	c001414 <SECURE_SPI_Send_Signal>
		//toggle spi communication
		SECURE_SPI_Toggle_Comm(1);
 c001346:	2001      	movs	r0, #1
 c001348:	f000 f980 	bl	c00164c <SECURE_SPI_Toggle_Comm>
 c00134c:	46b5      	mov	sp, r6
//		printf("The number of blocks modified is equal to zero.\n\r");
//	}else{
//		printf("numBlocks is an invalid (negative) integer.\n\r");
//	}

}
 c00134e:	bf00      	nop
 c001350:	f207 472c 	addw	r7, r7, #1068	; 0x42c
 c001354:	46bd      	mov	sp, r7
 c001356:	e8bd 43f0 	ldmia.w	sp!, {r4, r5, r6, r7, r8, r9, lr}
 c00135a:	4670      	mov	r0, lr
 c00135c:	4671      	mov	r1, lr
 c00135e:	4672      	mov	r2, lr
 c001360:	4673      	mov	r3, lr
 c001362:	eeb7 0a00 	vmov.f32	s0, #112	; 0x3f800000  1.0
 c001366:	eef7 0a00 	vmov.f32	s1, #112	; 0x3f800000  1.0
 c00136a:	eeb7 1a00 	vmov.f32	s2, #112	; 0x3f800000  1.0
 c00136e:	eef7 1a00 	vmov.f32	s3, #112	; 0x3f800000  1.0
 c001372:	eeb7 2a00 	vmov.f32	s4, #112	; 0x3f800000  1.0
 c001376:	eef7 2a00 	vmov.f32	s5, #112	; 0x3f800000  1.0
 c00137a:	eeb7 3a00 	vmov.f32	s6, #112	; 0x3f800000  1.0
 c00137e:	eef7 3a00 	vmov.f32	s7, #112	; 0x3f800000  1.0
 c001382:	eeb7 4a00 	vmov.f32	s8, #112	; 0x3f800000  1.0
 c001386:	eef7 4a00 	vmov.f32	s9, #112	; 0x3f800000  1.0
 c00138a:	eeb7 5a00 	vmov.f32	s10, #112	; 0x3f800000  1.0
 c00138e:	eef7 5a00 	vmov.f32	s11, #112	; 0x3f800000  1.0
 c001392:	eeb7 6a00 	vmov.f32	s12, #112	; 0x3f800000  1.0
 c001396:	eef7 6a00 	vmov.f32	s13, #112	; 0x3f800000  1.0
 c00139a:	eeb7 7a00 	vmov.f32	s14, #112	; 0x3f800000  1.0
 c00139e:	eef7 7a00 	vmov.f32	s15, #112	; 0x3f800000  1.0
 c0013a2:	f38e 8c00 	msr	CPSR_fs, lr
 c0013a6:	b410      	push	{r4}
 c0013a8:	eef1 ca10 	vmrs	ip, fpscr
 c0013ac:	f64f 7460 	movw	r4, #65376	; 0xff60
 c0013b0:	f6c0 74ff 	movt	r4, #4095	; 0xfff
 c0013b4:	ea0c 0c04 	and.w	ip, ip, r4
 c0013b8:	eee1 ca10 	vmsr	fpscr, ip
 c0013bc:	bc10      	pop	{r4}
 c0013be:	46f4      	mov	ip, lr
 c0013c0:	4774      	bxns	lr
 c0013c2:	bf00      	nop
 c0013c4:	3000184c 	.word	0x3000184c
 c0013c8:	0c007db8 	.word	0x0c007db8
 c0013cc:	0c007dd4 	.word	0x0c007dd4
 c0013d0:	0c007dd8 	.word	0x0c007dd8
 c0013d4:	300000a0 	.word	0x300000a0
 c0013d8:	3000002c 	.word	0x3000002c
 c0013dc:	300000a4 	.word	0x300000a4
 c0013e0:	3000003c 	.word	0x3000003c
 c0013e4:	300000b8 	.word	0x300000b8
 c0013e8:	30000070 	.word	0x30000070
 c0013ec:	300000bc 	.word	0x300000bc
 c0013f0:	30000088 	.word	0x30000088
 c0013f4:	300000b0 	.word	0x300000b0
 c0013f8:	30000048 	.word	0x30000048
 c0013fc:	300000b4 	.word	0x300000b4
 c001400:	3000005c 	.word	0x3000005c
 c001404:	300000a8 	.word	0x300000a8
 c001408:	30000014 	.word	0x30000014
 c00140c:	300000ac 	.word	0x300000ac
 c001410:	30000000 	.word	0x30000000

0c001414 <SECURE_SPI_Send_Signal>:



//sends the start transmission signal out through the SPI Stream
//this allows the esp32 to know that the data it is receiving is the number of modifed memory blocks
void SECURE_SPI_Send_Signal(uint8_t* signal, int size){
 c001414:	b580      	push	{r7, lr}
 c001416:	b082      	sub	sp, #8
 c001418:	af00      	add	r7, sp, #0
 c00141a:	6078      	str	r0, [r7, #4]
 c00141c:	6039      	str	r1, [r7, #0]
	wTransferState = TRANSFER_WAIT;
 c00141e:	4b15      	ldr	r3, [pc, #84]	; (c001474 <SECURE_SPI_Send_Signal+0x60>)
 c001420:	2200      	movs	r2, #0
 c001422:	601a      	str	r2, [r3, #0]

	printf("Sending the %s signal...\n\r", (char*)signal);
 c001424:	6879      	ldr	r1, [r7, #4]
 c001426:	4814      	ldr	r0, [pc, #80]	; (c001478 <SECURE_SPI_Send_Signal+0x64>)
 c001428:	f005 fa28 	bl	c00687c <iprintf>
	if (HAL_SPI_Transmit_DMA(&hspi3, (uint8_t *)signal, size) != HAL_OK)
 c00142c:	683b      	ldr	r3, [r7, #0]
 c00142e:	b29b      	uxth	r3, r3
 c001430:	461a      	mov	r2, r3
 c001432:	6879      	ldr	r1, [r7, #4]
 c001434:	4811      	ldr	r0, [pc, #68]	; (c00147c <SECURE_SPI_Send_Signal+0x68>)
 c001436:	f004 f809 	bl	c00544c <HAL_SPI_Transmit_DMA>
 c00143a:	4603      	mov	r3, r0
 c00143c:	2b00      	cmp	r3, #0
 c00143e:	d004      	beq.n	c00144a <SECURE_SPI_Send_Signal+0x36>
	 {
		 /* Transfer error in transmission process */
		 printf("There was an error in starting up tx.\n\r");
 c001440:	480f      	ldr	r0, [pc, #60]	; (c001480 <SECURE_SPI_Send_Signal+0x6c>)
 c001442:	f005 fa1b 	bl	c00687c <iprintf>
		 Error_Handler();
 c001446:	f7ff fd75 	bl	c000f34 <Error_Handler>
	 }

	 /*##-2- Wait for the end of the transfer ###################################*/
	 while (wTransferState == TRANSFER_WAIT)
 c00144a:	bf00      	nop
 c00144c:	4b09      	ldr	r3, [pc, #36]	; (c001474 <SECURE_SPI_Send_Signal+0x60>)
 c00144e:	681b      	ldr	r3, [r3, #0]
 c001450:	2b00      	cmp	r3, #0
 c001452:	d0fb      	beq.n	c00144c <SECURE_SPI_Send_Signal+0x38>
	 {
	 }

	//check SpI transfer state
	 switch (wTransferState)
 c001454:	4b07      	ldr	r3, [pc, #28]	; (c001474 <SECURE_SPI_Send_Signal+0x60>)
 c001456:	681b      	ldr	r3, [r3, #0]
 c001458:	2b01      	cmp	r3, #1
 c00145a:	d104      	bne.n	c001466 <SECURE_SPI_Send_Signal+0x52>
	 {
		 case TRANSFER_COMPLETE:
		   printf("The %s signal was successfully transmitted\n\r", (char*)signal);
 c00145c:	6879      	ldr	r1, [r7, #4]
 c00145e:	4809      	ldr	r0, [pc, #36]	; (c001484 <SECURE_SPI_Send_Signal+0x70>)
 c001460:	f005 fa0c 	bl	c00687c <iprintf>
		   break;
 c001464:	e002      	b.n	c00146c <SECURE_SPI_Send_Signal+0x58>
		 default :
		   Error_Handler();
 c001466:	f7ff fd65 	bl	c000f34 <Error_Handler>
		   break;
 c00146a:	bf00      	nop
	 }
}
 c00146c:	bf00      	nop
 c00146e:	3708      	adds	r7, #8
 c001470:	46bd      	mov	sp, r7
 c001472:	bd80      	pop	{r7, pc}
 c001474:	30000428 	.word	0x30000428
 c001478:	0c007ddc 	.word	0x0c007ddc
 c00147c:	30000190 	.word	0x30000190
 c001480:	0c007df8 	.word	0x0c007df8
 c001484:	0c007e20 	.word	0x0c007e20

0c001488 <SECURE_SPI_Send_Size>:



//sends the number of modifed memory blocks out through the SPI Stream
//this allows the esp32 to know how many memory blocks it needs to receive
void SECURE_SPI_Send_Size(uint8_t* numModified){
 c001488:	b580      	push	{r7, lr}
 c00148a:	b082      	sub	sp, #8
 c00148c:	af00      	add	r7, sp, #0
 c00148e:	6078      	str	r0, [r7, #4]
	wTransferState = TRANSFER_WAIT;
 c001490:	4b13      	ldr	r3, [pc, #76]	; (c0014e0 <SECURE_SPI_Send_Size+0x58>)
 c001492:	2200      	movs	r2, #0
 c001494:	601a      	str	r2, [r3, #0]

	printf("Sending the start size signal...\n\r");
 c001496:	4813      	ldr	r0, [pc, #76]	; (c0014e4 <SECURE_SPI_Send_Size+0x5c>)
 c001498:	f005 f9f0 	bl	c00687c <iprintf>
	if (HAL_SPI_Transmit_DMA(&hspi3, (uint8_t *) numModified, 1) != HAL_OK)
 c00149c:	2201      	movs	r2, #1
 c00149e:	6879      	ldr	r1, [r7, #4]
 c0014a0:	4811      	ldr	r0, [pc, #68]	; (c0014e8 <SECURE_SPI_Send_Size+0x60>)
 c0014a2:	f003 ffd3 	bl	c00544c <HAL_SPI_Transmit_DMA>
 c0014a6:	4603      	mov	r3, r0
 c0014a8:	2b00      	cmp	r3, #0
 c0014aa:	d004      	beq.n	c0014b6 <SECURE_SPI_Send_Size+0x2e>
	 {
		 /* Transfer error in transmission process */
		 printf("There was an error in starting up tx.\n\r");
 c0014ac:	480f      	ldr	r0, [pc, #60]	; (c0014ec <SECURE_SPI_Send_Size+0x64>)
 c0014ae:	f005 f9e5 	bl	c00687c <iprintf>
		 Error_Handler();
 c0014b2:	f7ff fd3f 	bl	c000f34 <Error_Handler>
	 }

	 /*##-2- Wait for the end of the transfer ###################################*/
	 while (wTransferState == TRANSFER_WAIT)
 c0014b6:	bf00      	nop
 c0014b8:	4b09      	ldr	r3, [pc, #36]	; (c0014e0 <SECURE_SPI_Send_Size+0x58>)
 c0014ba:	681b      	ldr	r3, [r3, #0]
 c0014bc:	2b00      	cmp	r3, #0
 c0014be:	d0fb      	beq.n	c0014b8 <SECURE_SPI_Send_Size+0x30>
	 {
	 }

	//check SpI transfer state
	 switch (wTransferState)
 c0014c0:	4b07      	ldr	r3, [pc, #28]	; (c0014e0 <SECURE_SPI_Send_Size+0x58>)
 c0014c2:	681b      	ldr	r3, [r3, #0]
 c0014c4:	2b01      	cmp	r3, #1
 c0014c6:	d103      	bne.n	c0014d0 <SECURE_SPI_Send_Size+0x48>
	 {
		 case TRANSFER_COMPLETE:
		   printf("The number of modified blocks was successfully transmitted\n\r");
 c0014c8:	4809      	ldr	r0, [pc, #36]	; (c0014f0 <SECURE_SPI_Send_Size+0x68>)
 c0014ca:	f005 f9d7 	bl	c00687c <iprintf>
		   break;
 c0014ce:	e002      	b.n	c0014d6 <SECURE_SPI_Send_Size+0x4e>
		 default :
		   Error_Handler();
 c0014d0:	f7ff fd30 	bl	c000f34 <Error_Handler>
		   break;
 c0014d4:	bf00      	nop
	 }
}
 c0014d6:	bf00      	nop
 c0014d8:	3708      	adds	r7, #8
 c0014da:	46bd      	mov	sp, r7
 c0014dc:	bd80      	pop	{r7, pc}
 c0014de:	bf00      	nop
 c0014e0:	30000428 	.word	0x30000428
 c0014e4:	0c007e50 	.word	0x0c007e50
 c0014e8:	30000190 	.word	0x30000190
 c0014ec:	0c007df8 	.word	0x0c007df8
 c0014f0:	0c007e74 	.word	0x0c007e74

0c0014f4 <SECURE_SPI_Send_Data_Block>:



void SECURE_SPI_Send_Data_Block(uint32_t addr){
 c0014f4:	b580      	push	{r7, lr}
 c0014f6:	b082      	sub	sp, #8
 c0014f8:	af00      	add	r7, sp, #0
 c0014fa:	6078      	str	r0, [r7, #4]

	//fetch the memory
	SECURE_DMA_Fetch_NonSecure_Mem((uint32_t*)addr, BUFFER_SIZE);
 c0014fc:	687b      	ldr	r3, [r7, #4]
 c0014fe:	f44f 6180 	mov.w	r1, #1024	; 0x400
 c001502:	4618      	mov	r0, r3
 c001504:	f000 f834 	bl	c001570 <SECURE_DMA_Fetch_NonSecure_Mem>

	wTransferState = TRANSFER_WAIT;
 c001508:	4b13      	ldr	r3, [pc, #76]	; (c001558 <SECURE_SPI_Send_Data_Block+0x64>)
 c00150a:	2200      	movs	r2, #0
 c00150c:	601a      	str	r2, [r3, #0]
	/*** send the current memory block from the non-secure flash bank to SPI ***/
	if (HAL_SPI_Transmit_DMA(&hspi3, (uint8_t *) SEC_Mem_Buffer, BUFFER_SIZE) != HAL_OK)
 c00150e:	f44f 6280 	mov.w	r2, #1024	; 0x400
 c001512:	4912      	ldr	r1, [pc, #72]	; (c00155c <SECURE_SPI_Send_Data_Block+0x68>)
 c001514:	4812      	ldr	r0, [pc, #72]	; (c001560 <SECURE_SPI_Send_Data_Block+0x6c>)
 c001516:	f003 ff99 	bl	c00544c <HAL_SPI_Transmit_DMA>
 c00151a:	4603      	mov	r3, r0
 c00151c:	2b00      	cmp	r3, #0
 c00151e:	d004      	beq.n	c00152a <SECURE_SPI_Send_Data_Block+0x36>
	 {
		 /* Transfer error in transmission process */
		 printf("There was an error in starting up tx.\n\r");
 c001520:	4810      	ldr	r0, [pc, #64]	; (c001564 <SECURE_SPI_Send_Data_Block+0x70>)
 c001522:	f005 f9ab 	bl	c00687c <iprintf>
		 Error_Handler();
 c001526:	f7ff fd05 	bl	c000f34 <Error_Handler>
	 }

	 /*##-2- Wait for the end of the transfer ###################################*/
	 while (wTransferState == TRANSFER_WAIT)
 c00152a:	bf00      	nop
 c00152c:	4b0a      	ldr	r3, [pc, #40]	; (c001558 <SECURE_SPI_Send_Data_Block+0x64>)
 c00152e:	681b      	ldr	r3, [r3, #0]
 c001530:	2b00      	cmp	r3, #0
 c001532:	d0fb      	beq.n	c00152c <SECURE_SPI_Send_Data_Block+0x38>
	 {
	 }

	//check SpI transfer state
	 switch (wTransferState)
 c001534:	4b08      	ldr	r3, [pc, #32]	; (c001558 <SECURE_SPI_Send_Data_Block+0x64>)
 c001536:	681b      	ldr	r3, [r3, #0]
 c001538:	2b01      	cmp	r3, #1
 c00153a:	d103      	bne.n	c001544 <SECURE_SPI_Send_Data_Block+0x50>
	 {
		 case TRANSFER_COMPLETE:
		   printf("The memory block was transferred successfully.");
 c00153c:	480a      	ldr	r0, [pc, #40]	; (c001568 <SECURE_SPI_Send_Data_Block+0x74>)
 c00153e:	f005 f99d 	bl	c00687c <iprintf>
		   break;
 c001542:	e005      	b.n	c001550 <SECURE_SPI_Send_Data_Block+0x5c>
		 default :
		   printf("There was an error in transferring the memory dump.\n\r");
 c001544:	4809      	ldr	r0, [pc, #36]	; (c00156c <SECURE_SPI_Send_Data_Block+0x78>)
 c001546:	f005 f999 	bl	c00687c <iprintf>
		   Error_Handler();
 c00154a:	f7ff fcf3 	bl	c000f34 <Error_Handler>
		   break;
 c00154e:	bf00      	nop
	 }

}
 c001550:	bf00      	nop
 c001552:	3708      	adds	r7, #8
 c001554:	46bd      	mov	sp, r7
 c001556:	bd80      	pop	{r7, pc}
 c001558:	30000428 	.word	0x30000428
 c00155c:	3000043c 	.word	0x3000043c
 c001560:	30000190 	.word	0x30000190
 c001564:	0c007df8 	.word	0x0c007df8
 c001568:	0c007eb4 	.word	0x0c007eb4
 c00156c:	0c007ee4 	.word	0x0c007ee4

0c001570 <SECURE_DMA_Fetch_NonSecure_Mem>:
  * @param  Size        		requested size of data (256 words)
  * @param  func   				pointer to non-secure callback function on transfer end
  * @retval SUCCESS or ERROR
  */
void SECURE_DMA_Fetch_NonSecure_Mem(uint32_t *nsc_mem_buffer, uint32_t Size)
{
 c001570:	b580      	push	{r7, lr}
 c001572:	b082      	sub	sp, #8
 c001574:	af00      	add	r7, sp, #0
 c001576:	6078      	str	r0, [r7, #4]
 c001578:	6039      	str	r1, [r7, #0]

  /* Check that the address range in non-secure */
   if (cmse_check_address_range(nsc_mem_buffer, Size * sizeof(uint32_t), CMSE_NONSECURE))
 c00157a:	683b      	ldr	r3, [r7, #0]
 c00157c:	009b      	lsls	r3, r3, #2
 c00157e:	2212      	movs	r2, #18
 c001580:	4619      	mov	r1, r3
 c001582:	6878      	ldr	r0, [r7, #4]
 c001584:	f7fe fe56 	bl	c000234 <cmse_check_address_range>
 c001588:	4603      	mov	r3, r0
 c00158a:	2b00      	cmp	r3, #0
 c00158c:	d013      	beq.n	c0015b6 <SECURE_DMA_Fetch_NonSecure_Mem+0x46>
   {
	   printf("memory dump found to be in range.\n\r");
 c00158e:	480d      	ldr	r0, [pc, #52]	; (c0015c4 <SECURE_DMA_Fetch_NonSecure_Mem+0x54>)
 c001590:	f005 f974 	bl	c00687c <iprintf>
	    if (HAL_DMA_Start_IT(&hdma_memtomem_dma1_channel1,
 c001594:	6879      	ldr	r1, [r7, #4]
 c001596:	4a0c      	ldr	r2, [pc, #48]	; (c0015c8 <SECURE_DMA_Fetch_NonSecure_Mem+0x58>)
 c001598:	683b      	ldr	r3, [r7, #0]
 c00159a:	480c      	ldr	r0, [pc, #48]	; (c0015cc <SECURE_DMA_Fetch_NonSecure_Mem+0x5c>)
 c00159c:	f000 ff78 	bl	c002490 <HAL_DMA_Start_IT>
 c0015a0:	4603      	mov	r3, r0
 c0015a2:	2b00      	cmp	r3, #0
 c0015a4:	d103      	bne.n	c0015ae <SECURE_DMA_Fetch_NonSecure_Mem+0x3e>
	                             (uint32_t)nsc_mem_buffer,
	                             (uint32_t)&SEC_Mem_Buffer,
	                             Size) == HAL_OK)
		{
		  /* Transfer started */
	    	printf("Transfer has started\n\r");
 c0015a6:	480a      	ldr	r0, [pc, #40]	; (c0015d0 <SECURE_DMA_Fetch_NonSecure_Mem+0x60>)
 c0015a8:	f005 f968 	bl	c00687c <iprintf>
		}
   }else{
	   printf("Address out of range...\n\r");
   }

}
 c0015ac:	e006      	b.n	c0015bc <SECURE_DMA_Fetch_NonSecure_Mem+0x4c>
			printf("transfer was not able to start.\n\r");
 c0015ae:	4809      	ldr	r0, [pc, #36]	; (c0015d4 <SECURE_DMA_Fetch_NonSecure_Mem+0x64>)
 c0015b0:	f005 f964 	bl	c00687c <iprintf>
}
 c0015b4:	e002      	b.n	c0015bc <SECURE_DMA_Fetch_NonSecure_Mem+0x4c>
	   printf("Address out of range...\n\r");
 c0015b6:	4808      	ldr	r0, [pc, #32]	; (c0015d8 <SECURE_DMA_Fetch_NonSecure_Mem+0x68>)
 c0015b8:	f005 f960 	bl	c00687c <iprintf>
}
 c0015bc:	bf00      	nop
 c0015be:	3708      	adds	r7, #8
 c0015c0:	46bd      	mov	sp, r7
 c0015c2:	bd80      	pop	{r7, pc}
 c0015c4:	0c007f1c 	.word	0x0c007f1c
 c0015c8:	3000043c 	.word	0x3000043c
 c0015cc:	30000358 	.word	0x30000358
 c0015d0:	0c007f40 	.word	0x0c007f40
 c0015d4:	0c007f58 	.word	0x0c007f58
 c0015d8:	0c007f7c 	.word	0x0c007f7c

0c0015dc <SECURE_SPI_Send_Block_List>:



void SECURE_SPI_Send_Block_List(char* blockList, int size){
 c0015dc:	b580      	push	{r7, lr}
 c0015de:	b082      	sub	sp, #8
 c0015e0:	af00      	add	r7, sp, #0
 c0015e2:	6078      	str	r0, [r7, #4]
 c0015e4:	6039      	str	r1, [r7, #0]
	wTransferState = TRANSFER_WAIT;
 c0015e6:	4b14      	ldr	r3, [pc, #80]	; (c001638 <SECURE_SPI_Send_Block_List+0x5c>)
 c0015e8:	2200      	movs	r2, #0
 c0015ea:	601a      	str	r2, [r3, #0]

	//transmit via SPI
	if (HAL_SPI_Transmit_DMA(&hspi3, (uint8_t *) blockList, size) != HAL_OK)
 c0015ec:	683b      	ldr	r3, [r7, #0]
 c0015ee:	b29b      	uxth	r3, r3
 c0015f0:	461a      	mov	r2, r3
 c0015f2:	6879      	ldr	r1, [r7, #4]
 c0015f4:	4811      	ldr	r0, [pc, #68]	; (c00163c <SECURE_SPI_Send_Block_List+0x60>)
 c0015f6:	f003 ff29 	bl	c00544c <HAL_SPI_Transmit_DMA>
 c0015fa:	4603      	mov	r3, r0
 c0015fc:	2b00      	cmp	r3, #0
 c0015fe:	d004      	beq.n	c00160a <SECURE_SPI_Send_Block_List+0x2e>
	 {
		 /* Transfer error in transmission process */
		 printf("There was an error in starting up tx.\n\r");
 c001600:	480f      	ldr	r0, [pc, #60]	; (c001640 <SECURE_SPI_Send_Block_List+0x64>)
 c001602:	f005 f93b 	bl	c00687c <iprintf>
		 Error_Handler();
 c001606:	f7ff fc95 	bl	c000f34 <Error_Handler>
	 }

	 /*##-2- Wait for the end of the transfer ###################################*/
	 while (wTransferState == TRANSFER_WAIT)
 c00160a:	bf00      	nop
 c00160c:	4b0a      	ldr	r3, [pc, #40]	; (c001638 <SECURE_SPI_Send_Block_List+0x5c>)
 c00160e:	681b      	ldr	r3, [r3, #0]
 c001610:	2b00      	cmp	r3, #0
 c001612:	d0fb      	beq.n	c00160c <SECURE_SPI_Send_Block_List+0x30>
	 {
	 }

	//check SpI transfer state
	 switch (wTransferState)
 c001614:	4b08      	ldr	r3, [pc, #32]	; (c001638 <SECURE_SPI_Send_Block_List+0x5c>)
 c001616:	681b      	ldr	r3, [r3, #0]
 c001618:	2b01      	cmp	r3, #1
 c00161a:	d103      	bne.n	c001624 <SECURE_SPI_Send_Block_List+0x48>
	 {
		 case TRANSFER_COMPLETE:
		   printf("The data was transferred successfully.");
 c00161c:	4809      	ldr	r0, [pc, #36]	; (c001644 <SECURE_SPI_Send_Block_List+0x68>)
 c00161e:	f005 f92d 	bl	c00687c <iprintf>
		   break;
 c001622:	e005      	b.n	c001630 <SECURE_SPI_Send_Block_List+0x54>
		 default :
		   printf("There was an error in transferring the data.\n\r");
 c001624:	4808      	ldr	r0, [pc, #32]	; (c001648 <SECURE_SPI_Send_Block_List+0x6c>)
 c001626:	f005 f929 	bl	c00687c <iprintf>
		   Error_Handler();
 c00162a:	f7ff fc83 	bl	c000f34 <Error_Handler>
		   break;
 c00162e:	bf00      	nop
	 }
}
 c001630:	bf00      	nop
 c001632:	3708      	adds	r7, #8
 c001634:	46bd      	mov	sp, r7
 c001636:	bd80      	pop	{r7, pc}
 c001638:	30000428 	.word	0x30000428
 c00163c:	30000190 	.word	0x30000190
 c001640:	0c007df8 	.word	0x0c007df8
 c001644:	0c007f98 	.word	0x0c007f98
 c001648:	0c007fc0 	.word	0x0c007fc0

0c00164c <SECURE_SPI_Toggle_Comm>:
/**
  * @brief  Secure service to toggle SPI communication on or off. Must be called @ beginning and end of SPI transmission
  * @param state	SPI ON: 0 and SPI OFF: 1
  * @retval SUCCESS or ERROR
  */
void SECURE_SPI_Toggle_Comm(int state){
 c00164c:	b580      	push	{r7, lr}
 c00164e:	b082      	sub	sp, #8
 c001650:	af00      	add	r7, sp, #0
 c001652:	6078      	str	r0, [r7, #4]
	if(state > 0){
 c001654:	687b      	ldr	r3, [r7, #4]
 c001656:	2b00      	cmp	r3, #0
 c001658:	dd06      	ble.n	c001668 <SECURE_SPI_Toggle_Comm+0x1c>
		//off state
		HAL_GPIO_WritePin(GPIOB, GPIO_PIN_13, GPIO_PIN_SET);
 c00165a:	2201      	movs	r2, #1
 c00165c:	f44f 5100 	mov.w	r1, #8192	; 0x2000
 c001660:	4806      	ldr	r0, [pc, #24]	; (c00167c <SECURE_SPI_Toggle_Comm+0x30>)
 c001662:	f001 fb8d 	bl	c002d80 <HAL_GPIO_WritePin>

	}else{
		//on state
		HAL_GPIO_WritePin(GPIOB, GPIO_PIN_13, GPIO_PIN_RESET);
	}
}
 c001666:	e005      	b.n	c001674 <SECURE_SPI_Toggle_Comm+0x28>
		HAL_GPIO_WritePin(GPIOB, GPIO_PIN_13, GPIO_PIN_RESET);
 c001668:	2200      	movs	r2, #0
 c00166a:	f44f 5100 	mov.w	r1, #8192	; 0x2000
 c00166e:	4803      	ldr	r0, [pc, #12]	; (c00167c <SECURE_SPI_Toggle_Comm+0x30>)
 c001670:	f001 fb86 	bl	c002d80 <HAL_GPIO_WritePin>
}
 c001674:	bf00      	nop
 c001676:	3708      	adds	r7, #8
 c001678:	46bd      	mov	sp, r7
 c00167a:	bd80      	pop	{r7, pc}
 c00167c:	52020400 	.word	0x52020400

0c001680 <__acle_se_SECURE_RegisterCallback>:
  * @param  CallbackId  callback identifier
  * @param  func        pointer to non-secure function
  * @retval None
  */
CMSE_NS_ENTRY void SECURE_RegisterCallback(SECURE_CallbackIDTypeDef CallbackId, void *func)
{
 c001680:	b480      	push	{r7}
 c001682:	b083      	sub	sp, #12
 c001684:	af00      	add	r7, sp, #0
 c001686:	4603      	mov	r3, r0
 c001688:	6039      	str	r1, [r7, #0]
 c00168a:	71fb      	strb	r3, [r7, #7]
  if(func != NULL)
 c00168c:	683b      	ldr	r3, [r7, #0]
 c00168e:	2b00      	cmp	r3, #0
 c001690:	d00d      	beq.n	c0016ae <__acle_se_SECURE_RegisterCallback+0x2e>
  {
    switch(CallbackId)
 c001692:	79fb      	ldrb	r3, [r7, #7]
 c001694:	2b00      	cmp	r3, #0
 c001696:	d002      	beq.n	c00169e <__acle_se_SECURE_RegisterCallback+0x1e>
 c001698:	2b01      	cmp	r3, #1
 c00169a:	d004      	beq.n	c0016a6 <__acle_se_SECURE_RegisterCallback+0x26>
      case GTZC_ERROR_CB_ID:             /* GTZC Interrupt occurred */
        pSecureErrorCallback = func;
        break;
      default:
        /* unknown */
        break;
 c00169c:	e008      	b.n	c0016b0 <__acle_se_SECURE_RegisterCallback+0x30>
        pSecureFaultCallback = func;
 c00169e:	4a21      	ldr	r2, [pc, #132]	; (c001724 <__acle_se_SECURE_RegisterCallback+0xa4>)
 c0016a0:	683b      	ldr	r3, [r7, #0]
 c0016a2:	6013      	str	r3, [r2, #0]
        break;
 c0016a4:	e004      	b.n	c0016b0 <__acle_se_SECURE_RegisterCallback+0x30>
        pSecureErrorCallback = func;
 c0016a6:	4a20      	ldr	r2, [pc, #128]	; (c001728 <__acle_se_SECURE_RegisterCallback+0xa8>)
 c0016a8:	683b      	ldr	r3, [r7, #0]
 c0016aa:	6013      	str	r3, [r2, #0]
        break;
 c0016ac:	e000      	b.n	c0016b0 <__acle_se_SECURE_RegisterCallback+0x30>
    }
  }
 c0016ae:	bf00      	nop
}
 c0016b0:	bf00      	nop
 c0016b2:	370c      	adds	r7, #12
 c0016b4:	46bd      	mov	sp, r7
 c0016b6:	f85d 7b04 	ldr.w	r7, [sp], #4
 c0016ba:	4670      	mov	r0, lr
 c0016bc:	4671      	mov	r1, lr
 c0016be:	4672      	mov	r2, lr
 c0016c0:	4673      	mov	r3, lr
 c0016c2:	eeb7 0a00 	vmov.f32	s0, #112	; 0x3f800000  1.0
 c0016c6:	eef7 0a00 	vmov.f32	s1, #112	; 0x3f800000  1.0
 c0016ca:	eeb7 1a00 	vmov.f32	s2, #112	; 0x3f800000  1.0
 c0016ce:	eef7 1a00 	vmov.f32	s3, #112	; 0x3f800000  1.0
 c0016d2:	eeb7 2a00 	vmov.f32	s4, #112	; 0x3f800000  1.0
 c0016d6:	eef7 2a00 	vmov.f32	s5, #112	; 0x3f800000  1.0
 c0016da:	eeb7 3a00 	vmov.f32	s6, #112	; 0x3f800000  1.0
 c0016de:	eef7 3a00 	vmov.f32	s7, #112	; 0x3f800000  1.0
 c0016e2:	eeb7 4a00 	vmov.f32	s8, #112	; 0x3f800000  1.0
 c0016e6:	eef7 4a00 	vmov.f32	s9, #112	; 0x3f800000  1.0
 c0016ea:	eeb7 5a00 	vmov.f32	s10, #112	; 0x3f800000  1.0
 c0016ee:	eef7 5a00 	vmov.f32	s11, #112	; 0x3f800000  1.0
 c0016f2:	eeb7 6a00 	vmov.f32	s12, #112	; 0x3f800000  1.0
 c0016f6:	eef7 6a00 	vmov.f32	s13, #112	; 0x3f800000  1.0
 c0016fa:	eeb7 7a00 	vmov.f32	s14, #112	; 0x3f800000  1.0
 c0016fe:	eef7 7a00 	vmov.f32	s15, #112	; 0x3f800000  1.0
 c001702:	f38e 8c00 	msr	CPSR_fs, lr
 c001706:	b410      	push	{r4}
 c001708:	eef1 ca10 	vmrs	ip, fpscr
 c00170c:	f64f 7460 	movw	r4, #65376	; 0xff60
 c001710:	f6c0 74ff 	movt	r4, #4095	; 0xfff
 c001714:	ea0c 0c04 	and.w	ip, ip, r4
 c001718:	eee1 ca10 	vmsr	fpscr, ip
 c00171c:	bc10      	pop	{r4}
 c00171e:	46f4      	mov	ip, lr
 c001720:	4774      	bxns	lr
 c001722:	bf00      	nop
 c001724:	30001850 	.word	0x30001850
 c001728:	30001854 	.word	0x30001854

0c00172c <HAL_MspInit>:
/* USER CODE END 0 */
/**
  * Initializes the Global MSP.
  */
void HAL_MspInit(void)
{
 c00172c:	b580      	push	{r7, lr}
 c00172e:	b084      	sub	sp, #16
 c001730:	af00      	add	r7, sp, #0
  /* USER CODE BEGIN MspInit 0 */

  /* USER CODE END MspInit 0 */

  __HAL_RCC_SYSCFG_CLK_ENABLE();
 c001732:	4b15      	ldr	r3, [pc, #84]	; (c001788 <HAL_MspInit+0x5c>)
 c001734:	6e1b      	ldr	r3, [r3, #96]	; 0x60
 c001736:	4a14      	ldr	r2, [pc, #80]	; (c001788 <HAL_MspInit+0x5c>)
 c001738:	f043 0301 	orr.w	r3, r3, #1
 c00173c:	6613      	str	r3, [r2, #96]	; 0x60
 c00173e:	4b12      	ldr	r3, [pc, #72]	; (c001788 <HAL_MspInit+0x5c>)
 c001740:	6e1b      	ldr	r3, [r3, #96]	; 0x60
 c001742:	f003 0301 	and.w	r3, r3, #1
 c001746:	60fb      	str	r3, [r7, #12]
 c001748:	68fb      	ldr	r3, [r7, #12]
  __HAL_RCC_PWR_CLK_ENABLE();
 c00174a:	4b0f      	ldr	r3, [pc, #60]	; (c001788 <HAL_MspInit+0x5c>)
 c00174c:	6d9b      	ldr	r3, [r3, #88]	; 0x58
 c00174e:	4a0e      	ldr	r2, [pc, #56]	; (c001788 <HAL_MspInit+0x5c>)
 c001750:	f043 5380 	orr.w	r3, r3, #268435456	; 0x10000000
 c001754:	6593      	str	r3, [r2, #88]	; 0x58
 c001756:	4b0c      	ldr	r3, [pc, #48]	; (c001788 <HAL_MspInit+0x5c>)
 c001758:	6d9b      	ldr	r3, [r3, #88]	; 0x58
 c00175a:	f003 5380 	and.w	r3, r3, #268435456	; 0x10000000
 c00175e:	60bb      	str	r3, [r7, #8]
 c001760:	68bb      	ldr	r3, [r7, #8]
  __HAL_RCC_GTZC_CLK_ENABLE();
 c001762:	4b09      	ldr	r3, [pc, #36]	; (c001788 <HAL_MspInit+0x5c>)
 c001764:	6c9b      	ldr	r3, [r3, #72]	; 0x48
 c001766:	4a08      	ldr	r2, [pc, #32]	; (c001788 <HAL_MspInit+0x5c>)
 c001768:	f443 0380 	orr.w	r3, r3, #4194304	; 0x400000
 c00176c:	6493      	str	r3, [r2, #72]	; 0x48
 c00176e:	4b06      	ldr	r3, [pc, #24]	; (c001788 <HAL_MspInit+0x5c>)
 c001770:	6c9b      	ldr	r3, [r3, #72]	; 0x48
 c001772:	f403 0380 	and.w	r3, r3, #4194304	; 0x400000
 c001776:	607b      	str	r3, [r7, #4]
 c001778:	687b      	ldr	r3, [r7, #4]

  /* System interrupt init*/

  /** Disable the internal Pull-Up in Dead Battery pins of UCPD peripheral
  */
  HAL_PWREx_DisableUCPDDeadBattery();
 c00177a:	f002 f8bf 	bl	c0038fc <HAL_PWREx_DisableUCPDDeadBattery>

  /* USER CODE BEGIN MspInit 1 */

  /* USER CODE END MspInit 1 */
}
 c00177e:	bf00      	nop
 c001780:	3710      	adds	r7, #16
 c001782:	46bd      	mov	sp, r7
 c001784:	bd80      	pop	{r7, pc}
 c001786:	bf00      	nop
 c001788:	50021000 	.word	0x50021000

0c00178c <HAL_HASH_MspInit>:
* This function configures the hardware resources used in this example
* @param hhash: HASH handle pointer
* @retval None
*/
void HAL_HASH_MspInit(HASH_HandleTypeDef* hhash)
{
 c00178c:	b480      	push	{r7}
 c00178e:	b085      	sub	sp, #20
 c001790:	af00      	add	r7, sp, #0
 c001792:	6078      	str	r0, [r7, #4]
  /* USER CODE BEGIN HASH_MspInit 0 */

  /* USER CODE END HASH_MspInit 0 */
    /* Peripheral clock enable */
    __HAL_RCC_HASH_CLK_ENABLE();
 c001794:	4b08      	ldr	r3, [pc, #32]	; (c0017b8 <HAL_HASH_MspInit+0x2c>)
 c001796:	6cdb      	ldr	r3, [r3, #76]	; 0x4c
 c001798:	4a07      	ldr	r2, [pc, #28]	; (c0017b8 <HAL_HASH_MspInit+0x2c>)
 c00179a:	f443 3300 	orr.w	r3, r3, #131072	; 0x20000
 c00179e:	64d3      	str	r3, [r2, #76]	; 0x4c
 c0017a0:	4b05      	ldr	r3, [pc, #20]	; (c0017b8 <HAL_HASH_MspInit+0x2c>)
 c0017a2:	6cdb      	ldr	r3, [r3, #76]	; 0x4c
 c0017a4:	f403 3300 	and.w	r3, r3, #131072	; 0x20000
 c0017a8:	60fb      	str	r3, [r7, #12]
 c0017aa:	68fb      	ldr	r3, [r7, #12]
  /* USER CODE BEGIN HASH_MspInit 1 */

  /* USER CODE END HASH_MspInit 1 */

}
 c0017ac:	bf00      	nop
 c0017ae:	3714      	adds	r7, #20
 c0017b0:	46bd      	mov	sp, r7
 c0017b2:	f85d 7b04 	ldr.w	r7, [sp], #4
 c0017b6:	4770      	bx	lr
 c0017b8:	50021000 	.word	0x50021000

0c0017bc <HAL_SPI_MspInit>:
* This function configures the hardware resources used in this example
* @param hspi: SPI handle pointer
* @retval None
*/
void HAL_SPI_MspInit(SPI_HandleTypeDef* hspi)
{
 c0017bc:	b580      	push	{r7, lr}
 c0017be:	b08a      	sub	sp, #40	; 0x28
 c0017c0:	af00      	add	r7, sp, #0
 c0017c2:	6078      	str	r0, [r7, #4]
  GPIO_InitTypeDef GPIO_InitStruct = {0};
 c0017c4:	f107 0314 	add.w	r3, r7, #20
 c0017c8:	2200      	movs	r2, #0
 c0017ca:	601a      	str	r2, [r3, #0]
 c0017cc:	605a      	str	r2, [r3, #4]
 c0017ce:	609a      	str	r2, [r3, #8]
 c0017d0:	60da      	str	r2, [r3, #12]
 c0017d2:	611a      	str	r2, [r3, #16]
  if(hspi->Instance==SPI3)
 c0017d4:	687b      	ldr	r3, [r7, #4]
 c0017d6:	681b      	ldr	r3, [r3, #0]
 c0017d8:	4a77      	ldr	r2, [pc, #476]	; (c0019b8 <HAL_SPI_MspInit+0x1fc>)
 c0017da:	4293      	cmp	r3, r2
 c0017dc:	f040 80e7 	bne.w	c0019ae <HAL_SPI_MspInit+0x1f2>
  {
  /* USER CODE BEGIN SPI3_MspInit 0 */

  /* USER CODE END SPI3_MspInit 0 */
    /* Peripheral clock enable */
    __HAL_RCC_SPI3_CLK_ENABLE();
 c0017e0:	4b76      	ldr	r3, [pc, #472]	; (c0019bc <HAL_SPI_MspInit+0x200>)
 c0017e2:	6d9b      	ldr	r3, [r3, #88]	; 0x58
 c0017e4:	4a75      	ldr	r2, [pc, #468]	; (c0019bc <HAL_SPI_MspInit+0x200>)
 c0017e6:	f443 4300 	orr.w	r3, r3, #32768	; 0x8000
 c0017ea:	6593      	str	r3, [r2, #88]	; 0x58
 c0017ec:	4b73      	ldr	r3, [pc, #460]	; (c0019bc <HAL_SPI_MspInit+0x200>)
 c0017ee:	6d9b      	ldr	r3, [r3, #88]	; 0x58
 c0017f0:	f403 4300 	and.w	r3, r3, #32768	; 0x8000
 c0017f4:	613b      	str	r3, [r7, #16]
 c0017f6:	693b      	ldr	r3, [r7, #16]

    __HAL_RCC_GPIOD_CLK_ENABLE();
 c0017f8:	4b70      	ldr	r3, [pc, #448]	; (c0019bc <HAL_SPI_MspInit+0x200>)
 c0017fa:	6cdb      	ldr	r3, [r3, #76]	; 0x4c
 c0017fc:	4a6f      	ldr	r2, [pc, #444]	; (c0019bc <HAL_SPI_MspInit+0x200>)
 c0017fe:	f043 0308 	orr.w	r3, r3, #8
 c001802:	64d3      	str	r3, [r2, #76]	; 0x4c
 c001804:	4b6d      	ldr	r3, [pc, #436]	; (c0019bc <HAL_SPI_MspInit+0x200>)
 c001806:	6cdb      	ldr	r3, [r3, #76]	; 0x4c
 c001808:	f003 0308 	and.w	r3, r3, #8
 c00180c:	60fb      	str	r3, [r7, #12]
 c00180e:	68fb      	ldr	r3, [r7, #12]
    __HAL_RCC_GPIOG_CLK_ENABLE();
 c001810:	4b6a      	ldr	r3, [pc, #424]	; (c0019bc <HAL_SPI_MspInit+0x200>)
 c001812:	6cdb      	ldr	r3, [r3, #76]	; 0x4c
 c001814:	4a69      	ldr	r2, [pc, #420]	; (c0019bc <HAL_SPI_MspInit+0x200>)
 c001816:	f043 0340 	orr.w	r3, r3, #64	; 0x40
 c00181a:	64d3      	str	r3, [r2, #76]	; 0x4c
 c00181c:	4b67      	ldr	r3, [pc, #412]	; (c0019bc <HAL_SPI_MspInit+0x200>)
 c00181e:	6cdb      	ldr	r3, [r3, #76]	; 0x4c
 c001820:	f003 0340 	and.w	r3, r3, #64	; 0x40
 c001824:	60bb      	str	r3, [r7, #8]
 c001826:	68bb      	ldr	r3, [r7, #8]
    HAL_PWREx_EnableVddIO2();
 c001828:	f002 f858 	bl	c0038dc <HAL_PWREx_EnableVddIO2>
    /**SPI3 GPIO Configuration
    PD6     ------> SPI3_MOSI
    PG9     ------> SPI3_SCK
    PG10     ------> SPI3_MISO
    */
    GPIO_InitStruct.Pin = GPIO_PIN_6;
 c00182c:	2340      	movs	r3, #64	; 0x40
 c00182e:	617b      	str	r3, [r7, #20]
    GPIO_InitStruct.Mode = GPIO_MODE_AF_PP;
 c001830:	2302      	movs	r3, #2
 c001832:	61bb      	str	r3, [r7, #24]
    GPIO_InitStruct.Pull = GPIO_NOPULL;
 c001834:	2300      	movs	r3, #0
 c001836:	61fb      	str	r3, [r7, #28]
    GPIO_InitStruct.Speed = GPIO_SPEED_FREQ_LOW;
 c001838:	2300      	movs	r3, #0
 c00183a:	623b      	str	r3, [r7, #32]
    GPIO_InitStruct.Alternate = GPIO_AF5_SPI3;
 c00183c:	2305      	movs	r3, #5
 c00183e:	627b      	str	r3, [r7, #36]	; 0x24
    HAL_GPIO_Init(GPIOD, &GPIO_InitStruct);
 c001840:	f107 0314 	add.w	r3, r7, #20
 c001844:	4619      	mov	r1, r3
 c001846:	485e      	ldr	r0, [pc, #376]	; (c0019c0 <HAL_SPI_MspInit+0x204>)
 c001848:	f001 f91a 	bl	c002a80 <HAL_GPIO_Init>

    GPIO_InitStruct.Pin = GPIO_PIN_9|GPIO_PIN_10;
 c00184c:	f44f 63c0 	mov.w	r3, #1536	; 0x600
 c001850:	617b      	str	r3, [r7, #20]
    GPIO_InitStruct.Mode = GPIO_MODE_AF_PP;
 c001852:	2302      	movs	r3, #2
 c001854:	61bb      	str	r3, [r7, #24]
    GPIO_InitStruct.Pull = GPIO_NOPULL;
 c001856:	2300      	movs	r3, #0
 c001858:	61fb      	str	r3, [r7, #28]
    GPIO_InitStruct.Speed = GPIO_SPEED_FREQ_LOW;
 c00185a:	2300      	movs	r3, #0
 c00185c:	623b      	str	r3, [r7, #32]
    GPIO_InitStruct.Alternate = GPIO_AF6_SPI3;
 c00185e:	2306      	movs	r3, #6
 c001860:	627b      	str	r3, [r7, #36]	; 0x24
    HAL_GPIO_Init(GPIOG, &GPIO_InitStruct);
 c001862:	f107 0314 	add.w	r3, r7, #20
 c001866:	4619      	mov	r1, r3
 c001868:	4856      	ldr	r0, [pc, #344]	; (c0019c4 <HAL_SPI_MspInit+0x208>)
 c00186a:	f001 f909 	bl	c002a80 <HAL_GPIO_Init>

    /* SPI3 DMA Init */
    /* SPI3_RX Init */
    hdma_spi3_rx.Instance = DMA1_Channel2;
 c00186e:	4b56      	ldr	r3, [pc, #344]	; (c0019c8 <HAL_SPI_MspInit+0x20c>)
 c001870:	4a56      	ldr	r2, [pc, #344]	; (c0019cc <HAL_SPI_MspInit+0x210>)
 c001872:	601a      	str	r2, [r3, #0]
    hdma_spi3_rx.Init.Request = DMA_REQUEST_SPI3_RX;
 c001874:	4b54      	ldr	r3, [pc, #336]	; (c0019c8 <HAL_SPI_MspInit+0x20c>)
 c001876:	220f      	movs	r2, #15
 c001878:	605a      	str	r2, [r3, #4]
    hdma_spi3_rx.Init.Direction = DMA_PERIPH_TO_MEMORY;
 c00187a:	4b53      	ldr	r3, [pc, #332]	; (c0019c8 <HAL_SPI_MspInit+0x20c>)
 c00187c:	2200      	movs	r2, #0
 c00187e:	609a      	str	r2, [r3, #8]
    hdma_spi3_rx.Init.PeriphInc = DMA_PINC_DISABLE;
 c001880:	4b51      	ldr	r3, [pc, #324]	; (c0019c8 <HAL_SPI_MspInit+0x20c>)
 c001882:	2200      	movs	r2, #0
 c001884:	60da      	str	r2, [r3, #12]
    hdma_spi3_rx.Init.MemInc = DMA_MINC_ENABLE;
 c001886:	4b50      	ldr	r3, [pc, #320]	; (c0019c8 <HAL_SPI_MspInit+0x20c>)
 c001888:	2280      	movs	r2, #128	; 0x80
 c00188a:	611a      	str	r2, [r3, #16]
    hdma_spi3_rx.Init.PeriphDataAlignment = DMA_PDATAALIGN_BYTE;
 c00188c:	4b4e      	ldr	r3, [pc, #312]	; (c0019c8 <HAL_SPI_MspInit+0x20c>)
 c00188e:	2200      	movs	r2, #0
 c001890:	615a      	str	r2, [r3, #20]
    hdma_spi3_rx.Init.MemDataAlignment = DMA_MDATAALIGN_BYTE;
 c001892:	4b4d      	ldr	r3, [pc, #308]	; (c0019c8 <HAL_SPI_MspInit+0x20c>)
 c001894:	2200      	movs	r2, #0
 c001896:	619a      	str	r2, [r3, #24]
    hdma_spi3_rx.Init.Mode = DMA_NORMAL;
 c001898:	4b4b      	ldr	r3, [pc, #300]	; (c0019c8 <HAL_SPI_MspInit+0x20c>)
 c00189a:	2200      	movs	r2, #0
 c00189c:	61da      	str	r2, [r3, #28]
    hdma_spi3_rx.Init.Priority = DMA_PRIORITY_LOW;
 c00189e:	4b4a      	ldr	r3, [pc, #296]	; (c0019c8 <HAL_SPI_MspInit+0x20c>)
 c0018a0:	2200      	movs	r2, #0
 c0018a2:	621a      	str	r2, [r3, #32]
    if (HAL_DMA_Init(&hdma_spi3_rx) != HAL_OK)
 c0018a4:	4848      	ldr	r0, [pc, #288]	; (c0019c8 <HAL_SPI_MspInit+0x20c>)
 c0018a6:	f000 fd4b 	bl	c002340 <HAL_DMA_Init>
 c0018aa:	4603      	mov	r3, r0
 c0018ac:	2b00      	cmp	r3, #0
 c0018ae:	d001      	beq.n	c0018b4 <HAL_SPI_MspInit+0xf8>
    {
      Error_Handler();
 c0018b0:	f7ff fb40 	bl	c000f34 <Error_Handler>
    }

    if (HAL_DMA_ConfigChannelAttributes(&hdma_spi3_rx, DMA_CHANNEL_NPRIV) != HAL_OK)
 c0018b4:	2110      	movs	r1, #16
 c0018b6:	4844      	ldr	r0, [pc, #272]	; (c0019c8 <HAL_SPI_MspInit+0x20c>)
 c0018b8:	f000 ffba 	bl	c002830 <HAL_DMA_ConfigChannelAttributes>
 c0018bc:	4603      	mov	r3, r0
 c0018be:	2b00      	cmp	r3, #0
 c0018c0:	d001      	beq.n	c0018c6 <HAL_SPI_MspInit+0x10a>
    {
      Error_Handler();
 c0018c2:	f7ff fb37 	bl	c000f34 <Error_Handler>
    }

    if (HAL_DMA_ConfigChannelAttributes(&hdma_spi3_rx, DMA_CHANNEL_SEC) != HAL_OK)
 c0018c6:	f04f 1102 	mov.w	r1, #131074	; 0x20002
 c0018ca:	483f      	ldr	r0, [pc, #252]	; (c0019c8 <HAL_SPI_MspInit+0x20c>)
 c0018cc:	f000 ffb0 	bl	c002830 <HAL_DMA_ConfigChannelAttributes>
 c0018d0:	4603      	mov	r3, r0
 c0018d2:	2b00      	cmp	r3, #0
 c0018d4:	d001      	beq.n	c0018da <HAL_SPI_MspInit+0x11e>
    {
      Error_Handler();
 c0018d6:	f7ff fb2d 	bl	c000f34 <Error_Handler>
    }

    if (HAL_DMA_ConfigChannelAttributes(&hdma_spi3_rx, DMA_CHANNEL_SRC_SEC) != HAL_OK)
 c0018da:	f04f 1104 	mov.w	r1, #262148	; 0x40004
 c0018de:	483a      	ldr	r0, [pc, #232]	; (c0019c8 <HAL_SPI_MspInit+0x20c>)
 c0018e0:	f000 ffa6 	bl	c002830 <HAL_DMA_ConfigChannelAttributes>
 c0018e4:	4603      	mov	r3, r0
 c0018e6:	2b00      	cmp	r3, #0
 c0018e8:	d001      	beq.n	c0018ee <HAL_SPI_MspInit+0x132>
    {
      Error_Handler();
 c0018ea:	f7ff fb23 	bl	c000f34 <Error_Handler>
    }

    if (HAL_DMA_ConfigChannelAttributes(&hdma_spi3_rx, DMA_CHANNEL_DEST_SEC) != HAL_OK)
 c0018ee:	f04f 1108 	mov.w	r1, #524296	; 0x80008
 c0018f2:	4835      	ldr	r0, [pc, #212]	; (c0019c8 <HAL_SPI_MspInit+0x20c>)
 c0018f4:	f000 ff9c 	bl	c002830 <HAL_DMA_ConfigChannelAttributes>
 c0018f8:	4603      	mov	r3, r0
 c0018fa:	2b00      	cmp	r3, #0
 c0018fc:	d001      	beq.n	c001902 <HAL_SPI_MspInit+0x146>
    {
      Error_Handler();
 c0018fe:	f7ff fb19 	bl	c000f34 <Error_Handler>
    }

    __HAL_LINKDMA(hspi,hdmarx,hdma_spi3_rx);
 c001902:	687b      	ldr	r3, [r7, #4]
 c001904:	4a30      	ldr	r2, [pc, #192]	; (c0019c8 <HAL_SPI_MspInit+0x20c>)
 c001906:	659a      	str	r2, [r3, #88]	; 0x58
 c001908:	4a2f      	ldr	r2, [pc, #188]	; (c0019c8 <HAL_SPI_MspInit+0x20c>)
 c00190a:	687b      	ldr	r3, [r7, #4]
 c00190c:	6293      	str	r3, [r2, #40]	; 0x28

    /* SPI3_TX Init */
    hdma_spi3_tx.Instance = DMA1_Channel3;
 c00190e:	4b30      	ldr	r3, [pc, #192]	; (c0019d0 <HAL_SPI_MspInit+0x214>)
 c001910:	4a30      	ldr	r2, [pc, #192]	; (c0019d4 <HAL_SPI_MspInit+0x218>)
 c001912:	601a      	str	r2, [r3, #0]
    hdma_spi3_tx.Init.Request = DMA_REQUEST_SPI3_TX;
 c001914:	4b2e      	ldr	r3, [pc, #184]	; (c0019d0 <HAL_SPI_MspInit+0x214>)
 c001916:	2210      	movs	r2, #16
 c001918:	605a      	str	r2, [r3, #4]
    hdma_spi3_tx.Init.Direction = DMA_MEMORY_TO_PERIPH;
 c00191a:	4b2d      	ldr	r3, [pc, #180]	; (c0019d0 <HAL_SPI_MspInit+0x214>)
 c00191c:	2210      	movs	r2, #16
 c00191e:	609a      	str	r2, [r3, #8]
    hdma_spi3_tx.Init.PeriphInc = DMA_PINC_DISABLE;
 c001920:	4b2b      	ldr	r3, [pc, #172]	; (c0019d0 <HAL_SPI_MspInit+0x214>)
 c001922:	2200      	movs	r2, #0
 c001924:	60da      	str	r2, [r3, #12]
    hdma_spi3_tx.Init.MemInc = DMA_MINC_ENABLE;
 c001926:	4b2a      	ldr	r3, [pc, #168]	; (c0019d0 <HAL_SPI_MspInit+0x214>)
 c001928:	2280      	movs	r2, #128	; 0x80
 c00192a:	611a      	str	r2, [r3, #16]
    hdma_spi3_tx.Init.PeriphDataAlignment = DMA_PDATAALIGN_BYTE;
 c00192c:	4b28      	ldr	r3, [pc, #160]	; (c0019d0 <HAL_SPI_MspInit+0x214>)
 c00192e:	2200      	movs	r2, #0
 c001930:	615a      	str	r2, [r3, #20]
    hdma_spi3_tx.Init.MemDataAlignment = DMA_MDATAALIGN_BYTE;
 c001932:	4b27      	ldr	r3, [pc, #156]	; (c0019d0 <HAL_SPI_MspInit+0x214>)
 c001934:	2200      	movs	r2, #0
 c001936:	619a      	str	r2, [r3, #24]
    hdma_spi3_tx.Init.Mode = DMA_NORMAL;
 c001938:	4b25      	ldr	r3, [pc, #148]	; (c0019d0 <HAL_SPI_MspInit+0x214>)
 c00193a:	2200      	movs	r2, #0
 c00193c:	61da      	str	r2, [r3, #28]
    hdma_spi3_tx.Init.Priority = DMA_PRIORITY_LOW;
 c00193e:	4b24      	ldr	r3, [pc, #144]	; (c0019d0 <HAL_SPI_MspInit+0x214>)
 c001940:	2200      	movs	r2, #0
 c001942:	621a      	str	r2, [r3, #32]
    if (HAL_DMA_Init(&hdma_spi3_tx) != HAL_OK)
 c001944:	4822      	ldr	r0, [pc, #136]	; (c0019d0 <HAL_SPI_MspInit+0x214>)
 c001946:	f000 fcfb 	bl	c002340 <HAL_DMA_Init>
 c00194a:	4603      	mov	r3, r0
 c00194c:	2b00      	cmp	r3, #0
 c00194e:	d001      	beq.n	c001954 <HAL_SPI_MspInit+0x198>
    {
      Error_Handler();
 c001950:	f7ff faf0 	bl	c000f34 <Error_Handler>
    }

    if (HAL_DMA_ConfigChannelAttributes(&hdma_spi3_tx, DMA_CHANNEL_NPRIV) != HAL_OK)
 c001954:	2110      	movs	r1, #16
 c001956:	481e      	ldr	r0, [pc, #120]	; (c0019d0 <HAL_SPI_MspInit+0x214>)
 c001958:	f000 ff6a 	bl	c002830 <HAL_DMA_ConfigChannelAttributes>
 c00195c:	4603      	mov	r3, r0
 c00195e:	2b00      	cmp	r3, #0
 c001960:	d001      	beq.n	c001966 <HAL_SPI_MspInit+0x1aa>
    {
      Error_Handler();
 c001962:	f7ff fae7 	bl	c000f34 <Error_Handler>
    }

    if (HAL_DMA_ConfigChannelAttributes(&hdma_spi3_tx, DMA_CHANNEL_SEC) != HAL_OK)
 c001966:	f04f 1102 	mov.w	r1, #131074	; 0x20002
 c00196a:	4819      	ldr	r0, [pc, #100]	; (c0019d0 <HAL_SPI_MspInit+0x214>)
 c00196c:	f000 ff60 	bl	c002830 <HAL_DMA_ConfigChannelAttributes>
 c001970:	4603      	mov	r3, r0
 c001972:	2b00      	cmp	r3, #0
 c001974:	d001      	beq.n	c00197a <HAL_SPI_MspInit+0x1be>
    {
      Error_Handler();
 c001976:	f7ff fadd 	bl	c000f34 <Error_Handler>
    }

    if (HAL_DMA_ConfigChannelAttributes(&hdma_spi3_tx, DMA_CHANNEL_SRC_SEC) != HAL_OK)
 c00197a:	f04f 1104 	mov.w	r1, #262148	; 0x40004
 c00197e:	4814      	ldr	r0, [pc, #80]	; (c0019d0 <HAL_SPI_MspInit+0x214>)
 c001980:	f000 ff56 	bl	c002830 <HAL_DMA_ConfigChannelAttributes>
 c001984:	4603      	mov	r3, r0
 c001986:	2b00      	cmp	r3, #0
 c001988:	d001      	beq.n	c00198e <HAL_SPI_MspInit+0x1d2>
    {
      Error_Handler();
 c00198a:	f7ff fad3 	bl	c000f34 <Error_Handler>
    }

    if (HAL_DMA_ConfigChannelAttributes(&hdma_spi3_tx, DMA_CHANNEL_DEST_SEC) != HAL_OK)
 c00198e:	f04f 1108 	mov.w	r1, #524296	; 0x80008
 c001992:	480f      	ldr	r0, [pc, #60]	; (c0019d0 <HAL_SPI_MspInit+0x214>)
 c001994:	f000 ff4c 	bl	c002830 <HAL_DMA_ConfigChannelAttributes>
 c001998:	4603      	mov	r3, r0
 c00199a:	2b00      	cmp	r3, #0
 c00199c:	d001      	beq.n	c0019a2 <HAL_SPI_MspInit+0x1e6>
    {
      Error_Handler();
 c00199e:	f7ff fac9 	bl	c000f34 <Error_Handler>
    }

    __HAL_LINKDMA(hspi,hdmatx,hdma_spi3_tx);
 c0019a2:	687b      	ldr	r3, [r7, #4]
 c0019a4:	4a0a      	ldr	r2, [pc, #40]	; (c0019d0 <HAL_SPI_MspInit+0x214>)
 c0019a6:	655a      	str	r2, [r3, #84]	; 0x54
 c0019a8:	4a09      	ldr	r2, [pc, #36]	; (c0019d0 <HAL_SPI_MspInit+0x214>)
 c0019aa:	687b      	ldr	r3, [r7, #4]
 c0019ac:	6293      	str	r3, [r2, #40]	; 0x28
  /* USER CODE BEGIN SPI3_MspInit 1 */

  /* USER CODE END SPI3_MspInit 1 */
  }

}
 c0019ae:	bf00      	nop
 c0019b0:	3728      	adds	r7, #40	; 0x28
 c0019b2:	46bd      	mov	sp, r7
 c0019b4:	bd80      	pop	{r7, pc}
 c0019b6:	bf00      	nop
 c0019b8:	50003c00 	.word	0x50003c00
 c0019bc:	50021000 	.word	0x50021000
 c0019c0:	52020c00 	.word	0x52020c00
 c0019c4:	52021800 	.word	0x52021800
 c0019c8:	300001f4 	.word	0x300001f4
 c0019cc:	5002001c 	.word	0x5002001c
 c0019d0:	3000025c 	.word	0x3000025c
 c0019d4:	50020030 	.word	0x50020030

0c0019d8 <HAL_UART_MspInit>:
* This function configures the hardware resources used in this example
* @param huart: UART handle pointer
* @retval None
*/
void HAL_UART_MspInit(UART_HandleTypeDef* huart)
{
 c0019d8:	b580      	push	{r7, lr}
 c0019da:	b0ae      	sub	sp, #184	; 0xb8
 c0019dc:	af00      	add	r7, sp, #0
 c0019de:	6078      	str	r0, [r7, #4]
  GPIO_InitTypeDef GPIO_InitStruct = {0};
 c0019e0:	f107 03a4 	add.w	r3, r7, #164	; 0xa4
 c0019e4:	2200      	movs	r2, #0
 c0019e6:	601a      	str	r2, [r3, #0]
 c0019e8:	605a      	str	r2, [r3, #4]
 c0019ea:	609a      	str	r2, [r3, #8]
 c0019ec:	60da      	str	r2, [r3, #12]
 c0019ee:	611a      	str	r2, [r3, #16]
  RCC_PeriphCLKInitTypeDef PeriphClkInit = {0};
 c0019f0:	f107 0310 	add.w	r3, r7, #16
 c0019f4:	2294      	movs	r2, #148	; 0x94
 c0019f6:	2100      	movs	r1, #0
 c0019f8:	4618      	mov	r0, r3
 c0019fa:	f004 ff37 	bl	c00686c <memset>
  if(huart->Instance==USART1)
 c0019fe:	687b      	ldr	r3, [r7, #4]
 c001a00:	681b      	ldr	r3, [r3, #0]
 c001a02:	4a21      	ldr	r2, [pc, #132]	; (c001a88 <HAL_UART_MspInit+0xb0>)
 c001a04:	4293      	cmp	r3, r2
 c001a06:	d13b      	bne.n	c001a80 <HAL_UART_MspInit+0xa8>

  /* USER CODE END USART1_MspInit 0 */

  /** Initializes the peripherals clock
  */
    PeriphClkInit.PeriphClockSelection = RCC_PERIPHCLK_USART1;
 c001a08:	2301      	movs	r3, #1
 c001a0a:	613b      	str	r3, [r7, #16]
    PeriphClkInit.Usart1ClockSelection = RCC_USART1CLKSOURCE_PCLK2;
 c001a0c:	2300      	movs	r3, #0
 c001a0e:	647b      	str	r3, [r7, #68]	; 0x44
    if (HAL_RCCEx_PeriphCLKConfig(&PeriphClkInit) != HAL_OK)
 c001a10:	f107 0310 	add.w	r3, r7, #16
 c001a14:	4618      	mov	r0, r3
 c001a16:	f002 ff5f 	bl	c0048d8 <HAL_RCCEx_PeriphCLKConfig>
 c001a1a:	4603      	mov	r3, r0
 c001a1c:	2b00      	cmp	r3, #0
 c001a1e:	d001      	beq.n	c001a24 <HAL_UART_MspInit+0x4c>
    {
      Error_Handler();
 c001a20:	f7ff fa88 	bl	c000f34 <Error_Handler>
    }

    /* Peripheral clock enable */
    __HAL_RCC_USART1_CLK_ENABLE();
 c001a24:	4b19      	ldr	r3, [pc, #100]	; (c001a8c <HAL_UART_MspInit+0xb4>)
 c001a26:	6e1b      	ldr	r3, [r3, #96]	; 0x60
 c001a28:	4a18      	ldr	r2, [pc, #96]	; (c001a8c <HAL_UART_MspInit+0xb4>)
 c001a2a:	f443 4380 	orr.w	r3, r3, #16384	; 0x4000
 c001a2e:	6613      	str	r3, [r2, #96]	; 0x60
 c001a30:	4b16      	ldr	r3, [pc, #88]	; (c001a8c <HAL_UART_MspInit+0xb4>)
 c001a32:	6e1b      	ldr	r3, [r3, #96]	; 0x60
 c001a34:	f403 4380 	and.w	r3, r3, #16384	; 0x4000
 c001a38:	60fb      	str	r3, [r7, #12]
 c001a3a:	68fb      	ldr	r3, [r7, #12]

    __HAL_RCC_GPIOA_CLK_ENABLE();
 c001a3c:	4b13      	ldr	r3, [pc, #76]	; (c001a8c <HAL_UART_MspInit+0xb4>)
 c001a3e:	6cdb      	ldr	r3, [r3, #76]	; 0x4c
 c001a40:	4a12      	ldr	r2, [pc, #72]	; (c001a8c <HAL_UART_MspInit+0xb4>)
 c001a42:	f043 0301 	orr.w	r3, r3, #1
 c001a46:	64d3      	str	r3, [r2, #76]	; 0x4c
 c001a48:	4b10      	ldr	r3, [pc, #64]	; (c001a8c <HAL_UART_MspInit+0xb4>)
 c001a4a:	6cdb      	ldr	r3, [r3, #76]	; 0x4c
 c001a4c:	f003 0301 	and.w	r3, r3, #1
 c001a50:	60bb      	str	r3, [r7, #8]
 c001a52:	68bb      	ldr	r3, [r7, #8]
    /**USART1 GPIO Configuration
    PA9     ------> USART1_TX
    PA10     ------> USART1_RX
    */
    GPIO_InitStruct.Pin = USART1_TX_Pin|USART1_RX_Pin;
 c001a54:	f44f 63c0 	mov.w	r3, #1536	; 0x600
 c001a58:	f8c7 30a4 	str.w	r3, [r7, #164]	; 0xa4
    GPIO_InitStruct.Mode = GPIO_MODE_AF_PP;
 c001a5c:	2302      	movs	r3, #2
 c001a5e:	f8c7 30a8 	str.w	r3, [r7, #168]	; 0xa8
    GPIO_InitStruct.Pull = GPIO_NOPULL;
 c001a62:	2300      	movs	r3, #0
 c001a64:	f8c7 30ac 	str.w	r3, [r7, #172]	; 0xac
    GPIO_InitStruct.Speed = GPIO_SPEED_FREQ_LOW;
 c001a68:	2300      	movs	r3, #0
 c001a6a:	f8c7 30b0 	str.w	r3, [r7, #176]	; 0xb0
    GPIO_InitStruct.Alternate = GPIO_AF7_USART1;
 c001a6e:	2307      	movs	r3, #7
 c001a70:	f8c7 30b4 	str.w	r3, [r7, #180]	; 0xb4
    HAL_GPIO_Init(GPIOA, &GPIO_InitStruct);
 c001a74:	f107 03a4 	add.w	r3, r7, #164	; 0xa4
 c001a78:	4619      	mov	r1, r3
 c001a7a:	4805      	ldr	r0, [pc, #20]	; (c001a90 <HAL_UART_MspInit+0xb8>)
 c001a7c:	f001 f800 	bl	c002a80 <HAL_GPIO_Init>
  /* USER CODE BEGIN USART1_MspInit 1 */

  /* USER CODE END USART1_MspInit 1 */
  }

}
 c001a80:	bf00      	nop
 c001a82:	37b8      	adds	r7, #184	; 0xb8
 c001a84:	46bd      	mov	sp, r7
 c001a86:	bd80      	pop	{r7, pc}
 c001a88:	50013800 	.word	0x50013800
 c001a8c:	50021000 	.word	0x50021000
 c001a90:	52020000 	.word	0x52020000

0c001a94 <NMI_Handler>:
/******************************************************************************/
/**
  * @brief This function handles Non maskable interrupt.
  */
void NMI_Handler(void)
{
 c001a94:	b480      	push	{r7}
 c001a96:	af00      	add	r7, sp, #0
  /* USER CODE BEGIN NonMaskableInt_IRQn 0 */

  /* USER CODE END NonMaskableInt_IRQn 0 */
  /* USER CODE BEGIN NonMaskableInt_IRQn 1 */
  while (1)
 c001a98:	e7fe      	b.n	c001a98 <NMI_Handler+0x4>

0c001a9a <HardFault_Handler>:

/**
  * @brief This function handles Hard fault interrupt.
  */
void HardFault_Handler(void)
{
 c001a9a:	b480      	push	{r7}
 c001a9c:	af00      	add	r7, sp, #0
  /* USER CODE BEGIN HardFault_IRQn 0 */

  /* USER CODE END HardFault_IRQn 0 */
  while (1)
 c001a9e:	e7fe      	b.n	c001a9e <HardFault_Handler+0x4>

0c001aa0 <MemManage_Handler>:

/**
  * @brief This function handles Memory management fault.
  */
void MemManage_Handler(void)
{
 c001aa0:	b480      	push	{r7}
 c001aa2:	af00      	add	r7, sp, #0
  /* USER CODE BEGIN MemoryManagement_IRQn 0 */

  /* USER CODE END MemoryManagement_IRQn 0 */
  while (1)
 c001aa4:	e7fe      	b.n	c001aa4 <MemManage_Handler+0x4>

0c001aa6 <BusFault_Handler>:

/**
  * @brief This function handles Prefetch fault, memory access fault.
  */
void BusFault_Handler(void)
{
 c001aa6:	b480      	push	{r7}
 c001aa8:	af00      	add	r7, sp, #0
  /* USER CODE BEGIN BusFault_IRQn 0 */

  /* USER CODE END BusFault_IRQn 0 */
  while (1)
 c001aaa:	e7fe      	b.n	c001aaa <BusFault_Handler+0x4>

0c001aac <UsageFault_Handler>:

/**
  * @brief This function handles Undefined instruction or illegal state.
  */
void UsageFault_Handler(void)
{
 c001aac:	b480      	push	{r7}
 c001aae:	af00      	add	r7, sp, #0
  /* USER CODE BEGIN UsageFault_IRQn 0 */

  /* USER CODE END UsageFault_IRQn 0 */
  while (1)
 c001ab0:	e7fe      	b.n	c001ab0 <UsageFault_Handler+0x4>

0c001ab2 <SecureFault_Handler>:

/**
  * @brief This function handles Secure fault.
  */
void SecureFault_Handler(void)
{
 c001ab2:	b480      	push	{r7}
 c001ab4:	af00      	add	r7, sp, #0
  /* USER CODE BEGIN SecureFault_IRQn 0 */

  /* USER CODE END SecureFault_IRQn 0 */
  while (1)
 c001ab6:	e7fe      	b.n	c001ab6 <SecureFault_Handler+0x4>

0c001ab8 <SVC_Handler>:

/**
  * @brief This function handles System service call via SWI instruction.
  */
void SVC_Handler(void)
{
 c001ab8:	b480      	push	{r7}
 c001aba:	af00      	add	r7, sp, #0

  /* USER CODE END SVCall_IRQn 0 */
  /* USER CODE BEGIN SVCall_IRQn 1 */

  /* USER CODE END SVCall_IRQn 1 */
}
 c001abc:	bf00      	nop
 c001abe:	46bd      	mov	sp, r7
 c001ac0:	f85d 7b04 	ldr.w	r7, [sp], #4
 c001ac4:	4770      	bx	lr

0c001ac6 <DebugMon_Handler>:

/**
  * @brief This function handles Debug monitor.
  */
void DebugMon_Handler(void)
{
 c001ac6:	b480      	push	{r7}
 c001ac8:	af00      	add	r7, sp, #0

  /* USER CODE END DebugMonitor_IRQn 0 */
  /* USER CODE BEGIN DebugMonitor_IRQn 1 */

  /* USER CODE END DebugMonitor_IRQn 1 */
}
 c001aca:	bf00      	nop
 c001acc:	46bd      	mov	sp, r7
 c001ace:	f85d 7b04 	ldr.w	r7, [sp], #4
 c001ad2:	4770      	bx	lr

0c001ad4 <PendSV_Handler>:

/**
  * @brief This function handles Pendable request for system service.
  */
void PendSV_Handler(void)
{
 c001ad4:	b480      	push	{r7}
 c001ad6:	af00      	add	r7, sp, #0

  /* USER CODE END PendSV_IRQn 0 */
  /* USER CODE BEGIN PendSV_IRQn 1 */

  /* USER CODE END PendSV_IRQn 1 */
}
 c001ad8:	bf00      	nop
 c001ada:	46bd      	mov	sp, r7
 c001adc:	f85d 7b04 	ldr.w	r7, [sp], #4
 c001ae0:	4770      	bx	lr

0c001ae2 <SysTick_Handler>:

/**
  * @brief This function handles System tick timer.
  */
void SysTick_Handler(void)
{
 c001ae2:	b580      	push	{r7, lr}
 c001ae4:	af00      	add	r7, sp, #0
  /* USER CODE BEGIN SysTick_IRQn 0 */

  /* USER CODE END SysTick_IRQn 0 */
  HAL_IncTick();
 c001ae6:	f000 fad7 	bl	c002098 <HAL_IncTick>
  /* USER CODE BEGIN SysTick_IRQn 1 */

  /* USER CODE END SysTick_IRQn 1 */
}
 c001aea:	bf00      	nop
 c001aec:	bd80      	pop	{r7, pc}
	...

0c001af0 <DMA1_Channel2_IRQHandler>:

/**
  * @brief This function handles DMA1 channel2 global interrupt.
  */
void DMA1_Channel2_IRQHandler(void)
{
 c001af0:	b580      	push	{r7, lr}
 c001af2:	af00      	add	r7, sp, #0
  /* USER CODE BEGIN DMA1_Channel2_IRQn 0 */

  /* USER CODE END DMA1_Channel2_IRQn 0 */
  HAL_DMA_IRQHandler(&hdma_spi3_rx);
 c001af4:	4802      	ldr	r0, [pc, #8]	; (c001b00 <DMA1_Channel2_IRQHandler+0x10>)
 c001af6:	f000 fd46 	bl	c002586 <HAL_DMA_IRQHandler>
  /* USER CODE BEGIN DMA1_Channel2_IRQn 1 */

  /* USER CODE END DMA1_Channel2_IRQn 1 */
}
 c001afa:	bf00      	nop
 c001afc:	bd80      	pop	{r7, pc}
 c001afe:	bf00      	nop
 c001b00:	300001f4 	.word	0x300001f4

0c001b04 <DMA1_Channel3_IRQHandler>:

/**
  * @brief This function handles DMA1 channel3 global interrupt.
  */
void DMA1_Channel3_IRQHandler(void)
{
 c001b04:	b580      	push	{r7, lr}
 c001b06:	af00      	add	r7, sp, #0
  /* USER CODE BEGIN DMA1_Channel3_IRQn 0 */

  /* USER CODE END DMA1_Channel3_IRQn 0 */
  HAL_DMA_IRQHandler(&hdma_spi3_tx);
 c001b08:	4802      	ldr	r0, [pc, #8]	; (c001b14 <DMA1_Channel3_IRQHandler+0x10>)
 c001b0a:	f000 fd3c 	bl	c002586 <HAL_DMA_IRQHandler>
  /* USER CODE BEGIN DMA1_Channel3_IRQn 1 */

  /* USER CODE END DMA1_Channel3_IRQn 1 */
}
 c001b0e:	bf00      	nop
 c001b10:	bd80      	pop	{r7, pc}
 c001b12:	bf00      	nop
 c001b14:	3000025c 	.word	0x3000025c

0c001b18 <DMA1_Channel1_IRQHandler>:

/* USER CODE BEGIN 1 */
void DMA1_Channel1_IRQHandler(void)
{
 c001b18:	b580      	push	{r7, lr}
 c001b1a:	af00      	add	r7, sp, #0
  /* USER CODE BEGIN DMA1_Channel2_IRQn 0 */

  /* USER CODE END DMA1_Channel2_IRQn 0 */
	HAL_DMA_IRQHandler(&hdma_memtomem_dma1_channel1);
 c001b1c:	4802      	ldr	r0, [pc, #8]	; (c001b28 <DMA1_Channel1_IRQHandler+0x10>)
 c001b1e:	f000 fd32 	bl	c002586 <HAL_DMA_IRQHandler>
  /* USER CODE BEGIN DMA1_Channel2_IRQn 1 */

  /* USER CODE END DMA1_Channel2_IRQn 1 */
}
 c001b22:	bf00      	nop
 c001b24:	bd80      	pop	{r7, pc}
 c001b26:	bf00      	nop
 c001b28:	30000358 	.word	0x30000358

0c001b2c <DMA1_Channel4_IRQHandler>:

void DMA1_Channel4_IRQHandler(void)
{
 c001b2c:	b580      	push	{r7, lr}
 c001b2e:	af00      	add	r7, sp, #0
  /* USER CODE BEGIN DMA1_Channel2_IRQn 0 */

  /* USER CODE END DMA1_Channel2_IRQn 0 */
	HAL_DMA_IRQHandler(&hdma_memtomem_dma1_channel4);
 c001b30:	4802      	ldr	r0, [pc, #8]	; (c001b3c <DMA1_Channel4_IRQHandler+0x10>)
 c001b32:	f000 fd28 	bl	c002586 <HAL_DMA_IRQHandler>
  /* USER CODE BEGIN DMA1_Channel2_IRQn 1 */

  /* USER CODE END DMA1_Channel2_IRQn 1 */
}
 c001b36:	bf00      	nop
 c001b38:	bd80      	pop	{r7, pc}
 c001b3a:	bf00      	nop
 c001b3c:	300003c0 	.word	0x300003c0

0c001b40 <_read>:
  _kill(status, -1);
  while (1) {}    /* Make sure we hang here */
}

__attribute__((weak)) int _read(int file, char *ptr, int len)
{
 c001b40:	b580      	push	{r7, lr}
 c001b42:	b086      	sub	sp, #24
 c001b44:	af00      	add	r7, sp, #0
 c001b46:	60f8      	str	r0, [r7, #12]
 c001b48:	60b9      	str	r1, [r7, #8]
 c001b4a:	607a      	str	r2, [r7, #4]
  (void)file;
  int DataIdx;

  for (DataIdx = 0; DataIdx < len; DataIdx++)
 c001b4c:	2300      	movs	r3, #0
 c001b4e:	617b      	str	r3, [r7, #20]
 c001b50:	e00a      	b.n	c001b68 <_read+0x28>
  {
    *ptr++ = __io_getchar();
 c001b52:	e000      	b.n	c001b56 <_read+0x16>
 c001b54:	bf00      	nop
 c001b56:	4601      	mov	r1, r0
 c001b58:	68bb      	ldr	r3, [r7, #8]
 c001b5a:	1c5a      	adds	r2, r3, #1
 c001b5c:	60ba      	str	r2, [r7, #8]
 c001b5e:	b2ca      	uxtb	r2, r1
 c001b60:	701a      	strb	r2, [r3, #0]
  for (DataIdx = 0; DataIdx < len; DataIdx++)
 c001b62:	697b      	ldr	r3, [r7, #20]
 c001b64:	3301      	adds	r3, #1
 c001b66:	617b      	str	r3, [r7, #20]
 c001b68:	697a      	ldr	r2, [r7, #20]
 c001b6a:	687b      	ldr	r3, [r7, #4]
 c001b6c:	429a      	cmp	r2, r3
 c001b6e:	dbf0      	blt.n	c001b52 <_read+0x12>
  }

  return len;
 c001b70:	687b      	ldr	r3, [r7, #4]
}
 c001b72:	4618      	mov	r0, r3
 c001b74:	3718      	adds	r7, #24
 c001b76:	46bd      	mov	sp, r7
 c001b78:	bd80      	pop	{r7, pc}

0c001b7a <_write>:

__attribute__((weak)) int _write(int file, char *ptr, int len)
{
 c001b7a:	b580      	push	{r7, lr}
 c001b7c:	b086      	sub	sp, #24
 c001b7e:	af00      	add	r7, sp, #0
 c001b80:	60f8      	str	r0, [r7, #12]
 c001b82:	60b9      	str	r1, [r7, #8]
 c001b84:	607a      	str	r2, [r7, #4]
  (void)file;
  int DataIdx;

  for (DataIdx = 0; DataIdx < len; DataIdx++)
 c001b86:	2300      	movs	r3, #0
 c001b88:	617b      	str	r3, [r7, #20]
 c001b8a:	e009      	b.n	c001ba0 <_write+0x26>
  {
    __io_putchar(*ptr++);
 c001b8c:	68bb      	ldr	r3, [r7, #8]
 c001b8e:	1c5a      	adds	r2, r3, #1
 c001b90:	60ba      	str	r2, [r7, #8]
 c001b92:	781b      	ldrb	r3, [r3, #0]
 c001b94:	4618      	mov	r0, r3
 c001b96:	f7ff f97b 	bl	c000e90 <__io_putchar>
  for (DataIdx = 0; DataIdx < len; DataIdx++)
 c001b9a:	697b      	ldr	r3, [r7, #20]
 c001b9c:	3301      	adds	r3, #1
 c001b9e:	617b      	str	r3, [r7, #20]
 c001ba0:	697a      	ldr	r2, [r7, #20]
 c001ba2:	687b      	ldr	r3, [r7, #4]
 c001ba4:	429a      	cmp	r2, r3
 c001ba6:	dbf1      	blt.n	c001b8c <_write+0x12>
  }
  return len;
 c001ba8:	687b      	ldr	r3, [r7, #4]
}
 c001baa:	4618      	mov	r0, r3
 c001bac:	3718      	adds	r7, #24
 c001bae:	46bd      	mov	sp, r7
 c001bb0:	bd80      	pop	{r7, pc}

0c001bb2 <_close>:

int _close(int file)
{
 c001bb2:	b480      	push	{r7}
 c001bb4:	b083      	sub	sp, #12
 c001bb6:	af00      	add	r7, sp, #0
 c001bb8:	6078      	str	r0, [r7, #4]
  (void)file;
  return -1;
 c001bba:	f04f 33ff 	mov.w	r3, #4294967295
}
 c001bbe:	4618      	mov	r0, r3
 c001bc0:	370c      	adds	r7, #12
 c001bc2:	46bd      	mov	sp, r7
 c001bc4:	f85d 7b04 	ldr.w	r7, [sp], #4
 c001bc8:	4770      	bx	lr

0c001bca <_fstat>:


int _fstat(int file, struct stat *st)
{
 c001bca:	b480      	push	{r7}
 c001bcc:	b083      	sub	sp, #12
 c001bce:	af00      	add	r7, sp, #0
 c001bd0:	6078      	str	r0, [r7, #4]
 c001bd2:	6039      	str	r1, [r7, #0]
  (void)file;
  st->st_mode = S_IFCHR;
 c001bd4:	683b      	ldr	r3, [r7, #0]
 c001bd6:	f44f 5200 	mov.w	r2, #8192	; 0x2000
 c001bda:	605a      	str	r2, [r3, #4]
  return 0;
 c001bdc:	2300      	movs	r3, #0
}
 c001bde:	4618      	mov	r0, r3
 c001be0:	370c      	adds	r7, #12
 c001be2:	46bd      	mov	sp, r7
 c001be4:	f85d 7b04 	ldr.w	r7, [sp], #4
 c001be8:	4770      	bx	lr

0c001bea <_isatty>:

int _isatty(int file)
{
 c001bea:	b480      	push	{r7}
 c001bec:	b083      	sub	sp, #12
 c001bee:	af00      	add	r7, sp, #0
 c001bf0:	6078      	str	r0, [r7, #4]
  (void)file;
  return 1;
 c001bf2:	2301      	movs	r3, #1
}
 c001bf4:	4618      	mov	r0, r3
 c001bf6:	370c      	adds	r7, #12
 c001bf8:	46bd      	mov	sp, r7
 c001bfa:	f85d 7b04 	ldr.w	r7, [sp], #4
 c001bfe:	4770      	bx	lr

0c001c00 <_lseek>:

int _lseek(int file, int ptr, int dir)
{
 c001c00:	b480      	push	{r7}
 c001c02:	b085      	sub	sp, #20
 c001c04:	af00      	add	r7, sp, #0
 c001c06:	60f8      	str	r0, [r7, #12]
 c001c08:	60b9      	str	r1, [r7, #8]
 c001c0a:	607a      	str	r2, [r7, #4]
  (void)file;
  (void)ptr;
  (void)dir;
  return 0;
 c001c0c:	2300      	movs	r3, #0
}
 c001c0e:	4618      	mov	r0, r3
 c001c10:	3714      	adds	r7, #20
 c001c12:	46bd      	mov	sp, r7
 c001c14:	f85d 7b04 	ldr.w	r7, [sp], #4
 c001c18:	4770      	bx	lr
	...

0c001c1c <_sbrk>:
 *
 * @param incr Memory size
 * @return Pointer to allocated memory
 */
void *_sbrk(ptrdiff_t incr)
{
 c001c1c:	b580      	push	{r7, lr}
 c001c1e:	b086      	sub	sp, #24
 c001c20:	af00      	add	r7, sp, #0
 c001c22:	6078      	str	r0, [r7, #4]
  extern uint8_t _end; /* Symbol defined in the linker script */
  extern uint8_t _estack; /* Symbol defined in the linker script */
  extern uint32_t _Min_Stack_Size; /* Symbol defined in the linker script */
  const uint32_t stack_limit = (uint32_t)&_estack - (uint32_t)&_Min_Stack_Size;
 c001c24:	4a14      	ldr	r2, [pc, #80]	; (c001c78 <_sbrk+0x5c>)
 c001c26:	4b15      	ldr	r3, [pc, #84]	; (c001c7c <_sbrk+0x60>)
 c001c28:	1ad3      	subs	r3, r2, r3
 c001c2a:	617b      	str	r3, [r7, #20]
  const uint8_t *max_heap = (uint8_t *)stack_limit;
 c001c2c:	697b      	ldr	r3, [r7, #20]
 c001c2e:	613b      	str	r3, [r7, #16]
  uint8_t *prev_heap_end;

  /* Initialize heap end at first call */
  if (NULL == __sbrk_heap_end)
 c001c30:	4b13      	ldr	r3, [pc, #76]	; (c001c80 <_sbrk+0x64>)
 c001c32:	681b      	ldr	r3, [r3, #0]
 c001c34:	2b00      	cmp	r3, #0
 c001c36:	d102      	bne.n	c001c3e <_sbrk+0x22>
  {
    __sbrk_heap_end = &_end;
 c001c38:	4b11      	ldr	r3, [pc, #68]	; (c001c80 <_sbrk+0x64>)
 c001c3a:	4a12      	ldr	r2, [pc, #72]	; (c001c84 <_sbrk+0x68>)
 c001c3c:	601a      	str	r2, [r3, #0]
  }

  /* Protect heap from growing into the reserved MSP stack */
  if (__sbrk_heap_end + incr > max_heap)
 c001c3e:	4b10      	ldr	r3, [pc, #64]	; (c001c80 <_sbrk+0x64>)
 c001c40:	681a      	ldr	r2, [r3, #0]
 c001c42:	687b      	ldr	r3, [r7, #4]
 c001c44:	4413      	add	r3, r2
 c001c46:	693a      	ldr	r2, [r7, #16]
 c001c48:	429a      	cmp	r2, r3
 c001c4a:	d207      	bcs.n	c001c5c <_sbrk+0x40>
  {
    errno = ENOMEM;
 c001c4c:	f004 fde4 	bl	c006818 <__errno>
 c001c50:	4603      	mov	r3, r0
 c001c52:	220c      	movs	r2, #12
 c001c54:	601a      	str	r2, [r3, #0]
    return (void *)-1;
 c001c56:	f04f 33ff 	mov.w	r3, #4294967295
 c001c5a:	e009      	b.n	c001c70 <_sbrk+0x54>
  }

  prev_heap_end = __sbrk_heap_end;
 c001c5c:	4b08      	ldr	r3, [pc, #32]	; (c001c80 <_sbrk+0x64>)
 c001c5e:	681b      	ldr	r3, [r3, #0]
 c001c60:	60fb      	str	r3, [r7, #12]
  __sbrk_heap_end += incr;
 c001c62:	4b07      	ldr	r3, [pc, #28]	; (c001c80 <_sbrk+0x64>)
 c001c64:	681a      	ldr	r2, [r3, #0]
 c001c66:	687b      	ldr	r3, [r7, #4]
 c001c68:	4413      	add	r3, r2
 c001c6a:	4a05      	ldr	r2, [pc, #20]	; (c001c80 <_sbrk+0x64>)
 c001c6c:	6013      	str	r3, [r2, #0]

  return (void *)prev_heap_end;
 c001c6e:	68fb      	ldr	r3, [r7, #12]
}
 c001c70:	4618      	mov	r0, r3
 c001c72:	3718      	adds	r7, #24
 c001c74:	46bd      	mov	sp, r7
 c001c76:	bd80      	pop	{r7, pc}
 c001c78:	30018000 	.word	0x30018000
 c001c7c:	00000400 	.word	0x00000400
 c001c80:	30001858 	.word	0x30001858
 c001c84:	30001870 	.word	0x30001870

0c001c88 <TZ_SAU_Setup>:
  \brief   Setup a SAU Region
  \details Writes the region information contained in SAU_Region to the
           registers SAU_RNR, SAU_RBAR, and SAU_RLAR
 */
__STATIC_INLINE void TZ_SAU_Setup (void)
{
 c001c88:	b480      	push	{r7}
 c001c8a:	af00      	add	r7, sp, #0

#if defined (__SAUREGION_PRESENT) && (__SAUREGION_PRESENT == 1U)

  #if defined (SAU_INIT_REGION0) && (SAU_INIT_REGION0 == 1U)
    SAU_INIT_REGION(0);
 c001c8c:	4b30      	ldr	r3, [pc, #192]	; (c001d50 <TZ_SAU_Setup+0xc8>)
 c001c8e:	2200      	movs	r2, #0
 c001c90:	609a      	str	r2, [r3, #8]
 c001c92:	4b2f      	ldr	r3, [pc, #188]	; (c001d50 <TZ_SAU_Setup+0xc8>)
 c001c94:	4a2f      	ldr	r2, [pc, #188]	; (c001d54 <TZ_SAU_Setup+0xcc>)
 c001c96:	60da      	str	r2, [r3, #12]
 c001c98:	4b2d      	ldr	r3, [pc, #180]	; (c001d50 <TZ_SAU_Setup+0xc8>)
 c001c9a:	4a2f      	ldr	r2, [pc, #188]	; (c001d58 <TZ_SAU_Setup+0xd0>)
 c001c9c:	611a      	str	r2, [r3, #16]
  #endif

  #if defined (SAU_INIT_REGION1) && (SAU_INIT_REGION1 == 1U)
    SAU_INIT_REGION(1);
 c001c9e:	4b2c      	ldr	r3, [pc, #176]	; (c001d50 <TZ_SAU_Setup+0xc8>)
 c001ca0:	2201      	movs	r2, #1
 c001ca2:	609a      	str	r2, [r3, #8]
 c001ca4:	4b2a      	ldr	r3, [pc, #168]	; (c001d50 <TZ_SAU_Setup+0xc8>)
 c001ca6:	4a2d      	ldr	r2, [pc, #180]	; (c001d5c <TZ_SAU_Setup+0xd4>)
 c001ca8:	60da      	str	r2, [r3, #12]
 c001caa:	4b29      	ldr	r3, [pc, #164]	; (c001d50 <TZ_SAU_Setup+0xc8>)
 c001cac:	4a2c      	ldr	r2, [pc, #176]	; (c001d60 <TZ_SAU_Setup+0xd8>)
 c001cae:	611a      	str	r2, [r3, #16]
  #endif

  #if defined (SAU_INIT_REGION2) && (SAU_INIT_REGION2 == 1U)
    SAU_INIT_REGION(2);
 c001cb0:	4b27      	ldr	r3, [pc, #156]	; (c001d50 <TZ_SAU_Setup+0xc8>)
 c001cb2:	2202      	movs	r2, #2
 c001cb4:	609a      	str	r2, [r3, #8]
 c001cb6:	4b26      	ldr	r3, [pc, #152]	; (c001d50 <TZ_SAU_Setup+0xc8>)
 c001cb8:	4a2a      	ldr	r2, [pc, #168]	; (c001d64 <TZ_SAU_Setup+0xdc>)
 c001cba:	60da      	str	r2, [r3, #12]
 c001cbc:	4b24      	ldr	r3, [pc, #144]	; (c001d50 <TZ_SAU_Setup+0xc8>)
 c001cbe:	4a2a      	ldr	r2, [pc, #168]	; (c001d68 <TZ_SAU_Setup+0xe0>)
 c001cc0:	611a      	str	r2, [r3, #16]
  #endif

  #if defined (SAU_INIT_REGION3) && (SAU_INIT_REGION3 == 1U)
    SAU_INIT_REGION(3);
 c001cc2:	4b23      	ldr	r3, [pc, #140]	; (c001d50 <TZ_SAU_Setup+0xc8>)
 c001cc4:	2203      	movs	r2, #3
 c001cc6:	609a      	str	r2, [r3, #8]
 c001cc8:	4b21      	ldr	r3, [pc, #132]	; (c001d50 <TZ_SAU_Setup+0xc8>)
 c001cca:	f04f 4280 	mov.w	r2, #1073741824	; 0x40000000
 c001cce:	60da      	str	r2, [r3, #12]
 c001cd0:	4b1f      	ldr	r3, [pc, #124]	; (c001d50 <TZ_SAU_Setup+0xc8>)
 c001cd2:	4a26      	ldr	r2, [pc, #152]	; (c001d6c <TZ_SAU_Setup+0xe4>)
 c001cd4:	611a      	str	r2, [r3, #16]
  #endif

  #if defined (SAU_INIT_REGION4) && (SAU_INIT_REGION4 == 1U)
    SAU_INIT_REGION(4);
 c001cd6:	4b1e      	ldr	r3, [pc, #120]	; (c001d50 <TZ_SAU_Setup+0xc8>)
 c001cd8:	2204      	movs	r2, #4
 c001cda:	609a      	str	r2, [r3, #8]
 c001cdc:	4b1c      	ldr	r3, [pc, #112]	; (c001d50 <TZ_SAU_Setup+0xc8>)
 c001cde:	f04f 42c0 	mov.w	r2, #1610612736	; 0x60000000
 c001ce2:	60da      	str	r2, [r3, #12]
 c001ce4:	4b1a      	ldr	r3, [pc, #104]	; (c001d50 <TZ_SAU_Setup+0xc8>)
 c001ce6:	4a22      	ldr	r2, [pc, #136]	; (c001d70 <TZ_SAU_Setup+0xe8>)
 c001ce8:	611a      	str	r2, [r3, #16]
  #endif

  #if defined (SAU_INIT_REGION5) && (SAU_INIT_REGION5 == 1U)
    SAU_INIT_REGION(5);
 c001cea:	4b19      	ldr	r3, [pc, #100]	; (c001d50 <TZ_SAU_Setup+0xc8>)
 c001cec:	2205      	movs	r2, #5
 c001cee:	609a      	str	r2, [r3, #8]
 c001cf0:	4b17      	ldr	r3, [pc, #92]	; (c001d50 <TZ_SAU_Setup+0xc8>)
 c001cf2:	4a20      	ldr	r2, [pc, #128]	; (c001d74 <TZ_SAU_Setup+0xec>)
 c001cf4:	60da      	str	r2, [r3, #12]
 c001cf6:	4b16      	ldr	r3, [pc, #88]	; (c001d50 <TZ_SAU_Setup+0xc8>)
 c001cf8:	4a1f      	ldr	r2, [pc, #124]	; (c001d78 <TZ_SAU_Setup+0xf0>)
 c001cfa:	611a      	str	r2, [r3, #16]
  /* repeat this for all possible SAU regions */

#endif /* defined (__SAUREGION_PRESENT) && (__SAUREGION_PRESENT == 1U) */

  #if defined (SAU_INIT_CTRL) && (SAU_INIT_CTRL == 1U)
    SAU->CTRL = ((SAU_INIT_CTRL_ENABLE << SAU_CTRL_ENABLE_Pos) & SAU_CTRL_ENABLE_Msk) |
 c001cfc:	4b14      	ldr	r3, [pc, #80]	; (c001d50 <TZ_SAU_Setup+0xc8>)
 c001cfe:	2201      	movs	r2, #1
 c001d00:	601a      	str	r2, [r3, #0]
  #endif /* defined (SCB_CSR_AIRCR_INIT) && (SCB_CSR_AIRCR_INIT == 1U) */

  #if defined (__FPU_USED) && (__FPU_USED == 1U) && \
      defined (TZ_FPU_NS_USAGE) && (TZ_FPU_NS_USAGE == 1U)

    SCB->NSACR = (SCB->NSACR & ~(SCB_NSACR_CP10_Msk | SCB_NSACR_CP11_Msk)) |
 c001d02:	4b1e      	ldr	r3, [pc, #120]	; (c001d7c <TZ_SAU_Setup+0xf4>)
 c001d04:	f8d3 308c 	ldr.w	r3, [r3, #140]	; 0x8c
 c001d08:	4a1c      	ldr	r2, [pc, #112]	; (c001d7c <TZ_SAU_Setup+0xf4>)
 c001d0a:	f443 6340 	orr.w	r3, r3, #3072	; 0xc00
 c001d0e:	f8c2 308c 	str.w	r3, [r2, #140]	; 0x8c
                   ((SCB_NSACR_CP10_11_VAL << SCB_NSACR_CP10_Pos) & (SCB_NSACR_CP10_Msk | SCB_NSACR_CP11_Msk));

    FPU->FPCCR = (FPU->FPCCR & ~(FPU_FPCCR_TS_Msk | FPU_FPCCR_CLRONRETS_Msk | FPU_FPCCR_CLRONRET_Msk)) |
 c001d12:	4b1b      	ldr	r3, [pc, #108]	; (c001d80 <TZ_SAU_Setup+0xf8>)
 c001d14:	685b      	ldr	r3, [r3, #4]
                   ((FPU_FPCCR_TS_VAL        << FPU_FPCCR_TS_Pos       ) & FPU_FPCCR_TS_Msk       ) |
 c001d16:	f023 53e0 	bic.w	r3, r3, #469762048	; 0x1c000000
    FPU->FPCCR = (FPU->FPCCR & ~(FPU_FPCCR_TS_Msk | FPU_FPCCR_CLRONRETS_Msk | FPU_FPCCR_CLRONRET_Msk)) |
 c001d1a:	4a19      	ldr	r2, [pc, #100]	; (c001d80 <TZ_SAU_Setup+0xf8>)
                   ((FPU_FPCCR_CLRONRETS_VAL << FPU_FPCCR_CLRONRETS_Pos) & FPU_FPCCR_CLRONRETS_Msk) |
 c001d1c:	f043 5380 	orr.w	r3, r3, #268435456	; 0x10000000
    FPU->FPCCR = (FPU->FPCCR & ~(FPU_FPCCR_TS_Msk | FPU_FPCCR_CLRONRETS_Msk | FPU_FPCCR_CLRONRET_Msk)) |
 c001d20:	6053      	str	r3, [r2, #4]
                   ((FPU_FPCCR_CLRONRET_VAL  << FPU_FPCCR_CLRONRET_Pos ) & FPU_FPCCR_CLRONRET_Msk );
  #endif

  #if defined (NVIC_INIT_ITNS0) && (NVIC_INIT_ITNS0 == 1U)
    NVIC->ITNS[0] = NVIC_INIT_ITNS0_VAL;
 c001d22:	4b18      	ldr	r3, [pc, #96]	; (c001d84 <TZ_SAU_Setup+0xfc>)
 c001d24:	2200      	movs	r2, #0
 c001d26:	f8c3 2280 	str.w	r2, [r3, #640]	; 0x280
  #endif

  #if defined (NVIC_INIT_ITNS1) && (NVIC_INIT_ITNS1 == 1U)
    NVIC->ITNS[1] = NVIC_INIT_ITNS1_VAL;
 c001d2a:	4b16      	ldr	r3, [pc, #88]	; (c001d84 <TZ_SAU_Setup+0xfc>)
 c001d2c:	f44f 4200 	mov.w	r2, #32768	; 0x8000
 c001d30:	f8c3 2284 	str.w	r2, [r3, #644]	; 0x284
  #endif

  #if defined (NVIC_INIT_ITNS2) && (NVIC_INIT_ITNS2 == 1U)
    NVIC->ITNS[2] = NVIC_INIT_ITNS2_VAL;
 c001d34:	4b13      	ldr	r3, [pc, #76]	; (c001d84 <TZ_SAU_Setup+0xfc>)
 c001d36:	2200      	movs	r2, #0
 c001d38:	f8c3 2288 	str.w	r2, [r3, #648]	; 0x288
  #endif

  #if defined (NVIC_INIT_ITNS3) && (NVIC_INIT_ITNS3 == 1U)
    NVIC->ITNS[3] = NVIC_INIT_ITNS3_VAL;
 c001d3c:	4b11      	ldr	r3, [pc, #68]	; (c001d84 <TZ_SAU_Setup+0xfc>)
 c001d3e:	2200      	movs	r2, #0
 c001d40:	f8c3 228c 	str.w	r2, [r3, #652]	; 0x28c
  #endif

}
 c001d44:	bf00      	nop
 c001d46:	46bd      	mov	sp, r7
 c001d48:	f85d 7b04 	ldr.w	r7, [sp], #4
 c001d4c:	4770      	bx	lr
 c001d4e:	bf00      	nop
 c001d50:	e000edd0 	.word	0xe000edd0
 c001d54:	0c03e000 	.word	0x0c03e000
 c001d58:	0c03ffe3 	.word	0x0c03ffe3
 c001d5c:	08040000 	.word	0x08040000
 c001d60:	0807ffe1 	.word	0x0807ffe1
 c001d64:	20018000 	.word	0x20018000
 c001d68:	2003ffe1 	.word	0x2003ffe1
 c001d6c:	4fffffe1 	.word	0x4fffffe1
 c001d70:	9fffffe1 	.word	0x9fffffe1
 c001d74:	0bf90000 	.word	0x0bf90000
 c001d78:	0bfa8fe1 	.word	0x0bfa8fe1
 c001d7c:	e000ed00 	.word	0xe000ed00
 c001d80:	e000ef30 	.word	0xe000ef30
 c001d84:	e000e100 	.word	0xe000e100

0c001d88 <SystemInit>:
  * @brief  Setup the microcontroller system.
  * @retval None
  */

void SystemInit(void)
{
 c001d88:	b580      	push	{r7, lr}
 c001d8a:	af00      	add	r7, sp, #0
  /* SAU/IDAU, FPU and Interrupts secure/non-secure allocation settings */
  TZ_SAU_Setup();
 c001d8c:	f7ff ff7c 	bl	c001c88 <TZ_SAU_Setup>
  SCB->VTOR = VECT_TAB_BASE_ADDRESS | VECT_TAB_OFFSET;
#endif

  /* FPU settings ------------------------------------------------------------*/
#if (__FPU_PRESENT == 1) && (__FPU_USED == 1)
  SCB->CPACR |= ((3UL << 20U)|(3UL << 22U));  /* set CP10 and CP11 Full Access */
 c001d90:	4b08      	ldr	r3, [pc, #32]	; (c001db4 <SystemInit+0x2c>)
 c001d92:	f8d3 3088 	ldr.w	r3, [r3, #136]	; 0x88
 c001d96:	4a07      	ldr	r2, [pc, #28]	; (c001db4 <SystemInit+0x2c>)
 c001d98:	f443 0370 	orr.w	r3, r3, #15728640	; 0xf00000
 c001d9c:	f8c2 3088 	str.w	r3, [r2, #136]	; 0x88

  SCB_NS->CPACR |= ((3UL << 20U)|(3UL << 22U));  /* set CP10 and CP11 Full Access */
 c001da0:	4b05      	ldr	r3, [pc, #20]	; (c001db8 <SystemInit+0x30>)
 c001da2:	f8d3 3088 	ldr.w	r3, [r3, #136]	; 0x88
 c001da6:	4a04      	ldr	r2, [pc, #16]	; (c001db8 <SystemInit+0x30>)
 c001da8:	f443 0370 	orr.w	r3, r3, #15728640	; 0xf00000
 c001dac:	f8c2 3088 	str.w	r3, [r2, #136]	; 0x88
#endif
}
 c001db0:	bf00      	nop
 c001db2:	bd80      	pop	{r7, pc}
 c001db4:	e000ed00 	.word	0xe000ed00
 c001db8:	e002ed00 	.word	0xe002ed00

0c001dbc <SystemCoreClockUpdate>:
  *           value for HSE crystal.
  *
  * @retval None
  */
void SystemCoreClockUpdate(void)
{
 c001dbc:	b480      	push	{r7}
 c001dbe:	b087      	sub	sp, #28
 c001dc0:	af00      	add	r7, sp, #0
  uint32_t tmp, msirange, pllvco, pllsource, pllm, pllr;

  /* Get MSI Range frequency--------------------------------------------------*/
  if((RCC->CR & RCC_CR_MSIRGSEL) == 0U)
 c001dc2:	4b4f      	ldr	r3, [pc, #316]	; (c001f00 <SystemCoreClockUpdate+0x144>)
 c001dc4:	681b      	ldr	r3, [r3, #0]
 c001dc6:	f003 0308 	and.w	r3, r3, #8
 c001dca:	2b00      	cmp	r3, #0
 c001dcc:	d107      	bne.n	c001dde <SystemCoreClockUpdate+0x22>
  { /* MSISRANGE from RCC_CSR applies */
    msirange = (RCC->CSR & RCC_CSR_MSISRANGE) >> 8U;
 c001dce:	4b4c      	ldr	r3, [pc, #304]	; (c001f00 <SystemCoreClockUpdate+0x144>)
 c001dd0:	f8d3 3094 	ldr.w	r3, [r3, #148]	; 0x94
 c001dd4:	0a1b      	lsrs	r3, r3, #8
 c001dd6:	f003 030f 	and.w	r3, r3, #15
 c001dda:	617b      	str	r3, [r7, #20]
 c001ddc:	e005      	b.n	c001dea <SystemCoreClockUpdate+0x2e>
  }
  else
  { /* MSIRANGE from RCC_CR applies */
    msirange = (RCC->CR & RCC_CR_MSIRANGE) >> 4U;
 c001dde:	4b48      	ldr	r3, [pc, #288]	; (c001f00 <SystemCoreClockUpdate+0x144>)
 c001de0:	681b      	ldr	r3, [r3, #0]
 c001de2:	091b      	lsrs	r3, r3, #4
 c001de4:	f003 030f 	and.w	r3, r3, #15
 c001de8:	617b      	str	r3, [r7, #20]
  }
  /*MSI frequency range in HZ*/
  msirange = MSIRangeTable[msirange];
 c001dea:	4a46      	ldr	r2, [pc, #280]	; (c001f04 <SystemCoreClockUpdate+0x148>)
 c001dec:	697b      	ldr	r3, [r7, #20]
 c001dee:	f852 3023 	ldr.w	r3, [r2, r3, lsl #2]
 c001df2:	617b      	str	r3, [r7, #20]

  /* Get SYSCLK source -------------------------------------------------------*/
  switch (RCC->CFGR & RCC_CFGR_SWS)
 c001df4:	4b42      	ldr	r3, [pc, #264]	; (c001f00 <SystemCoreClockUpdate+0x144>)
 c001df6:	689b      	ldr	r3, [r3, #8]
 c001df8:	f003 030c 	and.w	r3, r3, #12
 c001dfc:	2b0c      	cmp	r3, #12
 c001dfe:	d866      	bhi.n	c001ece <SystemCoreClockUpdate+0x112>
 c001e00:	a201      	add	r2, pc, #4	; (adr r2, c001e08 <SystemCoreClockUpdate+0x4c>)
 c001e02:	f852 f023 	ldr.w	pc, [r2, r3, lsl #2]
 c001e06:	bf00      	nop
 c001e08:	0c001e3d 	.word	0x0c001e3d
 c001e0c:	0c001ecf 	.word	0x0c001ecf
 c001e10:	0c001ecf 	.word	0x0c001ecf
 c001e14:	0c001ecf 	.word	0x0c001ecf
 c001e18:	0c001e45 	.word	0x0c001e45
 c001e1c:	0c001ecf 	.word	0x0c001ecf
 c001e20:	0c001ecf 	.word	0x0c001ecf
 c001e24:	0c001ecf 	.word	0x0c001ecf
 c001e28:	0c001e4d 	.word	0x0c001e4d
 c001e2c:	0c001ecf 	.word	0x0c001ecf
 c001e30:	0c001ecf 	.word	0x0c001ecf
 c001e34:	0c001ecf 	.word	0x0c001ecf
 c001e38:	0c001e55 	.word	0x0c001e55
  {
    case 0x00:  /* MSI used as system clock source */
      SystemCoreClock = msirange;
 c001e3c:	4a32      	ldr	r2, [pc, #200]	; (c001f08 <SystemCoreClockUpdate+0x14c>)
 c001e3e:	697b      	ldr	r3, [r7, #20]
 c001e40:	6013      	str	r3, [r2, #0]
      break;
 c001e42:	e048      	b.n	c001ed6 <SystemCoreClockUpdate+0x11a>

    case 0x04:  /* HSI used as system clock source */
      SystemCoreClock = HSI_VALUE;
 c001e44:	4b30      	ldr	r3, [pc, #192]	; (c001f08 <SystemCoreClockUpdate+0x14c>)
 c001e46:	4a31      	ldr	r2, [pc, #196]	; (c001f0c <SystemCoreClockUpdate+0x150>)
 c001e48:	601a      	str	r2, [r3, #0]
      break;
 c001e4a:	e044      	b.n	c001ed6 <SystemCoreClockUpdate+0x11a>

    case 0x08:  /* HSE used as system clock source */
      SystemCoreClock = HSE_VALUE;
 c001e4c:	4b2e      	ldr	r3, [pc, #184]	; (c001f08 <SystemCoreClockUpdate+0x14c>)
 c001e4e:	4a30      	ldr	r2, [pc, #192]	; (c001f10 <SystemCoreClockUpdate+0x154>)
 c001e50:	601a      	str	r2, [r3, #0]
      break;
 c001e52:	e040      	b.n	c001ed6 <SystemCoreClockUpdate+0x11a>

    case 0x0C:  /* PLL used as system clock  source */
      /* PLL_VCO = (HSE_VALUE or HSI_VALUE or MSI_VALUE/ PLLM) * PLLN
         SYSCLK = PLL_VCO / PLLR
         */
      pllsource = (RCC->PLLCFGR & RCC_PLLCFGR_PLLSRC);
 c001e54:	4b2a      	ldr	r3, [pc, #168]	; (c001f00 <SystemCoreClockUpdate+0x144>)
 c001e56:	68db      	ldr	r3, [r3, #12]
 c001e58:	f003 0303 	and.w	r3, r3, #3
 c001e5c:	60fb      	str	r3, [r7, #12]
      pllm = ((RCC->PLLCFGR & RCC_PLLCFGR_PLLM) >> 4U) + 1U ;
 c001e5e:	4b28      	ldr	r3, [pc, #160]	; (c001f00 <SystemCoreClockUpdate+0x144>)
 c001e60:	68db      	ldr	r3, [r3, #12]
 c001e62:	091b      	lsrs	r3, r3, #4
 c001e64:	f003 030f 	and.w	r3, r3, #15
 c001e68:	3301      	adds	r3, #1
 c001e6a:	60bb      	str	r3, [r7, #8]
 c001e6c:	68fb      	ldr	r3, [r7, #12]
 c001e6e:	2b02      	cmp	r3, #2
 c001e70:	d003      	beq.n	c001e7a <SystemCoreClockUpdate+0xbe>
 c001e72:	68fb      	ldr	r3, [r7, #12]
 c001e74:	2b03      	cmp	r3, #3
 c001e76:	d006      	beq.n	c001e86 <SystemCoreClockUpdate+0xca>
 c001e78:	e00b      	b.n	c001e92 <SystemCoreClockUpdate+0xd6>

      switch (pllsource)
      {
        case 0x02:  /* HSI used as PLL clock source */
          pllvco = (HSI_VALUE / pllm);
 c001e7a:	4a24      	ldr	r2, [pc, #144]	; (c001f0c <SystemCoreClockUpdate+0x150>)
 c001e7c:	68bb      	ldr	r3, [r7, #8]
 c001e7e:	fbb2 f3f3 	udiv	r3, r2, r3
 c001e82:	613b      	str	r3, [r7, #16]
          break;
 c001e84:	e00b      	b.n	c001e9e <SystemCoreClockUpdate+0xe2>

        case 0x03:  /* HSE used as PLL clock source */
          pllvco = (HSE_VALUE / pllm);
 c001e86:	4a22      	ldr	r2, [pc, #136]	; (c001f10 <SystemCoreClockUpdate+0x154>)
 c001e88:	68bb      	ldr	r3, [r7, #8]
 c001e8a:	fbb2 f3f3 	udiv	r3, r2, r3
 c001e8e:	613b      	str	r3, [r7, #16]
          break;
 c001e90:	e005      	b.n	c001e9e <SystemCoreClockUpdate+0xe2>

        default:    /* MSI used as PLL clock source */
          pllvco = (msirange / pllm);
 c001e92:	697a      	ldr	r2, [r7, #20]
 c001e94:	68bb      	ldr	r3, [r7, #8]
 c001e96:	fbb2 f3f3 	udiv	r3, r2, r3
 c001e9a:	613b      	str	r3, [r7, #16]
          break;
 c001e9c:	bf00      	nop
      }
      pllvco = pllvco * ((RCC->PLLCFGR & RCC_PLLCFGR_PLLN) >> 8U);
 c001e9e:	4b18      	ldr	r3, [pc, #96]	; (c001f00 <SystemCoreClockUpdate+0x144>)
 c001ea0:	68db      	ldr	r3, [r3, #12]
 c001ea2:	0a1b      	lsrs	r3, r3, #8
 c001ea4:	f003 027f 	and.w	r2, r3, #127	; 0x7f
 c001ea8:	693b      	ldr	r3, [r7, #16]
 c001eaa:	fb02 f303 	mul.w	r3, r2, r3
 c001eae:	613b      	str	r3, [r7, #16]
      pllr = (((RCC->PLLCFGR & RCC_PLLCFGR_PLLR) >> 25U) + 1U) * 2U;
 c001eb0:	4b13      	ldr	r3, [pc, #76]	; (c001f00 <SystemCoreClockUpdate+0x144>)
 c001eb2:	68db      	ldr	r3, [r3, #12]
 c001eb4:	0e5b      	lsrs	r3, r3, #25
 c001eb6:	f003 0303 	and.w	r3, r3, #3
 c001eba:	3301      	adds	r3, #1
 c001ebc:	005b      	lsls	r3, r3, #1
 c001ebe:	607b      	str	r3, [r7, #4]
      SystemCoreClock = pllvco/pllr;
 c001ec0:	693a      	ldr	r2, [r7, #16]
 c001ec2:	687b      	ldr	r3, [r7, #4]
 c001ec4:	fbb2 f3f3 	udiv	r3, r2, r3
 c001ec8:	4a0f      	ldr	r2, [pc, #60]	; (c001f08 <SystemCoreClockUpdate+0x14c>)
 c001eca:	6013      	str	r3, [r2, #0]
      break;
 c001ecc:	e003      	b.n	c001ed6 <SystemCoreClockUpdate+0x11a>

    default:
      SystemCoreClock = msirange;
 c001ece:	4a0e      	ldr	r2, [pc, #56]	; (c001f08 <SystemCoreClockUpdate+0x14c>)
 c001ed0:	697b      	ldr	r3, [r7, #20]
 c001ed2:	6013      	str	r3, [r2, #0]
      break;
 c001ed4:	bf00      	nop
  }
  /* Compute HCLK clock frequency --------------------------------------------*/
  /* Get HCLK prescaler */
  tmp = AHBPrescTable[((RCC->CFGR & RCC_CFGR_HPRE) >> 4U)];
 c001ed6:	4b0a      	ldr	r3, [pc, #40]	; (c001f00 <SystemCoreClockUpdate+0x144>)
 c001ed8:	689b      	ldr	r3, [r3, #8]
 c001eda:	091b      	lsrs	r3, r3, #4
 c001edc:	f003 030f 	and.w	r3, r3, #15
 c001ee0:	4a0c      	ldr	r2, [pc, #48]	; (c001f14 <SystemCoreClockUpdate+0x158>)
 c001ee2:	5cd3      	ldrb	r3, [r2, r3]
 c001ee4:	603b      	str	r3, [r7, #0]
  /* HCLK clock frequency */
  SystemCoreClock >>= tmp;
 c001ee6:	4b08      	ldr	r3, [pc, #32]	; (c001f08 <SystemCoreClockUpdate+0x14c>)
 c001ee8:	681a      	ldr	r2, [r3, #0]
 c001eea:	683b      	ldr	r3, [r7, #0]
 c001eec:	fa22 f303 	lsr.w	r3, r2, r3
 c001ef0:	4a05      	ldr	r2, [pc, #20]	; (c001f08 <SystemCoreClockUpdate+0x14c>)
 c001ef2:	6013      	str	r3, [r2, #0]
}
 c001ef4:	bf00      	nop
 c001ef6:	371c      	adds	r7, #28
 c001ef8:	46bd      	mov	sp, r7
 c001efa:	f85d 7b04 	ldr.w	r7, [sp], #4
 c001efe:	4770      	bx	lr
 c001f00:	50021000 	.word	0x50021000
 c001f04:	0c008008 	.word	0x0c008008
 c001f08:	300000c0 	.word	0x300000c0
 c001f0c:	00f42400 	.word	0x00f42400
 c001f10:	007a1200 	.word	0x007a1200
 c001f14:	0c007ff0 	.word	0x0c007ff0

0c001f18 <__acle_se_SECURE_SystemCoreClockUpdate>:
  *         be used by the user application to setup the SysTick timer or configure
  *         other parameters.
  * @retval SystemCoreClock value (HCLK)
  */
CMSE_NS_ENTRY uint32_t SECURE_SystemCoreClockUpdate(void)
{
 c001f18:	b580      	push	{r7, lr}
 c001f1a:	af00      	add	r7, sp, #0
  SystemCoreClockUpdate();
 c001f1c:	f7ff ff4e 	bl	c001dbc <SystemCoreClockUpdate>
  
  return SystemCoreClock;
 c001f20:	4b1c      	ldr	r3, [pc, #112]	; (c001f94 <__acle_se_SECURE_SystemCoreClockUpdate+0x7c>)
 c001f22:	681b      	ldr	r3, [r3, #0]
}
 c001f24:	4618      	mov	r0, r3
 c001f26:	46bd      	mov	sp, r7
 c001f28:	e8bd 4080 	ldmia.w	sp!, {r7, lr}
 c001f2c:	4671      	mov	r1, lr
 c001f2e:	4672      	mov	r2, lr
 c001f30:	4673      	mov	r3, lr
 c001f32:	eeb7 0a00 	vmov.f32	s0, #112	; 0x3f800000  1.0
 c001f36:	eef7 0a00 	vmov.f32	s1, #112	; 0x3f800000  1.0
 c001f3a:	eeb7 1a00 	vmov.f32	s2, #112	; 0x3f800000  1.0
 c001f3e:	eef7 1a00 	vmov.f32	s3, #112	; 0x3f800000  1.0
 c001f42:	eeb7 2a00 	vmov.f32	s4, #112	; 0x3f800000  1.0
 c001f46:	eef7 2a00 	vmov.f32	s5, #112	; 0x3f800000  1.0
 c001f4a:	eeb7 3a00 	vmov.f32	s6, #112	; 0x3f800000  1.0
 c001f4e:	eef7 3a00 	vmov.f32	s7, #112	; 0x3f800000  1.0
 c001f52:	eeb7 4a00 	vmov.f32	s8, #112	; 0x3f800000  1.0
 c001f56:	eef7 4a00 	vmov.f32	s9, #112	; 0x3f800000  1.0
 c001f5a:	eeb7 5a00 	vmov.f32	s10, #112	; 0x3f800000  1.0
 c001f5e:	eef7 5a00 	vmov.f32	s11, #112	; 0x3f800000  1.0
 c001f62:	eeb7 6a00 	vmov.f32	s12, #112	; 0x3f800000  1.0
 c001f66:	eef7 6a00 	vmov.f32	s13, #112	; 0x3f800000  1.0
 c001f6a:	eeb7 7a00 	vmov.f32	s14, #112	; 0x3f800000  1.0
 c001f6e:	eef7 7a00 	vmov.f32	s15, #112	; 0x3f800000  1.0
 c001f72:	f38e 8c00 	msr	CPSR_fs, lr
 c001f76:	b410      	push	{r4}
 c001f78:	eef1 ca10 	vmrs	ip, fpscr
 c001f7c:	f64f 7460 	movw	r4, #65376	; 0xff60
 c001f80:	f6c0 74ff 	movt	r4, #4095	; 0xfff
 c001f84:	ea0c 0c04 	and.w	ip, ip, r4
 c001f88:	eee1 ca10 	vmsr	fpscr, ip
 c001f8c:	bc10      	pop	{r4}
 c001f8e:	46f4      	mov	ip, lr
 c001f90:	4774      	bxns	lr
 c001f92:	bf00      	nop
 c001f94:	300000c0 	.word	0x300000c0

0c001f98 <Reset_Handler>:

    .section	.text.Reset_Handler
	.weak	Reset_Handler
	.type	Reset_Handler, %function
Reset_Handler:
  ldr   sp, =_estack    /* set stack pointer */
 c001f98:	f8df d034 	ldr.w	sp, [pc, #52]	; c001fd0 <LoopForever+0x2>

/* Call the clock system initialization function.*/
  bl  SystemInit
 c001f9c:	f7ff fef4 	bl	c001d88 <SystemInit>

/* Copy the data segment initializers from flash to SRAM */
  movs	r1, #0
 c001fa0:	2100      	movs	r1, #0
  b	LoopCopyDataInit
 c001fa2:	e003      	b.n	c001fac <LoopCopyDataInit>

0c001fa4 <CopyDataInit>:

CopyDataInit:
	ldr	r3, =_sidata
 c001fa4:	4b0b      	ldr	r3, [pc, #44]	; (c001fd4 <LoopForever+0x6>)
	ldr	r3, [r3, r1]
 c001fa6:	585b      	ldr	r3, [r3, r1]
	str	r3, [r0, r1]
 c001fa8:	5043      	str	r3, [r0, r1]
	adds	r1, r1, #4
 c001faa:	3104      	adds	r1, #4

0c001fac <LoopCopyDataInit>:

LoopCopyDataInit:
	ldr	r0, =_sdata
 c001fac:	480a      	ldr	r0, [pc, #40]	; (c001fd8 <LoopForever+0xa>)
	ldr	r3, =_edata
 c001fae:	4b0b      	ldr	r3, [pc, #44]	; (c001fdc <LoopForever+0xe>)
	adds	r2, r0, r1
 c001fb0:	1842      	adds	r2, r0, r1
	cmp	r2, r3
 c001fb2:	429a      	cmp	r2, r3
	bcc	CopyDataInit
 c001fb4:	d3f6      	bcc.n	c001fa4 <CopyDataInit>
	ldr	r2, =_sbss
 c001fb6:	4a0a      	ldr	r2, [pc, #40]	; (c001fe0 <LoopForever+0x12>)
	b	LoopFillZerobss
 c001fb8:	e002      	b.n	c001fc0 <LoopFillZerobss>

0c001fba <FillZerobss>:
/* Zero fill the bss segment. */
FillZerobss:
	movs	r3, #0
 c001fba:	2300      	movs	r3, #0
	str	r3, [r2], #4
 c001fbc:	f842 3b04 	str.w	r3, [r2], #4

0c001fc0 <LoopFillZerobss>:

LoopFillZerobss:
	ldr	r3, = _ebss
 c001fc0:	4b08      	ldr	r3, [pc, #32]	; (c001fe4 <LoopForever+0x16>)
	cmp	r2, r3
 c001fc2:	429a      	cmp	r2, r3
	bcc	FillZerobss
 c001fc4:	d3f9      	bcc.n	c001fba <FillZerobss>

/* Call static constructors */
  bl __libc_init_array
 c001fc6:	f004 fc2d 	bl	c006824 <__libc_init_array>
/* Call the application's entry point.*/
	bl	main
 c001fca:	f7fe fb65 	bl	c000698 <main>

0c001fce <LoopForever>:

LoopForever:
    b LoopForever
 c001fce:	e7fe      	b.n	c001fce <LoopForever>
  ldr   sp, =_estack    /* set stack pointer */
 c001fd0:	30018000 	.word	0x30018000
	ldr	r3, =_sidata
 c001fd4:	0c008118 	.word	0x0c008118
	ldr	r0, =_sdata
 c001fd8:	30000000 	.word	0x30000000
	ldr	r3, =_edata
 c001fdc:	30000130 	.word	0x30000130
	ldr	r2, =_sbss
 c001fe0:	30000130 	.word	0x30000130
	ldr	r3, = _ebss
 c001fe4:	30001870 	.word	0x30001870

0c001fe8 <ADC1_2_IRQHandler>:
 * @retval : None
*/
    .section	.text.Default_Handler,"ax",%progbits
Default_Handler:
Infinite_Loop:
	b	Infinite_Loop
 c001fe8:	e7fe      	b.n	c001fe8 <ADC1_2_IRQHandler>

0c001fea <HAL_Init>:
  *         each 1ms in the SysTick_Handler() interrupt handler.
  *
  * @retval HAL status
  */
HAL_StatusTypeDef HAL_Init(void)
{
 c001fea:	b580      	push	{r7, lr}
 c001fec:	b082      	sub	sp, #8
 c001fee:	af00      	add	r7, sp, #0
  HAL_StatusTypeDef  status = HAL_OK;
 c001ff0:	2300      	movs	r3, #0
 c001ff2:	71fb      	strb	r3, [r7, #7]

  /* Set Interrupt Group Priority */
  HAL_NVIC_SetPriorityGrouping(NVIC_PRIORITYGROUP_3);
 c001ff4:	2004      	movs	r0, #4
 c001ff6:	f000 f963 	bl	c0022c0 <HAL_NVIC_SetPriorityGrouping>

  /* Insure time base clock coherency */
  SystemCoreClockUpdate();
 c001ffa:	f7ff fedf 	bl	c001dbc <SystemCoreClockUpdate>

  /* Use SysTick as time base source and configure 1ms tick (default clock after Reset is MSI) */
  if (HAL_InitTick(TICK_INT_PRIORITY) != HAL_OK)
 c001ffe:	2000      	movs	r0, #0
 c002000:	f000 f80e 	bl	c002020 <HAL_InitTick>
 c002004:	4603      	mov	r3, r0
 c002006:	2b00      	cmp	r3, #0
 c002008:	d002      	beq.n	c002010 <HAL_Init+0x26>
  {
    status = HAL_ERROR;
 c00200a:	2301      	movs	r3, #1
 c00200c:	71fb      	strb	r3, [r7, #7]
 c00200e:	e001      	b.n	c002014 <HAL_Init+0x2a>
  }
  else
  {
    /* Init the low level hardware */
    HAL_MspInit();
 c002010:	f7ff fb8c 	bl	c00172c <HAL_MspInit>
  }

  /* Return function status */
  return status;
 c002014:	79fb      	ldrb	r3, [r7, #7]
}
 c002016:	4618      	mov	r0, r3
 c002018:	3708      	adds	r7, #8
 c00201a:	46bd      	mov	sp, r7
 c00201c:	bd80      	pop	{r7, pc}
	...

0c002020 <HAL_InitTick>:
  *       implementation  in user file.
  * @param TickPriority  Tick interrupt priority.
  * @retval HAL status
  */
__weak HAL_StatusTypeDef HAL_InitTick(uint32_t TickPriority)
{
 c002020:	b580      	push	{r7, lr}
 c002022:	b084      	sub	sp, #16
 c002024:	af00      	add	r7, sp, #0
 c002026:	6078      	str	r0, [r7, #4]
  HAL_StatusTypeDef  status = HAL_OK;
 c002028:	2300      	movs	r3, #0
 c00202a:	73fb      	strb	r3, [r7, #15]

  /* Check uwTickFreq for MisraC 2012 (even if uwTickFreq is a enum type that doesn't take the value zero)*/
  if ((uint32_t)uwTickFreq != 0U)
 c00202c:	4b17      	ldr	r3, [pc, #92]	; (c00208c <HAL_InitTick+0x6c>)
 c00202e:	781b      	ldrb	r3, [r3, #0]
 c002030:	2b00      	cmp	r3, #0
 c002032:	d023      	beq.n	c00207c <HAL_InitTick+0x5c>
  {
    /*Configure the SysTick to have interrupt in 1ms time basis*/
    if (HAL_SYSTICK_Config(SystemCoreClock / (1000U / (uint32_t)uwTickFreq)) == 0U)
 c002034:	4b16      	ldr	r3, [pc, #88]	; (c002090 <HAL_InitTick+0x70>)
 c002036:	681a      	ldr	r2, [r3, #0]
 c002038:	4b14      	ldr	r3, [pc, #80]	; (c00208c <HAL_InitTick+0x6c>)
 c00203a:	781b      	ldrb	r3, [r3, #0]
 c00203c:	4619      	mov	r1, r3
 c00203e:	f44f 737a 	mov.w	r3, #1000	; 0x3e8
 c002042:	fbb3 f3f1 	udiv	r3, r3, r1
 c002046:	fbb2 f3f3 	udiv	r3, r2, r3
 c00204a:	4618      	mov	r0, r3
 c00204c:	f000 f96b 	bl	c002326 <HAL_SYSTICK_Config>
 c002050:	4603      	mov	r3, r0
 c002052:	2b00      	cmp	r3, #0
 c002054:	d10f      	bne.n	c002076 <HAL_InitTick+0x56>
    {
      /* Configure the SysTick IRQ priority */
      if (TickPriority < (1UL << __NVIC_PRIO_BITS))
 c002056:	687b      	ldr	r3, [r7, #4]
 c002058:	2b07      	cmp	r3, #7
 c00205a:	d809      	bhi.n	c002070 <HAL_InitTick+0x50>
      {
        HAL_NVIC_SetPriority(SysTick_IRQn, TickPriority, 0U);
 c00205c:	2200      	movs	r2, #0
 c00205e:	6879      	ldr	r1, [r7, #4]
 c002060:	f04f 30ff 	mov.w	r0, #4294967295
 c002064:	f000 f937 	bl	c0022d6 <HAL_NVIC_SetPriority>
        uwTickPrio = TickPriority;
 c002068:	4a0a      	ldr	r2, [pc, #40]	; (c002094 <HAL_InitTick+0x74>)
 c00206a:	687b      	ldr	r3, [r7, #4]
 c00206c:	6013      	str	r3, [r2, #0]
 c00206e:	e007      	b.n	c002080 <HAL_InitTick+0x60>
      }
      else
      {
        status = HAL_ERROR;
 c002070:	2301      	movs	r3, #1
 c002072:	73fb      	strb	r3, [r7, #15]
 c002074:	e004      	b.n	c002080 <HAL_InitTick+0x60>
      }
    }
    else
    {
      status = HAL_ERROR;
 c002076:	2301      	movs	r3, #1
 c002078:	73fb      	strb	r3, [r7, #15]
 c00207a:	e001      	b.n	c002080 <HAL_InitTick+0x60>
    }
  }
  else
  {
    status = HAL_ERROR;
 c00207c:	2301      	movs	r3, #1
 c00207e:	73fb      	strb	r3, [r7, #15]
  }

  /* Return function status */
  return status;
 c002080:	7bfb      	ldrb	r3, [r7, #15]
}
 c002082:	4618      	mov	r0, r3
 c002084:	3710      	adds	r7, #16
 c002086:	46bd      	mov	sp, r7
 c002088:	bd80      	pop	{r7, pc}
 c00208a:	bf00      	nop
 c00208c:	300000c8 	.word	0x300000c8
 c002090:	300000c0 	.word	0x300000c0
 c002094:	300000c4 	.word	0x300000c4

0c002098 <HAL_IncTick>:
  * @note This function is declared as __weak to be overwritten in case of other
  *      implementations in user file.
  * @retval None
  */
__weak void HAL_IncTick(void)
{
 c002098:	b480      	push	{r7}
 c00209a:	af00      	add	r7, sp, #0
  uwTick += (uint32_t)uwTickFreq;
 c00209c:	4b06      	ldr	r3, [pc, #24]	; (c0020b8 <HAL_IncTick+0x20>)
 c00209e:	781b      	ldrb	r3, [r3, #0]
 c0020a0:	461a      	mov	r2, r3
 c0020a2:	4b06      	ldr	r3, [pc, #24]	; (c0020bc <HAL_IncTick+0x24>)
 c0020a4:	681b      	ldr	r3, [r3, #0]
 c0020a6:	4413      	add	r3, r2
 c0020a8:	4a04      	ldr	r2, [pc, #16]	; (c0020bc <HAL_IncTick+0x24>)
 c0020aa:	6013      	str	r3, [r2, #0]
}
 c0020ac:	bf00      	nop
 c0020ae:	46bd      	mov	sp, r7
 c0020b0:	f85d 7b04 	ldr.w	r7, [sp], #4
 c0020b4:	4770      	bx	lr
 c0020b6:	bf00      	nop
 c0020b8:	300000c8 	.word	0x300000c8
 c0020bc:	3000185c 	.word	0x3000185c

0c0020c0 <HAL_GetTick>:
  * @note This function is declared as __weak to be overwritten in case of other
  *       implementations in user file.
  * @retval tick value
  */
__weak uint32_t HAL_GetTick(void)
{
 c0020c0:	b480      	push	{r7}
 c0020c2:	af00      	add	r7, sp, #0
  return uwTick;
 c0020c4:	4b03      	ldr	r3, [pc, #12]	; (c0020d4 <HAL_GetTick+0x14>)
 c0020c6:	681b      	ldr	r3, [r3, #0]
}
 c0020c8:	4618      	mov	r0, r3
 c0020ca:	46bd      	mov	sp, r7
 c0020cc:	f85d 7b04 	ldr.w	r7, [sp], #4
 c0020d0:	4770      	bx	lr
 c0020d2:	bf00      	nop
 c0020d4:	3000185c 	.word	0x3000185c

0c0020d8 <HAL_Delay>:
  *       implementations in user file.
  * @param Delay  specifies the delay time length, in milliseconds.
  * @retval None
  */
__weak void HAL_Delay(uint32_t Delay)
{
 c0020d8:	b580      	push	{r7, lr}
 c0020da:	b084      	sub	sp, #16
 c0020dc:	af00      	add	r7, sp, #0
 c0020de:	6078      	str	r0, [r7, #4]
  uint32_t tickstart = HAL_GetTick();
 c0020e0:	f7ff ffee 	bl	c0020c0 <HAL_GetTick>
 c0020e4:	60b8      	str	r0, [r7, #8]
  uint32_t wait = Delay;
 c0020e6:	687b      	ldr	r3, [r7, #4]
 c0020e8:	60fb      	str	r3, [r7, #12]

  /* Add a period to guaranty minimum wait */
  if (wait < HAL_MAX_DELAY)
 c0020ea:	68fb      	ldr	r3, [r7, #12]
 c0020ec:	f1b3 3fff 	cmp.w	r3, #4294967295
 c0020f0:	d005      	beq.n	c0020fe <HAL_Delay+0x26>
  {
    wait += (uint32_t)uwTickFreq;
 c0020f2:	4b0a      	ldr	r3, [pc, #40]	; (c00211c <HAL_Delay+0x44>)
 c0020f4:	781b      	ldrb	r3, [r3, #0]
 c0020f6:	461a      	mov	r2, r3
 c0020f8:	68fb      	ldr	r3, [r7, #12]
 c0020fa:	4413      	add	r3, r2
 c0020fc:	60fb      	str	r3, [r7, #12]
  }

  while ((HAL_GetTick() - tickstart) < wait)
 c0020fe:	bf00      	nop
 c002100:	f7ff ffde 	bl	c0020c0 <HAL_GetTick>
 c002104:	4602      	mov	r2, r0
 c002106:	68bb      	ldr	r3, [r7, #8]
 c002108:	1ad3      	subs	r3, r2, r3
 c00210a:	68fa      	ldr	r2, [r7, #12]
 c00210c:	429a      	cmp	r2, r3
 c00210e:	d8f7      	bhi.n	c002100 <HAL_Delay+0x28>
  {
  }
}
 c002110:	bf00      	nop
 c002112:	bf00      	nop
 c002114:	3710      	adds	r7, #16
 c002116:	46bd      	mov	sp, r7
 c002118:	bd80      	pop	{r7, pc}
 c00211a:	bf00      	nop
 c00211c:	300000c8 	.word	0x300000c8

0c002120 <__NVIC_SetPriorityGrouping>:
           In case of a conflict between priority grouping and available
           priority bits (__NVIC_PRIO_BITS), the smallest possible priority group is set.
  \param [in]      PriorityGroup  Priority grouping field.
 */
__STATIC_INLINE void __NVIC_SetPriorityGrouping(uint32_t PriorityGroup)
{
 c002120:	b480      	push	{r7}
 c002122:	b085      	sub	sp, #20
 c002124:	af00      	add	r7, sp, #0
 c002126:	6078      	str	r0, [r7, #4]
  uint32_t reg_value;
  uint32_t PriorityGroupTmp = (PriorityGroup & (uint32_t)0x07UL);             /* only values 0..7 are used          */
 c002128:	687b      	ldr	r3, [r7, #4]
 c00212a:	f003 0307 	and.w	r3, r3, #7
 c00212e:	60fb      	str	r3, [r7, #12]

  reg_value  =  SCB->AIRCR;                                                   /* read old register configuration    */
 c002130:	4b0c      	ldr	r3, [pc, #48]	; (c002164 <__NVIC_SetPriorityGrouping+0x44>)
 c002132:	68db      	ldr	r3, [r3, #12]
 c002134:	60bb      	str	r3, [r7, #8]
  reg_value &= ~((uint32_t)(SCB_AIRCR_VECTKEY_Msk | SCB_AIRCR_PRIGROUP_Msk)); /* clear bits to change               */
 c002136:	68ba      	ldr	r2, [r7, #8]
 c002138:	f64f 03ff 	movw	r3, #63743	; 0xf8ff
 c00213c:	4013      	ands	r3, r2
 c00213e:	60bb      	str	r3, [r7, #8]
  reg_value  =  (reg_value                                   |
                ((uint32_t)0x5FAUL << SCB_AIRCR_VECTKEY_Pos) |
                (PriorityGroupTmp << SCB_AIRCR_PRIGROUP_Pos)  );              /* Insert write key and priority group */
 c002140:	68fb      	ldr	r3, [r7, #12]
 c002142:	021a      	lsls	r2, r3, #8
                ((uint32_t)0x5FAUL << SCB_AIRCR_VECTKEY_Pos) |
 c002144:	68bb      	ldr	r3, [r7, #8]
 c002146:	4313      	orrs	r3, r2
  reg_value  =  (reg_value                                   |
 c002148:	f043 63bf 	orr.w	r3, r3, #100139008	; 0x5f80000
 c00214c:	f443 3300 	orr.w	r3, r3, #131072	; 0x20000
 c002150:	60bb      	str	r3, [r7, #8]
  SCB->AIRCR =  reg_value;
 c002152:	4a04      	ldr	r2, [pc, #16]	; (c002164 <__NVIC_SetPriorityGrouping+0x44>)
 c002154:	68bb      	ldr	r3, [r7, #8]
 c002156:	60d3      	str	r3, [r2, #12]
}
 c002158:	bf00      	nop
 c00215a:	3714      	adds	r7, #20
 c00215c:	46bd      	mov	sp, r7
 c00215e:	f85d 7b04 	ldr.w	r7, [sp], #4
 c002162:	4770      	bx	lr
 c002164:	e000ed00 	.word	0xe000ed00

0c002168 <__NVIC_GetPriorityGrouping>:
  \brief   Get Priority Grouping
  \details Reads the priority grouping field from the NVIC Interrupt Controller.
  \return                Priority grouping field (SCB->AIRCR [10:8] PRIGROUP field).
 */
__STATIC_INLINE uint32_t __NVIC_GetPriorityGrouping(void)
{
 c002168:	b480      	push	{r7}
 c00216a:	af00      	add	r7, sp, #0
  return ((uint32_t)((SCB->AIRCR & SCB_AIRCR_PRIGROUP_Msk) >> SCB_AIRCR_PRIGROUP_Pos));
 c00216c:	4b04      	ldr	r3, [pc, #16]	; (c002180 <__NVIC_GetPriorityGrouping+0x18>)
 c00216e:	68db      	ldr	r3, [r3, #12]
 c002170:	0a1b      	lsrs	r3, r3, #8
 c002172:	f003 0307 	and.w	r3, r3, #7
}
 c002176:	4618      	mov	r0, r3
 c002178:	46bd      	mov	sp, r7
 c00217a:	f85d 7b04 	ldr.w	r7, [sp], #4
 c00217e:	4770      	bx	lr
 c002180:	e000ed00 	.word	0xe000ed00

0c002184 <__NVIC_EnableIRQ>:
  \details Enables a device specific interrupt in the NVIC interrupt controller.
  \param [in]      IRQn  Device specific interrupt number.
  \note    IRQn must not be negative.
 */
__STATIC_INLINE void __NVIC_EnableIRQ(IRQn_Type IRQn)
{
 c002184:	b480      	push	{r7}
 c002186:	b083      	sub	sp, #12
 c002188:	af00      	add	r7, sp, #0
 c00218a:	4603      	mov	r3, r0
 c00218c:	71fb      	strb	r3, [r7, #7]
  if ((int32_t)(IRQn) >= 0)
 c00218e:	f997 3007 	ldrsb.w	r3, [r7, #7]
 c002192:	2b00      	cmp	r3, #0
 c002194:	db0b      	blt.n	c0021ae <__NVIC_EnableIRQ+0x2a>
  {
    __COMPILER_BARRIER();
    NVIC->ISER[(((uint32_t)IRQn) >> 5UL)] = (uint32_t)(1UL << (((uint32_t)IRQn) & 0x1FUL));
 c002196:	79fb      	ldrb	r3, [r7, #7]
 c002198:	f003 021f 	and.w	r2, r3, #31
 c00219c:	4907      	ldr	r1, [pc, #28]	; (c0021bc <__NVIC_EnableIRQ+0x38>)
 c00219e:	f997 3007 	ldrsb.w	r3, [r7, #7]
 c0021a2:	095b      	lsrs	r3, r3, #5
 c0021a4:	2001      	movs	r0, #1
 c0021a6:	fa00 f202 	lsl.w	r2, r0, r2
 c0021aa:	f841 2023 	str.w	r2, [r1, r3, lsl #2]
    __COMPILER_BARRIER();
  }
}
 c0021ae:	bf00      	nop
 c0021b0:	370c      	adds	r7, #12
 c0021b2:	46bd      	mov	sp, r7
 c0021b4:	f85d 7b04 	ldr.w	r7, [sp], #4
 c0021b8:	4770      	bx	lr
 c0021ba:	bf00      	nop
 c0021bc:	e000e100 	.word	0xe000e100

0c0021c0 <__NVIC_SetPriority>:
  \param [in]      IRQn  Interrupt number.
  \param [in]  priority  Priority to set.
  \note    The priority cannot be set for every processor exception.
 */
__STATIC_INLINE void __NVIC_SetPriority(IRQn_Type IRQn, uint32_t priority)
{
 c0021c0:	b480      	push	{r7}
 c0021c2:	b083      	sub	sp, #12
 c0021c4:	af00      	add	r7, sp, #0
 c0021c6:	4603      	mov	r3, r0
 c0021c8:	6039      	str	r1, [r7, #0]
 c0021ca:	71fb      	strb	r3, [r7, #7]
  if ((int32_t)(IRQn) >= 0)
 c0021cc:	f997 3007 	ldrsb.w	r3, [r7, #7]
 c0021d0:	2b00      	cmp	r3, #0
 c0021d2:	db0a      	blt.n	c0021ea <__NVIC_SetPriority+0x2a>
  {
    NVIC->IPR[((uint32_t)IRQn)]               = (uint8_t)((priority << (8U - __NVIC_PRIO_BITS)) & (uint32_t)0xFFUL);
 c0021d4:	683b      	ldr	r3, [r7, #0]
 c0021d6:	b2da      	uxtb	r2, r3
 c0021d8:	490c      	ldr	r1, [pc, #48]	; (c00220c <__NVIC_SetPriority+0x4c>)
 c0021da:	f997 3007 	ldrsb.w	r3, [r7, #7]
 c0021de:	0152      	lsls	r2, r2, #5
 c0021e0:	b2d2      	uxtb	r2, r2
 c0021e2:	440b      	add	r3, r1
 c0021e4:	f883 2300 	strb.w	r2, [r3, #768]	; 0x300
  }
  else
  {
    SCB->SHPR[(((uint32_t)IRQn) & 0xFUL)-4UL] = (uint8_t)((priority << (8U - __NVIC_PRIO_BITS)) & (uint32_t)0xFFUL);
  }
}
 c0021e8:	e00a      	b.n	c002200 <__NVIC_SetPriority+0x40>
    SCB->SHPR[(((uint32_t)IRQn) & 0xFUL)-4UL] = (uint8_t)((priority << (8U - __NVIC_PRIO_BITS)) & (uint32_t)0xFFUL);
 c0021ea:	683b      	ldr	r3, [r7, #0]
 c0021ec:	b2da      	uxtb	r2, r3
 c0021ee:	4908      	ldr	r1, [pc, #32]	; (c002210 <__NVIC_SetPriority+0x50>)
 c0021f0:	79fb      	ldrb	r3, [r7, #7]
 c0021f2:	f003 030f 	and.w	r3, r3, #15
 c0021f6:	3b04      	subs	r3, #4
 c0021f8:	0152      	lsls	r2, r2, #5
 c0021fa:	b2d2      	uxtb	r2, r2
 c0021fc:	440b      	add	r3, r1
 c0021fe:	761a      	strb	r2, [r3, #24]
}
 c002200:	bf00      	nop
 c002202:	370c      	adds	r7, #12
 c002204:	46bd      	mov	sp, r7
 c002206:	f85d 7b04 	ldr.w	r7, [sp], #4
 c00220a:	4770      	bx	lr
 c00220c:	e000e100 	.word	0xe000e100
 c002210:	e000ed00 	.word	0xe000ed00

0c002214 <NVIC_EncodePriority>:
  \param [in]   PreemptPriority  Preemptive priority value (starting from 0).
  \param [in]       SubPriority  Subpriority value (starting from 0).
  \return                        Encoded priority. Value can be used in the function \ref NVIC_SetPriority().
 */
__STATIC_INLINE uint32_t NVIC_EncodePriority (uint32_t PriorityGroup, uint32_t PreemptPriority, uint32_t SubPriority)
{
 c002214:	b480      	push	{r7}
 c002216:	b089      	sub	sp, #36	; 0x24
 c002218:	af00      	add	r7, sp, #0
 c00221a:	60f8      	str	r0, [r7, #12]
 c00221c:	60b9      	str	r1, [r7, #8]
 c00221e:	607a      	str	r2, [r7, #4]
  uint32_t PriorityGroupTmp = (PriorityGroup & (uint32_t)0x07UL);   /* only values 0..7 are used          */
 c002220:	68fb      	ldr	r3, [r7, #12]
 c002222:	f003 0307 	and.w	r3, r3, #7
 c002226:	61fb      	str	r3, [r7, #28]
  uint32_t PreemptPriorityBits;
  uint32_t SubPriorityBits;

  PreemptPriorityBits = ((7UL - PriorityGroupTmp) > (uint32_t)(__NVIC_PRIO_BITS)) ? (uint32_t)(__NVIC_PRIO_BITS) : (uint32_t)(7UL - PriorityGroupTmp);
 c002228:	69fb      	ldr	r3, [r7, #28]
 c00222a:	f1c3 0307 	rsb	r3, r3, #7
 c00222e:	2b03      	cmp	r3, #3
 c002230:	bf28      	it	cs
 c002232:	2303      	movcs	r3, #3
 c002234:	61bb      	str	r3, [r7, #24]
  SubPriorityBits     = ((PriorityGroupTmp + (uint32_t)(__NVIC_PRIO_BITS)) < (uint32_t)7UL) ? (uint32_t)0UL : (uint32_t)((PriorityGroupTmp - 7UL) + (uint32_t)(__NVIC_PRIO_BITS));
 c002236:	69fb      	ldr	r3, [r7, #28]
 c002238:	3303      	adds	r3, #3
 c00223a:	2b06      	cmp	r3, #6
 c00223c:	d902      	bls.n	c002244 <NVIC_EncodePriority+0x30>
 c00223e:	69fb      	ldr	r3, [r7, #28]
 c002240:	3b04      	subs	r3, #4
 c002242:	e000      	b.n	c002246 <NVIC_EncodePriority+0x32>
 c002244:	2300      	movs	r3, #0
 c002246:	617b      	str	r3, [r7, #20]

  return (
           ((PreemptPriority & (uint32_t)((1UL << (PreemptPriorityBits)) - 1UL)) << SubPriorityBits) |
 c002248:	f04f 32ff 	mov.w	r2, #4294967295
 c00224c:	69bb      	ldr	r3, [r7, #24]
 c00224e:	fa02 f303 	lsl.w	r3, r2, r3
 c002252:	43da      	mvns	r2, r3
 c002254:	68bb      	ldr	r3, [r7, #8]
 c002256:	401a      	ands	r2, r3
 c002258:	697b      	ldr	r3, [r7, #20]
 c00225a:	409a      	lsls	r2, r3
           ((SubPriority     & (uint32_t)((1UL << (SubPriorityBits    )) - 1UL)))
 c00225c:	f04f 31ff 	mov.w	r1, #4294967295
 c002260:	697b      	ldr	r3, [r7, #20]
 c002262:	fa01 f303 	lsl.w	r3, r1, r3
 c002266:	43d9      	mvns	r1, r3
 c002268:	687b      	ldr	r3, [r7, #4]
 c00226a:	400b      	ands	r3, r1
           ((PreemptPriority & (uint32_t)((1UL << (PreemptPriorityBits)) - 1UL)) << SubPriorityBits) |
 c00226c:	4313      	orrs	r3, r2
         );
}
 c00226e:	4618      	mov	r0, r3
 c002270:	3724      	adds	r7, #36	; 0x24
 c002272:	46bd      	mov	sp, r7
 c002274:	f85d 7b04 	ldr.w	r7, [sp], #4
 c002278:	4770      	bx	lr
	...

0c00227c <SysTick_Config>:
  \note    When the variable <b>__Vendor_SysTickConfig</b> is set to 1, then the
           function <b>SysTick_Config</b> is not included. In this case, the file <b><i>device</i>.h</b>
           must contain a vendor-specific implementation of this function.
 */
__STATIC_INLINE uint32_t SysTick_Config(uint32_t ticks)
{
 c00227c:	b580      	push	{r7, lr}
 c00227e:	b082      	sub	sp, #8
 c002280:	af00      	add	r7, sp, #0
 c002282:	6078      	str	r0, [r7, #4]
  if ((ticks - 1UL) > SysTick_LOAD_RELOAD_Msk)
 c002284:	687b      	ldr	r3, [r7, #4]
 c002286:	3b01      	subs	r3, #1
 c002288:	f1b3 7f80 	cmp.w	r3, #16777216	; 0x1000000
 c00228c:	d301      	bcc.n	c002292 <SysTick_Config+0x16>
  {
    return (1UL);                                                   /* Reload value impossible */
 c00228e:	2301      	movs	r3, #1
 c002290:	e00f      	b.n	c0022b2 <SysTick_Config+0x36>
  }

  SysTick->LOAD  = (uint32_t)(ticks - 1UL);                         /* set reload register */
 c002292:	4a0a      	ldr	r2, [pc, #40]	; (c0022bc <SysTick_Config+0x40>)
 c002294:	687b      	ldr	r3, [r7, #4]
 c002296:	3b01      	subs	r3, #1
 c002298:	6053      	str	r3, [r2, #4]
  NVIC_SetPriority (SysTick_IRQn, (1UL << __NVIC_PRIO_BITS) - 1UL); /* set Priority for Systick Interrupt */
 c00229a:	2107      	movs	r1, #7
 c00229c:	f04f 30ff 	mov.w	r0, #4294967295
 c0022a0:	f7ff ff8e 	bl	c0021c0 <__NVIC_SetPriority>
  SysTick->VAL   = 0UL;                                             /* Load the SysTick Counter Value */
 c0022a4:	4b05      	ldr	r3, [pc, #20]	; (c0022bc <SysTick_Config+0x40>)
 c0022a6:	2200      	movs	r2, #0
 c0022a8:	609a      	str	r2, [r3, #8]
  SysTick->CTRL  = SysTick_CTRL_CLKSOURCE_Msk |
 c0022aa:	4b04      	ldr	r3, [pc, #16]	; (c0022bc <SysTick_Config+0x40>)
 c0022ac:	2207      	movs	r2, #7
 c0022ae:	601a      	str	r2, [r3, #0]
                   SysTick_CTRL_TICKINT_Msk   |
                   SysTick_CTRL_ENABLE_Msk;                         /* Enable SysTick IRQ and SysTick Timer */
  return (0UL);                                                     /* Function successful */
 c0022b0:	2300      	movs	r3, #0
}
 c0022b2:	4618      	mov	r0, r3
 c0022b4:	3708      	adds	r7, #8
 c0022b6:	46bd      	mov	sp, r7
 c0022b8:	bd80      	pop	{r7, pc}
 c0022ba:	bf00      	nop
 c0022bc:	e000e010 	.word	0xe000e010

0c0022c0 <HAL_NVIC_SetPriorityGrouping>:
  * @note   When the NVIC_PriorityGroup_0 is selected, IRQ pre-emption is no more possible.
  *         The pending IRQ priority will be managed only by the subpriority.
  * @retval None
  */
void HAL_NVIC_SetPriorityGrouping(uint32_t PriorityGroup)
{
 c0022c0:	b580      	push	{r7, lr}
 c0022c2:	b082      	sub	sp, #8
 c0022c4:	af00      	add	r7, sp, #0
 c0022c6:	6078      	str	r0, [r7, #4]
  /* Check the parameters */
  assert_param(IS_NVIC_PRIORITY_GROUP(PriorityGroup));

  /* Set the PRIGROUP[10:8] bits according to the PriorityGroup parameter value */
  NVIC_SetPriorityGrouping(PriorityGroup);
 c0022c8:	6878      	ldr	r0, [r7, #4]
 c0022ca:	f7ff ff29 	bl	c002120 <__NVIC_SetPriorityGrouping>
}
 c0022ce:	bf00      	nop
 c0022d0:	3708      	adds	r7, #8
 c0022d2:	46bd      	mov	sp, r7
 c0022d4:	bd80      	pop	{r7, pc}

0c0022d6 <HAL_NVIC_SetPriority>:
  *         This parameter can be a value between 0 and 7
  *         A lower priority value indicates a higher priority.
  * @retval None
  */
void HAL_NVIC_SetPriority(IRQn_Type IRQn, uint32_t PreemptPriority, uint32_t SubPriority)
{
 c0022d6:	b580      	push	{r7, lr}
 c0022d8:	b086      	sub	sp, #24
 c0022da:	af00      	add	r7, sp, #0
 c0022dc:	4603      	mov	r3, r0
 c0022de:	60b9      	str	r1, [r7, #8]
 c0022e0:	607a      	str	r2, [r7, #4]
 c0022e2:	73fb      	strb	r3, [r7, #15]

  /* Check the parameters */
  assert_param(IS_NVIC_SUB_PRIORITY(SubPriority));
  assert_param(IS_NVIC_PREEMPTION_PRIORITY(PreemptPriority));

  prioritygroup = NVIC_GetPriorityGrouping();
 c0022e4:	f7ff ff40 	bl	c002168 <__NVIC_GetPriorityGrouping>
 c0022e8:	6178      	str	r0, [r7, #20]

  NVIC_SetPriority(IRQn, NVIC_EncodePriority(prioritygroup, PreemptPriority, SubPriority));
 c0022ea:	687a      	ldr	r2, [r7, #4]
 c0022ec:	68b9      	ldr	r1, [r7, #8]
 c0022ee:	6978      	ldr	r0, [r7, #20]
 c0022f0:	f7ff ff90 	bl	c002214 <NVIC_EncodePriority>
 c0022f4:	4602      	mov	r2, r0
 c0022f6:	f997 300f 	ldrsb.w	r3, [r7, #15]
 c0022fa:	4611      	mov	r1, r2
 c0022fc:	4618      	mov	r0, r3
 c0022fe:	f7ff ff5f 	bl	c0021c0 <__NVIC_SetPriority>
}
 c002302:	bf00      	nop
 c002304:	3718      	adds	r7, #24
 c002306:	46bd      	mov	sp, r7
 c002308:	bd80      	pop	{r7, pc}

0c00230a <HAL_NVIC_EnableIRQ>:
  *         This parameter can be an enumerator of IRQn_Type enumeration
  *         (For the complete STM32 Devices IRQ Channels list, please refer to the appropriate CMSIS device file (stm32l5xxxx.h))
  * @retval None
  */
void HAL_NVIC_EnableIRQ(IRQn_Type IRQn)
{
 c00230a:	b580      	push	{r7, lr}
 c00230c:	b082      	sub	sp, #8
 c00230e:	af00      	add	r7, sp, #0
 c002310:	4603      	mov	r3, r0
 c002312:	71fb      	strb	r3, [r7, #7]
  /* Check the parameters */
  assert_param(IS_NVIC_DEVICE_IRQ(IRQn));

  /* Enable interrupt */
  NVIC_EnableIRQ(IRQn);
 c002314:	f997 3007 	ldrsb.w	r3, [r7, #7]
 c002318:	4618      	mov	r0, r3
 c00231a:	f7ff ff33 	bl	c002184 <__NVIC_EnableIRQ>
}
 c00231e:	bf00      	nop
 c002320:	3708      	adds	r7, #8
 c002322:	46bd      	mov	sp, r7
 c002324:	bd80      	pop	{r7, pc}

0c002326 <HAL_SYSTICK_Config>:
  * @param  TicksNumb Specifies the ticks Number of ticks between two interrupts.
  * @retval status:  - 0  Function succeeded.
  *                  - 1  Function failed.
  */
uint32_t HAL_SYSTICK_Config(uint32_t TicksNumb)
{
 c002326:	b580      	push	{r7, lr}
 c002328:	b082      	sub	sp, #8
 c00232a:	af00      	add	r7, sp, #0
 c00232c:	6078      	str	r0, [r7, #4]
  return SysTick_Config(TicksNumb);
 c00232e:	6878      	ldr	r0, [r7, #4]
 c002330:	f7ff ffa4 	bl	c00227c <SysTick_Config>
 c002334:	4603      	mov	r3, r0
}
 c002336:	4618      	mov	r0, r3
 c002338:	3708      	adds	r7, #8
 c00233a:	46bd      	mov	sp, r7
 c00233c:	bd80      	pop	{r7, pc}
	...

0c002340 <HAL_DMA_Init>:
  * @param  hdma pointer to a DMA_HandleTypeDef structure that contains
  *              the configuration information for the specified DMA Channel.
  * @retval HAL status
  */
HAL_StatusTypeDef HAL_DMA_Init(DMA_HandleTypeDef *hdma)
{
 c002340:	b580      	push	{r7, lr}
 c002342:	b084      	sub	sp, #16
 c002344:	af00      	add	r7, sp, #0
 c002346:	6078      	str	r0, [r7, #4]
  uint32_t tmp;

  /* Check the DMA handle allocation */
  if(hdma == NULL)
 c002348:	687b      	ldr	r3, [r7, #4]
 c00234a:	2b00      	cmp	r3, #0
 c00234c:	d101      	bne.n	c002352 <HAL_DMA_Init+0x12>
  {
    return HAL_ERROR;
 c00234e:	2301      	movs	r3, #1
 c002350:	e08d      	b.n	c00246e <HAL_DMA_Init+0x12e>
  assert_param(IS_DMA_PRIORITY(hdma->Init.Priority));

  assert_param(IS_DMA_ALL_REQUEST(hdma->Init.Request));

  /* Compute the channel index */
  if ((uint32_t)(hdma->Instance) < (uint32_t)(DMA2_Channel1))
 c002352:	687b      	ldr	r3, [r7, #4]
 c002354:	681b      	ldr	r3, [r3, #0]
 c002356:	461a      	mov	r2, r3
 c002358:	4b47      	ldr	r3, [pc, #284]	; (c002478 <HAL_DMA_Init+0x138>)
 c00235a:	429a      	cmp	r2, r3
 c00235c:	d80f      	bhi.n	c00237e <HAL_DMA_Init+0x3e>
  {
    /* DMA1 */
    hdma->ChannelIndex = (((uint32_t)hdma->Instance - (uint32_t)DMA1_Channel1) / ((uint32_t)DMA1_Channel2 - (uint32_t)DMA1_Channel1)) << 2U;
 c00235e:	687b      	ldr	r3, [r7, #4]
 c002360:	681b      	ldr	r3, [r3, #0]
 c002362:	461a      	mov	r2, r3
 c002364:	4b45      	ldr	r3, [pc, #276]	; (c00247c <HAL_DMA_Init+0x13c>)
 c002366:	4413      	add	r3, r2
 c002368:	4a45      	ldr	r2, [pc, #276]	; (c002480 <HAL_DMA_Init+0x140>)
 c00236a:	fba2 2303 	umull	r2, r3, r2, r3
 c00236e:	091b      	lsrs	r3, r3, #4
 c002370:	009a      	lsls	r2, r3, #2
 c002372:	687b      	ldr	r3, [r7, #4]
 c002374:	64da      	str	r2, [r3, #76]	; 0x4c
    hdma->DmaBaseAddress = DMA1;
 c002376:	687b      	ldr	r3, [r7, #4]
 c002378:	4a42      	ldr	r2, [pc, #264]	; (c002484 <HAL_DMA_Init+0x144>)
 c00237a:	649a      	str	r2, [r3, #72]	; 0x48
 c00237c:	e00e      	b.n	c00239c <HAL_DMA_Init+0x5c>
  }
  else
  {
    /* DMA2 */
    hdma->ChannelIndex = (((uint32_t)hdma->Instance - (uint32_t)DMA2_Channel1) / ((uint32_t)DMA2_Channel2 - (uint32_t)DMA2_Channel1)) << 2U;
 c00237e:	687b      	ldr	r3, [r7, #4]
 c002380:	681b      	ldr	r3, [r3, #0]
 c002382:	461a      	mov	r2, r3
 c002384:	4b40      	ldr	r3, [pc, #256]	; (c002488 <HAL_DMA_Init+0x148>)
 c002386:	4413      	add	r3, r2
 c002388:	4a3d      	ldr	r2, [pc, #244]	; (c002480 <HAL_DMA_Init+0x140>)
 c00238a:	fba2 2303 	umull	r2, r3, r2, r3
 c00238e:	091b      	lsrs	r3, r3, #4
 c002390:	009a      	lsls	r2, r3, #2
 c002392:	687b      	ldr	r3, [r7, #4]
 c002394:	64da      	str	r2, [r3, #76]	; 0x4c
    hdma->DmaBaseAddress = DMA2;
 c002396:	687b      	ldr	r3, [r7, #4]
 c002398:	4a3c      	ldr	r2, [pc, #240]	; (c00248c <HAL_DMA_Init+0x14c>)
 c00239a:	649a      	str	r2, [r3, #72]	; 0x48
  }

  /* Change DMA peripheral state */
  hdma->State = HAL_DMA_STATE_BUSY;
 c00239c:	687b      	ldr	r3, [r7, #4]
 c00239e:	2202      	movs	r2, #2
 c0023a0:	f883 2025 	strb.w	r2, [r3, #37]	; 0x25

  /* Get the CR register value */
  tmp = hdma->Instance->CCR;
 c0023a4:	687b      	ldr	r3, [r7, #4]
 c0023a6:	681b      	ldr	r3, [r3, #0]
 c0023a8:	681b      	ldr	r3, [r3, #0]
 c0023aa:	60fb      	str	r3, [r7, #12]

  /* Clear PL, MSIZE, PSIZE, MINC, PINC, CIRC, DIR, MEM2MEM, CT and DBM bits */
  tmp &= ((uint32_t)~(DMA_CCR_PL    | DMA_CCR_MSIZE   | DMA_CCR_PSIZE  |
 c0023ac:	68fb      	ldr	r3, [r7, #12]
 c0023ae:	f423 33ff 	bic.w	r3, r3, #130560	; 0x1fe00
 c0023b2:	f423 73f8 	bic.w	r3, r3, #496	; 0x1f0
 c0023b6:	60fb      	str	r3, [r7, #12]
                      DMA_CCR_MINC  | DMA_CCR_PINC    | DMA_CCR_CIRC   |
                      DMA_CCR_DIR   | DMA_CCR_MEM2MEM | DMA_CCR_CT     |
                      DMA_CCR_DBM));

  /* Prepare the DMA Channel configuration */
  tmp |=  hdma->Init.Direction        |
 c0023b8:	687b      	ldr	r3, [r7, #4]
 c0023ba:	689a      	ldr	r2, [r3, #8]
          hdma->Init.PeriphInc           | hdma->Init.MemInc           |
 c0023bc:	687b      	ldr	r3, [r7, #4]
 c0023be:	68db      	ldr	r3, [r3, #12]
  tmp |=  hdma->Init.Direction        |
 c0023c0:	431a      	orrs	r2, r3
          hdma->Init.PeriphInc           | hdma->Init.MemInc           |
 c0023c2:	687b      	ldr	r3, [r7, #4]
 c0023c4:	691b      	ldr	r3, [r3, #16]
 c0023c6:	431a      	orrs	r2, r3
          hdma->Init.PeriphDataAlignment | hdma->Init.MemDataAlignment |
 c0023c8:	687b      	ldr	r3, [r7, #4]
 c0023ca:	695b      	ldr	r3, [r3, #20]
          hdma->Init.PeriphInc           | hdma->Init.MemInc           |
 c0023cc:	431a      	orrs	r2, r3
          hdma->Init.PeriphDataAlignment | hdma->Init.MemDataAlignment |
 c0023ce:	687b      	ldr	r3, [r7, #4]
 c0023d0:	699b      	ldr	r3, [r3, #24]
 c0023d2:	431a      	orrs	r2, r3
          hdma->Init.Mode                | hdma->Init.Priority;
 c0023d4:	687b      	ldr	r3, [r7, #4]
 c0023d6:	69db      	ldr	r3, [r3, #28]
          hdma->Init.PeriphDataAlignment | hdma->Init.MemDataAlignment |
 c0023d8:	431a      	orrs	r2, r3
          hdma->Init.Mode                | hdma->Init.Priority;
 c0023da:	687b      	ldr	r3, [r7, #4]
 c0023dc:	6a1b      	ldr	r3, [r3, #32]
 c0023de:	4313      	orrs	r3, r2
  tmp |=  hdma->Init.Direction        |
 c0023e0:	68fa      	ldr	r2, [r7, #12]
 c0023e2:	4313      	orrs	r3, r2
 c0023e4:	60fb      	str	r3, [r7, #12]

  /* Write to DMA Channel CR register */
  hdma->Instance->CCR = tmp;
 c0023e6:	687b      	ldr	r3, [r7, #4]
 c0023e8:	681b      	ldr	r3, [r3, #0]
 c0023ea:	68fa      	ldr	r2, [r7, #12]
 c0023ec:	601a      	str	r2, [r3, #0]

  /* Initialize parameters for DMAMUX channel :
     DMAmuxChannel, DMAmuxChannelStatus and DMAmuxChannelStatusMask
  */
  DMA_CalcDMAMUXChannelBaseAndMask(hdma);
 c0023ee:	6878      	ldr	r0, [r7, #4]
 c0023f0:	f000 fae4 	bl	c0029bc <DMA_CalcDMAMUXChannelBaseAndMask>

  if(hdma->Init.Direction == DMA_MEMORY_TO_MEMORY)
 c0023f4:	687b      	ldr	r3, [r7, #4]
 c0023f6:	689b      	ldr	r3, [r3, #8]
 c0023f8:	f5b3 4f80 	cmp.w	r3, #16384	; 0x4000
 c0023fc:	d102      	bne.n	c002404 <HAL_DMA_Init+0xc4>
  {
    /* if memory to memory force the request to 0*/
    hdma->Init.Request = DMA_REQUEST_MEM2MEM;
 c0023fe:	687b      	ldr	r3, [r7, #4]
 c002400:	2200      	movs	r2, #0
 c002402:	605a      	str	r2, [r3, #4]
  }

  /* Set peripheral request  to DMAMUX channel */
  hdma->DMAmuxChannel->CCR = (hdma->Init.Request & DMAMUX_CxCR_DMAREQ_ID);
 c002404:	687b      	ldr	r3, [r7, #4]
 c002406:	685a      	ldr	r2, [r3, #4]
 c002408:	687b      	ldr	r3, [r7, #4]
 c00240a:	6d1b      	ldr	r3, [r3, #80]	; 0x50
 c00240c:	b2d2      	uxtb	r2, r2
 c00240e:	601a      	str	r2, [r3, #0]

  /* Clear the DMAMUX synchro overrun flag */
  hdma->DMAmuxChannelStatus->CFR = hdma->DMAmuxChannelStatusMask;
 c002410:	687b      	ldr	r3, [r7, #4]
 c002412:	6d5b      	ldr	r3, [r3, #84]	; 0x54
 c002414:	687a      	ldr	r2, [r7, #4]
 c002416:	6d92      	ldr	r2, [r2, #88]	; 0x58
 c002418:	605a      	str	r2, [r3, #4]

  if(((hdma->Init.Request > 0U) && (hdma->Init.Request <= DMA_REQUEST_GENERATOR3)))
 c00241a:	687b      	ldr	r3, [r7, #4]
 c00241c:	685b      	ldr	r3, [r3, #4]
 c00241e:	2b00      	cmp	r3, #0
 c002420:	d010      	beq.n	c002444 <HAL_DMA_Init+0x104>
 c002422:	687b      	ldr	r3, [r7, #4]
 c002424:	685b      	ldr	r3, [r3, #4]
 c002426:	2b04      	cmp	r3, #4
 c002428:	d80c      	bhi.n	c002444 <HAL_DMA_Init+0x104>
  {
    /* Initialize parameters for DMAMUX request generator :
       DMAmuxRequestGen, DMAmuxRequestGenStatus and DMAmuxRequestGenStatusMask
    */
    DMA_CalcDMAMUXRequestGenBaseAndMask(hdma);
 c00242a:	6878      	ldr	r0, [r7, #4]
 c00242c:	f000 fb04 	bl	c002a38 <DMA_CalcDMAMUXRequestGenBaseAndMask>

    /* Reset the DMAMUX request generator register*/
    hdma->DMAmuxRequestGen->RGCR = 0U;
 c002430:	687b      	ldr	r3, [r7, #4]
 c002432:	6ddb      	ldr	r3, [r3, #92]	; 0x5c
 c002434:	2200      	movs	r2, #0
 c002436:	601a      	str	r2, [r3, #0]

    /* Clear the DMAMUX request generator overrun flag */
    hdma->DMAmuxRequestGenStatus->RGCFR = hdma->DMAmuxRequestGenStatusMask;
 c002438:	687b      	ldr	r3, [r7, #4]
 c00243a:	6e1b      	ldr	r3, [r3, #96]	; 0x60
 c00243c:	687a      	ldr	r2, [r7, #4]
 c00243e:	6e52      	ldr	r2, [r2, #100]	; 0x64
 c002440:	605a      	str	r2, [r3, #4]
 c002442:	e008      	b.n	c002456 <HAL_DMA_Init+0x116>
  }
  else
  {
    hdma->DMAmuxRequestGen = 0U;
 c002444:	687b      	ldr	r3, [r7, #4]
 c002446:	2200      	movs	r2, #0
 c002448:	65da      	str	r2, [r3, #92]	; 0x5c
    hdma->DMAmuxRequestGenStatus = 0U;
 c00244a:	687b      	ldr	r3, [r7, #4]
 c00244c:	2200      	movs	r2, #0
 c00244e:	661a      	str	r2, [r3, #96]	; 0x60
    hdma->DMAmuxRequestGenStatusMask = 0U;
 c002450:	687b      	ldr	r3, [r7, #4]
 c002452:	2200      	movs	r2, #0
 c002454:	665a      	str	r2, [r3, #100]	; 0x64
  }

  /* Initialise the error code */
  hdma->ErrorCode = HAL_DMA_ERROR_NONE;
 c002456:	687b      	ldr	r3, [r7, #4]
 c002458:	2200      	movs	r2, #0
 c00245a:	645a      	str	r2, [r3, #68]	; 0x44

  /* Initialize the DMA state*/
  hdma->State = HAL_DMA_STATE_READY;
 c00245c:	687b      	ldr	r3, [r7, #4]
 c00245e:	2201      	movs	r2, #1
 c002460:	f883 2025 	strb.w	r2, [r3, #37]	; 0x25

  /* Allocate lock resource and initialize it */
  hdma->Lock = HAL_UNLOCKED;
 c002464:	687b      	ldr	r3, [r7, #4]
 c002466:	2200      	movs	r2, #0
 c002468:	f883 2024 	strb.w	r2, [r3, #36]	; 0x24

  return HAL_OK;
 c00246c:	2300      	movs	r3, #0
}
 c00246e:	4618      	mov	r0, r3
 c002470:	3710      	adds	r7, #16
 c002472:	46bd      	mov	sp, r7
 c002474:	bd80      	pop	{r7, pc}
 c002476:	bf00      	nop
 c002478:	50020407 	.word	0x50020407
 c00247c:	affdfff8 	.word	0xaffdfff8
 c002480:	cccccccd 	.word	0xcccccccd
 c002484:	50020000 	.word	0x50020000
 c002488:	affdfbf8 	.word	0xaffdfbf8
 c00248c:	50020400 	.word	0x50020400

0c002490 <HAL_DMA_Start_IT>:
  * @param  DstAddress The destination memory Buffer address
  * @param  DataLength The length of data to be transferred from source to destination
  * @retval HAL status
  */
HAL_StatusTypeDef HAL_DMA_Start_IT(DMA_HandleTypeDef *hdma, uint32_t SrcAddress, uint32_t DstAddress, uint32_t DataLength)
{
 c002490:	b580      	push	{r7, lr}
 c002492:	b086      	sub	sp, #24
 c002494:	af00      	add	r7, sp, #0
 c002496:	60f8      	str	r0, [r7, #12]
 c002498:	60b9      	str	r1, [r7, #8]
 c00249a:	607a      	str	r2, [r7, #4]
 c00249c:	603b      	str	r3, [r7, #0]
  HAL_StatusTypeDef status = HAL_OK;
 c00249e:	2300      	movs	r3, #0
 c0024a0:	75fb      	strb	r3, [r7, #23]

  /* Check the parameters */
  assert_param(IS_DMA_BUFFER_SIZE(DataLength));

  /* Process locked */
  __HAL_LOCK(hdma);
 c0024a2:	68fb      	ldr	r3, [r7, #12]
 c0024a4:	f893 3024 	ldrb.w	r3, [r3, #36]	; 0x24
 c0024a8:	2b01      	cmp	r3, #1
 c0024aa:	d101      	bne.n	c0024b0 <HAL_DMA_Start_IT+0x20>
 c0024ac:	2302      	movs	r3, #2
 c0024ae:	e066      	b.n	c00257e <HAL_DMA_Start_IT+0xee>
 c0024b0:	68fb      	ldr	r3, [r7, #12]
 c0024b2:	2201      	movs	r2, #1
 c0024b4:	f883 2024 	strb.w	r2, [r3, #36]	; 0x24

  if(HAL_DMA_STATE_READY == hdma->State)
 c0024b8:	68fb      	ldr	r3, [r7, #12]
 c0024ba:	f893 3025 	ldrb.w	r3, [r3, #37]	; 0x25
 c0024be:	b2db      	uxtb	r3, r3
 c0024c0:	2b01      	cmp	r3, #1
 c0024c2:	d155      	bne.n	c002570 <HAL_DMA_Start_IT+0xe0>
  {
    /* Change DMA peripheral state */
    hdma->State = HAL_DMA_STATE_BUSY;
 c0024c4:	68fb      	ldr	r3, [r7, #12]
 c0024c6:	2202      	movs	r2, #2
 c0024c8:	f883 2025 	strb.w	r2, [r3, #37]	; 0x25
    hdma->ErrorCode = HAL_DMA_ERROR_NONE;
 c0024cc:	68fb      	ldr	r3, [r7, #12]
 c0024ce:	2200      	movs	r2, #0
 c0024d0:	645a      	str	r2, [r3, #68]	; 0x44

    /* Disable the peripheral */
    __HAL_DMA_DISABLE(hdma);
 c0024d2:	68fb      	ldr	r3, [r7, #12]
 c0024d4:	681b      	ldr	r3, [r3, #0]
 c0024d6:	681a      	ldr	r2, [r3, #0]
 c0024d8:	68fb      	ldr	r3, [r7, #12]
 c0024da:	681b      	ldr	r3, [r3, #0]
 c0024dc:	f022 0201 	bic.w	r2, r2, #1
 c0024e0:	601a      	str	r2, [r3, #0]

    /* Configure the source, destination address and the data length & clear flags*/
    DMA_SetConfig(hdma, SrcAddress, DstAddress, DataLength);
 c0024e2:	683b      	ldr	r3, [r7, #0]
 c0024e4:	687a      	ldr	r2, [r7, #4]
 c0024e6:	68b9      	ldr	r1, [r7, #8]
 c0024e8:	68f8      	ldr	r0, [r7, #12]
 c0024ea:	f000 fa29 	bl	c002940 <DMA_SetConfig>

    /* Enable the transfer complete interrupt */
    /* Enable the transfer Error interrupt */
    if(NULL != hdma->XferHalfCpltCallback )
 c0024ee:	68fb      	ldr	r3, [r7, #12]
 c0024f0:	6b1b      	ldr	r3, [r3, #48]	; 0x30
 c0024f2:	2b00      	cmp	r3, #0
 c0024f4:	d008      	beq.n	c002508 <HAL_DMA_Start_IT+0x78>
    {
      /* Enable the Half transfer complete interrupt as well */
      __HAL_DMA_ENABLE_IT(hdma, (DMA_IT_TC | DMA_IT_HT | DMA_IT_TE));
 c0024f6:	68fb      	ldr	r3, [r7, #12]
 c0024f8:	681b      	ldr	r3, [r3, #0]
 c0024fa:	681a      	ldr	r2, [r3, #0]
 c0024fc:	68fb      	ldr	r3, [r7, #12]
 c0024fe:	681b      	ldr	r3, [r3, #0]
 c002500:	f042 020e 	orr.w	r2, r2, #14
 c002504:	601a      	str	r2, [r3, #0]
 c002506:	e00f      	b.n	c002528 <HAL_DMA_Start_IT+0x98>
    }
    else
    {
      __HAL_DMA_DISABLE_IT(hdma, DMA_IT_HT);
 c002508:	68fb      	ldr	r3, [r7, #12]
 c00250a:	681b      	ldr	r3, [r3, #0]
 c00250c:	681a      	ldr	r2, [r3, #0]
 c00250e:	68fb      	ldr	r3, [r7, #12]
 c002510:	681b      	ldr	r3, [r3, #0]
 c002512:	f022 0204 	bic.w	r2, r2, #4
 c002516:	601a      	str	r2, [r3, #0]
      __HAL_DMA_ENABLE_IT(hdma, (DMA_IT_TC | DMA_IT_TE));
 c002518:	68fb      	ldr	r3, [r7, #12]
 c00251a:	681b      	ldr	r3, [r3, #0]
 c00251c:	681a      	ldr	r2, [r3, #0]
 c00251e:	68fb      	ldr	r3, [r7, #12]
 c002520:	681b      	ldr	r3, [r3, #0]
 c002522:	f042 020a 	orr.w	r2, r2, #10
 c002526:	601a      	str	r2, [r3, #0]
    }

    /* Check if DMAMUX Synchronization is enabled*/
    if((hdma->DMAmuxChannel->CCR & DMAMUX_CxCR_SE) != 0U)
 c002528:	68fb      	ldr	r3, [r7, #12]
 c00252a:	6d1b      	ldr	r3, [r3, #80]	; 0x50
 c00252c:	681b      	ldr	r3, [r3, #0]
 c00252e:	f403 3380 	and.w	r3, r3, #65536	; 0x10000
 c002532:	2b00      	cmp	r3, #0
 c002534:	d007      	beq.n	c002546 <HAL_DMA_Start_IT+0xb6>
    {
      /* Enable DMAMUX sync overrun IT*/
      hdma->DMAmuxChannel->CCR |= DMAMUX_CxCR_SOIE;
 c002536:	68fb      	ldr	r3, [r7, #12]
 c002538:	6d1b      	ldr	r3, [r3, #80]	; 0x50
 c00253a:	681a      	ldr	r2, [r3, #0]
 c00253c:	68fb      	ldr	r3, [r7, #12]
 c00253e:	6d1b      	ldr	r3, [r3, #80]	; 0x50
 c002540:	f442 7280 	orr.w	r2, r2, #256	; 0x100
 c002544:	601a      	str	r2, [r3, #0]
    }

    if(hdma->DMAmuxRequestGen != 0U)
 c002546:	68fb      	ldr	r3, [r7, #12]
 c002548:	6ddb      	ldr	r3, [r3, #92]	; 0x5c
 c00254a:	2b00      	cmp	r3, #0
 c00254c:	d007      	beq.n	c00255e <HAL_DMA_Start_IT+0xce>
    {
      /* if using DMAMUX request generator, enable the DMAMUX request generator overrun IT*/
      /* enable the request gen overrun IT*/
      hdma->DMAmuxRequestGen->RGCR |= DMAMUX_RGxCR_OIE;
 c00254e:	68fb      	ldr	r3, [r7, #12]
 c002550:	6ddb      	ldr	r3, [r3, #92]	; 0x5c
 c002552:	681a      	ldr	r2, [r3, #0]
 c002554:	68fb      	ldr	r3, [r7, #12]
 c002556:	6ddb      	ldr	r3, [r3, #92]	; 0x5c
 c002558:	f442 7280 	orr.w	r2, r2, #256	; 0x100
 c00255c:	601a      	str	r2, [r3, #0]
    }

    /* Enable the Peripheral */
    __HAL_DMA_ENABLE(hdma);
 c00255e:	68fb      	ldr	r3, [r7, #12]
 c002560:	681b      	ldr	r3, [r3, #0]
 c002562:	681a      	ldr	r2, [r3, #0]
 c002564:	68fb      	ldr	r3, [r7, #12]
 c002566:	681b      	ldr	r3, [r3, #0]
 c002568:	f042 0201 	orr.w	r2, r2, #1
 c00256c:	601a      	str	r2, [r3, #0]
 c00256e:	e005      	b.n	c00257c <HAL_DMA_Start_IT+0xec>
  }
  else
  {
    /* Process Unlocked */
    __HAL_UNLOCK(hdma);
 c002570:	68fb      	ldr	r3, [r7, #12]
 c002572:	2200      	movs	r2, #0
 c002574:	f883 2024 	strb.w	r2, [r3, #36]	; 0x24

    /* Remain BUSY */
    status = HAL_BUSY;
 c002578:	2302      	movs	r3, #2
 c00257a:	75fb      	strb	r3, [r7, #23]
  }
  return status;
 c00257c:	7dfb      	ldrb	r3, [r7, #23]
}
 c00257e:	4618      	mov	r0, r3
 c002580:	3718      	adds	r7, #24
 c002582:	46bd      	mov	sp, r7
 c002584:	bd80      	pop	{r7, pc}

0c002586 <HAL_DMA_IRQHandler>:
  * @param  hdma pointer to a DMA_HandleTypeDef structure that contains
  *               the configuration information for the specified DMA Channel.
  * @retval None
  */
void HAL_DMA_IRQHandler(DMA_HandleTypeDef *hdma)
{
 c002586:	b580      	push	{r7, lr}
 c002588:	b084      	sub	sp, #16
 c00258a:	af00      	add	r7, sp, #0
 c00258c:	6078      	str	r0, [r7, #4]
  uint32_t flag_it = hdma->DmaBaseAddress->ISR;
 c00258e:	687b      	ldr	r3, [r7, #4]
 c002590:	6c9b      	ldr	r3, [r3, #72]	; 0x48
 c002592:	681b      	ldr	r3, [r3, #0]
 c002594:	60fb      	str	r3, [r7, #12]
  uint32_t source_it = hdma->Instance->CCR;
 c002596:	687b      	ldr	r3, [r7, #4]
 c002598:	681b      	ldr	r3, [r3, #0]
 c00259a:	681b      	ldr	r3, [r3, #0]
 c00259c:	60bb      	str	r3, [r7, #8]

  /* Half Transfer Complete Interrupt management ******************************/
  if (((flag_it & (DMA_FLAG_HT1 << (hdma->ChannelIndex & 0x1CU))) != 0U) && ((source_it & DMA_IT_HT) != 0U))
 c00259e:	687b      	ldr	r3, [r7, #4]
 c0025a0:	6cdb      	ldr	r3, [r3, #76]	; 0x4c
 c0025a2:	f003 031c 	and.w	r3, r3, #28
 c0025a6:	2204      	movs	r2, #4
 c0025a8:	409a      	lsls	r2, r3
 c0025aa:	68fb      	ldr	r3, [r7, #12]
 c0025ac:	4013      	ands	r3, r2
 c0025ae:	2b00      	cmp	r3, #0
 c0025b0:	d053      	beq.n	c00265a <HAL_DMA_IRQHandler+0xd4>
 c0025b2:	68bb      	ldr	r3, [r7, #8]
 c0025b4:	f003 0304 	and.w	r3, r3, #4
 c0025b8:	2b00      	cmp	r3, #0
 c0025ba:	d04e      	beq.n	c00265a <HAL_DMA_IRQHandler+0xd4>
  {
    /* Multi_Buffering mode enabled */
    if(((hdma->Instance->CCR) & (uint32_t)(DMA_CCR_DBM)) != 0U)
 c0025bc:	687b      	ldr	r3, [r7, #4]
 c0025be:	681b      	ldr	r3, [r3, #0]
 c0025c0:	681b      	ldr	r3, [r3, #0]
 c0025c2:	f403 4300 	and.w	r3, r3, #32768	; 0x8000
 c0025c6:	2b00      	cmp	r3, #0
 c0025c8:	d024      	beq.n	c002614 <HAL_DMA_IRQHandler+0x8e>
    {
      /* Clear the half transfer complete flag */
      hdma->DmaBaseAddress->IFCR = DMA_ISR_HTIF1 << (hdma->ChannelIndex & 0x1CU);
 c0025ca:	687b      	ldr	r3, [r7, #4]
 c0025cc:	6cdb      	ldr	r3, [r3, #76]	; 0x4c
 c0025ce:	f003 021c 	and.w	r2, r3, #28
 c0025d2:	687b      	ldr	r3, [r7, #4]
 c0025d4:	6c9b      	ldr	r3, [r3, #72]	; 0x48
 c0025d6:	2104      	movs	r1, #4
 c0025d8:	fa01 f202 	lsl.w	r2, r1, r2
 c0025dc:	605a      	str	r2, [r3, #4]

      /* Current memory buffer used is Memory 0 */
      if((hdma->Instance->CCR & DMA_CCR_CT) == 0U)
 c0025de:	687b      	ldr	r3, [r7, #4]
 c0025e0:	681b      	ldr	r3, [r3, #0]
 c0025e2:	681b      	ldr	r3, [r3, #0]
 c0025e4:	f403 3380 	and.w	r3, r3, #65536	; 0x10000
 c0025e8:	2b00      	cmp	r3, #0
 c0025ea:	d109      	bne.n	c002600 <HAL_DMA_IRQHandler+0x7a>
      {
        if(hdma->XferHalfCpltCallback != NULL)
 c0025ec:	687b      	ldr	r3, [r7, #4]
 c0025ee:	6b1b      	ldr	r3, [r3, #48]	; 0x30
 c0025f0:	2b00      	cmp	r3, #0
 c0025f2:	f000 80c0 	beq.w	c002776 <HAL_DMA_IRQHandler+0x1f0>
        {
          /* Half transfer callback */
          hdma->XferHalfCpltCallback(hdma);
 c0025f6:	687b      	ldr	r3, [r7, #4]
 c0025f8:	6b1b      	ldr	r3, [r3, #48]	; 0x30
 c0025fa:	6878      	ldr	r0, [r7, #4]
 c0025fc:	4798      	blx	r3
    if(((hdma->Instance->CCR) & (uint32_t)(DMA_CCR_DBM)) != 0U)
 c0025fe:	e0ba      	b.n	c002776 <HAL_DMA_IRQHandler+0x1f0>
        }
      }
      /* Current memory buffer used is Memory 1 */
      else
      {
        if(hdma->XferM1HalfCpltCallback != NULL)
 c002600:	687b      	ldr	r3, [r7, #4]
 c002602:	6b9b      	ldr	r3, [r3, #56]	; 0x38
 c002604:	2b00      	cmp	r3, #0
 c002606:	f000 80b6 	beq.w	c002776 <HAL_DMA_IRQHandler+0x1f0>
        {
          /* Half transfer callback */
          hdma->XferM1HalfCpltCallback(hdma);
 c00260a:	687b      	ldr	r3, [r7, #4]
 c00260c:	6b9b      	ldr	r3, [r3, #56]	; 0x38
 c00260e:	6878      	ldr	r0, [r7, #4]
 c002610:	4798      	blx	r3
    if(((hdma->Instance->CCR) & (uint32_t)(DMA_CCR_DBM)) != 0U)
 c002612:	e0b0      	b.n	c002776 <HAL_DMA_IRQHandler+0x1f0>
      }
    }
    else
    {
      /* Disable the half transfer interrupt if the DMA mode is not CIRCULAR */
      if((hdma->Instance->CCR & DMA_CCR_CIRC) == 0U)
 c002614:	687b      	ldr	r3, [r7, #4]
 c002616:	681b      	ldr	r3, [r3, #0]
 c002618:	681b      	ldr	r3, [r3, #0]
 c00261a:	f003 0320 	and.w	r3, r3, #32
 c00261e:	2b00      	cmp	r3, #0
 c002620:	d107      	bne.n	c002632 <HAL_DMA_IRQHandler+0xac>
      {
        /* Disable the half transfer interrupt */
        __HAL_DMA_DISABLE_IT(hdma, DMA_IT_HT);
 c002622:	687b      	ldr	r3, [r7, #4]
 c002624:	681b      	ldr	r3, [r3, #0]
 c002626:	681a      	ldr	r2, [r3, #0]
 c002628:	687b      	ldr	r3, [r7, #4]
 c00262a:	681b      	ldr	r3, [r3, #0]
 c00262c:	f022 0204 	bic.w	r2, r2, #4
 c002630:	601a      	str	r2, [r3, #0]
      }
      /* Clear the half transfer complete flag */
      hdma->DmaBaseAddress->IFCR = DMA_ISR_HTIF1 << (hdma->ChannelIndex & 0x1CU);
 c002632:	687b      	ldr	r3, [r7, #4]
 c002634:	6cdb      	ldr	r3, [r3, #76]	; 0x4c
 c002636:	f003 021c 	and.w	r2, r3, #28
 c00263a:	687b      	ldr	r3, [r7, #4]
 c00263c:	6c9b      	ldr	r3, [r3, #72]	; 0x48
 c00263e:	2104      	movs	r1, #4
 c002640:	fa01 f202 	lsl.w	r2, r1, r2
 c002644:	605a      	str	r2, [r3, #4]

      /* DMA peripheral state is not updated in Half Transfer */
      /* but in Transfer Complete case */

      if(hdma->XferHalfCpltCallback != NULL)
 c002646:	687b      	ldr	r3, [r7, #4]
 c002648:	6b1b      	ldr	r3, [r3, #48]	; 0x30
 c00264a:	2b00      	cmp	r3, #0
 c00264c:	f000 8093 	beq.w	c002776 <HAL_DMA_IRQHandler+0x1f0>
      {
        /* Half transfer callback */
        hdma->XferHalfCpltCallback(hdma);
 c002650:	687b      	ldr	r3, [r7, #4]
 c002652:	6b1b      	ldr	r3, [r3, #48]	; 0x30
 c002654:	6878      	ldr	r0, [r7, #4]
 c002656:	4798      	blx	r3
    if(((hdma->Instance->CCR) & (uint32_t)(DMA_CCR_DBM)) != 0U)
 c002658:	e08d      	b.n	c002776 <HAL_DMA_IRQHandler+0x1f0>
      }
    }
  }

  /* Transfer Complete Interrupt management ***********************************/
  else if (((flag_it & (DMA_FLAG_TC1 << (hdma->ChannelIndex & 0x1CU))) != 0U) && ((source_it & DMA_IT_TC) != 0U))
 c00265a:	687b      	ldr	r3, [r7, #4]
 c00265c:	6cdb      	ldr	r3, [r3, #76]	; 0x4c
 c00265e:	f003 031c 	and.w	r3, r3, #28
 c002662:	2202      	movs	r2, #2
 c002664:	409a      	lsls	r2, r3
 c002666:	68fb      	ldr	r3, [r7, #12]
 c002668:	4013      	ands	r3, r2
 c00266a:	2b00      	cmp	r3, #0
 c00266c:	d04e      	beq.n	c00270c <HAL_DMA_IRQHandler+0x186>
 c00266e:	68bb      	ldr	r3, [r7, #8]
 c002670:	f003 0302 	and.w	r3, r3, #2
 c002674:	2b00      	cmp	r3, #0
 c002676:	d049      	beq.n	c00270c <HAL_DMA_IRQHandler+0x186>
  {
    if(((hdma->Instance->CCR) & (uint32_t)(DMA_CCR_DBM)) != 0U)
 c002678:	687b      	ldr	r3, [r7, #4]
 c00267a:	681b      	ldr	r3, [r3, #0]
 c00267c:	681b      	ldr	r3, [r3, #0]
 c00267e:	f403 4300 	and.w	r3, r3, #32768	; 0x8000
 c002682:	2b00      	cmp	r3, #0
 c002684:	d018      	beq.n	c0026b8 <HAL_DMA_IRQHandler+0x132>
    {
      /* Current memory buffer used is Memory 0 */
      if((hdma->Instance->CCR & DMA_CCR_CT) == 0U)
 c002686:	687b      	ldr	r3, [r7, #4]
 c002688:	681b      	ldr	r3, [r3, #0]
 c00268a:	681b      	ldr	r3, [r3, #0]
 c00268c:	f403 3380 	and.w	r3, r3, #65536	; 0x10000
 c002690:	2b00      	cmp	r3, #0
 c002692:	d108      	bne.n	c0026a6 <HAL_DMA_IRQHandler+0x120>
      {
        if(hdma->XferM1CpltCallback != NULL)
 c002694:	687b      	ldr	r3, [r7, #4]
 c002696:	6b5b      	ldr	r3, [r3, #52]	; 0x34
 c002698:	2b00      	cmp	r3, #0
 c00269a:	d06e      	beq.n	c00277a <HAL_DMA_IRQHandler+0x1f4>
        {
          /* Transfer complete Callback for memory1 */
          hdma->XferM1CpltCallback(hdma);
 c00269c:	687b      	ldr	r3, [r7, #4]
 c00269e:	6b5b      	ldr	r3, [r3, #52]	; 0x34
 c0026a0:	6878      	ldr	r0, [r7, #4]
 c0026a2:	4798      	blx	r3
    if(((hdma->Instance->CCR) & (uint32_t)(DMA_CCR_DBM)) != 0U)
 c0026a4:	e069      	b.n	c00277a <HAL_DMA_IRQHandler+0x1f4>
        }
      }
      /* Current memory buffer used is Memory 1 */
      else
      {
        if(hdma->XferCpltCallback != NULL)
 c0026a6:	687b      	ldr	r3, [r7, #4]
 c0026a8:	6adb      	ldr	r3, [r3, #44]	; 0x2c
 c0026aa:	2b00      	cmp	r3, #0
 c0026ac:	d065      	beq.n	c00277a <HAL_DMA_IRQHandler+0x1f4>
        {
          /* Transfer complete Callback for memory0 */
          hdma->XferCpltCallback(hdma);
 c0026ae:	687b      	ldr	r3, [r7, #4]
 c0026b0:	6adb      	ldr	r3, [r3, #44]	; 0x2c
 c0026b2:	6878      	ldr	r0, [r7, #4]
 c0026b4:	4798      	blx	r3
    if(((hdma->Instance->CCR) & (uint32_t)(DMA_CCR_DBM)) != 0U)
 c0026b6:	e060      	b.n	c00277a <HAL_DMA_IRQHandler+0x1f4>
        }
      }
    }
    else
    {
      if((hdma->Instance->CCR & DMA_CCR_CIRC) == 0U)
 c0026b8:	687b      	ldr	r3, [r7, #4]
 c0026ba:	681b      	ldr	r3, [r3, #0]
 c0026bc:	681b      	ldr	r3, [r3, #0]
 c0026be:	f003 0320 	and.w	r3, r3, #32
 c0026c2:	2b00      	cmp	r3, #0
 c0026c4:	d10b      	bne.n	c0026de <HAL_DMA_IRQHandler+0x158>
      {
        /* Disable the transfer complete interrupt if the DMA mode is not CIRCULAR */
        /* Disable the transfer complete and error interrupt */
        /* if the DMA mode is not CIRCULAR  */
        __HAL_DMA_DISABLE_IT(hdma, DMA_IT_TE | DMA_IT_TC);
 c0026c6:	687b      	ldr	r3, [r7, #4]
 c0026c8:	681b      	ldr	r3, [r3, #0]
 c0026ca:	681a      	ldr	r2, [r3, #0]
 c0026cc:	687b      	ldr	r3, [r7, #4]
 c0026ce:	681b      	ldr	r3, [r3, #0]
 c0026d0:	f022 020a 	bic.w	r2, r2, #10
 c0026d4:	601a      	str	r2, [r3, #0]

        /* Change the DMA state */
        hdma->State = HAL_DMA_STATE_READY;
 c0026d6:	687b      	ldr	r3, [r7, #4]
 c0026d8:	2201      	movs	r2, #1
 c0026da:	f883 2025 	strb.w	r2, [r3, #37]	; 0x25
      }
      /* Clear the transfer complete flag */
      hdma->DmaBaseAddress->IFCR = (DMA_ISR_TCIF1 << (hdma->ChannelIndex & 0x1CU));
 c0026de:	687b      	ldr	r3, [r7, #4]
 c0026e0:	6cdb      	ldr	r3, [r3, #76]	; 0x4c
 c0026e2:	f003 021c 	and.w	r2, r3, #28
 c0026e6:	687b      	ldr	r3, [r7, #4]
 c0026e8:	6c9b      	ldr	r3, [r3, #72]	; 0x48
 c0026ea:	2102      	movs	r1, #2
 c0026ec:	fa01 f202 	lsl.w	r2, r1, r2
 c0026f0:	605a      	str	r2, [r3, #4]

      /* Process Unlocked */
      __HAL_UNLOCK(hdma);
 c0026f2:	687b      	ldr	r3, [r7, #4]
 c0026f4:	2200      	movs	r2, #0
 c0026f6:	f883 2024 	strb.w	r2, [r3, #36]	; 0x24

      if(hdma->XferCpltCallback != NULL)
 c0026fa:	687b      	ldr	r3, [r7, #4]
 c0026fc:	6adb      	ldr	r3, [r3, #44]	; 0x2c
 c0026fe:	2b00      	cmp	r3, #0
 c002700:	d03b      	beq.n	c00277a <HAL_DMA_IRQHandler+0x1f4>
      {
        /* Transfer complete callback */
        hdma->XferCpltCallback(hdma);
 c002702:	687b      	ldr	r3, [r7, #4]
 c002704:	6adb      	ldr	r3, [r3, #44]	; 0x2c
 c002706:	6878      	ldr	r0, [r7, #4]
 c002708:	4798      	blx	r3
    if(((hdma->Instance->CCR) & (uint32_t)(DMA_CCR_DBM)) != 0U)
 c00270a:	e036      	b.n	c00277a <HAL_DMA_IRQHandler+0x1f4>
      }
    }
  }

  /* Transfer Error Interrupt management **************************************/
  else if (((flag_it & (DMA_FLAG_TE1 << (hdma->ChannelIndex & 0x1CU))) != 0U) && ((source_it & DMA_IT_TE) !=  0U))
 c00270c:	687b      	ldr	r3, [r7, #4]
 c00270e:	6cdb      	ldr	r3, [r3, #76]	; 0x4c
 c002710:	f003 031c 	and.w	r3, r3, #28
 c002714:	2208      	movs	r2, #8
 c002716:	409a      	lsls	r2, r3
 c002718:	68fb      	ldr	r3, [r7, #12]
 c00271a:	4013      	ands	r3, r2
 c00271c:	2b00      	cmp	r3, #0
 c00271e:	d02e      	beq.n	c00277e <HAL_DMA_IRQHandler+0x1f8>
 c002720:	68bb      	ldr	r3, [r7, #8]
 c002722:	f003 0308 	and.w	r3, r3, #8
 c002726:	2b00      	cmp	r3, #0
 c002728:	d029      	beq.n	c00277e <HAL_DMA_IRQHandler+0x1f8>
  {
    /* When a DMA transfer error occurs */
    /* A hardware clear of its EN bits is performed */
    /* Disable ALL DMA IT */
    __HAL_DMA_DISABLE_IT(hdma, (DMA_IT_TC | DMA_IT_HT | DMA_IT_TE));
 c00272a:	687b      	ldr	r3, [r7, #4]
 c00272c:	681b      	ldr	r3, [r3, #0]
 c00272e:	681a      	ldr	r2, [r3, #0]
 c002730:	687b      	ldr	r3, [r7, #4]
 c002732:	681b      	ldr	r3, [r3, #0]
 c002734:	f022 020e 	bic.w	r2, r2, #14
 c002738:	601a      	str	r2, [r3, #0]

    /* Clear all flags */
    hdma->DmaBaseAddress->IFCR = (DMA_ISR_GIF1 << (hdma->ChannelIndex & 0x1CU));
 c00273a:	687b      	ldr	r3, [r7, #4]
 c00273c:	6cdb      	ldr	r3, [r3, #76]	; 0x4c
 c00273e:	f003 021c 	and.w	r2, r3, #28
 c002742:	687b      	ldr	r3, [r7, #4]
 c002744:	6c9b      	ldr	r3, [r3, #72]	; 0x48
 c002746:	2101      	movs	r1, #1
 c002748:	fa01 f202 	lsl.w	r2, r1, r2
 c00274c:	605a      	str	r2, [r3, #4]

    /* Update error code */
    hdma->ErrorCode = HAL_DMA_ERROR_TE;
 c00274e:	687b      	ldr	r3, [r7, #4]
 c002750:	2201      	movs	r2, #1
 c002752:	645a      	str	r2, [r3, #68]	; 0x44

    /* Change the DMA state */
    hdma->State = HAL_DMA_STATE_READY;
 c002754:	687b      	ldr	r3, [r7, #4]
 c002756:	2201      	movs	r2, #1
 c002758:	f883 2025 	strb.w	r2, [r3, #37]	; 0x25

    /* Process Unlocked */
    __HAL_UNLOCK(hdma);
 c00275c:	687b      	ldr	r3, [r7, #4]
 c00275e:	2200      	movs	r2, #0
 c002760:	f883 2024 	strb.w	r2, [r3, #36]	; 0x24

    if (hdma->XferErrorCallback != NULL)
 c002764:	687b      	ldr	r3, [r7, #4]
 c002766:	6bdb      	ldr	r3, [r3, #60]	; 0x3c
 c002768:	2b00      	cmp	r3, #0
 c00276a:	d008      	beq.n	c00277e <HAL_DMA_IRQHandler+0x1f8>
    {
      /* Transfer error callback */
      hdma->XferErrorCallback(hdma);
 c00276c:	687b      	ldr	r3, [r7, #4]
 c00276e:	6bdb      	ldr	r3, [r3, #60]	; 0x3c
 c002770:	6878      	ldr	r0, [r7, #4]
 c002772:	4798      	blx	r3
  }
  else
  {
    /* Nothing To Do */
  }
  return;
 c002774:	e002      	b.n	c00277c <HAL_DMA_IRQHandler+0x1f6>
    if(((hdma->Instance->CCR) & (uint32_t)(DMA_CCR_DBM)) != 0U)
 c002776:	bf00      	nop
 c002778:	e000      	b.n	c00277c <HAL_DMA_IRQHandler+0x1f6>
    if(((hdma->Instance->CCR) & (uint32_t)(DMA_CCR_DBM)) != 0U)
 c00277a:	bf00      	nop
  return;
 c00277c:	bf00      	nop
 c00277e:	bf00      	nop
}
 c002780:	3710      	adds	r7, #16
 c002782:	46bd      	mov	sp, r7
 c002784:	bd80      	pop	{r7, pc}
	...

0c002788 <HAL_DMA_RegisterCallback>:
  * @param  pCallback            pointer to private callbacsk function which has pointer to
  *                               a DMA_HandleTypeDef structure as parameter.
  * @retval HAL status
  */
HAL_StatusTypeDef HAL_DMA_RegisterCallback(DMA_HandleTypeDef *hdma, HAL_DMA_CallbackIDTypeDef CallbackID, void (* pCallback)( DMA_HandleTypeDef * _hdma))
{
 c002788:	b480      	push	{r7}
 c00278a:	b087      	sub	sp, #28
 c00278c:	af00      	add	r7, sp, #0
 c00278e:	60f8      	str	r0, [r7, #12]
 c002790:	460b      	mov	r3, r1
 c002792:	607a      	str	r2, [r7, #4]
 c002794:	72fb      	strb	r3, [r7, #11]
  HAL_StatusTypeDef status = HAL_OK;
 c002796:	2300      	movs	r3, #0
 c002798:	75fb      	strb	r3, [r7, #23]

  /* Process locked */
  __HAL_LOCK(hdma);
 c00279a:	68fb      	ldr	r3, [r7, #12]
 c00279c:	f893 3024 	ldrb.w	r3, [r3, #36]	; 0x24
 c0027a0:	2b01      	cmp	r3, #1
 c0027a2:	d101      	bne.n	c0027a8 <HAL_DMA_RegisterCallback+0x20>
 c0027a4:	2302      	movs	r3, #2
 c0027a6:	e03d      	b.n	c002824 <HAL_DMA_RegisterCallback+0x9c>
 c0027a8:	68fb      	ldr	r3, [r7, #12]
 c0027aa:	2201      	movs	r2, #1
 c0027ac:	f883 2024 	strb.w	r2, [r3, #36]	; 0x24

  if(HAL_DMA_STATE_READY == hdma->State)
 c0027b0:	68fb      	ldr	r3, [r7, #12]
 c0027b2:	f893 3025 	ldrb.w	r3, [r3, #37]	; 0x25
 c0027b6:	b2db      	uxtb	r3, r3
 c0027b8:	2b01      	cmp	r3, #1
 c0027ba:	d12c      	bne.n	c002816 <HAL_DMA_RegisterCallback+0x8e>
  {
    switch (CallbackID)
 c0027bc:	7afb      	ldrb	r3, [r7, #11]
 c0027be:	2b05      	cmp	r3, #5
 c0027c0:	d826      	bhi.n	c002810 <HAL_DMA_RegisterCallback+0x88>
 c0027c2:	a201      	add	r2, pc, #4	; (adr r2, c0027c8 <HAL_DMA_RegisterCallback+0x40>)
 c0027c4:	f852 f023 	ldr.w	pc, [r2, r3, lsl #2]
 c0027c8:	0c0027e1 	.word	0x0c0027e1
 c0027cc:	0c0027e9 	.word	0x0c0027e9
 c0027d0:	0c0027f1 	.word	0x0c0027f1
 c0027d4:	0c0027f9 	.word	0x0c0027f9
 c0027d8:	0c002801 	.word	0x0c002801
 c0027dc:	0c002809 	.word	0x0c002809
    {
     case  HAL_DMA_XFER_CPLT_CB_ID:
           hdma->XferCpltCallback = pCallback;
 c0027e0:	68fb      	ldr	r3, [r7, #12]
 c0027e2:	687a      	ldr	r2, [r7, #4]
 c0027e4:	62da      	str	r2, [r3, #44]	; 0x2c
           break;
 c0027e6:	e018      	b.n	c00281a <HAL_DMA_RegisterCallback+0x92>

     case  HAL_DMA_XFER_HALFCPLT_CB_ID:
           hdma->XferHalfCpltCallback = pCallback;
 c0027e8:	68fb      	ldr	r3, [r7, #12]
 c0027ea:	687a      	ldr	r2, [r7, #4]
 c0027ec:	631a      	str	r2, [r3, #48]	; 0x30
           break;
 c0027ee:	e014      	b.n	c00281a <HAL_DMA_RegisterCallback+0x92>

     case  HAL_DMA_XFER_M1CPLT_CB_ID:
           hdma->XferM1CpltCallback = pCallback;
 c0027f0:	68fb      	ldr	r3, [r7, #12]
 c0027f2:	687a      	ldr	r2, [r7, #4]
 c0027f4:	635a      	str	r2, [r3, #52]	; 0x34
           break;
 c0027f6:	e010      	b.n	c00281a <HAL_DMA_RegisterCallback+0x92>

     case  HAL_DMA_XFER_M1HALFCPLT_CB_ID:
           hdma->XferM1HalfCpltCallback = pCallback;
 c0027f8:	68fb      	ldr	r3, [r7, #12]
 c0027fa:	687a      	ldr	r2, [r7, #4]
 c0027fc:	639a      	str	r2, [r3, #56]	; 0x38
           break;
 c0027fe:	e00c      	b.n	c00281a <HAL_DMA_RegisterCallback+0x92>

     case  HAL_DMA_XFER_ERROR_CB_ID:
           hdma->XferErrorCallback = pCallback;
 c002800:	68fb      	ldr	r3, [r7, #12]
 c002802:	687a      	ldr	r2, [r7, #4]
 c002804:	63da      	str	r2, [r3, #60]	; 0x3c
           break;
 c002806:	e008      	b.n	c00281a <HAL_DMA_RegisterCallback+0x92>

     case  HAL_DMA_XFER_ABORT_CB_ID:
           hdma->XferAbortCallback = pCallback;
 c002808:	68fb      	ldr	r3, [r7, #12]
 c00280a:	687a      	ldr	r2, [r7, #4]
 c00280c:	641a      	str	r2, [r3, #64]	; 0x40
           break;
 c00280e:	e004      	b.n	c00281a <HAL_DMA_RegisterCallback+0x92>

     default:
           status = HAL_ERROR;
 c002810:	2301      	movs	r3, #1
 c002812:	75fb      	strb	r3, [r7, #23]
           break;
 c002814:	e001      	b.n	c00281a <HAL_DMA_RegisterCallback+0x92>
    }
  }
  else
  {
    status = HAL_ERROR;
 c002816:	2301      	movs	r3, #1
 c002818:	75fb      	strb	r3, [r7, #23]
  }

  /* Release Lock */
  __HAL_UNLOCK(hdma);
 c00281a:	68fb      	ldr	r3, [r7, #12]
 c00281c:	2200      	movs	r2, #0
 c00281e:	f883 2024 	strb.w	r2, [r3, #36]	; 0x24

  return status;
 c002822:	7dfb      	ldrb	r3, [r7, #23]
}
 c002824:	4618      	mov	r0, r3
 c002826:	371c      	adds	r7, #28
 c002828:	46bd      	mov	sp, r7
 c00282a:	f85d 7b04 	ldr.w	r7, [sp], #4
 c00282e:	4770      	bx	lr

0c002830 <HAL_DMA_ConfigChannelAttributes>:
  * @param  ChannelAttributes specifies the DMA channel secure/privilege attributes.
  *         This parameter can be a one or a combination of @ref DMA_Channel_Attributes
  * @retval HAL Status
  */
HAL_StatusTypeDef HAL_DMA_ConfigChannelAttributes(DMA_HandleTypeDef *hdma, uint32_t ChannelAttributes)
{
 c002830:	b480      	push	{r7}
 c002832:	b087      	sub	sp, #28
 c002834:	af00      	add	r7, sp, #0
 c002836:	6078      	str	r0, [r7, #4]
 c002838:	6039      	str	r1, [r7, #0]
  HAL_StatusTypeDef status = HAL_OK;
 c00283a:	2300      	movs	r3, #0
 c00283c:	75fb      	strb	r3, [r7, #23]
#if defined (__ARM_FEATURE_CMSE) && (__ARM_FEATURE_CMSE == 3U)
  uint32_t ccr_SECM;
#endif
  
  /* Check the DMA peripheral handle */
  if(hdma == NULL)
 c00283e:	687b      	ldr	r3, [r7, #4]
 c002840:	2b00      	cmp	r3, #0
 c002842:	d103      	bne.n	c00284c <HAL_DMA_ConfigChannelAttributes+0x1c>
  {
    status = HAL_ERROR;
 c002844:	2301      	movs	r3, #1
 c002846:	75fb      	strb	r3, [r7, #23]
    return status;
 c002848:	7dfb      	ldrb	r3, [r7, #23]
 c00284a:	e073      	b.n	c002934 <HAL_DMA_ConfigChannelAttributes+0x104>

  /* Check the parameters */
  assert_param(IS_DMA_ATTRIBUTES(ChannelAttributes));

  /* Read CCR register */
  ccr = READ_REG(hdma->Instance->CCR);
 c00284c:	687b      	ldr	r3, [r7, #4]
 c00284e:	681b      	ldr	r3, [r3, #0]
 c002850:	681b      	ldr	r3, [r3, #0]
 c002852:	613b      	str	r3, [r7, #16]

  /* Apply any requested privilege/non-privilege attributes */
  if ((ChannelAttributes & DMA_CHANNEL_ATTR_PRIV_MASK) != 0U)
 c002854:	683b      	ldr	r3, [r7, #0]
 c002856:	f003 0310 	and.w	r3, r3, #16
 c00285a:	2b00      	cmp	r3, #0
 c00285c:	d00d      	beq.n	c00287a <HAL_DMA_ConfigChannelAttributes+0x4a>
  {
    if((ChannelAttributes & DMA_CCR_PRIV) != 0U)
 c00285e:	683b      	ldr	r3, [r7, #0]
 c002860:	f403 1380 	and.w	r3, r3, #1048576	; 0x100000
 c002864:	2b00      	cmp	r3, #0
 c002866:	d004      	beq.n	c002872 <HAL_DMA_ConfigChannelAttributes+0x42>
    {
      SET_BIT(ccr, DMA_CCR_PRIV);
 c002868:	693b      	ldr	r3, [r7, #16]
 c00286a:	f443 1380 	orr.w	r3, r3, #1048576	; 0x100000
 c00286e:	613b      	str	r3, [r7, #16]
 c002870:	e003      	b.n	c00287a <HAL_DMA_ConfigChannelAttributes+0x4a>
    }
    else
    {
      CLEAR_BIT(ccr, DMA_CCR_PRIV);
 c002872:	693b      	ldr	r3, [r7, #16]
 c002874:	f423 1380 	bic.w	r3, r3, #1048576	; 0x100000
 c002878:	613b      	str	r3, [r7, #16]
  }

#if defined (__ARM_FEATURE_CMSE) && (__ARM_FEATURE_CMSE == 3U)
  /* Channel */
  /* Check what is the current SECM status */
  if ((hdma->Instance->CCR & DMA_CCR_SECM) == DMA_CCR_SECM)
 c00287a:	687b      	ldr	r3, [r7, #4]
 c00287c:	681b      	ldr	r3, [r3, #0]
 c00287e:	681b      	ldr	r3, [r3, #0]
 c002880:	f403 3300 	and.w	r3, r3, #131072	; 0x20000
 c002884:	f5b3 3f00 	cmp.w	r3, #131072	; 0x20000
 c002888:	d103      	bne.n	c002892 <HAL_DMA_ConfigChannelAttributes+0x62>
  {
    /* Channel is currently secure */
    ccr_SECM = DMA_CCR_SECM;
 c00288a:	f44f 3300 	mov.w	r3, #131072	; 0x20000
 c00288e:	60fb      	str	r3, [r7, #12]
 c002890:	e001      	b.n	c002896 <HAL_DMA_ConfigChannelAttributes+0x66>
  }
  else
  {
    /* Channel is currently non-secure */
    ccr_SECM = 0U;
 c002892:	2300      	movs	r3, #0
 c002894:	60fb      	str	r3, [r7, #12]
  }

  if((ChannelAttributes & DMA_CHANNEL_ATTR_SEC_MASK) != 0U)
 c002896:	683b      	ldr	r3, [r7, #0]
 c002898:	f003 0302 	and.w	r3, r3, #2
 c00289c:	2b00      	cmp	r3, #0
 c00289e:	d012      	beq.n	c0028c6 <HAL_DMA_ConfigChannelAttributes+0x96>
  {
    if((ChannelAttributes & DMA_CCR_SECM) != 0U)
 c0028a0:	683b      	ldr	r3, [r7, #0]
 c0028a2:	f403 3300 	and.w	r3, r3, #131072	; 0x20000
 c0028a6:	2b00      	cmp	r3, #0
 c0028a8:	d007      	beq.n	c0028ba <HAL_DMA_ConfigChannelAttributes+0x8a>
    {
      SET_BIT(ccr, DMA_CCR_SECM);
 c0028aa:	693b      	ldr	r3, [r7, #16]
 c0028ac:	f443 3300 	orr.w	r3, r3, #131072	; 0x20000
 c0028b0:	613b      	str	r3, [r7, #16]
      /* Channel changed to secure */
      ccr_SECM = DMA_CCR_SECM;
 c0028b2:	f44f 3300 	mov.w	r3, #131072	; 0x20000
 c0028b6:	60fb      	str	r3, [r7, #12]
 c0028b8:	e005      	b.n	c0028c6 <HAL_DMA_ConfigChannelAttributes+0x96>
    }
    else
    {
      CLEAR_BIT(ccr, DMA_CCR_SECM);
 c0028ba:	693b      	ldr	r3, [r7, #16]
 c0028bc:	f423 3300 	bic.w	r3, r3, #131072	; 0x20000
 c0028c0:	613b      	str	r3, [r7, #16]
      /* Channel changed to non-secure */
      ccr_SECM = 0U;
 c0028c2:	2300      	movs	r3, #0
 c0028c4:	60fb      	str	r3, [r7, #12]
    }
  }

  /* Channel source */
  if((ChannelAttributes & DMA_CHANNEL_ATTR_SEC_SRC_MASK) != 0U)
 c0028c6:	683b      	ldr	r3, [r7, #0]
 c0028c8:	f003 0304 	and.w	r3, r3, #4
 c0028cc:	2b00      	cmp	r3, #0
 c0028ce:	d013      	beq.n	c0028f8 <HAL_DMA_ConfigChannelAttributes+0xc8>
  {
    /* Configure Source security attributes */
    if ((ChannelAttributes & DMA_CCR_SSEC) != 0x0U)
 c0028d0:	683b      	ldr	r3, [r7, #0]
 c0028d2:	f403 2380 	and.w	r3, r3, #262144	; 0x40000
 c0028d6:	2b00      	cmp	r3, #0
 c0028d8:	d00a      	beq.n	c0028f0 <HAL_DMA_ConfigChannelAttributes+0xc0>
    {
      /* SSEC can only be set if channel is secure */
      /* Otherwise configuration is not taken into account */
      if (ccr_SECM == 0U)
 c0028da:	68fb      	ldr	r3, [r7, #12]
 c0028dc:	2b00      	cmp	r3, #0
 c0028de:	d102      	bne.n	c0028e6 <HAL_DMA_ConfigChannelAttributes+0xb6>
      {
        /* DSEC can not be secure */
        /* Source channel is non secure */
         status = HAL_ERROR;
 c0028e0:	2301      	movs	r3, #1
 c0028e2:	75fb      	strb	r3, [r7, #23]
 c0028e4:	e008      	b.n	c0028f8 <HAL_DMA_ConfigChannelAttributes+0xc8>
      }
      else
      {
        SET_BIT(ccr, DMA_CCR_SSEC);
 c0028e6:	693b      	ldr	r3, [r7, #16]
 c0028e8:	f443 2380 	orr.w	r3, r3, #262144	; 0x40000
 c0028ec:	613b      	str	r3, [r7, #16]
 c0028ee:	e003      	b.n	c0028f8 <HAL_DMA_ConfigChannelAttributes+0xc8>
      }
    }
    else
    {
      CLEAR_BIT(ccr, DMA_CCR_SSEC);
 c0028f0:	693b      	ldr	r3, [r7, #16]
 c0028f2:	f423 2380 	bic.w	r3, r3, #262144	; 0x40000
 c0028f6:	613b      	str	r3, [r7, #16]
    }
  }

  /* Channel destination */
  if((ChannelAttributes & DMA_CHANNEL_ATTR_SEC_DEST_MASK) != 0U)
 c0028f8:	683b      	ldr	r3, [r7, #0]
 c0028fa:	f003 0308 	and.w	r3, r3, #8
 c0028fe:	2b00      	cmp	r3, #0
 c002900:	d013      	beq.n	c00292a <HAL_DMA_ConfigChannelAttributes+0xfa>
  {
    /* Configure Destination security attributes */
    if((ChannelAttributes & DMA_CCR_DSEC) != 0U)
 c002902:	683b      	ldr	r3, [r7, #0]
 c002904:	f403 2300 	and.w	r3, r3, #524288	; 0x80000
 c002908:	2b00      	cmp	r3, #0
 c00290a:	d00a      	beq.n	c002922 <HAL_DMA_ConfigChannelAttributes+0xf2>
    {
      if (ccr_SECM == 0U)
 c00290c:	68fb      	ldr	r3, [r7, #12]
 c00290e:	2b00      	cmp	r3, #0
 c002910:	d102      	bne.n	c002918 <HAL_DMA_ConfigChannelAttributes+0xe8>
      {
        /* DSEC can only be set if channel is secure */
        /* Destination channel is non secure */
         status = HAL_ERROR;
 c002912:	2301      	movs	r3, #1
 c002914:	75fb      	strb	r3, [r7, #23]
 c002916:	e008      	b.n	c00292a <HAL_DMA_ConfigChannelAttributes+0xfa>
      }
      else
      {
        SET_BIT(ccr, DMA_CCR_DSEC);
 c002918:	693b      	ldr	r3, [r7, #16]
 c00291a:	f443 2300 	orr.w	r3, r3, #524288	; 0x80000
 c00291e:	613b      	str	r3, [r7, #16]
 c002920:	e003      	b.n	c00292a <HAL_DMA_ConfigChannelAttributes+0xfa>
      }
    }
    else
    {
      CLEAR_BIT(ccr, DMA_CCR_DSEC);
 c002922:	693b      	ldr	r3, [r7, #16]
 c002924:	f423 2300 	bic.w	r3, r3, #524288	; 0x80000
 c002928:	613b      	str	r3, [r7, #16]
  }

#endif /* __ARM_FEATURE_CMSE */

  /* Update CCR Register: PRIV, SECM, SCEC, DSEC bits */
  WRITE_REG(hdma->Instance->CCR, ccr);
 c00292a:	687b      	ldr	r3, [r7, #4]
 c00292c:	681b      	ldr	r3, [r3, #0]
 c00292e:	693a      	ldr	r2, [r7, #16]
 c002930:	601a      	str	r2, [r3, #0]

  return status;
 c002932:	7dfb      	ldrb	r3, [r7, #23]
}
 c002934:	4618      	mov	r0, r3
 c002936:	371c      	adds	r7, #28
 c002938:	46bd      	mov	sp, r7
 c00293a:	f85d 7b04 	ldr.w	r7, [sp], #4
 c00293e:	4770      	bx	lr

0c002940 <DMA_SetConfig>:
  * @param  DstAddress The destination memory Buffer address
  * @param  DataLength The length of data to be transferred from source to destination
  * @retval HAL status
  */
static void DMA_SetConfig(DMA_HandleTypeDef *hdma, uint32_t SrcAddress, uint32_t DstAddress, uint32_t DataLength)
{
 c002940:	b480      	push	{r7}
 c002942:	b085      	sub	sp, #20
 c002944:	af00      	add	r7, sp, #0
 c002946:	60f8      	str	r0, [r7, #12]
 c002948:	60b9      	str	r1, [r7, #8]
 c00294a:	607a      	str	r2, [r7, #4]
 c00294c:	603b      	str	r3, [r7, #0]
  /* Clear the DMAMUX synchro overrun flag */
  hdma->DMAmuxChannelStatus->CFR = hdma->DMAmuxChannelStatusMask;
 c00294e:	68fb      	ldr	r3, [r7, #12]
 c002950:	6d5b      	ldr	r3, [r3, #84]	; 0x54
 c002952:	68fa      	ldr	r2, [r7, #12]
 c002954:	6d92      	ldr	r2, [r2, #88]	; 0x58
 c002956:	605a      	str	r2, [r3, #4]

  if(hdma->DMAmuxRequestGen != 0U)
 c002958:	68fb      	ldr	r3, [r7, #12]
 c00295a:	6ddb      	ldr	r3, [r3, #92]	; 0x5c
 c00295c:	2b00      	cmp	r3, #0
 c00295e:	d004      	beq.n	c00296a <DMA_SetConfig+0x2a>
  {
    /* Clear the DMAMUX request generator overrun flag */
    hdma->DMAmuxRequestGenStatus->RGCFR = hdma->DMAmuxRequestGenStatusMask;
 c002960:	68fb      	ldr	r3, [r7, #12]
 c002962:	6e1b      	ldr	r3, [r3, #96]	; 0x60
 c002964:	68fa      	ldr	r2, [r7, #12]
 c002966:	6e52      	ldr	r2, [r2, #100]	; 0x64
 c002968:	605a      	str	r2, [r3, #4]
  }

  /* Clear all flags */
  hdma->DmaBaseAddress->IFCR = (DMA_ISR_GIF1 << (hdma->ChannelIndex & 0x1CU));
 c00296a:	68fb      	ldr	r3, [r7, #12]
 c00296c:	6cdb      	ldr	r3, [r3, #76]	; 0x4c
 c00296e:	f003 021c 	and.w	r2, r3, #28
 c002972:	68fb      	ldr	r3, [r7, #12]
 c002974:	6c9b      	ldr	r3, [r3, #72]	; 0x48
 c002976:	2101      	movs	r1, #1
 c002978:	fa01 f202 	lsl.w	r2, r1, r2
 c00297c:	605a      	str	r2, [r3, #4]

  /* Configure DMA Channel data length */
  hdma->Instance->CNDTR = DataLength;
 c00297e:	68fb      	ldr	r3, [r7, #12]
 c002980:	681b      	ldr	r3, [r3, #0]
 c002982:	683a      	ldr	r2, [r7, #0]
 c002984:	605a      	str	r2, [r3, #4]

  /* Memory to Peripheral */
  if((hdma->Init.Direction) == DMA_MEMORY_TO_PERIPH)
 c002986:	68fb      	ldr	r3, [r7, #12]
 c002988:	689b      	ldr	r3, [r3, #8]
 c00298a:	2b10      	cmp	r3, #16
 c00298c:	d108      	bne.n	c0029a0 <DMA_SetConfig+0x60>
  {
    /* Configure DMA Channel destination address */
    hdma->Instance->CPAR = DstAddress;
 c00298e:	68fb      	ldr	r3, [r7, #12]
 c002990:	681b      	ldr	r3, [r3, #0]
 c002992:	687a      	ldr	r2, [r7, #4]
 c002994:	609a      	str	r2, [r3, #8]

    /* Configure DMA Channel source address */
    hdma->Instance->CM0AR = SrcAddress;
 c002996:	68fb      	ldr	r3, [r7, #12]
 c002998:	681b      	ldr	r3, [r3, #0]
 c00299a:	68ba      	ldr	r2, [r7, #8]
 c00299c:	60da      	str	r2, [r3, #12]
    hdma->Instance->CPAR = SrcAddress;

    /* Configure DMA Channel destination address */
    hdma->Instance->CM0AR = DstAddress;
  }
}
 c00299e:	e007      	b.n	c0029b0 <DMA_SetConfig+0x70>
    hdma->Instance->CPAR = SrcAddress;
 c0029a0:	68fb      	ldr	r3, [r7, #12]
 c0029a2:	681b      	ldr	r3, [r3, #0]
 c0029a4:	68ba      	ldr	r2, [r7, #8]
 c0029a6:	609a      	str	r2, [r3, #8]
    hdma->Instance->CM0AR = DstAddress;
 c0029a8:	68fb      	ldr	r3, [r7, #12]
 c0029aa:	681b      	ldr	r3, [r3, #0]
 c0029ac:	687a      	ldr	r2, [r7, #4]
 c0029ae:	60da      	str	r2, [r3, #12]
}
 c0029b0:	bf00      	nop
 c0029b2:	3714      	adds	r7, #20
 c0029b4:	46bd      	mov	sp, r7
 c0029b6:	f85d 7b04 	ldr.w	r7, [sp], #4
 c0029ba:	4770      	bx	lr

0c0029bc <DMA_CalcDMAMUXChannelBaseAndMask>:
  * @param  hdma        pointer to a DMA_HandleTypeDef structure that contains
  *                     the configuration information for the specified DMA Channel.
  * @retval None
  */
static void DMA_CalcDMAMUXChannelBaseAndMask(DMA_HandleTypeDef *hdma)
{
 c0029bc:	b480      	push	{r7}
 c0029be:	b085      	sub	sp, #20
 c0029c0:	af00      	add	r7, sp, #0
 c0029c2:	6078      	str	r0, [r7, #4]
  uint32_t channel_number;

  /* check if instance is not outside the DMA channel range */
  if ((uint32_t)hdma->Instance < (uint32_t)DMA2_Channel1)
 c0029c4:	687b      	ldr	r3, [r7, #4]
 c0029c6:	681b      	ldr	r3, [r3, #0]
 c0029c8:	461a      	mov	r2, r3
 c0029ca:	4b17      	ldr	r3, [pc, #92]	; (c002a28 <DMA_CalcDMAMUXChannelBaseAndMask+0x6c>)
 c0029cc:	429a      	cmp	r2, r3
 c0029ce:	d80a      	bhi.n	c0029e6 <DMA_CalcDMAMUXChannelBaseAndMask+0x2a>
  {
    /* DMA1 */
    hdma->DMAmuxChannel = (DMAMUX1_Channel0 + (hdma->ChannelIndex >> 2U));
 c0029d0:	687b      	ldr	r3, [r7, #4]
 c0029d2:	6cdb      	ldr	r3, [r3, #76]	; 0x4c
 c0029d4:	089b      	lsrs	r3, r3, #2
 c0029d6:	009b      	lsls	r3, r3, #2
 c0029d8:	f103 43a0 	add.w	r3, r3, #1342177280	; 0x50000000
 c0029dc:	f503 3302 	add.w	r3, r3, #133120	; 0x20800
 c0029e0:	687a      	ldr	r2, [r7, #4]
 c0029e2:	6513      	str	r3, [r2, #80]	; 0x50
 c0029e4:	e007      	b.n	c0029f6 <DMA_CalcDMAMUXChannelBaseAndMask+0x3a>
  }
  else
  {
    /* DMA2 */
    hdma->DMAmuxChannel = (DMAMUX1_Channel8 + (hdma->ChannelIndex >> 2U));
 c0029e6:	687b      	ldr	r3, [r7, #4]
 c0029e8:	6cdb      	ldr	r3, [r3, #76]	; 0x4c
 c0029ea:	089b      	lsrs	r3, r3, #2
 c0029ec:	009a      	lsls	r2, r3, #2
 c0029ee:	4b0f      	ldr	r3, [pc, #60]	; (c002a2c <DMA_CalcDMAMUXChannelBaseAndMask+0x70>)
 c0029f0:	4413      	add	r3, r2
 c0029f2:	687a      	ldr	r2, [r7, #4]
 c0029f4:	6513      	str	r3, [r2, #80]	; 0x50
  }

  channel_number = (((uint32_t)hdma->Instance & 0xFFU) - 8U) / 20U;
 c0029f6:	687b      	ldr	r3, [r7, #4]
 c0029f8:	681b      	ldr	r3, [r3, #0]
 c0029fa:	b2db      	uxtb	r3, r3
 c0029fc:	3b08      	subs	r3, #8
 c0029fe:	4a0c      	ldr	r2, [pc, #48]	; (c002a30 <DMA_CalcDMAMUXChannelBaseAndMask+0x74>)
 c002a00:	fba2 2303 	umull	r2, r3, r2, r3
 c002a04:	091b      	lsrs	r3, r3, #4
 c002a06:	60fb      	str	r3, [r7, #12]
  hdma->DMAmuxChannelStatus = DMAMUX1_ChannelStatus;
 c002a08:	687b      	ldr	r3, [r7, #4]
 c002a0a:	4a0a      	ldr	r2, [pc, #40]	; (c002a34 <DMA_CalcDMAMUXChannelBaseAndMask+0x78>)
 c002a0c:	655a      	str	r2, [r3, #84]	; 0x54
  hdma->DMAmuxChannelStatusMask = 1UL << (channel_number & 0x1FU);
 c002a0e:	68fb      	ldr	r3, [r7, #12]
 c002a10:	f003 031f 	and.w	r3, r3, #31
 c002a14:	2201      	movs	r2, #1
 c002a16:	409a      	lsls	r2, r3
 c002a18:	687b      	ldr	r3, [r7, #4]
 c002a1a:	659a      	str	r2, [r3, #88]	; 0x58
}
 c002a1c:	bf00      	nop
 c002a1e:	3714      	adds	r7, #20
 c002a20:	46bd      	mov	sp, r7
 c002a22:	f85d 7b04 	ldr.w	r7, [sp], #4
 c002a26:	4770      	bx	lr
 c002a28:	50020407 	.word	0x50020407
 c002a2c:	50020820 	.word	0x50020820
 c002a30:	cccccccd 	.word	0xcccccccd
 c002a34:	50020880 	.word	0x50020880

0c002a38 <DMA_CalcDMAMUXRequestGenBaseAndMask>:
  *                     the configuration information for the specified DMA Channel.
  * @retval None
  */

static void DMA_CalcDMAMUXRequestGenBaseAndMask(DMA_HandleTypeDef *hdma)
{
 c002a38:	b480      	push	{r7}
 c002a3a:	b085      	sub	sp, #20
 c002a3c:	af00      	add	r7, sp, #0
 c002a3e:	6078      	str	r0, [r7, #4]
  uint32_t request =  hdma->Init.Request & DMAMUX_CxCR_DMAREQ_ID;
 c002a40:	687b      	ldr	r3, [r7, #4]
 c002a42:	685b      	ldr	r3, [r3, #4]
 c002a44:	b2db      	uxtb	r3, r3
 c002a46:	60fb      	str	r3, [r7, #12]

  /* DMA Channels are connected to DMAMUX1 request generator blocks*/
  hdma->DMAmuxRequestGen = (DMAMUX_RequestGen_TypeDef *)((uint32_t)(((uint32_t)DMAMUX1_RequestGenerator0) + ((request - 1U) * 4U)));
 c002a48:	68fa      	ldr	r2, [r7, #12]
 c002a4a:	4b0b      	ldr	r3, [pc, #44]	; (c002a78 <DMA_CalcDMAMUXRequestGenBaseAndMask+0x40>)
 c002a4c:	4413      	add	r3, r2
 c002a4e:	009b      	lsls	r3, r3, #2
 c002a50:	461a      	mov	r2, r3
 c002a52:	687b      	ldr	r3, [r7, #4]
 c002a54:	65da      	str	r2, [r3, #92]	; 0x5c

  hdma->DMAmuxRequestGenStatus = DMAMUX1_RequestGenStatus;
 c002a56:	687b      	ldr	r3, [r7, #4]
 c002a58:	4a08      	ldr	r2, [pc, #32]	; (c002a7c <DMA_CalcDMAMUXRequestGenBaseAndMask+0x44>)
 c002a5a:	661a      	str	r2, [r3, #96]	; 0x60

  /* here "Request" is either DMA_REQUEST_GENERATOR0 to DMA_REQUEST_GENERATOR3, i.e. <= 4*/
  hdma->DMAmuxRequestGenStatusMask = 1UL << ((request - 1U) & 0x3U);
 c002a5c:	68fb      	ldr	r3, [r7, #12]
 c002a5e:	3b01      	subs	r3, #1
 c002a60:	f003 0303 	and.w	r3, r3, #3
 c002a64:	2201      	movs	r2, #1
 c002a66:	409a      	lsls	r2, r3
 c002a68:	687b      	ldr	r3, [r7, #4]
 c002a6a:	665a      	str	r2, [r3, #100]	; 0x64
}
 c002a6c:	bf00      	nop
 c002a6e:	3714      	adds	r7, #20
 c002a70:	46bd      	mov	sp, r7
 c002a72:	f85d 7b04 	ldr.w	r7, [sp], #4
 c002a76:	4770      	bx	lr
 c002a78:	1400823f 	.word	0x1400823f
 c002a7c:	50020940 	.word	0x50020940

0c002a80 <HAL_GPIO_Init>:
  * @param  GPIO_Init pointer to a GPIO_InitTypeDef structure that contains
  *         the configuration information for the specified GPIO peripheral.
  * @retval None
  */
void HAL_GPIO_Init(GPIO_TypeDef  *GPIOx, GPIO_InitTypeDef *GPIO_Init)
{
 c002a80:	b480      	push	{r7}
 c002a82:	b087      	sub	sp, #28
 c002a84:	af00      	add	r7, sp, #0
 c002a86:	6078      	str	r0, [r7, #4]
 c002a88:	6039      	str	r1, [r7, #0]
  uint32_t position = 0U;
 c002a8a:	2300      	movs	r3, #0
 c002a8c:	617b      	str	r3, [r7, #20]
  assert_param(IS_GPIO_ALL_INSTANCE(GPIOx));
  assert_param(IS_GPIO_PIN(GPIO_Init->Pin));
  assert_param(IS_GPIO_MODE(GPIO_Init->Mode));

  /* Configure the port pins */
  while (((GPIO_Init->Pin) >> position) != 0U)
 c002a8e:	e158      	b.n	c002d42 <HAL_GPIO_Init+0x2c2>
  {
    /* Get current io position */
    iocurrent = (GPIO_Init->Pin) & (1UL << position);
 c002a90:	683b      	ldr	r3, [r7, #0]
 c002a92:	681a      	ldr	r2, [r3, #0]
 c002a94:	2101      	movs	r1, #1
 c002a96:	697b      	ldr	r3, [r7, #20]
 c002a98:	fa01 f303 	lsl.w	r3, r1, r3
 c002a9c:	4013      	ands	r3, r2
 c002a9e:	60fb      	str	r3, [r7, #12]

    if (iocurrent != 0U)
 c002aa0:	68fb      	ldr	r3, [r7, #12]
 c002aa2:	2b00      	cmp	r3, #0
 c002aa4:	f000 814a 	beq.w	c002d3c <HAL_GPIO_Init+0x2bc>
    {
      /*--------------------- GPIO Mode Configuration ------------------------*/
      /* In case of Output or Alternate function mode selection */
      if (((GPIO_Init->Mode & GPIO_MODE) == MODE_OUTPUT) || ((GPIO_Init->Mode & GPIO_MODE) == MODE_AF))
 c002aa8:	683b      	ldr	r3, [r7, #0]
 c002aaa:	685b      	ldr	r3, [r3, #4]
 c002aac:	f003 0303 	and.w	r3, r3, #3
 c002ab0:	2b01      	cmp	r3, #1
 c002ab2:	d005      	beq.n	c002ac0 <HAL_GPIO_Init+0x40>
 c002ab4:	683b      	ldr	r3, [r7, #0]
 c002ab6:	685b      	ldr	r3, [r3, #4]
 c002ab8:	f003 0303 	and.w	r3, r3, #3
 c002abc:	2b02      	cmp	r3, #2
 c002abe:	d130      	bne.n	c002b22 <HAL_GPIO_Init+0xa2>
      {
        /* Check the Speed parameter */
        assert_param(IS_GPIO_SPEED(GPIO_Init->Speed));

        /* Configure the IO Speed */
        temp = GPIOx->OSPEEDR;
 c002ac0:	687b      	ldr	r3, [r7, #4]
 c002ac2:	689b      	ldr	r3, [r3, #8]
 c002ac4:	613b      	str	r3, [r7, #16]
        temp &= ~(GPIO_OSPEEDR_OSPEED0 << (position * 2U));
 c002ac6:	697b      	ldr	r3, [r7, #20]
 c002ac8:	005b      	lsls	r3, r3, #1
 c002aca:	2203      	movs	r2, #3
 c002acc:	fa02 f303 	lsl.w	r3, r2, r3
 c002ad0:	43db      	mvns	r3, r3
 c002ad2:	693a      	ldr	r2, [r7, #16]
 c002ad4:	4013      	ands	r3, r2
 c002ad6:	613b      	str	r3, [r7, #16]
        temp |= (GPIO_Init->Speed << (position * 2U));
 c002ad8:	683b      	ldr	r3, [r7, #0]
 c002ada:	68da      	ldr	r2, [r3, #12]
 c002adc:	697b      	ldr	r3, [r7, #20]
 c002ade:	005b      	lsls	r3, r3, #1
 c002ae0:	fa02 f303 	lsl.w	r3, r2, r3
 c002ae4:	693a      	ldr	r2, [r7, #16]
 c002ae6:	4313      	orrs	r3, r2
 c002ae8:	613b      	str	r3, [r7, #16]
        GPIOx->OSPEEDR = temp;
 c002aea:	687b      	ldr	r3, [r7, #4]
 c002aec:	693a      	ldr	r2, [r7, #16]
 c002aee:	609a      	str	r2, [r3, #8]

        /* Configure the IO Output Type */
        temp = GPIOx->OTYPER;
 c002af0:	687b      	ldr	r3, [r7, #4]
 c002af2:	685b      	ldr	r3, [r3, #4]
 c002af4:	613b      	str	r3, [r7, #16]
        temp &= ~(GPIO_OTYPER_OT0 << position) ;
 c002af6:	2201      	movs	r2, #1
 c002af8:	697b      	ldr	r3, [r7, #20]
 c002afa:	fa02 f303 	lsl.w	r3, r2, r3
 c002afe:	43db      	mvns	r3, r3
 c002b00:	693a      	ldr	r2, [r7, #16]
 c002b02:	4013      	ands	r3, r2
 c002b04:	613b      	str	r3, [r7, #16]
        temp |= (((GPIO_Init->Mode & OUTPUT_TYPE) >> OUTPUT_TYPE_Pos) << position);
 c002b06:	683b      	ldr	r3, [r7, #0]
 c002b08:	685b      	ldr	r3, [r3, #4]
 c002b0a:	091b      	lsrs	r3, r3, #4
 c002b0c:	f003 0201 	and.w	r2, r3, #1
 c002b10:	697b      	ldr	r3, [r7, #20]
 c002b12:	fa02 f303 	lsl.w	r3, r2, r3
 c002b16:	693a      	ldr	r2, [r7, #16]
 c002b18:	4313      	orrs	r3, r2
 c002b1a:	613b      	str	r3, [r7, #16]
        GPIOx->OTYPER = temp;
 c002b1c:	687b      	ldr	r3, [r7, #4]
 c002b1e:	693a      	ldr	r2, [r7, #16]
 c002b20:	605a      	str	r2, [r3, #4]
      }

      /* Activate the Pull-up or Pull down resistor for the current IO */
      if ((GPIO_Init->Mode & GPIO_MODE) != MODE_ANALOG)
 c002b22:	683b      	ldr	r3, [r7, #0]
 c002b24:	685b      	ldr	r3, [r3, #4]
 c002b26:	f003 0303 	and.w	r3, r3, #3
 c002b2a:	2b03      	cmp	r3, #3
 c002b2c:	d017      	beq.n	c002b5e <HAL_GPIO_Init+0xde>
      {
        /* Check the Pull parameter */
        assert_param(IS_GPIO_PULL(GPIO_Init->Pull));

        temp = GPIOx->PUPDR;
 c002b2e:	687b      	ldr	r3, [r7, #4]
 c002b30:	68db      	ldr	r3, [r3, #12]
 c002b32:	613b      	str	r3, [r7, #16]
        temp &= ~(GPIO_PUPDR_PUPD0 << (position * 2U));
 c002b34:	697b      	ldr	r3, [r7, #20]
 c002b36:	005b      	lsls	r3, r3, #1
 c002b38:	2203      	movs	r2, #3
 c002b3a:	fa02 f303 	lsl.w	r3, r2, r3
 c002b3e:	43db      	mvns	r3, r3
 c002b40:	693a      	ldr	r2, [r7, #16]
 c002b42:	4013      	ands	r3, r2
 c002b44:	613b      	str	r3, [r7, #16]
        temp |= ((GPIO_Init->Pull) << (position * 2U));
 c002b46:	683b      	ldr	r3, [r7, #0]
 c002b48:	689a      	ldr	r2, [r3, #8]
 c002b4a:	697b      	ldr	r3, [r7, #20]
 c002b4c:	005b      	lsls	r3, r3, #1
 c002b4e:	fa02 f303 	lsl.w	r3, r2, r3
 c002b52:	693a      	ldr	r2, [r7, #16]
 c002b54:	4313      	orrs	r3, r2
 c002b56:	613b      	str	r3, [r7, #16]
        GPIOx->PUPDR = temp;
 c002b58:	687b      	ldr	r3, [r7, #4]
 c002b5a:	693a      	ldr	r2, [r7, #16]
 c002b5c:	60da      	str	r2, [r3, #12]
      }

      /* In case of Alternate function mode selection */
      if ((GPIO_Init->Mode & GPIO_MODE) == MODE_AF)
 c002b5e:	683b      	ldr	r3, [r7, #0]
 c002b60:	685b      	ldr	r3, [r3, #4]
 c002b62:	f003 0303 	and.w	r3, r3, #3
 c002b66:	2b02      	cmp	r3, #2
 c002b68:	d123      	bne.n	c002bb2 <HAL_GPIO_Init+0x132>
        /* Check the Alternate function parameters */
        assert_param(IS_GPIO_AF_INSTANCE(GPIOx));
        assert_param(IS_GPIO_AF(GPIO_Init->Alternate));

        /* Configure Alternate function mapped with the current IO */
        temp = GPIOx->AFR[position >> 3U];
 c002b6a:	697b      	ldr	r3, [r7, #20]
 c002b6c:	08da      	lsrs	r2, r3, #3
 c002b6e:	687b      	ldr	r3, [r7, #4]
 c002b70:	3208      	adds	r2, #8
 c002b72:	f853 3022 	ldr.w	r3, [r3, r2, lsl #2]
 c002b76:	613b      	str	r3, [r7, #16]
        temp &= ~(0x0FUL << ((position & 0x07U) * 4U)) ;
 c002b78:	697b      	ldr	r3, [r7, #20]
 c002b7a:	f003 0307 	and.w	r3, r3, #7
 c002b7e:	009b      	lsls	r3, r3, #2
 c002b80:	220f      	movs	r2, #15
 c002b82:	fa02 f303 	lsl.w	r3, r2, r3
 c002b86:	43db      	mvns	r3, r3
 c002b88:	693a      	ldr	r2, [r7, #16]
 c002b8a:	4013      	ands	r3, r2
 c002b8c:	613b      	str	r3, [r7, #16]
        temp |= ((GPIO_Init->Alternate) << ((position & 0x07U) * 4U));
 c002b8e:	683b      	ldr	r3, [r7, #0]
 c002b90:	691a      	ldr	r2, [r3, #16]
 c002b92:	697b      	ldr	r3, [r7, #20]
 c002b94:	f003 0307 	and.w	r3, r3, #7
 c002b98:	009b      	lsls	r3, r3, #2
 c002b9a:	fa02 f303 	lsl.w	r3, r2, r3
 c002b9e:	693a      	ldr	r2, [r7, #16]
 c002ba0:	4313      	orrs	r3, r2
 c002ba2:	613b      	str	r3, [r7, #16]
        GPIOx->AFR[position >> 3U] = temp;
 c002ba4:	697b      	ldr	r3, [r7, #20]
 c002ba6:	08da      	lsrs	r2, r3, #3
 c002ba8:	687b      	ldr	r3, [r7, #4]
 c002baa:	3208      	adds	r2, #8
 c002bac:	6939      	ldr	r1, [r7, #16]
 c002bae:	f843 1022 	str.w	r1, [r3, r2, lsl #2]
      }

      /* Configure IO Direction mode (Input, Output, Alternate or Analog) */
      temp = GPIOx->MODER;
 c002bb2:	687b      	ldr	r3, [r7, #4]
 c002bb4:	681b      	ldr	r3, [r3, #0]
 c002bb6:	613b      	str	r3, [r7, #16]
      temp &= ~(GPIO_MODER_MODE0 << (position * 2U));
 c002bb8:	697b      	ldr	r3, [r7, #20]
 c002bba:	005b      	lsls	r3, r3, #1
 c002bbc:	2203      	movs	r2, #3
 c002bbe:	fa02 f303 	lsl.w	r3, r2, r3
 c002bc2:	43db      	mvns	r3, r3
 c002bc4:	693a      	ldr	r2, [r7, #16]
 c002bc6:	4013      	ands	r3, r2
 c002bc8:	613b      	str	r3, [r7, #16]
      temp |= ((GPIO_Init->Mode & GPIO_MODE) << (position * 2U));
 c002bca:	683b      	ldr	r3, [r7, #0]
 c002bcc:	685b      	ldr	r3, [r3, #4]
 c002bce:	f003 0203 	and.w	r2, r3, #3
 c002bd2:	697b      	ldr	r3, [r7, #20]
 c002bd4:	005b      	lsls	r3, r3, #1
 c002bd6:	fa02 f303 	lsl.w	r3, r2, r3
 c002bda:	693a      	ldr	r2, [r7, #16]
 c002bdc:	4313      	orrs	r3, r2
 c002bde:	613b      	str	r3, [r7, #16]
      GPIOx->MODER = temp;
 c002be0:	687b      	ldr	r3, [r7, #4]
 c002be2:	693a      	ldr	r2, [r7, #16]
 c002be4:	601a      	str	r2, [r3, #0]

      /*--------------------- EXTI Mode Configuration ------------------------*/
      /* Configure the External Interrupt or event for the current IO */
      if ((GPIO_Init->Mode & EXTI_MODE) != 0x00u)
 c002be6:	683b      	ldr	r3, [r7, #0]
 c002be8:	685b      	ldr	r3, [r3, #4]
 c002bea:	f403 3340 	and.w	r3, r3, #196608	; 0x30000
 c002bee:	2b00      	cmp	r3, #0
 c002bf0:	f000 80a4 	beq.w	c002d3c <HAL_GPIO_Init+0x2bc>
      {
        temp = EXTI->EXTICR[position >> 2U];
 c002bf4:	4a5a      	ldr	r2, [pc, #360]	; (c002d60 <HAL_GPIO_Init+0x2e0>)
 c002bf6:	697b      	ldr	r3, [r7, #20]
 c002bf8:	089b      	lsrs	r3, r3, #2
 c002bfa:	3318      	adds	r3, #24
 c002bfc:	f852 3023 	ldr.w	r3, [r2, r3, lsl #2]
 c002c00:	613b      	str	r3, [r7, #16]
        temp &= ~((0x0FU) << (8U * (position & 0x03U)));
 c002c02:	697b      	ldr	r3, [r7, #20]
 c002c04:	f003 0303 	and.w	r3, r3, #3
 c002c08:	00db      	lsls	r3, r3, #3
 c002c0a:	220f      	movs	r2, #15
 c002c0c:	fa02 f303 	lsl.w	r3, r2, r3
 c002c10:	43db      	mvns	r3, r3
 c002c12:	693a      	ldr	r2, [r7, #16]
 c002c14:	4013      	ands	r3, r2
 c002c16:	613b      	str	r3, [r7, #16]
        temp |= (GPIO_GET_INDEX(GPIOx) << (8U * (position & 0x03U)));
 c002c18:	687b      	ldr	r3, [r7, #4]
 c002c1a:	4a52      	ldr	r2, [pc, #328]	; (c002d64 <HAL_GPIO_Init+0x2e4>)
 c002c1c:	4293      	cmp	r3, r2
 c002c1e:	d025      	beq.n	c002c6c <HAL_GPIO_Init+0x1ec>
 c002c20:	687b      	ldr	r3, [r7, #4]
 c002c22:	4a51      	ldr	r2, [pc, #324]	; (c002d68 <HAL_GPIO_Init+0x2e8>)
 c002c24:	4293      	cmp	r3, r2
 c002c26:	d01f      	beq.n	c002c68 <HAL_GPIO_Init+0x1e8>
 c002c28:	687b      	ldr	r3, [r7, #4]
 c002c2a:	4a50      	ldr	r2, [pc, #320]	; (c002d6c <HAL_GPIO_Init+0x2ec>)
 c002c2c:	4293      	cmp	r3, r2
 c002c2e:	d019      	beq.n	c002c64 <HAL_GPIO_Init+0x1e4>
 c002c30:	687b      	ldr	r3, [r7, #4]
 c002c32:	4a4f      	ldr	r2, [pc, #316]	; (c002d70 <HAL_GPIO_Init+0x2f0>)
 c002c34:	4293      	cmp	r3, r2
 c002c36:	d013      	beq.n	c002c60 <HAL_GPIO_Init+0x1e0>
 c002c38:	687b      	ldr	r3, [r7, #4]
 c002c3a:	4a4e      	ldr	r2, [pc, #312]	; (c002d74 <HAL_GPIO_Init+0x2f4>)
 c002c3c:	4293      	cmp	r3, r2
 c002c3e:	d00d      	beq.n	c002c5c <HAL_GPIO_Init+0x1dc>
 c002c40:	687b      	ldr	r3, [r7, #4]
 c002c42:	4a4d      	ldr	r2, [pc, #308]	; (c002d78 <HAL_GPIO_Init+0x2f8>)
 c002c44:	4293      	cmp	r3, r2
 c002c46:	d007      	beq.n	c002c58 <HAL_GPIO_Init+0x1d8>
 c002c48:	687b      	ldr	r3, [r7, #4]
 c002c4a:	4a4c      	ldr	r2, [pc, #304]	; (c002d7c <HAL_GPIO_Init+0x2fc>)
 c002c4c:	4293      	cmp	r3, r2
 c002c4e:	d101      	bne.n	c002c54 <HAL_GPIO_Init+0x1d4>
 c002c50:	2306      	movs	r3, #6
 c002c52:	e00c      	b.n	c002c6e <HAL_GPIO_Init+0x1ee>
 c002c54:	2307      	movs	r3, #7
 c002c56:	e00a      	b.n	c002c6e <HAL_GPIO_Init+0x1ee>
 c002c58:	2305      	movs	r3, #5
 c002c5a:	e008      	b.n	c002c6e <HAL_GPIO_Init+0x1ee>
 c002c5c:	2304      	movs	r3, #4
 c002c5e:	e006      	b.n	c002c6e <HAL_GPIO_Init+0x1ee>
 c002c60:	2303      	movs	r3, #3
 c002c62:	e004      	b.n	c002c6e <HAL_GPIO_Init+0x1ee>
 c002c64:	2302      	movs	r3, #2
 c002c66:	e002      	b.n	c002c6e <HAL_GPIO_Init+0x1ee>
 c002c68:	2301      	movs	r3, #1
 c002c6a:	e000      	b.n	c002c6e <HAL_GPIO_Init+0x1ee>
 c002c6c:	2300      	movs	r3, #0
 c002c6e:	697a      	ldr	r2, [r7, #20]
 c002c70:	f002 0203 	and.w	r2, r2, #3
 c002c74:	00d2      	lsls	r2, r2, #3
 c002c76:	4093      	lsls	r3, r2
 c002c78:	693a      	ldr	r2, [r7, #16]
 c002c7a:	4313      	orrs	r3, r2
 c002c7c:	613b      	str	r3, [r7, #16]
        EXTI->EXTICR[position >> 2U] = temp;
 c002c7e:	4938      	ldr	r1, [pc, #224]	; (c002d60 <HAL_GPIO_Init+0x2e0>)
 c002c80:	697b      	ldr	r3, [r7, #20]
 c002c82:	089b      	lsrs	r3, r3, #2
 c002c84:	3318      	adds	r3, #24
 c002c86:	693a      	ldr	r2, [r7, #16]
 c002c88:	f841 2023 	str.w	r2, [r1, r3, lsl #2]

        /* Clear Rising Falling edge configuration */
        temp = EXTI->RTSR1;
 c002c8c:	4b34      	ldr	r3, [pc, #208]	; (c002d60 <HAL_GPIO_Init+0x2e0>)
 c002c8e:	681b      	ldr	r3, [r3, #0]
 c002c90:	613b      	str	r3, [r7, #16]
        temp &= ~(iocurrent);
 c002c92:	68fb      	ldr	r3, [r7, #12]
 c002c94:	43db      	mvns	r3, r3
 c002c96:	693a      	ldr	r2, [r7, #16]
 c002c98:	4013      	ands	r3, r2
 c002c9a:	613b      	str	r3, [r7, #16]
        if ((GPIO_Init->Mode & TRIGGER_RISING) != 0x00u)
 c002c9c:	683b      	ldr	r3, [r7, #0]
 c002c9e:	685b      	ldr	r3, [r3, #4]
 c002ca0:	f403 1380 	and.w	r3, r3, #1048576	; 0x100000
 c002ca4:	2b00      	cmp	r3, #0
 c002ca6:	d003      	beq.n	c002cb0 <HAL_GPIO_Init+0x230>
        {
          temp |= iocurrent;
 c002ca8:	693a      	ldr	r2, [r7, #16]
 c002caa:	68fb      	ldr	r3, [r7, #12]
 c002cac:	4313      	orrs	r3, r2
 c002cae:	613b      	str	r3, [r7, #16]
        }
        EXTI->RTSR1 = temp;
 c002cb0:	4a2b      	ldr	r2, [pc, #172]	; (c002d60 <HAL_GPIO_Init+0x2e0>)
 c002cb2:	693b      	ldr	r3, [r7, #16]
 c002cb4:	6013      	str	r3, [r2, #0]

        temp = EXTI->FTSR1;
 c002cb6:	4b2a      	ldr	r3, [pc, #168]	; (c002d60 <HAL_GPIO_Init+0x2e0>)
 c002cb8:	685b      	ldr	r3, [r3, #4]
 c002cba:	613b      	str	r3, [r7, #16]
        temp &= ~(iocurrent);
 c002cbc:	68fb      	ldr	r3, [r7, #12]
 c002cbe:	43db      	mvns	r3, r3
 c002cc0:	693a      	ldr	r2, [r7, #16]
 c002cc2:	4013      	ands	r3, r2
 c002cc4:	613b      	str	r3, [r7, #16]
        if ((GPIO_Init->Mode & TRIGGER_FALLING) != 0x00u)
 c002cc6:	683b      	ldr	r3, [r7, #0]
 c002cc8:	685b      	ldr	r3, [r3, #4]
 c002cca:	f403 1300 	and.w	r3, r3, #2097152	; 0x200000
 c002cce:	2b00      	cmp	r3, #0
 c002cd0:	d003      	beq.n	c002cda <HAL_GPIO_Init+0x25a>
        {
          temp |= iocurrent;
 c002cd2:	693a      	ldr	r2, [r7, #16]
 c002cd4:	68fb      	ldr	r3, [r7, #12]
 c002cd6:	4313      	orrs	r3, r2
 c002cd8:	613b      	str	r3, [r7, #16]
        }
        EXTI->FTSR1 = temp;
 c002cda:	4a21      	ldr	r2, [pc, #132]	; (c002d60 <HAL_GPIO_Init+0x2e0>)
 c002cdc:	693b      	ldr	r3, [r7, #16]
 c002cde:	6053      	str	r3, [r2, #4]

        /* Clear EXTI line configuration */
        temp = EXTI->EMR1;
 c002ce0:	4b1f      	ldr	r3, [pc, #124]	; (c002d60 <HAL_GPIO_Init+0x2e0>)
 c002ce2:	f8d3 3084 	ldr.w	r3, [r3, #132]	; 0x84
 c002ce6:	613b      	str	r3, [r7, #16]
        temp &= ~(iocurrent);
 c002ce8:	68fb      	ldr	r3, [r7, #12]
 c002cea:	43db      	mvns	r3, r3
 c002cec:	693a      	ldr	r2, [r7, #16]
 c002cee:	4013      	ands	r3, r2
 c002cf0:	613b      	str	r3, [r7, #16]
        if ((GPIO_Init->Mode & EXTI_EVT) != 0x00u)
 c002cf2:	683b      	ldr	r3, [r7, #0]
 c002cf4:	685b      	ldr	r3, [r3, #4]
 c002cf6:	f403 3300 	and.w	r3, r3, #131072	; 0x20000
 c002cfa:	2b00      	cmp	r3, #0
 c002cfc:	d003      	beq.n	c002d06 <HAL_GPIO_Init+0x286>
        {
          temp |= iocurrent;
 c002cfe:	693a      	ldr	r2, [r7, #16]
 c002d00:	68fb      	ldr	r3, [r7, #12]
 c002d02:	4313      	orrs	r3, r2
 c002d04:	613b      	str	r3, [r7, #16]
        }
        EXTI->EMR1 = temp;
 c002d06:	4a16      	ldr	r2, [pc, #88]	; (c002d60 <HAL_GPIO_Init+0x2e0>)
 c002d08:	693b      	ldr	r3, [r7, #16]
 c002d0a:	f8c2 3084 	str.w	r3, [r2, #132]	; 0x84

        temp = EXTI->IMR1;
 c002d0e:	4b14      	ldr	r3, [pc, #80]	; (c002d60 <HAL_GPIO_Init+0x2e0>)
 c002d10:	f8d3 3080 	ldr.w	r3, [r3, #128]	; 0x80
 c002d14:	613b      	str	r3, [r7, #16]
        temp &= ~(iocurrent);
 c002d16:	68fb      	ldr	r3, [r7, #12]
 c002d18:	43db      	mvns	r3, r3
 c002d1a:	693a      	ldr	r2, [r7, #16]
 c002d1c:	4013      	ands	r3, r2
 c002d1e:	613b      	str	r3, [r7, #16]
        if ((GPIO_Init->Mode & EXTI_IT) != 0x00u)
 c002d20:	683b      	ldr	r3, [r7, #0]
 c002d22:	685b      	ldr	r3, [r3, #4]
 c002d24:	f403 3380 	and.w	r3, r3, #65536	; 0x10000
 c002d28:	2b00      	cmp	r3, #0
 c002d2a:	d003      	beq.n	c002d34 <HAL_GPIO_Init+0x2b4>
        {
          temp |= iocurrent;
 c002d2c:	693a      	ldr	r2, [r7, #16]
 c002d2e:	68fb      	ldr	r3, [r7, #12]
 c002d30:	4313      	orrs	r3, r2
 c002d32:	613b      	str	r3, [r7, #16]
        }
        EXTI->IMR1 = temp;
 c002d34:	4a0a      	ldr	r2, [pc, #40]	; (c002d60 <HAL_GPIO_Init+0x2e0>)
 c002d36:	693b      	ldr	r3, [r7, #16]
 c002d38:	f8c2 3080 	str.w	r3, [r2, #128]	; 0x80
      }
    }

    position++;
 c002d3c:	697b      	ldr	r3, [r7, #20]
 c002d3e:	3301      	adds	r3, #1
 c002d40:	617b      	str	r3, [r7, #20]
  while (((GPIO_Init->Pin) >> position) != 0U)
 c002d42:	683b      	ldr	r3, [r7, #0]
 c002d44:	681a      	ldr	r2, [r3, #0]
 c002d46:	697b      	ldr	r3, [r7, #20]
 c002d48:	fa22 f303 	lsr.w	r3, r2, r3
 c002d4c:	2b00      	cmp	r3, #0
 c002d4e:	f47f ae9f 	bne.w	c002a90 <HAL_GPIO_Init+0x10>
  }
}
 c002d52:	bf00      	nop
 c002d54:	bf00      	nop
 c002d56:	371c      	adds	r7, #28
 c002d58:	46bd      	mov	sp, r7
 c002d5a:	f85d 7b04 	ldr.w	r7, [sp], #4
 c002d5e:	4770      	bx	lr
 c002d60:	5002f400 	.word	0x5002f400
 c002d64:	52020000 	.word	0x52020000
 c002d68:	52020400 	.word	0x52020400
 c002d6c:	52020800 	.word	0x52020800
 c002d70:	52020c00 	.word	0x52020c00
 c002d74:	52021000 	.word	0x52021000
 c002d78:	52021400 	.word	0x52021400
 c002d7c:	52021800 	.word	0x52021800

0c002d80 <HAL_GPIO_WritePin>:
  *            @arg GPIO_PIN_RESET: to clear the port pin
  *            @arg GPIO_PIN_SET: to set the port pin
  * @retval None
  */
void HAL_GPIO_WritePin(GPIO_TypeDef *GPIOx, uint16_t GPIO_Pin, GPIO_PinState PinState)
{
 c002d80:	b480      	push	{r7}
 c002d82:	b083      	sub	sp, #12
 c002d84:	af00      	add	r7, sp, #0
 c002d86:	6078      	str	r0, [r7, #4]
 c002d88:	460b      	mov	r3, r1
 c002d8a:	807b      	strh	r3, [r7, #2]
 c002d8c:	4613      	mov	r3, r2
 c002d8e:	707b      	strb	r3, [r7, #1]
  /* Check the parameters */
  assert_param(IS_GPIO_PIN(GPIO_Pin));
  assert_param(IS_GPIO_PIN_ACTION(PinState));

  if (PinState != GPIO_PIN_RESET)
 c002d90:	787b      	ldrb	r3, [r7, #1]
 c002d92:	2b00      	cmp	r3, #0
 c002d94:	d003      	beq.n	c002d9e <HAL_GPIO_WritePin+0x1e>
  {
    GPIOx->BSRR = (uint32_t)GPIO_Pin;
 c002d96:	887a      	ldrh	r2, [r7, #2]
 c002d98:	687b      	ldr	r3, [r7, #4]
 c002d9a:	619a      	str	r2, [r3, #24]
  }
  else
  {
    GPIOx->BRR = (uint32_t)GPIO_Pin;
  }
}
 c002d9c:	e002      	b.n	c002da4 <HAL_GPIO_WritePin+0x24>
    GPIOx->BRR = (uint32_t)GPIO_Pin;
 c002d9e:	887a      	ldrh	r2, [r7, #2]
 c002da0:	687b      	ldr	r3, [r7, #4]
 c002da2:	629a      	str	r2, [r3, #40]	; 0x28
}
 c002da4:	bf00      	nop
 c002da6:	370c      	adds	r7, #12
 c002da8:	46bd      	mov	sp, r7
 c002daa:	f85d 7b04 	ldr.w	r7, [sp], #4
 c002dae:	4770      	bx	lr

0c002db0 <HAL_GPIO_ConfigPinAttributes>:
  * @param  GPIO_Pin specifies the pin(s) to configure the secure attribute
  * @param  PinAttributes specifies the pin(s) to be set in secure mode, other being set non secured.
  * @retval None
  */
void HAL_GPIO_ConfigPinAttributes(GPIO_TypeDef *GPIOx, uint16_t GPIO_Pin, uint32_t PinAttributes)
{
 c002db0:	b480      	push	{r7}
 c002db2:	b089      	sub	sp, #36	; 0x24
 c002db4:	af00      	add	r7, sp, #0
 c002db6:	60f8      	str	r0, [r7, #12]
 c002db8:	460b      	mov	r3, r1
 c002dba:	607a      	str	r2, [r7, #4]
 c002dbc:	817b      	strh	r3, [r7, #10]
  uint32_t position = 0U;
 c002dbe:	2300      	movs	r3, #0
 c002dc0:	61fb      	str	r3, [r7, #28]
  /* Check the parameters */
  assert_param(IS_GPIO_ALL_INSTANCE(GPIOx));
  assert_param(IS_GPIO_PIN(GPIO_Pin));
  assert_param(IS_GPIO_PIN_ATTRIBUTES(PinAttributes));

  temp = GPIOx->SECCFGR;
 c002dc2:	68fb      	ldr	r3, [r7, #12]
 c002dc4:	6b1b      	ldr	r3, [r3, #48]	; 0x30
 c002dc6:	61bb      	str	r3, [r7, #24]

  /* Configure the port pins */
  while ((GPIO_Pin >> position) != 0U)
 c002dc8:	e01b      	b.n	c002e02 <HAL_GPIO_ConfigPinAttributes+0x52>
  {
    /* Get current io position */
    iocurrent = GPIO_Pin & (1UL << position);
 c002dca:	897a      	ldrh	r2, [r7, #10]
 c002dcc:	2101      	movs	r1, #1
 c002dce:	69fb      	ldr	r3, [r7, #28]
 c002dd0:	fa01 f303 	lsl.w	r3, r1, r3
 c002dd4:	4013      	ands	r3, r2
 c002dd6:	617b      	str	r3, [r7, #20]

    if (iocurrent != 0U)
 c002dd8:	697b      	ldr	r3, [r7, #20]
 c002dda:	2b00      	cmp	r3, #0
 c002ddc:	d00e      	beq.n	c002dfc <HAL_GPIO_ConfigPinAttributes+0x4c>
    {
      /* Configure the IO secure attribute */
      temp &= ~(GPIO_SECCFGR_SEC0 << position) ;
 c002dde:	2201      	movs	r2, #1
 c002de0:	69fb      	ldr	r3, [r7, #28]
 c002de2:	fa02 f303 	lsl.w	r3, r2, r3
 c002de6:	43db      	mvns	r3, r3
 c002de8:	69ba      	ldr	r2, [r7, #24]
 c002dea:	4013      	ands	r3, r2
 c002dec:	61bb      	str	r3, [r7, #24]
      temp |= (PinAttributes << position);
 c002dee:	687a      	ldr	r2, [r7, #4]
 c002df0:	69fb      	ldr	r3, [r7, #28]
 c002df2:	fa02 f303 	lsl.w	r3, r2, r3
 c002df6:	69ba      	ldr	r2, [r7, #24]
 c002df8:	4313      	orrs	r3, r2
 c002dfa:	61bb      	str	r3, [r7, #24]
    }
    position++;
 c002dfc:	69fb      	ldr	r3, [r7, #28]
 c002dfe:	3301      	adds	r3, #1
 c002e00:	61fb      	str	r3, [r7, #28]
  while ((GPIO_Pin >> position) != 0U)
 c002e02:	897a      	ldrh	r2, [r7, #10]
 c002e04:	69fb      	ldr	r3, [r7, #28]
 c002e06:	fa42 f303 	asr.w	r3, r2, r3
 c002e0a:	2b00      	cmp	r3, #0
 c002e0c:	d1dd      	bne.n	c002dca <HAL_GPIO_ConfigPinAttributes+0x1a>
  }

  /* Set secure attributes */
  GPIOx->SECCFGR = temp;
 c002e0e:	68fb      	ldr	r3, [r7, #12]
 c002e10:	69ba      	ldr	r2, [r7, #24]
 c002e12:	631a      	str	r2, [r3, #48]	; 0x30
}
 c002e14:	bf00      	nop
 c002e16:	3724      	adds	r7, #36	; 0x24
 c002e18:	46bd      	mov	sp, r7
 c002e1a:	f85d 7b04 	ldr.w	r7, [sp], #4
 c002e1e:	4770      	bx	lr

0c002e20 <HAL_GTZC_TZSC_ConfigPeriphAttributes>:
  * @param  PeriphAttributes Peripheral attributes, see @ref GTZC_TZSC_PeriphAttributes.
  * @retval HAL status.
  */
HAL_StatusTypeDef HAL_GTZC_TZSC_ConfigPeriphAttributes(uint32_t PeriphId,
                                                       uint32_t PeriphAttributes)
{
 c002e20:	b480      	push	{r7}
 c002e22:	b085      	sub	sp, #20
 c002e24:	af00      	add	r7, sp, #0
 c002e26:	6078      	str	r0, [r7, #4]
 c002e28:	6039      	str	r1, [r7, #0]
  uint32_t register_address;

  /* check entry parameters */
  if ((PeriphAttributes > (GTZC_TZSC_PERIPH_SEC | GTZC_TZSC_PERIPH_PRIV))
 c002e2a:	683b      	ldr	r3, [r7, #0]
 c002e2c:	f5b3 7f41 	cmp.w	r3, #772	; 0x304
 c002e30:	d216      	bcs.n	c002e60 <HAL_GTZC_TZSC_ConfigPeriphAttributes+0x40>
      || (HAL_GTZC_GET_ARRAY_INDEX(PeriphId) >= GTZC_TZSC_PERIPH_NUMBER)
 c002e32:	687b      	ldr	r3, [r7, #4]
 c002e34:	0f1b      	lsrs	r3, r3, #28
 c002e36:	015a      	lsls	r2, r3, #5
 c002e38:	687b      	ldr	r3, [r7, #4]
 c002e3a:	f003 031f 	and.w	r3, r3, #31
 c002e3e:	4413      	add	r3, r2
 c002e40:	2b32      	cmp	r3, #50	; 0x32
 c002e42:	d80d      	bhi.n	c002e60 <HAL_GTZC_TZSC_ConfigPeriphAttributes+0x40>
      || (((PeriphId & GTZC_PERIPH_ALL) != 0U) && (HAL_GTZC_GET_ARRAY_INDEX(PeriphId) != 0U)))
 c002e44:	687b      	ldr	r3, [r7, #4]
 c002e46:	f003 0320 	and.w	r3, r3, #32
 c002e4a:	2b00      	cmp	r3, #0
 c002e4c:	d00a      	beq.n	c002e64 <HAL_GTZC_TZSC_ConfigPeriphAttributes+0x44>
 c002e4e:	687b      	ldr	r3, [r7, #4]
 c002e50:	0f1b      	lsrs	r3, r3, #28
 c002e52:	015a      	lsls	r2, r3, #5
 c002e54:	687b      	ldr	r3, [r7, #4]
 c002e56:	f003 031f 	and.w	r3, r3, #31
 c002e5a:	4413      	add	r3, r2
 c002e5c:	2b00      	cmp	r3, #0
 c002e5e:	d001      	beq.n	c002e64 <HAL_GTZC_TZSC_ConfigPeriphAttributes+0x44>
  {
    return HAL_ERROR;
 c002e60:	2301      	movs	r3, #1
 c002e62:	e0a8      	b.n	c002fb6 <HAL_GTZC_TZSC_ConfigPeriphAttributes+0x196>
  }

  if ((PeriphId & GTZC_PERIPH_ALL) != 0U)
 c002e64:	687b      	ldr	r3, [r7, #4]
 c002e66:	f003 0320 	and.w	r3, r3, #32
 c002e6a:	2b00      	cmp	r3, #0
 c002e6c:	d04e      	beq.n	c002f0c <HAL_GTZC_TZSC_ConfigPeriphAttributes+0xec>
  {
    /* special case where same attributes are applied to all peripherals */

#if defined(__ARM_FEATURE_CMSE) && (__ARM_FEATURE_CMSE == 3U)
    /* secure configuration */
    if ((PeriphAttributes & GTZC_TZSC_PERIPH_SEC) == GTZC_TZSC_PERIPH_SEC)
 c002e6e:	683a      	ldr	r2, [r7, #0]
 c002e70:	f240 1301 	movw	r3, #257	; 0x101
 c002e74:	4013      	ands	r3, r2
 c002e76:	f240 1201 	movw	r2, #257	; 0x101
 c002e7a:	4293      	cmp	r3, r2
 c002e7c:	d10e      	bne.n	c002e9c <HAL_GTZC_TZSC_ConfigPeriphAttributes+0x7c>
    {
      SET_BIT(GTZC_TZSC->SECCFGR1, TZSC_SECCFGR1_ALL);
 c002e7e:	4b51      	ldr	r3, [pc, #324]	; (c002fc4 <HAL_GTZC_TZSC_ConfigPeriphAttributes+0x1a4>)
 c002e80:	691b      	ldr	r3, [r3, #16]
 c002e82:	4b50      	ldr	r3, [pc, #320]	; (c002fc4 <HAL_GTZC_TZSC_ConfigPeriphAttributes+0x1a4>)
 c002e84:	f04f 32ff 	mov.w	r2, #4294967295
 c002e88:	611a      	str	r2, [r3, #16]
      SET_BIT(GTZC_TZSC->SECCFGR2, TZSC_SECCFGR2_ALL);
 c002e8a:	4b4e      	ldr	r3, [pc, #312]	; (c002fc4 <HAL_GTZC_TZSC_ConfigPeriphAttributes+0x1a4>)
 c002e8c:	695b      	ldr	r3, [r3, #20]
 c002e8e:	4a4d      	ldr	r2, [pc, #308]	; (c002fc4 <HAL_GTZC_TZSC_ConfigPeriphAttributes+0x1a4>)
 c002e90:	ea6f 43d3 	mvn.w	r3, r3, lsr #19
 c002e94:	ea6f 43c3 	mvn.w	r3, r3, lsl #19
 c002e98:	6153      	str	r3, [r2, #20]
 c002e9a:	e00f      	b.n	c002ebc <HAL_GTZC_TZSC_ConfigPeriphAttributes+0x9c>
    }
    else if ((PeriphAttributes & GTZC_TZSC_PERIPH_NSEC) == GTZC_TZSC_PERIPH_NSEC)
 c002e9c:	683b      	ldr	r3, [r7, #0]
 c002e9e:	f403 7380 	and.w	r3, r3, #256	; 0x100
 c002ea2:	2b00      	cmp	r3, #0
 c002ea4:	d00a      	beq.n	c002ebc <HAL_GTZC_TZSC_ConfigPeriphAttributes+0x9c>
    {
      CLEAR_BIT(GTZC_TZSC->SECCFGR1, TZSC_SECCFGR1_ALL);
 c002ea6:	4b47      	ldr	r3, [pc, #284]	; (c002fc4 <HAL_GTZC_TZSC_ConfigPeriphAttributes+0x1a4>)
 c002ea8:	691b      	ldr	r3, [r3, #16]
 c002eaa:	4b46      	ldr	r3, [pc, #280]	; (c002fc4 <HAL_GTZC_TZSC_ConfigPeriphAttributes+0x1a4>)
 c002eac:	2200      	movs	r2, #0
 c002eae:	611a      	str	r2, [r3, #16]
      CLEAR_BIT(GTZC_TZSC->SECCFGR2, TZSC_SECCFGR2_ALL);
 c002eb0:	4b44      	ldr	r3, [pc, #272]	; (c002fc4 <HAL_GTZC_TZSC_ConfigPeriphAttributes+0x1a4>)
 c002eb2:	695b      	ldr	r3, [r3, #20]
 c002eb4:	4a43      	ldr	r2, [pc, #268]	; (c002fc4 <HAL_GTZC_TZSC_ConfigPeriphAttributes+0x1a4>)
 c002eb6:	0cdb      	lsrs	r3, r3, #19
 c002eb8:	04db      	lsls	r3, r3, #19
 c002eba:	6153      	str	r3, [r2, #20]
      /* do nothing */
    }
#endif /* defined(__ARM_FEATURE_CMSE) && (__ARM_FEATURE_CMSE == 3U) */

    /* privilege configuration */
    if ((PeriphAttributes & GTZC_TZSC_PERIPH_PRIV) == GTZC_TZSC_PERIPH_PRIV)
 c002ebc:	683a      	ldr	r2, [r7, #0]
 c002ebe:	f240 2302 	movw	r3, #514	; 0x202
 c002ec2:	4013      	ands	r3, r2
 c002ec4:	f240 2202 	movw	r2, #514	; 0x202
 c002ec8:	4293      	cmp	r3, r2
 c002eca:	d10e      	bne.n	c002eea <HAL_GTZC_TZSC_ConfigPeriphAttributes+0xca>
    {
      SET_BIT(GTZC_TZSC->PRIVCFGR1, TZSC_PRIVCFGR1_ALL);
 c002ecc:	4b3d      	ldr	r3, [pc, #244]	; (c002fc4 <HAL_GTZC_TZSC_ConfigPeriphAttributes+0x1a4>)
 c002ece:	6a1b      	ldr	r3, [r3, #32]
 c002ed0:	4b3c      	ldr	r3, [pc, #240]	; (c002fc4 <HAL_GTZC_TZSC_ConfigPeriphAttributes+0x1a4>)
 c002ed2:	f04f 32ff 	mov.w	r2, #4294967295
 c002ed6:	621a      	str	r2, [r3, #32]
      SET_BIT(GTZC_TZSC->PRIVCFGR2, TZSC_PRIVCFGR2_ALL);
 c002ed8:	4b3a      	ldr	r3, [pc, #232]	; (c002fc4 <HAL_GTZC_TZSC_ConfigPeriphAttributes+0x1a4>)
 c002eda:	6a5b      	ldr	r3, [r3, #36]	; 0x24
 c002edc:	4a39      	ldr	r2, [pc, #228]	; (c002fc4 <HAL_GTZC_TZSC_ConfigPeriphAttributes+0x1a4>)
 c002ede:	ea6f 43d3 	mvn.w	r3, r3, lsr #19
 c002ee2:	ea6f 43c3 	mvn.w	r3, r3, lsl #19
 c002ee6:	6253      	str	r3, [r2, #36]	; 0x24
 c002ee8:	e064      	b.n	c002fb4 <HAL_GTZC_TZSC_ConfigPeriphAttributes+0x194>
    }
    else if ((PeriphAttributes & GTZC_TZSC_PERIPH_NPRIV) == GTZC_TZSC_PERIPH_NPRIV)
 c002eea:	683b      	ldr	r3, [r7, #0]
 c002eec:	f403 7300 	and.w	r3, r3, #512	; 0x200
 c002ef0:	2b00      	cmp	r3, #0
 c002ef2:	d05f      	beq.n	c002fb4 <HAL_GTZC_TZSC_ConfigPeriphAttributes+0x194>
    {
      CLEAR_BIT(GTZC_TZSC->PRIVCFGR1, TZSC_PRIVCFGR1_ALL);
 c002ef4:	4b33      	ldr	r3, [pc, #204]	; (c002fc4 <HAL_GTZC_TZSC_ConfigPeriphAttributes+0x1a4>)
 c002ef6:	6a1b      	ldr	r3, [r3, #32]
 c002ef8:	4b32      	ldr	r3, [pc, #200]	; (c002fc4 <HAL_GTZC_TZSC_ConfigPeriphAttributes+0x1a4>)
 c002efa:	2200      	movs	r2, #0
 c002efc:	621a      	str	r2, [r3, #32]
      CLEAR_BIT(GTZC_TZSC->PRIVCFGR2, TZSC_PRIVCFGR2_ALL);
 c002efe:	4b31      	ldr	r3, [pc, #196]	; (c002fc4 <HAL_GTZC_TZSC_ConfigPeriphAttributes+0x1a4>)
 c002f00:	6a5b      	ldr	r3, [r3, #36]	; 0x24
 c002f02:	4a30      	ldr	r2, [pc, #192]	; (c002fc4 <HAL_GTZC_TZSC_ConfigPeriphAttributes+0x1a4>)
 c002f04:	0cdb      	lsrs	r3, r3, #19
 c002f06:	04db      	lsls	r3, r3, #19
 c002f08:	6253      	str	r3, [r2, #36]	; 0x24
 c002f0a:	e053      	b.n	c002fb4 <HAL_GTZC_TZSC_ConfigPeriphAttributes+0x194>
  {
    /* common case where only one peripheral is configured */

#if defined(__ARM_FEATURE_CMSE) && (__ARM_FEATURE_CMSE == 3U)
    /* secure configuration */
    register_address = (uint32_t) &(GTZC_TZSC->SECCFGR1) + (4U * GTZC_GET_REG_INDEX(PeriphId));
 c002f0c:	687b      	ldr	r3, [r7, #4]
 c002f0e:	0f1a      	lsrs	r2, r3, #28
 c002f10:	4b2d      	ldr	r3, [pc, #180]	; (c002fc8 <HAL_GTZC_TZSC_ConfigPeriphAttributes+0x1a8>)
 c002f12:	4413      	add	r3, r2
 c002f14:	009b      	lsls	r3, r3, #2
 c002f16:	60fb      	str	r3, [r7, #12]
    if ((PeriphAttributes & GTZC_TZSC_PERIPH_SEC) == GTZC_TZSC_PERIPH_SEC)
 c002f18:	683a      	ldr	r2, [r7, #0]
 c002f1a:	f240 1301 	movw	r3, #257	; 0x101
 c002f1e:	4013      	ands	r3, r2
 c002f20:	f240 1201 	movw	r2, #257	; 0x101
 c002f24:	4293      	cmp	r3, r2
 c002f26:	d10a      	bne.n	c002f3e <HAL_GTZC_TZSC_ConfigPeriphAttributes+0x11e>
    {
      SET_BIT(*(__IO uint32_t *)register_address, 1UL << GTZC_GET_PERIPH_POS(PeriphId));
 c002f28:	68fb      	ldr	r3, [r7, #12]
 c002f2a:	6819      	ldr	r1, [r3, #0]
 c002f2c:	687b      	ldr	r3, [r7, #4]
 c002f2e:	f003 031f 	and.w	r3, r3, #31
 c002f32:	2201      	movs	r2, #1
 c002f34:	409a      	lsls	r2, r3
 c002f36:	68fb      	ldr	r3, [r7, #12]
 c002f38:	430a      	orrs	r2, r1
 c002f3a:	601a      	str	r2, [r3, #0]
 c002f3c:	e010      	b.n	c002f60 <HAL_GTZC_TZSC_ConfigPeriphAttributes+0x140>
    }
    else if ((PeriphAttributes & GTZC_TZSC_PERIPH_NSEC) == GTZC_TZSC_PERIPH_NSEC)
 c002f3e:	683b      	ldr	r3, [r7, #0]
 c002f40:	f403 7380 	and.w	r3, r3, #256	; 0x100
 c002f44:	2b00      	cmp	r3, #0
 c002f46:	d00b      	beq.n	c002f60 <HAL_GTZC_TZSC_ConfigPeriphAttributes+0x140>
    {
      CLEAR_BIT(*(__IO uint32_t *)register_address, 1UL << GTZC_GET_PERIPH_POS(PeriphId));
 c002f48:	68fb      	ldr	r3, [r7, #12]
 c002f4a:	6819      	ldr	r1, [r3, #0]
 c002f4c:	687b      	ldr	r3, [r7, #4]
 c002f4e:	f003 031f 	and.w	r3, r3, #31
 c002f52:	2201      	movs	r2, #1
 c002f54:	fa02 f303 	lsl.w	r3, r2, r3
 c002f58:	43da      	mvns	r2, r3
 c002f5a:	68fb      	ldr	r3, [r7, #12]
 c002f5c:	400a      	ands	r2, r1
 c002f5e:	601a      	str	r2, [r3, #0]
      /* do nothing */
    }
#endif /* defined(__ARM_FEATURE_CMSE) && (__ARM_FEATURE_CMSE == 3U) */

    /* privilege configuration */
    register_address = (uint32_t) &(GTZC_TZSC->PRIVCFGR1) + (4U * GTZC_GET_REG_INDEX(PeriphId));
 c002f60:	687b      	ldr	r3, [r7, #4]
 c002f62:	0f1a      	lsrs	r2, r3, #28
 c002f64:	4b19      	ldr	r3, [pc, #100]	; (c002fcc <HAL_GTZC_TZSC_ConfigPeriphAttributes+0x1ac>)
 c002f66:	4413      	add	r3, r2
 c002f68:	009b      	lsls	r3, r3, #2
 c002f6a:	60fb      	str	r3, [r7, #12]
    if ((PeriphAttributes & GTZC_TZSC_PERIPH_PRIV) == GTZC_TZSC_PERIPH_PRIV)
 c002f6c:	683a      	ldr	r2, [r7, #0]
 c002f6e:	f240 2302 	movw	r3, #514	; 0x202
 c002f72:	4013      	ands	r3, r2
 c002f74:	f240 2202 	movw	r2, #514	; 0x202
 c002f78:	4293      	cmp	r3, r2
 c002f7a:	d10a      	bne.n	c002f92 <HAL_GTZC_TZSC_ConfigPeriphAttributes+0x172>
    {
      SET_BIT(*(__IO uint32_t *)register_address, 1UL << GTZC_GET_PERIPH_POS(PeriphId));
 c002f7c:	68fb      	ldr	r3, [r7, #12]
 c002f7e:	6819      	ldr	r1, [r3, #0]
 c002f80:	687b      	ldr	r3, [r7, #4]
 c002f82:	f003 031f 	and.w	r3, r3, #31
 c002f86:	2201      	movs	r2, #1
 c002f88:	409a      	lsls	r2, r3
 c002f8a:	68fb      	ldr	r3, [r7, #12]
 c002f8c:	430a      	orrs	r2, r1
 c002f8e:	601a      	str	r2, [r3, #0]
 c002f90:	e010      	b.n	c002fb4 <HAL_GTZC_TZSC_ConfigPeriphAttributes+0x194>
    }
    else if ((PeriphAttributes & GTZC_TZSC_PERIPH_NPRIV) == GTZC_TZSC_PERIPH_NPRIV)
 c002f92:	683b      	ldr	r3, [r7, #0]
 c002f94:	f403 7300 	and.w	r3, r3, #512	; 0x200
 c002f98:	2b00      	cmp	r3, #0
 c002f9a:	d00b      	beq.n	c002fb4 <HAL_GTZC_TZSC_ConfigPeriphAttributes+0x194>
    {
      CLEAR_BIT(*(__IO uint32_t *)register_address, 1UL << GTZC_GET_PERIPH_POS(PeriphId));
 c002f9c:	68fb      	ldr	r3, [r7, #12]
 c002f9e:	6819      	ldr	r1, [r3, #0]
 c002fa0:	687b      	ldr	r3, [r7, #4]
 c002fa2:	f003 031f 	and.w	r3, r3, #31
 c002fa6:	2201      	movs	r2, #1
 c002fa8:	fa02 f303 	lsl.w	r3, r2, r3
 c002fac:	43da      	mvns	r2, r3
 c002fae:	68fb      	ldr	r3, [r7, #12]
 c002fb0:	400a      	ands	r2, r1
 c002fb2:	601a      	str	r2, [r3, #0]
    else
    {
      /* do nothing */
    }
  }
  return HAL_OK;
 c002fb4:	2300      	movs	r3, #0
}
 c002fb6:	4618      	mov	r0, r3
 c002fb8:	3714      	adds	r7, #20
 c002fba:	46bd      	mov	sp, r7
 c002fbc:	f85d 7b04 	ldr.w	r7, [sp], #4
 c002fc0:	4770      	bx	lr
 c002fc2:	bf00      	nop
 c002fc4:	50032400 	.word	0x50032400
 c002fc8:	1400c904 	.word	0x1400c904
 c002fcc:	1400c908 	.word	0x1400c908

0c002fd0 <HAL_GTZC_MPCBB_ConfigMem>:
  *         The structure description is available in @ref GTZC_Exported_Types.
  * @retval HAL status.
  */
HAL_StatusTypeDef HAL_GTZC_MPCBB_ConfigMem(uint32_t MemBaseAddress,
                                           const MPCBB_ConfigTypeDef *pMPCBB_desc)
{
 c002fd0:	b480      	push	{r7}
 c002fd2:	b089      	sub	sp, #36	; 0x24
 c002fd4:	af00      	add	r7, sp, #0
 c002fd6:	6078      	str	r0, [r7, #4]
 c002fd8:	6039      	str	r1, [r7, #0]
  uint32_t size_mask;
  uint32_t size_in_superblocks;
  uint32_t i;

  /* check entry parameters */
  if ((!(IS_GTZC_BASE_ADDRESS(SRAM1, MemBaseAddress))
 c002fda:	687b      	ldr	r3, [r7, #4]
 c002fdc:	f1b3 5f00 	cmp.w	r3, #536870912	; 0x20000000
 c002fe0:	d00b      	beq.n	c002ffa <HAL_GTZC_MPCBB_ConfigMem+0x2a>
 c002fe2:	687b      	ldr	r3, [r7, #4]
 c002fe4:	f1b3 5f40 	cmp.w	r3, #805306368	; 0x30000000
 c002fe8:	d007      	beq.n	c002ffa <HAL_GTZC_MPCBB_ConfigMem+0x2a>
       &&  !(IS_GTZC_BASE_ADDRESS(SRAM2, MemBaseAddress)))
 c002fea:	687b      	ldr	r3, [r7, #4]
 c002fec:	4a36      	ldr	r2, [pc, #216]	; (c0030c8 <HAL_GTZC_MPCBB_ConfigMem+0xf8>)
 c002fee:	4293      	cmp	r3, r2
 c002ff0:	d003      	beq.n	c002ffa <HAL_GTZC_MPCBB_ConfigMem+0x2a>
 c002ff2:	687b      	ldr	r3, [r7, #4]
 c002ff4:	4a35      	ldr	r2, [pc, #212]	; (c0030cc <HAL_GTZC_MPCBB_ConfigMem+0xfc>)
 c002ff6:	4293      	cmp	r3, r2
 c002ff8:	d111      	bne.n	c00301e <HAL_GTZC_MPCBB_ConfigMem+0x4e>
      || ((pMPCBB_desc->SecureRWIllegalMode != GTZC_MPCBB_SRWILADIS_ENABLE)
 c002ffa:	683b      	ldr	r3, [r7, #0]
 c002ffc:	681b      	ldr	r3, [r3, #0]
 c002ffe:	2b00      	cmp	r3, #0
 c003000:	d004      	beq.n	c00300c <HAL_GTZC_MPCBB_ConfigMem+0x3c>
          && (pMPCBB_desc->SecureRWIllegalMode != GTZC_MPCBB_SRWILADIS_DISABLE))
 c003002:	683b      	ldr	r3, [r7, #0]
 c003004:	681b      	ldr	r3, [r3, #0]
 c003006:	f1b3 4f00 	cmp.w	r3, #2147483648	; 0x80000000
 c00300a:	d108      	bne.n	c00301e <HAL_GTZC_MPCBB_ConfigMem+0x4e>
      || ((pMPCBB_desc->InvertSecureState != GTZC_MPCBB_INVSECSTATE_NOT_INVERTED)
 c00300c:	683b      	ldr	r3, [r7, #0]
 c00300e:	685b      	ldr	r3, [r3, #4]
 c003010:	2b00      	cmp	r3, #0
 c003012:	d006      	beq.n	c003022 <HAL_GTZC_MPCBB_ConfigMem+0x52>
          && (pMPCBB_desc->InvertSecureState != GTZC_MPCBB_INVSECSTATE_INVERTED)))
 c003014:	683b      	ldr	r3, [r7, #0]
 c003016:	685b      	ldr	r3, [r3, #4]
 c003018:	f1b3 4f80 	cmp.w	r3, #1073741824	; 0x40000000
 c00301c:	d001      	beq.n	c003022 <HAL_GTZC_MPCBB_ConfigMem+0x52>
  {
    return HAL_ERROR;
 c00301e:	2301      	movs	r3, #1
 c003020:	e04b      	b.n	c0030ba <HAL_GTZC_MPCBB_ConfigMem+0xea>
  }

  /* write InvertSecureState and SecureRWIllegalMode properties */
  /* assume their Position/Mask is identical for all sub-blocks */
  reg_value = pMPCBB_desc->InvertSecureState;
 c003022:	683b      	ldr	r3, [r7, #0]
 c003024:	685b      	ldr	r3, [r3, #4]
 c003026:	613b      	str	r3, [r7, #16]
  reg_value |= pMPCBB_desc->SecureRWIllegalMode;
 c003028:	683b      	ldr	r3, [r7, #0]
 c00302a:	681b      	ldr	r3, [r3, #0]
 c00302c:	693a      	ldr	r2, [r7, #16]
 c00302e:	4313      	orrs	r3, r2
 c003030:	613b      	str	r3, [r7, #16]
  if (IS_GTZC_BASE_ADDRESS(SRAM1, MemBaseAddress))
 c003032:	687b      	ldr	r3, [r7, #4]
 c003034:	f1b3 5f00 	cmp.w	r3, #536870912	; 0x20000000
 c003038:	d003      	beq.n	c003042 <HAL_GTZC_MPCBB_ConfigMem+0x72>
 c00303a:	687b      	ldr	r3, [r7, #4]
 c00303c:	f1b3 5f40 	cmp.w	r3, #805306368	; 0x30000000
 c003040:	d105      	bne.n	c00304e <HAL_GTZC_MPCBB_ConfigMem+0x7e>
  {
    mpcbb_ptr = GTZC_MPCBB1_S;
 c003042:	4b23      	ldr	r3, [pc, #140]	; (c0030d0 <HAL_GTZC_MPCBB_ConfigMem+0x100>)
 c003044:	61fb      	str	r3, [r7, #28]
    mem_size = GTZC_MEM_SIZE(SRAM1);
 c003046:	f44f 3340 	mov.w	r3, #196608	; 0x30000
 c00304a:	61bb      	str	r3, [r7, #24]
 c00304c:	e004      	b.n	c003058 <HAL_GTZC_MPCBB_ConfigMem+0x88>
  }
  else
  {
    /* Here MemBaseAddress is inside SRAM2 (already tested) */
    mpcbb_ptr = GTZC_MPCBB2_S;
 c00304e:	4b21      	ldr	r3, [pc, #132]	; (c0030d4 <HAL_GTZC_MPCBB_ConfigMem+0x104>)
 c003050:	61fb      	str	r3, [r7, #28]
    mem_size = GTZC_MEM_SIZE(SRAM2);
 c003052:	f44f 3380 	mov.w	r3, #65536	; 0x10000
 c003056:	61bb      	str	r3, [r7, #24]
  }

  /* write vector register information */
  size_in_superblocks = (mem_size / GTZC_MPCBB_SUPERBLOCK_SIZE);
 c003058:	69bb      	ldr	r3, [r7, #24]
 c00305a:	0b5b      	lsrs	r3, r3, #13
 c00305c:	60fb      	str	r3, [r7, #12]
  for (i = 0U; i < size_in_superblocks; i++)
 c00305e:	2300      	movs	r3, #0
 c003060:	617b      	str	r3, [r7, #20]
 c003062:	e00c      	b.n	c00307e <HAL_GTZC_MPCBB_ConfigMem+0xae>
  {
    WRITE_REG(mpcbb_ptr->VCTR[i],
 c003064:	683b      	ldr	r3, [r7, #0]
 c003066:	697a      	ldr	r2, [r7, #20]
 c003068:	3202      	adds	r2, #2
 c00306a:	f853 1022 	ldr.w	r1, [r3, r2, lsl #2]
 c00306e:	69fb      	ldr	r3, [r7, #28]
 c003070:	697a      	ldr	r2, [r7, #20]
 c003072:	3240      	adds	r2, #64	; 0x40
 c003074:	f843 1022 	str.w	r1, [r3, r2, lsl #2]
  for (i = 0U; i < size_in_superblocks; i++)
 c003078:	697b      	ldr	r3, [r7, #20]
 c00307a:	3301      	adds	r3, #1
 c00307c:	617b      	str	r3, [r7, #20]
 c00307e:	697a      	ldr	r2, [r7, #20]
 c003080:	68fb      	ldr	r3, [r7, #12]
 c003082:	429a      	cmp	r2, r3
 c003084:	d3ee      	bcc.n	c003064 <HAL_GTZC_MPCBB_ConfigMem+0x94>
              pMPCBB_desc->AttributeConfig.MPCBB_SecConfig_array[i]);
  }

  /* write configuration and lock register information */
  MODIFY_REG(mpcbb_ptr->CR,
 c003086:	69fb      	ldr	r3, [r7, #28]
 c003088:	681b      	ldr	r3, [r3, #0]
 c00308a:	f023 4240 	bic.w	r2, r3, #3221225472	; 0xc0000000
 c00308e:	693b      	ldr	r3, [r7, #16]
 c003090:	431a      	orrs	r2, r3
 c003092:	69fb      	ldr	r3, [r7, #28]
 c003094:	601a      	str	r2, [r3, #0]
             GTZC_MPCBB_CR_INVSECSTATE_Msk | GTZC_MPCBB_CR_SRWILADIS_Msk, reg_value);

  size_mask = (1UL << (mem_size / GTZC_MPCBB_SUPERBLOCK_SIZE)) - 1U;
 c003096:	69bb      	ldr	r3, [r7, #24]
 c003098:	0b5b      	lsrs	r3, r3, #13
 c00309a:	2201      	movs	r2, #1
 c00309c:	fa02 f303 	lsl.w	r3, r2, r3
 c0030a0:	3b01      	subs	r3, #1
 c0030a2:	60bb      	str	r3, [r7, #8]
  /* limitation: code not portable with memory > 256K */
  MODIFY_REG(mpcbb_ptr->LCKVTR1, size_mask, pMPCBB_desc->AttributeConfig.MPCBB_LockConfig_array[0]);
 c0030a4:	69fb      	ldr	r3, [r7, #28]
 c0030a6:	691a      	ldr	r2, [r3, #16]
 c0030a8:	68bb      	ldr	r3, [r7, #8]
 c0030aa:	43db      	mvns	r3, r3
 c0030ac:	401a      	ands	r2, r3
 c0030ae:	683b      	ldr	r3, [r7, #0]
 c0030b0:	6e9b      	ldr	r3, [r3, #104]	; 0x68
 c0030b2:	431a      	orrs	r2, r3
 c0030b4:	69fb      	ldr	r3, [r7, #28]
 c0030b6:	611a      	str	r2, [r3, #16]

  return HAL_OK;
 c0030b8:	2300      	movs	r3, #0
}
 c0030ba:	4618      	mov	r0, r3
 c0030bc:	3724      	adds	r7, #36	; 0x24
 c0030be:	46bd      	mov	sp, r7
 c0030c0:	f85d 7b04 	ldr.w	r7, [sp], #4
 c0030c4:	4770      	bx	lr
 c0030c6:	bf00      	nop
 c0030c8:	20030000 	.word	0x20030000
 c0030cc:	30030000 	.word	0x30030000
 c0030d0:	50032c00 	.word	0x50032c00
 c0030d4:	50033000 	.word	0x50033000

0c0030d8 <HAL_HASH_Init>:
  *         relevant APIs manage themselves the MDMAT bit.
  * @param  hhash HASH handle
  * @retval HAL status
  */
HAL_StatusTypeDef HAL_HASH_Init(HASH_HandleTypeDef *hhash)
{
 c0030d8:	b580      	push	{r7, lr}
 c0030da:	b082      	sub	sp, #8
 c0030dc:	af00      	add	r7, sp, #0
 c0030de:	6078      	str	r0, [r7, #4]
  /* Check the hash handle allocation */
  if (hhash == NULL)
 c0030e0:	687b      	ldr	r3, [r7, #4]
 c0030e2:	2b00      	cmp	r3, #0
 c0030e4:	d101      	bne.n	c0030ea <HAL_HASH_Init+0x12>
  {
    return HAL_ERROR;
 c0030e6:	2301      	movs	r3, #1
 c0030e8:	e043      	b.n	c003172 <HAL_HASH_Init+0x9a>

    /* Init the low level hardware */
    hhash->MspInitCallback(hhash);
  }
#else
  if (hhash->State == HAL_HASH_STATE_RESET)
 c0030ea:	687b      	ldr	r3, [r7, #4]
 c0030ec:	f893 3035 	ldrb.w	r3, [r3, #53]	; 0x35
 c0030f0:	b2db      	uxtb	r3, r3
 c0030f2:	2b00      	cmp	r3, #0
 c0030f4:	d106      	bne.n	c003104 <HAL_HASH_Init+0x2c>
  {
    /* Allocate lock resource and initialize it */
    hhash->Lock = HAL_UNLOCKED;
 c0030f6:	687b      	ldr	r3, [r7, #4]
 c0030f8:	2200      	movs	r2, #0
 c0030fa:	f883 2034 	strb.w	r2, [r3, #52]	; 0x34

    /* Init the low level hardware */
    HAL_HASH_MspInit(hhash);
 c0030fe:	6878      	ldr	r0, [r7, #4]
 c003100:	f7fe fb44 	bl	c00178c <HAL_HASH_MspInit>
  }
#endif /* (USE_HAL_HASH_REGISTER_CALLBACKS) */

  /* Change the HASH state */
  hhash->State = HAL_HASH_STATE_BUSY;
 c003104:	687b      	ldr	r3, [r7, #4]
 c003106:	2202      	movs	r2, #2
 c003108:	f883 2035 	strb.w	r2, [r3, #53]	; 0x35

  /* Reset HashInCount, HashITCounter, HashBuffSize and NbWordsAlreadyPushed */
  hhash->HashInCount = 0;
 c00310c:	687b      	ldr	r3, [r7, #4]
 c00310e:	2200      	movs	r2, #0
 c003110:	621a      	str	r2, [r3, #32]
  hhash->HashBuffSize = 0;
 c003112:	687b      	ldr	r3, [r7, #4]
 c003114:	2200      	movs	r2, #0
 c003116:	61da      	str	r2, [r3, #28]
  hhash->HashITCounter = 0;
 c003118:	687b      	ldr	r3, [r7, #4]
 c00311a:	2200      	movs	r2, #0
 c00311c:	625a      	str	r2, [r3, #36]	; 0x24
  hhash->NbWordsAlreadyPushed = 0;
 c00311e:	687b      	ldr	r3, [r7, #4]
 c003120:	2200      	movs	r2, #0
 c003122:	639a      	str	r2, [r3, #56]	; 0x38
  /* Reset digest calculation bridle (MDMAT bit control) */
  hhash->DigestCalculationDisable = RESET;
 c003124:	687b      	ldr	r3, [r7, #4]
 c003126:	2200      	movs	r2, #0
 c003128:	f883 2037 	strb.w	r2, [r3, #55]	; 0x37
  /* Set phase to READY */
  hhash->Phase = HAL_HASH_PHASE_READY;
 c00312c:	687b      	ldr	r3, [r7, #4]
 c00312e:	2201      	movs	r2, #1
 c003130:	f883 202d 	strb.w	r2, [r3, #45]	; 0x2d
  /* Reset suspension request flag */
  hhash->SuspendRequest = HAL_HASH_SUSPEND_NONE;
 c003134:	687b      	ldr	r3, [r7, #4]
 c003136:	2200      	movs	r2, #0
 c003138:	f883 2036 	strb.w	r2, [r3, #54]	; 0x36

  /* Set the data type bit */
  MODIFY_REG(HASH->CR, HASH_CR_DATATYPE, hhash->Init.DataType);
 c00313c:	4b0f      	ldr	r3, [pc, #60]	; (c00317c <HAL_HASH_Init+0xa4>)
 c00313e:	681b      	ldr	r3, [r3, #0]
 c003140:	f023 0230 	bic.w	r2, r3, #48	; 0x30
 c003144:	687b      	ldr	r3, [r7, #4]
 c003146:	681b      	ldr	r3, [r3, #0]
 c003148:	490c      	ldr	r1, [pc, #48]	; (c00317c <HAL_HASH_Init+0xa4>)
 c00314a:	4313      	orrs	r3, r2
 c00314c:	600b      	str	r3, [r1, #0]
  /* Reset MDMAT bit */
  __HAL_HASH_RESET_MDMAT();
 c00314e:	4b0b      	ldr	r3, [pc, #44]	; (c00317c <HAL_HASH_Init+0xa4>)
 c003150:	681b      	ldr	r3, [r3, #0]
 c003152:	4a0a      	ldr	r2, [pc, #40]	; (c00317c <HAL_HASH_Init+0xa4>)
 c003154:	f423 5300 	bic.w	r3, r3, #8192	; 0x2000
 c003158:	6013      	str	r3, [r2, #0]
  /* Reset HASH handle status */
  hhash->Status = HAL_OK;
 c00315a:	687b      	ldr	r3, [r7, #4]
 c00315c:	2200      	movs	r2, #0
 c00315e:	f883 202c 	strb.w	r2, [r3, #44]	; 0x2c

  /* Set the HASH state to Ready */
  hhash->State = HAL_HASH_STATE_READY;
 c003162:	687b      	ldr	r3, [r7, #4]
 c003164:	2201      	movs	r2, #1
 c003166:	f883 2035 	strb.w	r2, [r3, #53]	; 0x35

  /* Initialise the error code */
  hhash->ErrorCode = HAL_HASH_ERROR_NONE;
 c00316a:	687b      	ldr	r3, [r7, #4]
 c00316c:	2200      	movs	r2, #0
 c00316e:	63da      	str	r2, [r3, #60]	; 0x3c

  /* Return function status */
  return HAL_OK;
 c003170:	2300      	movs	r3, #0
}
 c003172:	4618      	mov	r0, r3
 c003174:	3708      	adds	r7, #8
 c003176:	46bd      	mov	sp, r7
 c003178:	bd80      	pop	{r7, pc}
 c00317a:	bf00      	nop
 c00317c:	520c0400 	.word	0x520c0400

0c003180 <HAL_HASH_MD5_Start>:
  * @param  Timeout Timeout value
  * @retval HAL status
  */
HAL_StatusTypeDef HAL_HASH_MD5_Start(HASH_HandleTypeDef *hhash, uint8_t *pInBuffer, uint32_t Size, uint8_t *pOutBuffer,
                                     uint32_t Timeout)
{
 c003180:	b580      	push	{r7, lr}
 c003182:	b086      	sub	sp, #24
 c003184:	af02      	add	r7, sp, #8
 c003186:	60f8      	str	r0, [r7, #12]
 c003188:	60b9      	str	r1, [r7, #8]
 c00318a:	607a      	str	r2, [r7, #4]
 c00318c:	603b      	str	r3, [r7, #0]
  return HASH_Start(hhash, pInBuffer, Size, pOutBuffer, Timeout, HASH_ALGOSELECTION_MD5);
 c00318e:	2380      	movs	r3, #128	; 0x80
 c003190:	9301      	str	r3, [sp, #4]
 c003192:	69bb      	ldr	r3, [r7, #24]
 c003194:	9300      	str	r3, [sp, #0]
 c003196:	683b      	ldr	r3, [r7, #0]
 c003198:	687a      	ldr	r2, [r7, #4]
 c00319a:	68b9      	ldr	r1, [r7, #8]
 c00319c:	68f8      	ldr	r0, [r7, #12]
 c00319e:	f000 fa21 	bl	c0035e4 <HASH_Start>
 c0031a2:	4603      	mov	r3, r0
}
 c0031a4:	4618      	mov	r0, r3
 c0031a6:	3710      	adds	r7, #16
 c0031a8:	46bd      	mov	sp, r7
 c0031aa:	bd80      	pop	{r7, pc}

0c0031ac <HASH_WriteData>:
  *         processing is suspended when possible and the Peripheral feeding point reached at
  *         suspension time is stored in the handle for resumption later on.
  * @retval HAL status
  */
static HAL_StatusTypeDef HASH_WriteData(HASH_HandleTypeDef *hhash, uint8_t *pInBuffer, uint32_t Size)
{
 c0031ac:	b480      	push	{r7}
 c0031ae:	b087      	sub	sp, #28
 c0031b0:	af00      	add	r7, sp, #0
 c0031b2:	60f8      	str	r0, [r7, #12]
 c0031b4:	60b9      	str	r1, [r7, #8]
 c0031b6:	607a      	str	r2, [r7, #4]
  uint32_t buffercounter;
  __IO uint32_t inputaddr = (uint32_t) pInBuffer;
 c0031b8:	68bb      	ldr	r3, [r7, #8]
 c0031ba:	613b      	str	r3, [r7, #16]

  for (buffercounter = 0U; buffercounter < Size; buffercounter += 4U)
 c0031bc:	2300      	movs	r3, #0
 c0031be:	617b      	str	r3, [r7, #20]
 c0031c0:	e057      	b.n	c003272 <HASH_WriteData+0xc6>
  {
    /* Write input data 4 bytes at a time */
    HASH->DIN = *(uint32_t *)inputaddr;
 c0031c2:	693b      	ldr	r3, [r7, #16]
 c0031c4:	4a30      	ldr	r2, [pc, #192]	; (c003288 <HASH_WriteData+0xdc>)
 c0031c6:	681b      	ldr	r3, [r3, #0]
 c0031c8:	6053      	str	r3, [r2, #4]
    inputaddr += 4U;
 c0031ca:	693b      	ldr	r3, [r7, #16]
 c0031cc:	3304      	adds	r3, #4
 c0031ce:	613b      	str	r3, [r7, #16]

    /* If the suspension flag has been raised and if the processing is not about
    to end, suspend processing */
    if ((hhash->SuspendRequest == HAL_HASH_SUSPEND) && ((buffercounter + 4U) < Size))
 c0031d0:	68fb      	ldr	r3, [r7, #12]
 c0031d2:	f893 3036 	ldrb.w	r3, [r3, #54]	; 0x36
 c0031d6:	2b01      	cmp	r3, #1
 c0031d8:	d148      	bne.n	c00326c <HASH_WriteData+0xc0>
 c0031da:	697b      	ldr	r3, [r7, #20]
 c0031dc:	3304      	adds	r3, #4
 c0031de:	687a      	ldr	r2, [r7, #4]
 c0031e0:	429a      	cmp	r2, r3
 c0031e2:	d943      	bls.n	c00326c <HASH_WriteData+0xc0>
    {
      /* Wait for DINIS = 1, which occurs when 16 32-bit locations are free
      in the input buffer */
      if (__HAL_HASH_GET_FLAG(HASH_FLAG_DINIS))
 c0031e4:	4b28      	ldr	r3, [pc, #160]	; (c003288 <HASH_WriteData+0xdc>)
 c0031e6:	6a5b      	ldr	r3, [r3, #36]	; 0x24
 c0031e8:	f003 0301 	and.w	r3, r3, #1
 c0031ec:	2b01      	cmp	r3, #1
 c0031ee:	d13d      	bne.n	c00326c <HASH_WriteData+0xc0>
      {
        /* Reset SuspendRequest */
        hhash->SuspendRequest = HAL_HASH_SUSPEND_NONE;
 c0031f0:	68fb      	ldr	r3, [r7, #12]
 c0031f2:	2200      	movs	r2, #0
 c0031f4:	f883 2036 	strb.w	r2, [r3, #54]	; 0x36

        /* Depending whether the key or the input data were fed to the Peripheral, the feeding point
        reached at suspension time is not saved in the same handle fields */
        if ((hhash->Phase == HAL_HASH_PHASE_PROCESS) || (hhash->Phase == HAL_HASH_PHASE_HMAC_STEP_2))
 c0031f8:	68fb      	ldr	r3, [r7, #12]
 c0031fa:	f893 302d 	ldrb.w	r3, [r3, #45]	; 0x2d
 c0031fe:	2b02      	cmp	r3, #2
 c003200:	d004      	beq.n	c00320c <HASH_WriteData+0x60>
 c003202:	68fb      	ldr	r3, [r7, #12]
 c003204:	f893 302d 	ldrb.w	r3, [r3, #45]	; 0x2d
 c003208:	2b04      	cmp	r3, #4
 c00320a:	d10a      	bne.n	c003222 <HASH_WriteData+0x76>
        {
          /* Save current reading and writing locations of Input and Output buffers */
          hhash->pHashInBuffPtr = (uint8_t *)inputaddr;
 c00320c:	693b      	ldr	r3, [r7, #16]
 c00320e:	461a      	mov	r2, r3
 c003210:	68fb      	ldr	r3, [r7, #12]
 c003212:	60da      	str	r2, [r3, #12]
          /* Save the number of bytes that remain to be processed at this point */
          hhash->HashInCount    =  Size - (buffercounter + 4U);
 c003214:	687a      	ldr	r2, [r7, #4]
 c003216:	697b      	ldr	r3, [r7, #20]
 c003218:	1ad3      	subs	r3, r2, r3
 c00321a:	1f1a      	subs	r2, r3, #4
 c00321c:	68fb      	ldr	r3, [r7, #12]
 c00321e:	621a      	str	r2, [r3, #32]
 c003220:	e01e      	b.n	c003260 <HASH_WriteData+0xb4>
        }
        else if ((hhash->Phase == HAL_HASH_PHASE_HMAC_STEP_1) || (hhash->Phase == HAL_HASH_PHASE_HMAC_STEP_3))
 c003222:	68fb      	ldr	r3, [r7, #12]
 c003224:	f893 302d 	ldrb.w	r3, [r3, #45]	; 0x2d
 c003228:	2b03      	cmp	r3, #3
 c00322a:	d004      	beq.n	c003236 <HASH_WriteData+0x8a>
 c00322c:	68fb      	ldr	r3, [r7, #12]
 c00322e:	f893 302d 	ldrb.w	r3, [r3, #45]	; 0x2d
 c003232:	2b05      	cmp	r3, #5
 c003234:	d10a      	bne.n	c00324c <HASH_WriteData+0xa0>
        {
          /* Save current reading and writing locations of Input and Output buffers */
          hhash->pHashKeyBuffPtr  = (uint8_t *)inputaddr;
 c003236:	693b      	ldr	r3, [r7, #16]
 c003238:	461a      	mov	r2, r3
 c00323a:	68fb      	ldr	r3, [r7, #12]
 c00323c:	615a      	str	r2, [r3, #20]
          /* Save the number of bytes that remain to be processed at this point */
          hhash->HashKeyCount  =  Size - (buffercounter + 4U);
 c00323e:	687a      	ldr	r2, [r7, #4]
 c003240:	697b      	ldr	r3, [r7, #20]
 c003242:	1ad3      	subs	r3, r2, r3
 c003244:	1f1a      	subs	r2, r3, #4
 c003246:	68fb      	ldr	r3, [r7, #12]
 c003248:	629a      	str	r2, [r3, #40]	; 0x28
 c00324a:	e009      	b.n	c003260 <HASH_WriteData+0xb4>
        }
        else
        {
          /* Unexpected phase: unlock process and report error */
          hhash->State = HAL_HASH_STATE_READY;
 c00324c:	68fb      	ldr	r3, [r7, #12]
 c00324e:	2201      	movs	r2, #1
 c003250:	f883 2035 	strb.w	r2, [r3, #53]	; 0x35
          __HAL_UNLOCK(hhash);
 c003254:	68fb      	ldr	r3, [r7, #12]
 c003256:	2200      	movs	r2, #0
 c003258:	f883 2034 	strb.w	r2, [r3, #52]	; 0x34
          return HAL_ERROR;
 c00325c:	2301      	movs	r3, #1
 c00325e:	e00d      	b.n	c00327c <HASH_WriteData+0xd0>
        }

        /* Set the HASH state to Suspended and exit to stop entering data */
        hhash->State = HAL_HASH_STATE_SUSPENDED;
 c003260:	68fb      	ldr	r3, [r7, #12]
 c003262:	2208      	movs	r2, #8
 c003264:	f883 2035 	strb.w	r2, [r3, #53]	; 0x35

        return HAL_OK;
 c003268:	2300      	movs	r3, #0
 c00326a:	e007      	b.n	c00327c <HASH_WriteData+0xd0>
  for (buffercounter = 0U; buffercounter < Size; buffercounter += 4U)
 c00326c:	697b      	ldr	r3, [r7, #20]
 c00326e:	3304      	adds	r3, #4
 c003270:	617b      	str	r3, [r7, #20]
 c003272:	697a      	ldr	r2, [r7, #20]
 c003274:	687b      	ldr	r3, [r7, #4]
 c003276:	429a      	cmp	r2, r3
 c003278:	d3a3      	bcc.n	c0031c2 <HASH_WriteData+0x16>
      } /* if (__HAL_HASH_GET_FLAG(HASH_FLAG_DINIS))  */
    } /* if ((hhash->SuspendRequest == HAL_HASH_SUSPEND) && ((buffercounter+4) < Size)) */
  }   /* for(buffercounter = 0; buffercounter < Size; buffercounter+=4)                 */

  /* At this point, all the data have been entered to the Peripheral: exit */
  return  HAL_OK;
 c00327a:	2300      	movs	r3, #0
}
 c00327c:	4618      	mov	r0, r3
 c00327e:	371c      	adds	r7, #28
 c003280:	46bd      	mov	sp, r7
 c003282:	f85d 7b04 	ldr.w	r7, [sp], #4
 c003286:	4770      	bx	lr
 c003288:	520c0400 	.word	0x520c0400

0c00328c <HASH_GetDigest>:
  * @param  pMsgDigest pointer to the computed digest.
  * @param  Size message digest size in bytes.
  * @retval None
  */
static void HASH_GetDigest(uint8_t *pMsgDigest, uint8_t Size)
{
 c00328c:	b480      	push	{r7}
 c00328e:	b09d      	sub	sp, #116	; 0x74
 c003290:	af00      	add	r7, sp, #0
 c003292:	6078      	str	r0, [r7, #4]
 c003294:	460b      	mov	r3, r1
 c003296:	70fb      	strb	r3, [r7, #3]
  uint32_t msgdigest = (uint32_t)pMsgDigest;
 c003298:	687b      	ldr	r3, [r7, #4]
 c00329a:	66fb      	str	r3, [r7, #108]	; 0x6c

  switch (Size)
 c00329c:	78fb      	ldrb	r3, [r7, #3]
 c00329e:	3b10      	subs	r3, #16
 c0032a0:	2b10      	cmp	r3, #16
 c0032a2:	f200 810d 	bhi.w	c0034c0 <HASH_GetDigest+0x234>
 c0032a6:	a201      	add	r2, pc, #4	; (adr r2, c0032ac <HASH_GetDigest+0x20>)
 c0032a8:	f852 f023 	ldr.w	pc, [r2, r3, lsl #2]
 c0032ac:	0c0032f1 	.word	0x0c0032f1
 c0032b0:	0c0034c1 	.word	0x0c0034c1
 c0032b4:	0c0034c1 	.word	0x0c0034c1
 c0032b8:	0c0034c1 	.word	0x0c0034c1
 c0032bc:	0c00333d 	.word	0x0c00333d
 c0032c0:	0c0034c1 	.word	0x0c0034c1
 c0032c4:	0c0034c1 	.word	0x0c0034c1
 c0032c8:	0c0034c1 	.word	0x0c0034c1
 c0032cc:	0c0034c1 	.word	0x0c0034c1
 c0032d0:	0c0034c1 	.word	0x0c0034c1
 c0032d4:	0c0034c1 	.word	0x0c0034c1
 c0032d8:	0c0034c1 	.word	0x0c0034c1
 c0032dc:	0c00339d 	.word	0x0c00339d
 c0032e0:	0c0034c1 	.word	0x0c0034c1
 c0032e4:	0c0034c1 	.word	0x0c0034c1
 c0032e8:	0c0034c1 	.word	0x0c0034c1
 c0032ec:	0c003425 	.word	0x0c003425
  {
    /* Read the message digest */
    case 16:  /* MD5 */
      *(uint32_t *)(msgdigest) = __REV(HASH->HR[0]);
 c0032f0:	4b77      	ldr	r3, [pc, #476]	; (c0034d0 <HASH_GetDigest+0x244>)
 c0032f2:	68da      	ldr	r2, [r3, #12]
 c0032f4:	6efb      	ldr	r3, [r7, #108]	; 0x6c
 c0032f6:	65fa      	str	r2, [r7, #92]	; 0x5c
  \return               Reversed value
 */
__STATIC_FORCEINLINE uint32_t __REV(uint32_t value)
{
#if (__GNUC__ > 4) || (__GNUC__ == 4 && __GNUC_MINOR__ >= 5)
  return __builtin_bswap32(value);
 c0032f8:	6dfa      	ldr	r2, [r7, #92]	; 0x5c
 c0032fa:	ba12      	rev	r2, r2
 c0032fc:	601a      	str	r2, [r3, #0]
      msgdigest += 4U;
 c0032fe:	6efb      	ldr	r3, [r7, #108]	; 0x6c
 c003300:	3304      	adds	r3, #4
 c003302:	66fb      	str	r3, [r7, #108]	; 0x6c
      *(uint32_t *)(msgdigest) = __REV(HASH->HR[1]);
 c003304:	4b72      	ldr	r3, [pc, #456]	; (c0034d0 <HASH_GetDigest+0x244>)
 c003306:	691a      	ldr	r2, [r3, #16]
 c003308:	6efb      	ldr	r3, [r7, #108]	; 0x6c
 c00330a:	663a      	str	r2, [r7, #96]	; 0x60
 c00330c:	6e3a      	ldr	r2, [r7, #96]	; 0x60
 c00330e:	ba12      	rev	r2, r2
 c003310:	601a      	str	r2, [r3, #0]
      msgdigest += 4U;
 c003312:	6efb      	ldr	r3, [r7, #108]	; 0x6c
 c003314:	3304      	adds	r3, #4
 c003316:	66fb      	str	r3, [r7, #108]	; 0x6c
      *(uint32_t *)(msgdigest) = __REV(HASH->HR[2]);
 c003318:	4b6d      	ldr	r3, [pc, #436]	; (c0034d0 <HASH_GetDigest+0x244>)
 c00331a:	695a      	ldr	r2, [r3, #20]
 c00331c:	6efb      	ldr	r3, [r7, #108]	; 0x6c
 c00331e:	667a      	str	r2, [r7, #100]	; 0x64
 c003320:	6e7a      	ldr	r2, [r7, #100]	; 0x64
 c003322:	ba12      	rev	r2, r2
 c003324:	601a      	str	r2, [r3, #0]
      msgdigest += 4U;
 c003326:	6efb      	ldr	r3, [r7, #108]	; 0x6c
 c003328:	3304      	adds	r3, #4
 c00332a:	66fb      	str	r3, [r7, #108]	; 0x6c
      *(uint32_t *)(msgdigest) = __REV(HASH->HR[3]);
 c00332c:	4b68      	ldr	r3, [pc, #416]	; (c0034d0 <HASH_GetDigest+0x244>)
 c00332e:	699a      	ldr	r2, [r3, #24]
 c003330:	6efb      	ldr	r3, [r7, #108]	; 0x6c
 c003332:	66ba      	str	r2, [r7, #104]	; 0x68
 c003334:	6eba      	ldr	r2, [r7, #104]	; 0x68
 c003336:	ba12      	rev	r2, r2
 c003338:	601a      	str	r2, [r3, #0]
      break;
 c00333a:	e0c2      	b.n	c0034c2 <HASH_GetDigest+0x236>
    case 20:  /* SHA1 */
      *(uint32_t *)(msgdigest) = __REV(HASH->HR[0]);
 c00333c:	4b64      	ldr	r3, [pc, #400]	; (c0034d0 <HASH_GetDigest+0x244>)
 c00333e:	68da      	ldr	r2, [r3, #12]
 c003340:	6efb      	ldr	r3, [r7, #108]	; 0x6c
 c003342:	64ba      	str	r2, [r7, #72]	; 0x48
 c003344:	6cba      	ldr	r2, [r7, #72]	; 0x48
 c003346:	ba12      	rev	r2, r2
 c003348:	601a      	str	r2, [r3, #0]
      msgdigest += 4U;
 c00334a:	6efb      	ldr	r3, [r7, #108]	; 0x6c
 c00334c:	3304      	adds	r3, #4
 c00334e:	66fb      	str	r3, [r7, #108]	; 0x6c
      *(uint32_t *)(msgdigest) = __REV(HASH->HR[1]);
 c003350:	4b5f      	ldr	r3, [pc, #380]	; (c0034d0 <HASH_GetDigest+0x244>)
 c003352:	691a      	ldr	r2, [r3, #16]
 c003354:	6efb      	ldr	r3, [r7, #108]	; 0x6c
 c003356:	64fa      	str	r2, [r7, #76]	; 0x4c
 c003358:	6cfa      	ldr	r2, [r7, #76]	; 0x4c
 c00335a:	ba12      	rev	r2, r2
 c00335c:	601a      	str	r2, [r3, #0]
      msgdigest += 4U;
 c00335e:	6efb      	ldr	r3, [r7, #108]	; 0x6c
 c003360:	3304      	adds	r3, #4
 c003362:	66fb      	str	r3, [r7, #108]	; 0x6c
      *(uint32_t *)(msgdigest) = __REV(HASH->HR[2]);
 c003364:	4b5a      	ldr	r3, [pc, #360]	; (c0034d0 <HASH_GetDigest+0x244>)
 c003366:	695a      	ldr	r2, [r3, #20]
 c003368:	6efb      	ldr	r3, [r7, #108]	; 0x6c
 c00336a:	653a      	str	r2, [r7, #80]	; 0x50
 c00336c:	6d3a      	ldr	r2, [r7, #80]	; 0x50
 c00336e:	ba12      	rev	r2, r2
 c003370:	601a      	str	r2, [r3, #0]
      msgdigest += 4U;
 c003372:	6efb      	ldr	r3, [r7, #108]	; 0x6c
 c003374:	3304      	adds	r3, #4
 c003376:	66fb      	str	r3, [r7, #108]	; 0x6c
      *(uint32_t *)(msgdigest) = __REV(HASH->HR[3]);
 c003378:	4b55      	ldr	r3, [pc, #340]	; (c0034d0 <HASH_GetDigest+0x244>)
 c00337a:	699a      	ldr	r2, [r3, #24]
 c00337c:	6efb      	ldr	r3, [r7, #108]	; 0x6c
 c00337e:	657a      	str	r2, [r7, #84]	; 0x54
 c003380:	6d7a      	ldr	r2, [r7, #84]	; 0x54
 c003382:	ba12      	rev	r2, r2
 c003384:	601a      	str	r2, [r3, #0]
      msgdigest += 4U;
 c003386:	6efb      	ldr	r3, [r7, #108]	; 0x6c
 c003388:	3304      	adds	r3, #4
 c00338a:	66fb      	str	r3, [r7, #108]	; 0x6c
      *(uint32_t *)(msgdigest) = __REV(HASH->HR[4]);
 c00338c:	4b50      	ldr	r3, [pc, #320]	; (c0034d0 <HASH_GetDigest+0x244>)
 c00338e:	69da      	ldr	r2, [r3, #28]
 c003390:	6efb      	ldr	r3, [r7, #108]	; 0x6c
 c003392:	65ba      	str	r2, [r7, #88]	; 0x58
 c003394:	6dba      	ldr	r2, [r7, #88]	; 0x58
 c003396:	ba12      	rev	r2, r2
 c003398:	601a      	str	r2, [r3, #0]
      break;
 c00339a:	e092      	b.n	c0034c2 <HASH_GetDigest+0x236>
    case 28:  /* SHA224 */
      *(uint32_t *)(msgdigest) = __REV(HASH->HR[0]);
 c00339c:	4b4c      	ldr	r3, [pc, #304]	; (c0034d0 <HASH_GetDigest+0x244>)
 c00339e:	68da      	ldr	r2, [r3, #12]
 c0033a0:	6efb      	ldr	r3, [r7, #108]	; 0x6c
 c0033a2:	62fa      	str	r2, [r7, #44]	; 0x2c
 c0033a4:	6afa      	ldr	r2, [r7, #44]	; 0x2c
 c0033a6:	ba12      	rev	r2, r2
 c0033a8:	601a      	str	r2, [r3, #0]
      msgdigest += 4U;
 c0033aa:	6efb      	ldr	r3, [r7, #108]	; 0x6c
 c0033ac:	3304      	adds	r3, #4
 c0033ae:	66fb      	str	r3, [r7, #108]	; 0x6c
      *(uint32_t *)(msgdigest) = __REV(HASH->HR[1]);
 c0033b0:	4b47      	ldr	r3, [pc, #284]	; (c0034d0 <HASH_GetDigest+0x244>)
 c0033b2:	691a      	ldr	r2, [r3, #16]
 c0033b4:	6efb      	ldr	r3, [r7, #108]	; 0x6c
 c0033b6:	633a      	str	r2, [r7, #48]	; 0x30
 c0033b8:	6b3a      	ldr	r2, [r7, #48]	; 0x30
 c0033ba:	ba12      	rev	r2, r2
 c0033bc:	601a      	str	r2, [r3, #0]
      msgdigest += 4U;
 c0033be:	6efb      	ldr	r3, [r7, #108]	; 0x6c
 c0033c0:	3304      	adds	r3, #4
 c0033c2:	66fb      	str	r3, [r7, #108]	; 0x6c
      *(uint32_t *)(msgdigest) = __REV(HASH->HR[2]);
 c0033c4:	4b42      	ldr	r3, [pc, #264]	; (c0034d0 <HASH_GetDigest+0x244>)
 c0033c6:	695a      	ldr	r2, [r3, #20]
 c0033c8:	6efb      	ldr	r3, [r7, #108]	; 0x6c
 c0033ca:	637a      	str	r2, [r7, #52]	; 0x34
 c0033cc:	6b7a      	ldr	r2, [r7, #52]	; 0x34
 c0033ce:	ba12      	rev	r2, r2
 c0033d0:	601a      	str	r2, [r3, #0]
      msgdigest += 4U;
 c0033d2:	6efb      	ldr	r3, [r7, #108]	; 0x6c
 c0033d4:	3304      	adds	r3, #4
 c0033d6:	66fb      	str	r3, [r7, #108]	; 0x6c
      *(uint32_t *)(msgdigest) = __REV(HASH->HR[3]);
 c0033d8:	4b3d      	ldr	r3, [pc, #244]	; (c0034d0 <HASH_GetDigest+0x244>)
 c0033da:	699a      	ldr	r2, [r3, #24]
 c0033dc:	6efb      	ldr	r3, [r7, #108]	; 0x6c
 c0033de:	63ba      	str	r2, [r7, #56]	; 0x38
 c0033e0:	6bba      	ldr	r2, [r7, #56]	; 0x38
 c0033e2:	ba12      	rev	r2, r2
 c0033e4:	601a      	str	r2, [r3, #0]
      msgdigest += 4U;
 c0033e6:	6efb      	ldr	r3, [r7, #108]	; 0x6c
 c0033e8:	3304      	adds	r3, #4
 c0033ea:	66fb      	str	r3, [r7, #108]	; 0x6c
      *(uint32_t *)(msgdigest) = __REV(HASH->HR[4]);
 c0033ec:	4b38      	ldr	r3, [pc, #224]	; (c0034d0 <HASH_GetDigest+0x244>)
 c0033ee:	69da      	ldr	r2, [r3, #28]
 c0033f0:	6efb      	ldr	r3, [r7, #108]	; 0x6c
 c0033f2:	63fa      	str	r2, [r7, #60]	; 0x3c
 c0033f4:	6bfa      	ldr	r2, [r7, #60]	; 0x3c
 c0033f6:	ba12      	rev	r2, r2
 c0033f8:	601a      	str	r2, [r3, #0]
      msgdigest += 4U;
 c0033fa:	6efb      	ldr	r3, [r7, #108]	; 0x6c
 c0033fc:	3304      	adds	r3, #4
 c0033fe:	66fb      	str	r3, [r7, #108]	; 0x6c
      *(uint32_t *)(msgdigest) = __REV(HASH_DIGEST->HR[5]);
 c003400:	4b34      	ldr	r3, [pc, #208]	; (c0034d4 <HASH_GetDigest+0x248>)
 c003402:	695a      	ldr	r2, [r3, #20]
 c003404:	6efb      	ldr	r3, [r7, #108]	; 0x6c
 c003406:	643a      	str	r2, [r7, #64]	; 0x40
 c003408:	6c3a      	ldr	r2, [r7, #64]	; 0x40
 c00340a:	ba12      	rev	r2, r2
 c00340c:	601a      	str	r2, [r3, #0]
      msgdigest += 4U;
 c00340e:	6efb      	ldr	r3, [r7, #108]	; 0x6c
 c003410:	3304      	adds	r3, #4
 c003412:	66fb      	str	r3, [r7, #108]	; 0x6c
      *(uint32_t *)(msgdigest) = __REV(HASH_DIGEST->HR[6]);
 c003414:	4b2f      	ldr	r3, [pc, #188]	; (c0034d4 <HASH_GetDigest+0x248>)
 c003416:	699a      	ldr	r2, [r3, #24]
 c003418:	6efb      	ldr	r3, [r7, #108]	; 0x6c
 c00341a:	647a      	str	r2, [r7, #68]	; 0x44
 c00341c:	6c7a      	ldr	r2, [r7, #68]	; 0x44
 c00341e:	ba12      	rev	r2, r2
 c003420:	601a      	str	r2, [r3, #0]
      break;
 c003422:	e04e      	b.n	c0034c2 <HASH_GetDigest+0x236>
    case 32:   /* SHA256 */
      *(uint32_t *)(msgdigest) = __REV(HASH->HR[0]);
 c003424:	4b2a      	ldr	r3, [pc, #168]	; (c0034d0 <HASH_GetDigest+0x244>)
 c003426:	68da      	ldr	r2, [r3, #12]
 c003428:	6efb      	ldr	r3, [r7, #108]	; 0x6c
 c00342a:	60fa      	str	r2, [r7, #12]
 c00342c:	68fa      	ldr	r2, [r7, #12]
 c00342e:	ba12      	rev	r2, r2
 c003430:	601a      	str	r2, [r3, #0]
      msgdigest += 4U;
 c003432:	6efb      	ldr	r3, [r7, #108]	; 0x6c
 c003434:	3304      	adds	r3, #4
 c003436:	66fb      	str	r3, [r7, #108]	; 0x6c
      *(uint32_t *)(msgdigest) = __REV(HASH->HR[1]);
 c003438:	4b25      	ldr	r3, [pc, #148]	; (c0034d0 <HASH_GetDigest+0x244>)
 c00343a:	691a      	ldr	r2, [r3, #16]
 c00343c:	6efb      	ldr	r3, [r7, #108]	; 0x6c
 c00343e:	613a      	str	r2, [r7, #16]
 c003440:	693a      	ldr	r2, [r7, #16]
 c003442:	ba12      	rev	r2, r2
 c003444:	601a      	str	r2, [r3, #0]
      msgdigest += 4U;
 c003446:	6efb      	ldr	r3, [r7, #108]	; 0x6c
 c003448:	3304      	adds	r3, #4
 c00344a:	66fb      	str	r3, [r7, #108]	; 0x6c
      *(uint32_t *)(msgdigest) = __REV(HASH->HR[2]);
 c00344c:	4b20      	ldr	r3, [pc, #128]	; (c0034d0 <HASH_GetDigest+0x244>)
 c00344e:	695a      	ldr	r2, [r3, #20]
 c003450:	6efb      	ldr	r3, [r7, #108]	; 0x6c
 c003452:	617a      	str	r2, [r7, #20]
 c003454:	697a      	ldr	r2, [r7, #20]
 c003456:	ba12      	rev	r2, r2
 c003458:	601a      	str	r2, [r3, #0]
      msgdigest += 4U;
 c00345a:	6efb      	ldr	r3, [r7, #108]	; 0x6c
 c00345c:	3304      	adds	r3, #4
 c00345e:	66fb      	str	r3, [r7, #108]	; 0x6c
      *(uint32_t *)(msgdigest) = __REV(HASH->HR[3]);
 c003460:	4b1b      	ldr	r3, [pc, #108]	; (c0034d0 <HASH_GetDigest+0x244>)
 c003462:	699a      	ldr	r2, [r3, #24]
 c003464:	6efb      	ldr	r3, [r7, #108]	; 0x6c
 c003466:	61ba      	str	r2, [r7, #24]
 c003468:	69ba      	ldr	r2, [r7, #24]
 c00346a:	ba12      	rev	r2, r2
 c00346c:	601a      	str	r2, [r3, #0]
      msgdigest += 4U;
 c00346e:	6efb      	ldr	r3, [r7, #108]	; 0x6c
 c003470:	3304      	adds	r3, #4
 c003472:	66fb      	str	r3, [r7, #108]	; 0x6c
      *(uint32_t *)(msgdigest) = __REV(HASH->HR[4]);
 c003474:	4b16      	ldr	r3, [pc, #88]	; (c0034d0 <HASH_GetDigest+0x244>)
 c003476:	69da      	ldr	r2, [r3, #28]
 c003478:	6efb      	ldr	r3, [r7, #108]	; 0x6c
 c00347a:	61fa      	str	r2, [r7, #28]
 c00347c:	69fa      	ldr	r2, [r7, #28]
 c00347e:	ba12      	rev	r2, r2
 c003480:	601a      	str	r2, [r3, #0]
      msgdigest += 4U;
 c003482:	6efb      	ldr	r3, [r7, #108]	; 0x6c
 c003484:	3304      	adds	r3, #4
 c003486:	66fb      	str	r3, [r7, #108]	; 0x6c
      *(uint32_t *)(msgdigest) = __REV(HASH_DIGEST->HR[5]);
 c003488:	4b12      	ldr	r3, [pc, #72]	; (c0034d4 <HASH_GetDigest+0x248>)
 c00348a:	695a      	ldr	r2, [r3, #20]
 c00348c:	6efb      	ldr	r3, [r7, #108]	; 0x6c
 c00348e:	623a      	str	r2, [r7, #32]
 c003490:	6a3a      	ldr	r2, [r7, #32]
 c003492:	ba12      	rev	r2, r2
 c003494:	601a      	str	r2, [r3, #0]
      msgdigest += 4U;
 c003496:	6efb      	ldr	r3, [r7, #108]	; 0x6c
 c003498:	3304      	adds	r3, #4
 c00349a:	66fb      	str	r3, [r7, #108]	; 0x6c
      *(uint32_t *)(msgdigest) = __REV(HASH_DIGEST->HR[6]);
 c00349c:	4b0d      	ldr	r3, [pc, #52]	; (c0034d4 <HASH_GetDigest+0x248>)
 c00349e:	699a      	ldr	r2, [r3, #24]
 c0034a0:	6efb      	ldr	r3, [r7, #108]	; 0x6c
 c0034a2:	627a      	str	r2, [r7, #36]	; 0x24
 c0034a4:	6a7a      	ldr	r2, [r7, #36]	; 0x24
 c0034a6:	ba12      	rev	r2, r2
 c0034a8:	601a      	str	r2, [r3, #0]
      msgdigest += 4U;
 c0034aa:	6efb      	ldr	r3, [r7, #108]	; 0x6c
 c0034ac:	3304      	adds	r3, #4
 c0034ae:	66fb      	str	r3, [r7, #108]	; 0x6c
      *(uint32_t *)(msgdigest) = __REV(HASH_DIGEST->HR[7]);
 c0034b0:	4b08      	ldr	r3, [pc, #32]	; (c0034d4 <HASH_GetDigest+0x248>)
 c0034b2:	69da      	ldr	r2, [r3, #28]
 c0034b4:	6efb      	ldr	r3, [r7, #108]	; 0x6c
 c0034b6:	62ba      	str	r2, [r7, #40]	; 0x28
 c0034b8:	6aba      	ldr	r2, [r7, #40]	; 0x28
 c0034ba:	ba12      	rev	r2, r2
 c0034bc:	601a      	str	r2, [r3, #0]
      break;
 c0034be:	e000      	b.n	c0034c2 <HASH_GetDigest+0x236>
    default:
      break;
 c0034c0:	bf00      	nop
  }
}
 c0034c2:	bf00      	nop
 c0034c4:	3774      	adds	r7, #116	; 0x74
 c0034c6:	46bd      	mov	sp, r7
 c0034c8:	f85d 7b04 	ldr.w	r7, [sp], #4
 c0034cc:	4770      	bx	lr
 c0034ce:	bf00      	nop
 c0034d0:	520c0400 	.word	0x520c0400
 c0034d4:	520c0710 	.word	0x520c0710

0c0034d8 <HASH_WaitOnFlagUntilTimeout>:
  * @param  Timeout Timeout duration.
  * @retval HAL status
  */
static HAL_StatusTypeDef HASH_WaitOnFlagUntilTimeout(HASH_HandleTypeDef *hhash, uint32_t Flag, FlagStatus Status,
                                                     uint32_t Timeout)
{
 c0034d8:	b580      	push	{r7, lr}
 c0034da:	b086      	sub	sp, #24
 c0034dc:	af00      	add	r7, sp, #0
 c0034de:	60f8      	str	r0, [r7, #12]
 c0034e0:	60b9      	str	r1, [r7, #8]
 c0034e2:	603b      	str	r3, [r7, #0]
 c0034e4:	4613      	mov	r3, r2
 c0034e6:	71fb      	strb	r3, [r7, #7]
  uint32_t tickstart = HAL_GetTick();
 c0034e8:	f7fe fdea 	bl	c0020c0 <HAL_GetTick>
 c0034ec:	6178      	str	r0, [r7, #20]

  /* Wait until flag is set */
  if (Status == RESET)
 c0034ee:	79fb      	ldrb	r3, [r7, #7]
 c0034f0:	2b00      	cmp	r3, #0
 c0034f2:	d155      	bne.n	c0035a0 <HASH_WaitOnFlagUntilTimeout+0xc8>
  {
    while (__HAL_HASH_GET_FLAG(Flag) == RESET)
 c0034f4:	e01c      	b.n	c003530 <HASH_WaitOnFlagUntilTimeout+0x58>
    {
      /* Check for the Timeout */
      if (Timeout != HAL_MAX_DELAY)
 c0034f6:	683b      	ldr	r3, [r7, #0]
 c0034f8:	f1b3 3fff 	cmp.w	r3, #4294967295
 c0034fc:	d018      	beq.n	c003530 <HASH_WaitOnFlagUntilTimeout+0x58>
      {
        if (((HAL_GetTick() - tickstart) > Timeout) || (Timeout == 0U))
 c0034fe:	f7fe fddf 	bl	c0020c0 <HAL_GetTick>
 c003502:	4602      	mov	r2, r0
 c003504:	697b      	ldr	r3, [r7, #20]
 c003506:	1ad3      	subs	r3, r2, r3
 c003508:	683a      	ldr	r2, [r7, #0]
 c00350a:	429a      	cmp	r2, r3
 c00350c:	d302      	bcc.n	c003514 <HASH_WaitOnFlagUntilTimeout+0x3c>
 c00350e:	683b      	ldr	r3, [r7, #0]
 c003510:	2b00      	cmp	r3, #0
 c003512:	d10d      	bne.n	c003530 <HASH_WaitOnFlagUntilTimeout+0x58>
        {
          /* Set State to Ready to be able to restart later on */
          hhash->State  = HAL_HASH_STATE_READY;
 c003514:	68fb      	ldr	r3, [r7, #12]
 c003516:	2201      	movs	r2, #1
 c003518:	f883 2035 	strb.w	r2, [r3, #53]	; 0x35
          /* Store time out issue in handle status */
          hhash->Status = HAL_TIMEOUT;
 c00351c:	68fb      	ldr	r3, [r7, #12]
 c00351e:	2203      	movs	r2, #3
 c003520:	f883 202c 	strb.w	r2, [r3, #44]	; 0x2c

          /* Process Unlocked */
          __HAL_UNLOCK(hhash);
 c003524:	68fb      	ldr	r3, [r7, #12]
 c003526:	2200      	movs	r2, #0
 c003528:	f883 2034 	strb.w	r2, [r3, #52]	; 0x34

          return HAL_TIMEOUT;
 c00352c:	2303      	movs	r3, #3
 c00352e:	e052      	b.n	c0035d6 <HASH_WaitOnFlagUntilTimeout+0xfe>
    while (__HAL_HASH_GET_FLAG(Flag) == RESET)
 c003530:	68bb      	ldr	r3, [r7, #8]
 c003532:	2b08      	cmp	r3, #8
 c003534:	d90a      	bls.n	c00354c <HASH_WaitOnFlagUntilTimeout+0x74>
 c003536:	4b2a      	ldr	r3, [pc, #168]	; (c0035e0 <HASH_WaitOnFlagUntilTimeout+0x108>)
 c003538:	681a      	ldr	r2, [r3, #0]
 c00353a:	68bb      	ldr	r3, [r7, #8]
 c00353c:	4013      	ands	r3, r2
 c00353e:	68ba      	ldr	r2, [r7, #8]
 c003540:	429a      	cmp	r2, r3
 c003542:	bf14      	ite	ne
 c003544:	2301      	movne	r3, #1
 c003546:	2300      	moveq	r3, #0
 c003548:	b2db      	uxtb	r3, r3
 c00354a:	e009      	b.n	c003560 <HASH_WaitOnFlagUntilTimeout+0x88>
 c00354c:	4b24      	ldr	r3, [pc, #144]	; (c0035e0 <HASH_WaitOnFlagUntilTimeout+0x108>)
 c00354e:	6a5a      	ldr	r2, [r3, #36]	; 0x24
 c003550:	68bb      	ldr	r3, [r7, #8]
 c003552:	4013      	ands	r3, r2
 c003554:	68ba      	ldr	r2, [r7, #8]
 c003556:	429a      	cmp	r2, r3
 c003558:	bf14      	ite	ne
 c00355a:	2301      	movne	r3, #1
 c00355c:	2300      	moveq	r3, #0
 c00355e:	b2db      	uxtb	r3, r3
 c003560:	2b00      	cmp	r3, #0
 c003562:	d1c8      	bne.n	c0034f6 <HASH_WaitOnFlagUntilTimeout+0x1e>
 c003564:	e036      	b.n	c0035d4 <HASH_WaitOnFlagUntilTimeout+0xfc>
  else
  {
    while (__HAL_HASH_GET_FLAG(Flag) != RESET)
    {
      /* Check for the Timeout */
      if (Timeout != HAL_MAX_DELAY)
 c003566:	683b      	ldr	r3, [r7, #0]
 c003568:	f1b3 3fff 	cmp.w	r3, #4294967295
 c00356c:	d018      	beq.n	c0035a0 <HASH_WaitOnFlagUntilTimeout+0xc8>
      {
        if (((HAL_GetTick() - tickstart) > Timeout) || (Timeout == 0U))
 c00356e:	f7fe fda7 	bl	c0020c0 <HAL_GetTick>
 c003572:	4602      	mov	r2, r0
 c003574:	697b      	ldr	r3, [r7, #20]
 c003576:	1ad3      	subs	r3, r2, r3
 c003578:	683a      	ldr	r2, [r7, #0]
 c00357a:	429a      	cmp	r2, r3
 c00357c:	d302      	bcc.n	c003584 <HASH_WaitOnFlagUntilTimeout+0xac>
 c00357e:	683b      	ldr	r3, [r7, #0]
 c003580:	2b00      	cmp	r3, #0
 c003582:	d10d      	bne.n	c0035a0 <HASH_WaitOnFlagUntilTimeout+0xc8>
        {
          /* Set State to Ready to be able to restart later on */
          hhash->State  = HAL_HASH_STATE_READY;
 c003584:	68fb      	ldr	r3, [r7, #12]
 c003586:	2201      	movs	r2, #1
 c003588:	f883 2035 	strb.w	r2, [r3, #53]	; 0x35
          /* Store time out issue in handle status */
          hhash->Status = HAL_TIMEOUT;
 c00358c:	68fb      	ldr	r3, [r7, #12]
 c00358e:	2203      	movs	r2, #3
 c003590:	f883 202c 	strb.w	r2, [r3, #44]	; 0x2c

          /* Process Unlocked */
          __HAL_UNLOCK(hhash);
 c003594:	68fb      	ldr	r3, [r7, #12]
 c003596:	2200      	movs	r2, #0
 c003598:	f883 2034 	strb.w	r2, [r3, #52]	; 0x34

          return HAL_TIMEOUT;
 c00359c:	2303      	movs	r3, #3
 c00359e:	e01a      	b.n	c0035d6 <HASH_WaitOnFlagUntilTimeout+0xfe>
    while (__HAL_HASH_GET_FLAG(Flag) != RESET)
 c0035a0:	68bb      	ldr	r3, [r7, #8]
 c0035a2:	2b08      	cmp	r3, #8
 c0035a4:	d90a      	bls.n	c0035bc <HASH_WaitOnFlagUntilTimeout+0xe4>
 c0035a6:	4b0e      	ldr	r3, [pc, #56]	; (c0035e0 <HASH_WaitOnFlagUntilTimeout+0x108>)
 c0035a8:	681a      	ldr	r2, [r3, #0]
 c0035aa:	68bb      	ldr	r3, [r7, #8]
 c0035ac:	4013      	ands	r3, r2
 c0035ae:	68ba      	ldr	r2, [r7, #8]
 c0035b0:	429a      	cmp	r2, r3
 c0035b2:	bf0c      	ite	eq
 c0035b4:	2301      	moveq	r3, #1
 c0035b6:	2300      	movne	r3, #0
 c0035b8:	b2db      	uxtb	r3, r3
 c0035ba:	e009      	b.n	c0035d0 <HASH_WaitOnFlagUntilTimeout+0xf8>
 c0035bc:	4b08      	ldr	r3, [pc, #32]	; (c0035e0 <HASH_WaitOnFlagUntilTimeout+0x108>)
 c0035be:	6a5a      	ldr	r2, [r3, #36]	; 0x24
 c0035c0:	68bb      	ldr	r3, [r7, #8]
 c0035c2:	4013      	ands	r3, r2
 c0035c4:	68ba      	ldr	r2, [r7, #8]
 c0035c6:	429a      	cmp	r2, r3
 c0035c8:	bf0c      	ite	eq
 c0035ca:	2301      	moveq	r3, #1
 c0035cc:	2300      	movne	r3, #0
 c0035ce:	b2db      	uxtb	r3, r3
 c0035d0:	2b00      	cmp	r3, #0
 c0035d2:	d1c8      	bne.n	c003566 <HASH_WaitOnFlagUntilTimeout+0x8e>
        }
      }
    }
  }
  return HAL_OK;
 c0035d4:	2300      	movs	r3, #0
}
 c0035d6:	4618      	mov	r0, r3
 c0035d8:	3718      	adds	r7, #24
 c0035da:	46bd      	mov	sp, r7
 c0035dc:	bd80      	pop	{r7, pc}
 c0035de:	bf00      	nop
 c0035e0:	520c0400 	.word	0x520c0400

0c0035e4 <HASH_Start>:
  * @param  Algorithm HASH algorithm.
  * @retval HAL status
  */
HAL_StatusTypeDef HASH_Start(HASH_HandleTypeDef *hhash, uint8_t *pInBuffer, uint32_t Size, uint8_t *pOutBuffer,
                             uint32_t Timeout, uint32_t Algorithm)
{
 c0035e4:	b580      	push	{r7, lr}
 c0035e6:	b088      	sub	sp, #32
 c0035e8:	af00      	add	r7, sp, #0
 c0035ea:	60f8      	str	r0, [r7, #12]
 c0035ec:	60b9      	str	r1, [r7, #8]
 c0035ee:	607a      	str	r2, [r7, #4]
 c0035f0:	603b      	str	r3, [r7, #0]
  uint8_t *pInBuffer_tmp;  /* input data address, input parameter of HASH_WriteData()         */
  uint32_t Size_tmp; /* input data size (in bytes), input parameter of HASH_WriteData() */
  HAL_HASH_StateTypeDef State_tmp = hhash->State;
 c0035f2:	68fb      	ldr	r3, [r7, #12]
 c0035f4:	f893 3035 	ldrb.w	r3, [r3, #53]	; 0x35
 c0035f8:	75fb      	strb	r3, [r7, #23]


  /* Initiate HASH processing in case of start or resumption */
  if ((State_tmp == HAL_HASH_STATE_READY) || (State_tmp == HAL_HASH_STATE_SUSPENDED))
 c0035fa:	7dfb      	ldrb	r3, [r7, #23]
 c0035fc:	2b01      	cmp	r3, #1
 c0035fe:	d003      	beq.n	c003608 <HASH_Start+0x24>
 c003600:	7dfb      	ldrb	r3, [r7, #23]
 c003602:	2b08      	cmp	r3, #8
 c003604:	f040 80c7 	bne.w	c003796 <HASH_Start+0x1b2>
  {
    /* Check input parameters */
    if ((pInBuffer == NULL) || (pOutBuffer == NULL))
 c003608:	68bb      	ldr	r3, [r7, #8]
 c00360a:	2b00      	cmp	r3, #0
 c00360c:	d002      	beq.n	c003614 <HASH_Start+0x30>
 c00360e:	683b      	ldr	r3, [r7, #0]
 c003610:	2b00      	cmp	r3, #0
 c003612:	d105      	bne.n	c003620 <HASH_Start+0x3c>
    {
      hhash->State = HAL_HASH_STATE_READY;
 c003614:	68fb      	ldr	r3, [r7, #12]
 c003616:	2201      	movs	r2, #1
 c003618:	f883 2035 	strb.w	r2, [r3, #53]	; 0x35
      return  HAL_ERROR;
 c00361c:	2301      	movs	r3, #1
 c00361e:	e0bb      	b.n	c003798 <HASH_Start+0x1b4>
    }

    /* Process Locked */
    __HAL_LOCK(hhash);
 c003620:	68fb      	ldr	r3, [r7, #12]
 c003622:	f893 3034 	ldrb.w	r3, [r3, #52]	; 0x34
 c003626:	2b01      	cmp	r3, #1
 c003628:	d101      	bne.n	c00362e <HASH_Start+0x4a>
 c00362a:	2302      	movs	r3, #2
 c00362c:	e0b4      	b.n	c003798 <HASH_Start+0x1b4>
 c00362e:	68fb      	ldr	r3, [r7, #12]
 c003630:	2201      	movs	r2, #1
 c003632:	f883 2034 	strb.w	r2, [r3, #52]	; 0x34

    /* Check if initialization phase has not been already performed */
    if (hhash->Phase == HAL_HASH_PHASE_READY)
 c003636:	68fb      	ldr	r3, [r7, #12]
 c003638:	f893 302d 	ldrb.w	r3, [r3, #45]	; 0x2d
 c00363c:	2b01      	cmp	r3, #1
 c00363e:	d123      	bne.n	c003688 <HASH_Start+0xa4>
    {
      /* Change the HASH state */
      hhash->State = HAL_HASH_STATE_BUSY;
 c003640:	68fb      	ldr	r3, [r7, #12]
 c003642:	2202      	movs	r2, #2
 c003644:	f883 2035 	strb.w	r2, [r3, #53]	; 0x35

      /* Select the HASH algorithm, clear HMAC mode and long key selection bit, reset the HASH processor core */
      MODIFY_REG(HASH->CR, HASH_CR_LKEY | HASH_CR_ALGO | HASH_CR_MODE | HASH_CR_INIT, Algorithm | HASH_CR_INIT);
 c003648:	4b55      	ldr	r3, [pc, #340]	; (c0037a0 <HASH_Start+0x1bc>)
 c00364a:	681b      	ldr	r3, [r3, #0]
 c00364c:	f423 23a0 	bic.w	r3, r3, #327680	; 0x50000
 c003650:	f023 03c4 	bic.w	r3, r3, #196	; 0xc4
 c003654:	6afa      	ldr	r2, [r7, #44]	; 0x2c
 c003656:	4313      	orrs	r3, r2
 c003658:	4a51      	ldr	r2, [pc, #324]	; (c0037a0 <HASH_Start+0x1bc>)
 c00365a:	f043 0304 	orr.w	r3, r3, #4
 c00365e:	6013      	str	r3, [r2, #0]

      /* Configure the number of valid bits in last word of the message */
      __HAL_HASH_SET_NBVALIDBITS(Size);
 c003660:	4b4f      	ldr	r3, [pc, #316]	; (c0037a0 <HASH_Start+0x1bc>)
 c003662:	689b      	ldr	r3, [r3, #8]
 c003664:	f023 021f 	bic.w	r2, r3, #31
 c003668:	687b      	ldr	r3, [r7, #4]
 c00366a:	f003 0303 	and.w	r3, r3, #3
 c00366e:	00db      	lsls	r3, r3, #3
 c003670:	494b      	ldr	r1, [pc, #300]	; (c0037a0 <HASH_Start+0x1bc>)
 c003672:	4313      	orrs	r3, r2
 c003674:	608b      	str	r3, [r1, #8]

      /* pInBuffer_tmp and Size_tmp are initialized to be used afterwards as
      input parameters of HASH_WriteData() */
      pInBuffer_tmp = pInBuffer;   /* pInBuffer_tmp is set to the input data address */
 c003676:	68bb      	ldr	r3, [r7, #8]
 c003678:	61fb      	str	r3, [r7, #28]
      Size_tmp = Size;             /* Size_tmp contains the input data size in bytes */
 c00367a:	687b      	ldr	r3, [r7, #4]
 c00367c:	61bb      	str	r3, [r7, #24]

      /* Set the phase */
      hhash->Phase = HAL_HASH_PHASE_PROCESS;
 c00367e:	68fb      	ldr	r3, [r7, #12]
 c003680:	2202      	movs	r2, #2
 c003682:	f883 202d 	strb.w	r2, [r3, #45]	; 0x2d
 c003686:	e02f      	b.n	c0036e8 <HASH_Start+0x104>
    }
    else if (hhash->Phase == HAL_HASH_PHASE_PROCESS)
 c003688:	68fb      	ldr	r3, [r7, #12]
 c00368a:	f893 302d 	ldrb.w	r3, [r3, #45]	; 0x2d
 c00368e:	2b02      	cmp	r3, #2
 c003690:	d120      	bne.n	c0036d4 <HASH_Start+0xf0>
    {
      /* if the Peripheral has already been initialized, two cases are possible */

      /* Process resumption time ... */
      if (hhash->State == HAL_HASH_STATE_SUSPENDED)
 c003692:	68fb      	ldr	r3, [r7, #12]
 c003694:	f893 3035 	ldrb.w	r3, [r3, #53]	; 0x35
 c003698:	b2db      	uxtb	r3, r3
 c00369a:	2b08      	cmp	r3, #8
 c00369c:	d106      	bne.n	c0036ac <HASH_Start+0xc8>
      {
        /* Since this is resumption, pInBuffer_tmp and Size_tmp are not set
        to the API input parameters but to those saved beforehand by HASH_WriteData()
        when the processing was suspended */
        pInBuffer_tmp = hhash->pHashInBuffPtr;
 c00369e:	68fb      	ldr	r3, [r7, #12]
 c0036a0:	68db      	ldr	r3, [r3, #12]
 c0036a2:	61fb      	str	r3, [r7, #28]
        Size_tmp = hhash->HashInCount;
 c0036a4:	68fb      	ldr	r3, [r7, #12]
 c0036a6:	6a1b      	ldr	r3, [r3, #32]
 c0036a8:	61bb      	str	r3, [r7, #24]
 c0036aa:	e00e      	b.n	c0036ca <HASH_Start+0xe6>
      /* ... or multi-buffer HASH processing end */
      else
      {
        /* pInBuffer_tmp and Size_tmp are initialized to be used afterwards as
        input parameters of HASH_WriteData() */
        pInBuffer_tmp = pInBuffer;
 c0036ac:	68bb      	ldr	r3, [r7, #8]
 c0036ae:	61fb      	str	r3, [r7, #28]
        Size_tmp = Size;
 c0036b0:	687b      	ldr	r3, [r7, #4]
 c0036b2:	61bb      	str	r3, [r7, #24]
        /* Configure the number of valid bits in last word of the message */
        __HAL_HASH_SET_NBVALIDBITS(Size);
 c0036b4:	4b3a      	ldr	r3, [pc, #232]	; (c0037a0 <HASH_Start+0x1bc>)
 c0036b6:	689b      	ldr	r3, [r3, #8]
 c0036b8:	f023 021f 	bic.w	r2, r3, #31
 c0036bc:	687b      	ldr	r3, [r7, #4]
 c0036be:	f003 0303 	and.w	r3, r3, #3
 c0036c2:	00db      	lsls	r3, r3, #3
 c0036c4:	4936      	ldr	r1, [pc, #216]	; (c0037a0 <HASH_Start+0x1bc>)
 c0036c6:	4313      	orrs	r3, r2
 c0036c8:	608b      	str	r3, [r1, #8]
      }
      /* Change the HASH state */
      hhash->State = HAL_HASH_STATE_BUSY;
 c0036ca:	68fb      	ldr	r3, [r7, #12]
 c0036cc:	2202      	movs	r2, #2
 c0036ce:	f883 2035 	strb.w	r2, [r3, #53]	; 0x35
 c0036d2:	e009      	b.n	c0036e8 <HASH_Start+0x104>
    }
    else
    {
      /* Phase error */
      hhash->State = HAL_HASH_STATE_READY;
 c0036d4:	68fb      	ldr	r3, [r7, #12]
 c0036d6:	2201      	movs	r2, #1
 c0036d8:	f883 2035 	strb.w	r2, [r3, #53]	; 0x35

      /* Process Unlocked */
      __HAL_UNLOCK(hhash);
 c0036dc:	68fb      	ldr	r3, [r7, #12]
 c0036de:	2200      	movs	r2, #0
 c0036e0:	f883 2034 	strb.w	r2, [r3, #52]	; 0x34

      /* Return function status */
      return HAL_ERROR;
 c0036e4:	2301      	movs	r3, #1
 c0036e6:	e057      	b.n	c003798 <HASH_Start+0x1b4>
    }


    /* Write input buffer in Data register */
    hhash->Status = HASH_WriteData(hhash, pInBuffer_tmp, Size_tmp);
 c0036e8:	69ba      	ldr	r2, [r7, #24]
 c0036ea:	69f9      	ldr	r1, [r7, #28]
 c0036ec:	68f8      	ldr	r0, [r7, #12]
 c0036ee:	f7ff fd5d 	bl	c0031ac <HASH_WriteData>
 c0036f2:	4603      	mov	r3, r0
 c0036f4:	461a      	mov	r2, r3
 c0036f6:	68fb      	ldr	r3, [r7, #12]
 c0036f8:	f883 202c 	strb.w	r2, [r3, #44]	; 0x2c
    if (hhash->Status != HAL_OK)
 c0036fc:	68fb      	ldr	r3, [r7, #12]
 c0036fe:	f893 302c 	ldrb.w	r3, [r3, #44]	; 0x2c
 c003702:	2b00      	cmp	r3, #0
 c003704:	d003      	beq.n	c00370e <HASH_Start+0x12a>
    {
      return hhash->Status;
 c003706:	68fb      	ldr	r3, [r7, #12]
 c003708:	f893 302c 	ldrb.w	r3, [r3, #44]	; 0x2c
 c00370c:	e044      	b.n	c003798 <HASH_Start+0x1b4>
    }

    /* If the process has not been suspended, carry on to digest calculation */
    if (hhash->State != HAL_HASH_STATE_SUSPENDED)
 c00370e:	68fb      	ldr	r3, [r7, #12]
 c003710:	f893 3035 	ldrb.w	r3, [r3, #53]	; 0x35
 c003714:	b2db      	uxtb	r3, r3
 c003716:	2b08      	cmp	r3, #8
 c003718:	d037      	beq.n	c00378a <HASH_Start+0x1a6>
    {
      /* Start the Digest calculation */
      __HAL_HASH_START_DIGEST();
 c00371a:	4b21      	ldr	r3, [pc, #132]	; (c0037a0 <HASH_Start+0x1bc>)
 c00371c:	689b      	ldr	r3, [r3, #8]
 c00371e:	4a20      	ldr	r2, [pc, #128]	; (c0037a0 <HASH_Start+0x1bc>)
 c003720:	f443 7380 	orr.w	r3, r3, #256	; 0x100
 c003724:	6093      	str	r3, [r2, #8]

      /* Wait for DCIS flag to be set */
      if (HASH_WaitOnFlagUntilTimeout(hhash, HASH_FLAG_DCIS, RESET, Timeout) != HAL_OK)
 c003726:	6abb      	ldr	r3, [r7, #40]	; 0x28
 c003728:	2200      	movs	r2, #0
 c00372a:	2102      	movs	r1, #2
 c00372c:	68f8      	ldr	r0, [r7, #12]
 c00372e:	f7ff fed3 	bl	c0034d8 <HASH_WaitOnFlagUntilTimeout>
 c003732:	4603      	mov	r3, r0
 c003734:	2b00      	cmp	r3, #0
 c003736:	d001      	beq.n	c00373c <HASH_Start+0x158>
      {
        return HAL_TIMEOUT;
 c003738:	2303      	movs	r3, #3
 c00373a:	e02d      	b.n	c003798 <HASH_Start+0x1b4>
      }

      /* Read the message digest */
      HASH_GetDigest(pOutBuffer, HASH_DIGEST_LENGTH());
 c00373c:	4b18      	ldr	r3, [pc, #96]	; (c0037a0 <HASH_Start+0x1bc>)
 c00373e:	681a      	ldr	r2, [r3, #0]
 c003740:	4b18      	ldr	r3, [pc, #96]	; (c0037a4 <HASH_Start+0x1c0>)
 c003742:	4013      	ands	r3, r2
 c003744:	2b00      	cmp	r3, #0
 c003746:	d013      	beq.n	c003770 <HASH_Start+0x18c>
 c003748:	4b15      	ldr	r3, [pc, #84]	; (c0037a0 <HASH_Start+0x1bc>)
 c00374a:	681a      	ldr	r2, [r3, #0]
 c00374c:	4b15      	ldr	r3, [pc, #84]	; (c0037a4 <HASH_Start+0x1c0>)
 c00374e:	4013      	ands	r3, r2
 c003750:	f5b3 2f80 	cmp.w	r3, #262144	; 0x40000
 c003754:	d00a      	beq.n	c00376c <HASH_Start+0x188>
 c003756:	4b12      	ldr	r3, [pc, #72]	; (c0037a0 <HASH_Start+0x1bc>)
 c003758:	681a      	ldr	r2, [r3, #0]
 c00375a:	4b12      	ldr	r3, [pc, #72]	; (c0037a4 <HASH_Start+0x1c0>)
 c00375c:	4013      	ands	r3, r2
 c00375e:	4a11      	ldr	r2, [pc, #68]	; (c0037a4 <HASH_Start+0x1c0>)
 c003760:	4293      	cmp	r3, r2
 c003762:	d101      	bne.n	c003768 <HASH_Start+0x184>
 c003764:	2320      	movs	r3, #32
 c003766:	e004      	b.n	c003772 <HASH_Start+0x18e>
 c003768:	2310      	movs	r3, #16
 c00376a:	e002      	b.n	c003772 <HASH_Start+0x18e>
 c00376c:	231c      	movs	r3, #28
 c00376e:	e000      	b.n	c003772 <HASH_Start+0x18e>
 c003770:	2314      	movs	r3, #20
 c003772:	4619      	mov	r1, r3
 c003774:	6838      	ldr	r0, [r7, #0]
 c003776:	f7ff fd89 	bl	c00328c <HASH_GetDigest>

      /* Change the HASH state */
      hhash->State = HAL_HASH_STATE_READY;
 c00377a:	68fb      	ldr	r3, [r7, #12]
 c00377c:	2201      	movs	r2, #1
 c00377e:	f883 2035 	strb.w	r2, [r3, #53]	; 0x35

      /* Reset HASH state machine */
      hhash->Phase = HAL_HASH_PHASE_READY;
 c003782:	68fb      	ldr	r3, [r7, #12]
 c003784:	2201      	movs	r2, #1
 c003786:	f883 202d 	strb.w	r2, [r3, #45]	; 0x2d

    }

    /* Process Unlocked */
    __HAL_UNLOCK(hhash);
 c00378a:	68fb      	ldr	r3, [r7, #12]
 c00378c:	2200      	movs	r2, #0
 c00378e:	f883 2034 	strb.w	r2, [r3, #52]	; 0x34

    /* Return function status */
    return HAL_OK;
 c003792:	2300      	movs	r3, #0
 c003794:	e000      	b.n	c003798 <HASH_Start+0x1b4>

  }
  else
  {
    return HAL_BUSY;
 c003796:	2302      	movs	r3, #2
  }
}
 c003798:	4618      	mov	r0, r3
 c00379a:	3720      	adds	r7, #32
 c00379c:	46bd      	mov	sp, r7
 c00379e:	bd80      	pop	{r7, pc}
 c0037a0:	520c0400 	.word	0x520c0400
 c0037a4:	00040080 	.word	0x00040080

0c0037a8 <HAL_ICACHE_ConfigAssociativityMode>:
  *            @arg ICACHE_1WAY   1-way cache (direct mapped cache)
  *            @arg ICACHE_2WAYS  2-ways set associative cache (default)
  * @retval HAL status (HAL_OK/HAL_ERROR)
  */
HAL_StatusTypeDef HAL_ICACHE_ConfigAssociativityMode(uint32_t AssociativityMode)
{
 c0037a8:	b480      	push	{r7}
 c0037aa:	b085      	sub	sp, #20
 c0037ac:	af00      	add	r7, sp, #0
 c0037ae:	6078      	str	r0, [r7, #4]
  HAL_StatusTypeDef status = HAL_OK;
 c0037b0:	2300      	movs	r3, #0
 c0037b2:	73fb      	strb	r3, [r7, #15]

  /* Check the parameters */
  assert_param(IS_ICACHE_ASSOCIATIVITY_MODE(AssociativityMode));

  /* Check cache is not enabled */
  if (READ_BIT(ICACHE->CR, ICACHE_CR_EN) != 0U)
 c0037b4:	4b0b      	ldr	r3, [pc, #44]	; (c0037e4 <HAL_ICACHE_ConfigAssociativityMode+0x3c>)
 c0037b6:	681b      	ldr	r3, [r3, #0]
 c0037b8:	f003 0301 	and.w	r3, r3, #1
 c0037bc:	2b00      	cmp	r3, #0
 c0037be:	d002      	beq.n	c0037c6 <HAL_ICACHE_ConfigAssociativityMode+0x1e>
  {
    status = HAL_ERROR;
 c0037c0:	2301      	movs	r3, #1
 c0037c2:	73fb      	strb	r3, [r7, #15]
 c0037c4:	e007      	b.n	c0037d6 <HAL_ICACHE_ConfigAssociativityMode+0x2e>
  }
  else
  {
    MODIFY_REG(ICACHE->CR, ICACHE_CR_WAYSEL, AssociativityMode);
 c0037c6:	4b07      	ldr	r3, [pc, #28]	; (c0037e4 <HAL_ICACHE_ConfigAssociativityMode+0x3c>)
 c0037c8:	681b      	ldr	r3, [r3, #0]
 c0037ca:	f023 0204 	bic.w	r2, r3, #4
 c0037ce:	4905      	ldr	r1, [pc, #20]	; (c0037e4 <HAL_ICACHE_ConfigAssociativityMode+0x3c>)
 c0037d0:	687b      	ldr	r3, [r7, #4]
 c0037d2:	4313      	orrs	r3, r2
 c0037d4:	600b      	str	r3, [r1, #0]
  }

  return status;
 c0037d6:	7bfb      	ldrb	r3, [r7, #15]
}
 c0037d8:	4618      	mov	r0, r3
 c0037da:	3714      	adds	r7, #20
 c0037dc:	46bd      	mov	sp, r7
 c0037de:	f85d 7b04 	ldr.w	r7, [sp], #4
 c0037e2:	4770      	bx	lr
 c0037e4:	50030400 	.word	0x50030400

0c0037e8 <HAL_ICACHE_Enable>:
  *         cache operation. The Instruction Cache is bypassed until the
  *         cache operation completes.
  * @retval HAL status (HAL_OK)
  */
HAL_StatusTypeDef HAL_ICACHE_Enable(void)
{
 c0037e8:	b480      	push	{r7}
 c0037ea:	af00      	add	r7, sp, #0
  SET_BIT(ICACHE->CR, ICACHE_CR_EN);
 c0037ec:	4b05      	ldr	r3, [pc, #20]	; (c003804 <HAL_ICACHE_Enable+0x1c>)
 c0037ee:	681b      	ldr	r3, [r3, #0]
 c0037f0:	4a04      	ldr	r2, [pc, #16]	; (c003804 <HAL_ICACHE_Enable+0x1c>)
 c0037f2:	f043 0301 	orr.w	r3, r3, #1
 c0037f6:	6013      	str	r3, [r2, #0]

  return HAL_OK;
 c0037f8:	2300      	movs	r3, #0
}
 c0037fa:	4618      	mov	r0, r3
 c0037fc:	46bd      	mov	sp, r7
 c0037fe:	f85d 7b04 	ldr.w	r7, [sp], #4
 c003802:	4770      	bx	lr
 c003804:	50030400 	.word	0x50030400

0c003808 <HAL_PWREx_GetVoltageRange>:
/**
  * @brief Return Voltage Scaling Range.
  * @retval VOS bit field (PWR_REGULATOR_VOLTAGE_SCALE0, PWR_REGULATOR_VOLTAGE_SCALE1 or PWR_REGULATOR_VOLTAGE_SCALE2)
  */
uint32_t HAL_PWREx_GetVoltageRange(void)
{
 c003808:	b480      	push	{r7}
 c00380a:	af00      	add	r7, sp, #0
  return (PWR->CR1 & PWR_CR1_VOS);
 c00380c:	4b04      	ldr	r3, [pc, #16]	; (c003820 <HAL_PWREx_GetVoltageRange+0x18>)
 c00380e:	681b      	ldr	r3, [r3, #0]
 c003810:	f403 63c0 	and.w	r3, r3, #1536	; 0x600
}
 c003814:	4618      	mov	r0, r3
 c003816:	46bd      	mov	sp, r7
 c003818:	f85d 7b04 	ldr.w	r7, [sp], #4
 c00381c:	4770      	bx	lr
 c00381e:	bf00      	nop
 c003820:	50007000 	.word	0x50007000

0c003824 <HAL_PWREx_ControlVoltageScaling>:
  * @note  The VOS shall NOT be changed in LP Mode of if LP mode is asked.
  * @note  The function shall not be called in Low-power run mode (meaningless and misleading).
  * @retval HAL Status
  */
HAL_StatusTypeDef HAL_PWREx_ControlVoltageScaling(uint32_t VoltageScaling)
{
 c003824:	b580      	push	{r7, lr}
 c003826:	b084      	sub	sp, #16
 c003828:	af00      	add	r7, sp, #0
 c00382a:	6078      	str	r0, [r7, #4]
  uint32_t wait_loop_index;

  assert_param(IS_PWR_VOLTAGE_SCALING_RANGE(VoltageScaling));

  uint32_t vos_old = READ_BIT(PWR->CR1, PWR_CR1_VOS);
 c00382c:	4b27      	ldr	r3, [pc, #156]	; (c0038cc <HAL_PWREx_ControlVoltageScaling+0xa8>)
 c00382e:	681b      	ldr	r3, [r3, #0]
 c003830:	f403 63c0 	and.w	r3, r3, #1536	; 0x600
 c003834:	60bb      	str	r3, [r7, #8]

  /* VOS shall not be changed in LP Mode            */
  /* or if LP Mode is asked but not yet established */
  if (HAL_PWREx_SMPS_GetEffectiveMode() == PWR_SMPS_LOW_POWER)
 c003836:	f000 f871 	bl	c00391c <HAL_PWREx_SMPS_GetEffectiveMode>
 c00383a:	4603      	mov	r3, r0
 c00383c:	f5b3 4f00 	cmp.w	r3, #32768	; 0x8000
 c003840:	d101      	bne.n	c003846 <HAL_PWREx_ControlVoltageScaling+0x22>
  {
    return HAL_ERROR;
 c003842:	2301      	movs	r3, #1
 c003844:	e03e      	b.n	c0038c4 <HAL_PWREx_ControlVoltageScaling+0xa0>
  }
  if (READ_BIT(PWR->CR4, PWR_CR4_SMPSLPEN) == PWR_CR4_SMPSLPEN)
 c003846:	4b21      	ldr	r3, [pc, #132]	; (c0038cc <HAL_PWREx_ControlVoltageScaling+0xa8>)
 c003848:	68db      	ldr	r3, [r3, #12]
 c00384a:	f403 4300 	and.w	r3, r3, #32768	; 0x8000
 c00384e:	f5b3 4f00 	cmp.w	r3, #32768	; 0x8000
 c003852:	d101      	bne.n	c003858 <HAL_PWREx_ControlVoltageScaling+0x34>
  {
    return HAL_ERROR;
 c003854:	2301      	movs	r3, #1
 c003856:	e035      	b.n	c0038c4 <HAL_PWREx_ControlVoltageScaling+0xa0>
  }

  /* No change, nothing to do */
  if (vos_old == VoltageScaling)
 c003858:	68ba      	ldr	r2, [r7, #8]
 c00385a:	687b      	ldr	r3, [r7, #4]
 c00385c:	429a      	cmp	r2, r3
 c00385e:	d101      	bne.n	c003864 <HAL_PWREx_ControlVoltageScaling+0x40>
  {
    return HAL_OK;
 c003860:	2300      	movs	r3, #0
 c003862:	e02f      	b.n	c0038c4 <HAL_PWREx_ControlVoltageScaling+0xa0>
  }

  MODIFY_REG(PWR->CR1, PWR_CR1_VOS, VoltageScaling);
 c003864:	4b19      	ldr	r3, [pc, #100]	; (c0038cc <HAL_PWREx_ControlVoltageScaling+0xa8>)
 c003866:	681b      	ldr	r3, [r3, #0]
 c003868:	f423 62c0 	bic.w	r2, r3, #1536	; 0x600
 c00386c:	4917      	ldr	r1, [pc, #92]	; (c0038cc <HAL_PWREx_ControlVoltageScaling+0xa8>)
 c00386e:	687b      	ldr	r3, [r7, #4]
 c003870:	4313      	orrs	r3, r2
 c003872:	600b      	str	r3, [r1, #0]

  /* Wait until VOSF is cleared */
  /* and at least one iteration loop */
  wait_loop_index = ((PWR_VOSF_SETTING_DELAY_VALUE * (SystemCoreClock / 100000U)) / 10U) + 1U;
 c003874:	4b16      	ldr	r3, [pc, #88]	; (c0038d0 <HAL_PWREx_ControlVoltageScaling+0xac>)
 c003876:	681b      	ldr	r3, [r3, #0]
 c003878:	095b      	lsrs	r3, r3, #5
 c00387a:	4a16      	ldr	r2, [pc, #88]	; (c0038d4 <HAL_PWREx_ControlVoltageScaling+0xb0>)
 c00387c:	fba2 2303 	umull	r2, r3, r2, r3
 c003880:	09db      	lsrs	r3, r3, #7
 c003882:	2232      	movs	r2, #50	; 0x32
 c003884:	fb02 f303 	mul.w	r3, r2, r3
 c003888:	4a13      	ldr	r2, [pc, #76]	; (c0038d8 <HAL_PWREx_ControlVoltageScaling+0xb4>)
 c00388a:	fba2 2303 	umull	r2, r3, r2, r3
 c00388e:	08db      	lsrs	r3, r3, #3
 c003890:	3301      	adds	r3, #1
 c003892:	60fb      	str	r3, [r7, #12]

  while ((HAL_IS_BIT_SET(PWR->SR2, PWR_SR2_VOSF)) && (wait_loop_index != 0U))
 c003894:	e002      	b.n	c00389c <HAL_PWREx_ControlVoltageScaling+0x78>
  {
    wait_loop_index--;
 c003896:	68fb      	ldr	r3, [r7, #12]
 c003898:	3b01      	subs	r3, #1
 c00389a:	60fb      	str	r3, [r7, #12]
  while ((HAL_IS_BIT_SET(PWR->SR2, PWR_SR2_VOSF)) && (wait_loop_index != 0U))
 c00389c:	4b0b      	ldr	r3, [pc, #44]	; (c0038cc <HAL_PWREx_ControlVoltageScaling+0xa8>)
 c00389e:	695b      	ldr	r3, [r3, #20]
 c0038a0:	f403 6380 	and.w	r3, r3, #1024	; 0x400
 c0038a4:	f5b3 6f80 	cmp.w	r3, #1024	; 0x400
 c0038a8:	d102      	bne.n	c0038b0 <HAL_PWREx_ControlVoltageScaling+0x8c>
 c0038aa:	68fb      	ldr	r3, [r7, #12]
 c0038ac:	2b00      	cmp	r3, #0
 c0038ae:	d1f2      	bne.n	c003896 <HAL_PWREx_ControlVoltageScaling+0x72>
  }

  if (HAL_IS_BIT_SET(PWR->SR2, PWR_SR2_VOSF))
 c0038b0:	4b06      	ldr	r3, [pc, #24]	; (c0038cc <HAL_PWREx_ControlVoltageScaling+0xa8>)
 c0038b2:	695b      	ldr	r3, [r3, #20]
 c0038b4:	f403 6380 	and.w	r3, r3, #1024	; 0x400
 c0038b8:	f5b3 6f80 	cmp.w	r3, #1024	; 0x400
 c0038bc:	d101      	bne.n	c0038c2 <HAL_PWREx_ControlVoltageScaling+0x9e>
  {
    return HAL_TIMEOUT;
 c0038be:	2303      	movs	r3, #3
 c0038c0:	e000      	b.n	c0038c4 <HAL_PWREx_ControlVoltageScaling+0xa0>
  }

  return HAL_OK;
 c0038c2:	2300      	movs	r3, #0
}
 c0038c4:	4618      	mov	r0, r3
 c0038c6:	3710      	adds	r7, #16
 c0038c8:	46bd      	mov	sp, r7
 c0038ca:	bd80      	pop	{r7, pc}
 c0038cc:	50007000 	.word	0x50007000
 c0038d0:	300000c0 	.word	0x300000c0
 c0038d4:	0a7c5ac5 	.word	0x0a7c5ac5
 c0038d8:	cccccccd 	.word	0xcccccccd

0c0038dc <HAL_PWREx_EnableVddIO2>:
  * @brief Enable VDDIO2 supply.
  * @note  Remove VDDIO2 electrical and logical isolation, once VDDIO2 supply is present.
  * @retval None
  */
void HAL_PWREx_EnableVddIO2(void)
{
 c0038dc:	b480      	push	{r7}
 c0038de:	af00      	add	r7, sp, #0
  SET_BIT(PWR->CR2, PWR_CR2_IOSV);
 c0038e0:	4b05      	ldr	r3, [pc, #20]	; (c0038f8 <HAL_PWREx_EnableVddIO2+0x1c>)
 c0038e2:	685b      	ldr	r3, [r3, #4]
 c0038e4:	4a04      	ldr	r2, [pc, #16]	; (c0038f8 <HAL_PWREx_EnableVddIO2+0x1c>)
 c0038e6:	f443 7300 	orr.w	r3, r3, #512	; 0x200
 c0038ea:	6053      	str	r3, [r2, #4]
}
 c0038ec:	bf00      	nop
 c0038ee:	46bd      	mov	sp, r7
 c0038f0:	f85d 7b04 	ldr.w	r7, [sp], #4
 c0038f4:	4770      	bx	lr
 c0038f6:	bf00      	nop
 c0038f8:	50007000 	.word	0x50007000

0c0038fc <HAL_PWREx_DisableUCPDDeadBattery>:
  *       or to hand over control to the UCPD (which should therefore be
  *       initialized before doing the disable).
  * @retval None
  */
void HAL_PWREx_DisableUCPDDeadBattery(void)
{
 c0038fc:	b480      	push	{r7}
 c0038fe:	af00      	add	r7, sp, #0
  /* Write 1 to disable the USB Type-C dead battery pull-down behavior */
  SET_BIT(PWR->CR3, PWR_CR3_UCPD_DBDIS);
 c003900:	4b05      	ldr	r3, [pc, #20]	; (c003918 <HAL_PWREx_DisableUCPDDeadBattery+0x1c>)
 c003902:	689b      	ldr	r3, [r3, #8]
 c003904:	4a04      	ldr	r2, [pc, #16]	; (c003918 <HAL_PWREx_DisableUCPDDeadBattery+0x1c>)
 c003906:	f443 4380 	orr.w	r3, r3, #16384	; 0x4000
 c00390a:	6093      	str	r3, [r2, #8]
}
 c00390c:	bf00      	nop
 c00390e:	46bd      	mov	sp, r7
 c003910:	f85d 7b04 	ldr.w	r7, [sp], #4
 c003914:	4770      	bx	lr
 c003916:	bf00      	nop
 c003918:	50007000 	.word	0x50007000

0c00391c <HAL_PWREx_SMPS_GetEffectiveMode>:
  *         @arg @ref PWR_SMPS_HIGH_POWER    SMPS step down converter in high-power mode (default)
  *         @arg @ref PWR_SMPS_LOW_POWER     SMPS step down converter in low-power mode
  *         @arg @ref PWR_SMPS_BYPASS        SMPS step down converter in bypass mode
  */
uint32_t HAL_PWREx_SMPS_GetEffectiveMode(void)
{
 c00391c:	b480      	push	{r7}
 c00391e:	b083      	sub	sp, #12
 c003920:	af00      	add	r7, sp, #0
  uint32_t mode;
  uint32_t pwr_sr1;

  pwr_sr1 = READ_REG(PWR->SR1);
 c003922:	4b0f      	ldr	r3, [pc, #60]	; (c003960 <HAL_PWREx_SMPS_GetEffectiveMode+0x44>)
 c003924:	691b      	ldr	r3, [r3, #16]
 c003926:	603b      	str	r3, [r7, #0]
  if (READ_BIT(pwr_sr1, PWR_SR1_SMPSBYPRDY) != 0U)
 c003928:	683b      	ldr	r3, [r7, #0]
 c00392a:	f403 5380 	and.w	r3, r3, #4096	; 0x1000
 c00392e:	2b00      	cmp	r3, #0
 c003930:	d003      	beq.n	c00393a <HAL_PWREx_SMPS_GetEffectiveMode+0x1e>
  {
    mode = PWR_SMPS_BYPASS;
 c003932:	f44f 5380 	mov.w	r3, #4096	; 0x1000
 c003936:	607b      	str	r3, [r7, #4]
 c003938:	e00a      	b.n	c003950 <HAL_PWREx_SMPS_GetEffectiveMode+0x34>
  }
  else if (READ_BIT(pwr_sr1, PWR_SR1_SMPSHPRDY) == 0U)
 c00393a:	683b      	ldr	r3, [r7, #0]
 c00393c:	f403 4300 	and.w	r3, r3, #32768	; 0x8000
 c003940:	2b00      	cmp	r3, #0
 c003942:	d103      	bne.n	c00394c <HAL_PWREx_SMPS_GetEffectiveMode+0x30>
  {
    mode = PWR_SMPS_LOW_POWER;
 c003944:	f44f 4300 	mov.w	r3, #32768	; 0x8000
 c003948:	607b      	str	r3, [r7, #4]
 c00394a:	e001      	b.n	c003950 <HAL_PWREx_SMPS_GetEffectiveMode+0x34>
  }
  else
  {
    mode = PWR_SMPS_HIGH_POWER;
 c00394c:	2300      	movs	r3, #0
 c00394e:	607b      	str	r3, [r7, #4]
  }

  return mode;
 c003950:	687b      	ldr	r3, [r7, #4]
}
 c003952:	4618      	mov	r0, r3
 c003954:	370c      	adds	r7, #12
 c003956:	46bd      	mov	sp, r7
 c003958:	f85d 7b04 	ldr.w	r7, [sp], #4
 c00395c:	4770      	bx	lr
 c00395e:	bf00      	nop
 c003960:	50007000 	.word	0x50007000

0c003964 <HAL_RCC_OscConfig>:
  *         and is updated by this function in case of simple MSI range update when MSI
  *         used as system clock.
  * @retval HAL status
  */
HAL_StatusTypeDef HAL_RCC_OscConfig(RCC_OscInitTypeDef  *RCC_OscInitStruct)
{
 c003964:	b580      	push	{r7, lr}
 c003966:	b088      	sub	sp, #32
 c003968:	af00      	add	r7, sp, #0
 c00396a:	6078      	str	r0, [r7, #4]
  uint32_t tickstart;
  HAL_StatusTypeDef status;
  uint32_t sysclk_source, pll_config;

  /* Check Null pointer */
  if (RCC_OscInitStruct == NULL)
 c00396c:	687b      	ldr	r3, [r7, #4]
 c00396e:	2b00      	cmp	r3, #0
 c003970:	d102      	bne.n	c003978 <HAL_RCC_OscConfig+0x14>
  {
    return HAL_ERROR;
 c003972:	2301      	movs	r3, #1
 c003974:	f000 bcc2 	b.w	c0042fc <HAL_RCC_OscConfig+0x998>
  }

  /* Check the parameters */
  assert_param(IS_RCC_OSCILLATORTYPE(RCC_OscInitStruct->OscillatorType));

  sysclk_source = __HAL_RCC_GET_SYSCLK_SOURCE();
 c003978:	4b99      	ldr	r3, [pc, #612]	; (c003be0 <HAL_RCC_OscConfig+0x27c>)
 c00397a:	689b      	ldr	r3, [r3, #8]
 c00397c:	f003 030c 	and.w	r3, r3, #12
 c003980:	61bb      	str	r3, [r7, #24]
  pll_config = __HAL_RCC_GET_PLL_OSCSOURCE();
 c003982:	4b97      	ldr	r3, [pc, #604]	; (c003be0 <HAL_RCC_OscConfig+0x27c>)
 c003984:	68db      	ldr	r3, [r3, #12]
 c003986:	f003 0303 	and.w	r3, r3, #3
 c00398a:	617b      	str	r3, [r7, #20]

  /*----------------------------- MSI Configuration --------------------------*/
  if (((RCC_OscInitStruct->OscillatorType) & RCC_OSCILLATORTYPE_MSI) == RCC_OSCILLATORTYPE_MSI)
 c00398c:	687b      	ldr	r3, [r7, #4]
 c00398e:	681b      	ldr	r3, [r3, #0]
 c003990:	f003 0310 	and.w	r3, r3, #16
 c003994:	2b00      	cmp	r3, #0
 c003996:	f000 80e9 	beq.w	c003b6c <HAL_RCC_OscConfig+0x208>
    assert_param(IS_RCC_MSI(RCC_OscInitStruct->MSIState));
    assert_param(IS_RCC_MSICALIBRATION_VALUE(RCC_OscInitStruct->MSICalibrationValue));
    assert_param(IS_RCC_MSI_CLOCK_RANGE(RCC_OscInitStruct->MSIClockRange));

    /* Check if MSI is used as system clock or as PLL source when PLL is selected as system clock */
    if ((sysclk_source == RCC_SYSCLKSOURCE_STATUS_MSI) ||
 c00399a:	69bb      	ldr	r3, [r7, #24]
 c00399c:	2b00      	cmp	r3, #0
 c00399e:	d006      	beq.n	c0039ae <HAL_RCC_OscConfig+0x4a>
 c0039a0:	69bb      	ldr	r3, [r7, #24]
 c0039a2:	2b0c      	cmp	r3, #12
 c0039a4:	f040 8083 	bne.w	c003aae <HAL_RCC_OscConfig+0x14a>
        ((sysclk_source == RCC_SYSCLKSOURCE_STATUS_PLLCLK) && (pll_config == RCC_PLLSOURCE_MSI)))
 c0039a8:	697b      	ldr	r3, [r7, #20]
 c0039aa:	2b01      	cmp	r3, #1
 c0039ac:	d17f      	bne.n	c003aae <HAL_RCC_OscConfig+0x14a>
    {
      if ((READ_BIT(RCC->CR, RCC_CR_MSIRDY) != 0U) && (RCC_OscInitStruct->MSIState == RCC_MSI_OFF))
 c0039ae:	4b8c      	ldr	r3, [pc, #560]	; (c003be0 <HAL_RCC_OscConfig+0x27c>)
 c0039b0:	681b      	ldr	r3, [r3, #0]
 c0039b2:	f003 0302 	and.w	r3, r3, #2
 c0039b6:	2b00      	cmp	r3, #0
 c0039b8:	d006      	beq.n	c0039c8 <HAL_RCC_OscConfig+0x64>
 c0039ba:	687b      	ldr	r3, [r7, #4]
 c0039bc:	69db      	ldr	r3, [r3, #28]
 c0039be:	2b00      	cmp	r3, #0
 c0039c0:	d102      	bne.n	c0039c8 <HAL_RCC_OscConfig+0x64>
      {
        return HAL_ERROR;
 c0039c2:	2301      	movs	r3, #1
 c0039c4:	f000 bc9a 	b.w	c0042fc <HAL_RCC_OscConfig+0x998>
      else
      {
        /* To correctly read data from FLASH memory, the number of wait states (LATENCY)
           must be correctly programmed according to the frequency of the CPU clock
           (HCLK) and the supply voltage of the device. */
        if (RCC_OscInitStruct->MSIClockRange > __HAL_RCC_GET_MSI_RANGE())
 c0039c8:	687b      	ldr	r3, [r7, #4]
 c0039ca:	6a5a      	ldr	r2, [r3, #36]	; 0x24
 c0039cc:	4b84      	ldr	r3, [pc, #528]	; (c003be0 <HAL_RCC_OscConfig+0x27c>)
 c0039ce:	681b      	ldr	r3, [r3, #0]
 c0039d0:	f003 0308 	and.w	r3, r3, #8
 c0039d4:	2b00      	cmp	r3, #0
 c0039d6:	d004      	beq.n	c0039e2 <HAL_RCC_OscConfig+0x7e>
 c0039d8:	4b81      	ldr	r3, [pc, #516]	; (c003be0 <HAL_RCC_OscConfig+0x27c>)
 c0039da:	681b      	ldr	r3, [r3, #0]
 c0039dc:	f003 03f0 	and.w	r3, r3, #240	; 0xf0
 c0039e0:	e005      	b.n	c0039ee <HAL_RCC_OscConfig+0x8a>
 c0039e2:	4b7f      	ldr	r3, [pc, #508]	; (c003be0 <HAL_RCC_OscConfig+0x27c>)
 c0039e4:	f8d3 3094 	ldr.w	r3, [r3, #148]	; 0x94
 c0039e8:	091b      	lsrs	r3, r3, #4
 c0039ea:	f003 03f0 	and.w	r3, r3, #240	; 0xf0
 c0039ee:	4293      	cmp	r3, r2
 c0039f0:	d224      	bcs.n	c003a3c <HAL_RCC_OscConfig+0xd8>
        {
          /* First increase number of wait states update if necessary */
          if (RCC_SetFlashLatencyFromMSIRange(RCC_OscInitStruct->MSIClockRange) != HAL_OK)
 c0039f2:	687b      	ldr	r3, [r7, #4]
 c0039f4:	6a5b      	ldr	r3, [r3, #36]	; 0x24
 c0039f6:	4618      	mov	r0, r3
 c0039f8:	f000 fe9c 	bl	c004734 <RCC_SetFlashLatencyFromMSIRange>
 c0039fc:	4603      	mov	r3, r0
 c0039fe:	2b00      	cmp	r3, #0
 c003a00:	d002      	beq.n	c003a08 <HAL_RCC_OscConfig+0xa4>
          {
            return HAL_ERROR;
 c003a02:	2301      	movs	r3, #1
 c003a04:	f000 bc7a 	b.w	c0042fc <HAL_RCC_OscConfig+0x998>
          }

          /* Selects the Multiple Speed oscillator (MSI) clock range .*/
          __HAL_RCC_MSI_RANGE_CONFIG(RCC_OscInitStruct->MSIClockRange);
 c003a08:	4b75      	ldr	r3, [pc, #468]	; (c003be0 <HAL_RCC_OscConfig+0x27c>)
 c003a0a:	681b      	ldr	r3, [r3, #0]
 c003a0c:	4a74      	ldr	r2, [pc, #464]	; (c003be0 <HAL_RCC_OscConfig+0x27c>)
 c003a0e:	f043 0308 	orr.w	r3, r3, #8
 c003a12:	6013      	str	r3, [r2, #0]
 c003a14:	4b72      	ldr	r3, [pc, #456]	; (c003be0 <HAL_RCC_OscConfig+0x27c>)
 c003a16:	681b      	ldr	r3, [r3, #0]
 c003a18:	f023 02f0 	bic.w	r2, r3, #240	; 0xf0
 c003a1c:	687b      	ldr	r3, [r7, #4]
 c003a1e:	6a5b      	ldr	r3, [r3, #36]	; 0x24
 c003a20:	496f      	ldr	r1, [pc, #444]	; (c003be0 <HAL_RCC_OscConfig+0x27c>)
 c003a22:	4313      	orrs	r3, r2
 c003a24:	600b      	str	r3, [r1, #0]
          /* Adjusts the Multiple Speed oscillator (MSI) calibration value.*/
          __HAL_RCC_MSI_CALIBRATIONVALUE_ADJUST(RCC_OscInitStruct->MSICalibrationValue);
 c003a26:	4b6e      	ldr	r3, [pc, #440]	; (c003be0 <HAL_RCC_OscConfig+0x27c>)
 c003a28:	685b      	ldr	r3, [r3, #4]
 c003a2a:	f423 427f 	bic.w	r2, r3, #65280	; 0xff00
 c003a2e:	687b      	ldr	r3, [r7, #4]
 c003a30:	6a1b      	ldr	r3, [r3, #32]
 c003a32:	021b      	lsls	r3, r3, #8
 c003a34:	496a      	ldr	r1, [pc, #424]	; (c003be0 <HAL_RCC_OscConfig+0x27c>)
 c003a36:	4313      	orrs	r3, r2
 c003a38:	604b      	str	r3, [r1, #4]
 c003a3a:	e026      	b.n	c003a8a <HAL_RCC_OscConfig+0x126>
        }
        else
        {
          /* Else, keep current flash latency while decreasing applies */
          /* Selects the Multiple Speed oscillator (MSI) clock range .*/
          __HAL_RCC_MSI_RANGE_CONFIG(RCC_OscInitStruct->MSIClockRange);
 c003a3c:	4b68      	ldr	r3, [pc, #416]	; (c003be0 <HAL_RCC_OscConfig+0x27c>)
 c003a3e:	681b      	ldr	r3, [r3, #0]
 c003a40:	4a67      	ldr	r2, [pc, #412]	; (c003be0 <HAL_RCC_OscConfig+0x27c>)
 c003a42:	f043 0308 	orr.w	r3, r3, #8
 c003a46:	6013      	str	r3, [r2, #0]
 c003a48:	4b65      	ldr	r3, [pc, #404]	; (c003be0 <HAL_RCC_OscConfig+0x27c>)
 c003a4a:	681b      	ldr	r3, [r3, #0]
 c003a4c:	f023 02f0 	bic.w	r2, r3, #240	; 0xf0
 c003a50:	687b      	ldr	r3, [r7, #4]
 c003a52:	6a5b      	ldr	r3, [r3, #36]	; 0x24
 c003a54:	4962      	ldr	r1, [pc, #392]	; (c003be0 <HAL_RCC_OscConfig+0x27c>)
 c003a56:	4313      	orrs	r3, r2
 c003a58:	600b      	str	r3, [r1, #0]
          /* Adjusts the Multiple Speed oscillator (MSI) calibration value.*/
          __HAL_RCC_MSI_CALIBRATIONVALUE_ADJUST(RCC_OscInitStruct->MSICalibrationValue);
 c003a5a:	4b61      	ldr	r3, [pc, #388]	; (c003be0 <HAL_RCC_OscConfig+0x27c>)
 c003a5c:	685b      	ldr	r3, [r3, #4]
 c003a5e:	f423 427f 	bic.w	r2, r3, #65280	; 0xff00
 c003a62:	687b      	ldr	r3, [r7, #4]
 c003a64:	6a1b      	ldr	r3, [r3, #32]
 c003a66:	021b      	lsls	r3, r3, #8
 c003a68:	495d      	ldr	r1, [pc, #372]	; (c003be0 <HAL_RCC_OscConfig+0x27c>)
 c003a6a:	4313      	orrs	r3, r2
 c003a6c:	604b      	str	r3, [r1, #4]

          /* Decrease number of wait states update if necessary */
          /* Only possible when MSI is the System clock source  */
          if (sysclk_source == RCC_SYSCLKSOURCE_STATUS_MSI)
 c003a6e:	69bb      	ldr	r3, [r7, #24]
 c003a70:	2b00      	cmp	r3, #0
 c003a72:	d10a      	bne.n	c003a8a <HAL_RCC_OscConfig+0x126>
          {
            if (RCC_SetFlashLatencyFromMSIRange(RCC_OscInitStruct->MSIClockRange) != HAL_OK)
 c003a74:	687b      	ldr	r3, [r7, #4]
 c003a76:	6a5b      	ldr	r3, [r3, #36]	; 0x24
 c003a78:	4618      	mov	r0, r3
 c003a7a:	f000 fe5b 	bl	c004734 <RCC_SetFlashLatencyFromMSIRange>
 c003a7e:	4603      	mov	r3, r0
 c003a80:	2b00      	cmp	r3, #0
 c003a82:	d002      	beq.n	c003a8a <HAL_RCC_OscConfig+0x126>
            {
              return HAL_ERROR;
 c003a84:	2301      	movs	r3, #1
 c003a86:	f000 bc39 	b.w	c0042fc <HAL_RCC_OscConfig+0x998>
            }
          }
        }

        /* Update the SystemCoreClock global variable */
        SystemCoreClock = HAL_RCC_GetHCLKFreq();
 c003a8a:	f000 fe17 	bl	c0046bc <HAL_RCC_GetHCLKFreq>
 c003a8e:	4603      	mov	r3, r0
 c003a90:	4a54      	ldr	r2, [pc, #336]	; (c003be4 <HAL_RCC_OscConfig+0x280>)
 c003a92:	6013      	str	r3, [r2, #0]

        /* Configure the source of time base considering new system clocks settings*/
        status = HAL_InitTick(uwTickPrio);
 c003a94:	4b54      	ldr	r3, [pc, #336]	; (c003be8 <HAL_RCC_OscConfig+0x284>)
 c003a96:	681b      	ldr	r3, [r3, #0]
 c003a98:	4618      	mov	r0, r3
 c003a9a:	f7fe fac1 	bl	c002020 <HAL_InitTick>
 c003a9e:	4603      	mov	r3, r0
 c003aa0:	73fb      	strb	r3, [r7, #15]
        if (status != HAL_OK)
 c003aa2:	7bfb      	ldrb	r3, [r7, #15]
 c003aa4:	2b00      	cmp	r3, #0
 c003aa6:	d060      	beq.n	c003b6a <HAL_RCC_OscConfig+0x206>
        {
          return status;
 c003aa8:	7bfb      	ldrb	r3, [r7, #15]
 c003aaa:	f000 bc27 	b.w	c0042fc <HAL_RCC_OscConfig+0x998>
      }
    }
    else
    {
      /* Check the MSI State */
      if (RCC_OscInitStruct->MSIState != RCC_MSI_OFF)
 c003aae:	687b      	ldr	r3, [r7, #4]
 c003ab0:	69db      	ldr	r3, [r3, #28]
 c003ab2:	2b00      	cmp	r3, #0
 c003ab4:	d039      	beq.n	c003b2a <HAL_RCC_OscConfig+0x1c6>
      {
        /* Enable the Internal High Speed oscillator (MSI). */
        __HAL_RCC_MSI_ENABLE();
 c003ab6:	4b4a      	ldr	r3, [pc, #296]	; (c003be0 <HAL_RCC_OscConfig+0x27c>)
 c003ab8:	681b      	ldr	r3, [r3, #0]
 c003aba:	4a49      	ldr	r2, [pc, #292]	; (c003be0 <HAL_RCC_OscConfig+0x27c>)
 c003abc:	f043 0301 	orr.w	r3, r3, #1
 c003ac0:	6013      	str	r3, [r2, #0]

        /* Get timeout */
        tickstart = HAL_GetTick();
 c003ac2:	f7fe fafd 	bl	c0020c0 <HAL_GetTick>
 c003ac6:	6138      	str	r0, [r7, #16]

        /* Wait till MSI is ready */
        while (READ_BIT(RCC->CR, RCC_CR_MSIRDY) == 0U)
 c003ac8:	e00f      	b.n	c003aea <HAL_RCC_OscConfig+0x186>
        {
          if ((HAL_GetTick() - tickstart) > MSI_TIMEOUT_VALUE)
 c003aca:	f7fe faf9 	bl	c0020c0 <HAL_GetTick>
 c003ace:	4602      	mov	r2, r0
 c003ad0:	693b      	ldr	r3, [r7, #16]
 c003ad2:	1ad3      	subs	r3, r2, r3
 c003ad4:	2b02      	cmp	r3, #2
 c003ad6:	d908      	bls.n	c003aea <HAL_RCC_OscConfig+0x186>
          {
            /* New check to avoid false timeout detection in case of preemption */
            if (READ_BIT(RCC->CR, RCC_CR_MSIRDY) == 0U)
 c003ad8:	4b41      	ldr	r3, [pc, #260]	; (c003be0 <HAL_RCC_OscConfig+0x27c>)
 c003ada:	681b      	ldr	r3, [r3, #0]
 c003adc:	f003 0302 	and.w	r3, r3, #2
 c003ae0:	2b00      	cmp	r3, #0
 c003ae2:	d102      	bne.n	c003aea <HAL_RCC_OscConfig+0x186>
            {
              return HAL_TIMEOUT;
 c003ae4:	2303      	movs	r3, #3
 c003ae6:	f000 bc09 	b.w	c0042fc <HAL_RCC_OscConfig+0x998>
        while (READ_BIT(RCC->CR, RCC_CR_MSIRDY) == 0U)
 c003aea:	4b3d      	ldr	r3, [pc, #244]	; (c003be0 <HAL_RCC_OscConfig+0x27c>)
 c003aec:	681b      	ldr	r3, [r3, #0]
 c003aee:	f003 0302 	and.w	r3, r3, #2
 c003af2:	2b00      	cmp	r3, #0
 c003af4:	d0e9      	beq.n	c003aca <HAL_RCC_OscConfig+0x166>
            }
          }
        }
        /* Selects the Multiple Speed oscillator (MSI) clock range .*/
        __HAL_RCC_MSI_RANGE_CONFIG(RCC_OscInitStruct->MSIClockRange);
 c003af6:	4b3a      	ldr	r3, [pc, #232]	; (c003be0 <HAL_RCC_OscConfig+0x27c>)
 c003af8:	681b      	ldr	r3, [r3, #0]
 c003afa:	4a39      	ldr	r2, [pc, #228]	; (c003be0 <HAL_RCC_OscConfig+0x27c>)
 c003afc:	f043 0308 	orr.w	r3, r3, #8
 c003b00:	6013      	str	r3, [r2, #0]
 c003b02:	4b37      	ldr	r3, [pc, #220]	; (c003be0 <HAL_RCC_OscConfig+0x27c>)
 c003b04:	681b      	ldr	r3, [r3, #0]
 c003b06:	f023 02f0 	bic.w	r2, r3, #240	; 0xf0
 c003b0a:	687b      	ldr	r3, [r7, #4]
 c003b0c:	6a5b      	ldr	r3, [r3, #36]	; 0x24
 c003b0e:	4934      	ldr	r1, [pc, #208]	; (c003be0 <HAL_RCC_OscConfig+0x27c>)
 c003b10:	4313      	orrs	r3, r2
 c003b12:	600b      	str	r3, [r1, #0]
        /* Adjusts the Multiple Speed oscillator (MSI) calibration value.*/
        __HAL_RCC_MSI_CALIBRATIONVALUE_ADJUST(RCC_OscInitStruct->MSICalibrationValue);
 c003b14:	4b32      	ldr	r3, [pc, #200]	; (c003be0 <HAL_RCC_OscConfig+0x27c>)
 c003b16:	685b      	ldr	r3, [r3, #4]
 c003b18:	f423 427f 	bic.w	r2, r3, #65280	; 0xff00
 c003b1c:	687b      	ldr	r3, [r7, #4]
 c003b1e:	6a1b      	ldr	r3, [r3, #32]
 c003b20:	021b      	lsls	r3, r3, #8
 c003b22:	492f      	ldr	r1, [pc, #188]	; (c003be0 <HAL_RCC_OscConfig+0x27c>)
 c003b24:	4313      	orrs	r3, r2
 c003b26:	604b      	str	r3, [r1, #4]
 c003b28:	e020      	b.n	c003b6c <HAL_RCC_OscConfig+0x208>

      }
      else
      {
        /* Disable the Internal High Speed oscillator (MSI). */
        __HAL_RCC_MSI_DISABLE();
 c003b2a:	4b2d      	ldr	r3, [pc, #180]	; (c003be0 <HAL_RCC_OscConfig+0x27c>)
 c003b2c:	681b      	ldr	r3, [r3, #0]
 c003b2e:	4a2c      	ldr	r2, [pc, #176]	; (c003be0 <HAL_RCC_OscConfig+0x27c>)
 c003b30:	f023 0301 	bic.w	r3, r3, #1
 c003b34:	6013      	str	r3, [r2, #0]

        /* Get timeout */
        tickstart = HAL_GetTick();
 c003b36:	f7fe fac3 	bl	c0020c0 <HAL_GetTick>
 c003b3a:	6138      	str	r0, [r7, #16]

        /* Wait till MSI is ready */
        while (READ_BIT(RCC->CR, RCC_CR_MSIRDY) != 0U)
 c003b3c:	e00e      	b.n	c003b5c <HAL_RCC_OscConfig+0x1f8>
        {
          if ((HAL_GetTick() - tickstart) > MSI_TIMEOUT_VALUE)
 c003b3e:	f7fe fabf 	bl	c0020c0 <HAL_GetTick>
 c003b42:	4602      	mov	r2, r0
 c003b44:	693b      	ldr	r3, [r7, #16]
 c003b46:	1ad3      	subs	r3, r2, r3
 c003b48:	2b02      	cmp	r3, #2
 c003b4a:	d907      	bls.n	c003b5c <HAL_RCC_OscConfig+0x1f8>
          {
            /* New check to avoid false timeout detection in case of preemption */
            if (READ_BIT(RCC->CR, RCC_CR_MSIRDY) != 0U)
 c003b4c:	4b24      	ldr	r3, [pc, #144]	; (c003be0 <HAL_RCC_OscConfig+0x27c>)
 c003b4e:	681b      	ldr	r3, [r3, #0]
 c003b50:	f003 0302 	and.w	r3, r3, #2
 c003b54:	2b00      	cmp	r3, #0
 c003b56:	d001      	beq.n	c003b5c <HAL_RCC_OscConfig+0x1f8>
            {
              return HAL_TIMEOUT;
 c003b58:	2303      	movs	r3, #3
 c003b5a:	e3cf      	b.n	c0042fc <HAL_RCC_OscConfig+0x998>
        while (READ_BIT(RCC->CR, RCC_CR_MSIRDY) != 0U)
 c003b5c:	4b20      	ldr	r3, [pc, #128]	; (c003be0 <HAL_RCC_OscConfig+0x27c>)
 c003b5e:	681b      	ldr	r3, [r3, #0]
 c003b60:	f003 0302 	and.w	r3, r3, #2
 c003b64:	2b00      	cmp	r3, #0
 c003b66:	d1ea      	bne.n	c003b3e <HAL_RCC_OscConfig+0x1da>
 c003b68:	e000      	b.n	c003b6c <HAL_RCC_OscConfig+0x208>
      if ((READ_BIT(RCC->CR, RCC_CR_MSIRDY) != 0U) && (RCC_OscInitStruct->MSIState == RCC_MSI_OFF))
 c003b6a:	bf00      	nop
        }
      }
    }
  }
  /*------------------------------- HSE Configuration ------------------------*/
  if (((RCC_OscInitStruct->OscillatorType) & RCC_OSCILLATORTYPE_HSE) == RCC_OSCILLATORTYPE_HSE)
 c003b6c:	687b      	ldr	r3, [r7, #4]
 c003b6e:	681b      	ldr	r3, [r3, #0]
 c003b70:	f003 0301 	and.w	r3, r3, #1
 c003b74:	2b00      	cmp	r3, #0
 c003b76:	d07e      	beq.n	c003c76 <HAL_RCC_OscConfig+0x312>
  {
    /* Check the parameters */
    assert_param(IS_RCC_HSE(RCC_OscInitStruct->HSEState));

    /* When the HSE is used as system clock or clock source for PLL in these cases it is not allowed to be disabled */
    if ((sysclk_source == RCC_SYSCLKSOURCE_STATUS_HSE) ||
 c003b78:	69bb      	ldr	r3, [r7, #24]
 c003b7a:	2b08      	cmp	r3, #8
 c003b7c:	d005      	beq.n	c003b8a <HAL_RCC_OscConfig+0x226>
 c003b7e:	69bb      	ldr	r3, [r7, #24]
 c003b80:	2b0c      	cmp	r3, #12
 c003b82:	d10e      	bne.n	c003ba2 <HAL_RCC_OscConfig+0x23e>
        ((sysclk_source == RCC_SYSCLKSOURCE_STATUS_PLLCLK) && (pll_config == RCC_PLLSOURCE_HSE)))
 c003b84:	697b      	ldr	r3, [r7, #20]
 c003b86:	2b03      	cmp	r3, #3
 c003b88:	d10b      	bne.n	c003ba2 <HAL_RCC_OscConfig+0x23e>
    {
      if ((READ_BIT(RCC->CR, RCC_CR_HSERDY) != 0U) && (RCC_OscInitStruct->HSEState == RCC_HSE_OFF))
 c003b8a:	4b15      	ldr	r3, [pc, #84]	; (c003be0 <HAL_RCC_OscConfig+0x27c>)
 c003b8c:	681b      	ldr	r3, [r3, #0]
 c003b8e:	f403 3300 	and.w	r3, r3, #131072	; 0x20000
 c003b92:	2b00      	cmp	r3, #0
 c003b94:	d06e      	beq.n	c003c74 <HAL_RCC_OscConfig+0x310>
 c003b96:	687b      	ldr	r3, [r7, #4]
 c003b98:	685b      	ldr	r3, [r3, #4]
 c003b9a:	2b00      	cmp	r3, #0
 c003b9c:	d16a      	bne.n	c003c74 <HAL_RCC_OscConfig+0x310>
      {
        return HAL_ERROR;
 c003b9e:	2301      	movs	r3, #1
 c003ba0:	e3ac      	b.n	c0042fc <HAL_RCC_OscConfig+0x998>
      }
    }
    else
    {
      /* Set the new HSE configuration ---------------------------------------*/
      __HAL_RCC_HSE_CONFIG(RCC_OscInitStruct->HSEState);
 c003ba2:	687b      	ldr	r3, [r7, #4]
 c003ba4:	685b      	ldr	r3, [r3, #4]
 c003ba6:	f5b3 3f80 	cmp.w	r3, #65536	; 0x10000
 c003baa:	d106      	bne.n	c003bba <HAL_RCC_OscConfig+0x256>
 c003bac:	4b0c      	ldr	r3, [pc, #48]	; (c003be0 <HAL_RCC_OscConfig+0x27c>)
 c003bae:	681b      	ldr	r3, [r3, #0]
 c003bb0:	4a0b      	ldr	r2, [pc, #44]	; (c003be0 <HAL_RCC_OscConfig+0x27c>)
 c003bb2:	f443 3380 	orr.w	r3, r3, #65536	; 0x10000
 c003bb6:	6013      	str	r3, [r2, #0]
 c003bb8:	e024      	b.n	c003c04 <HAL_RCC_OscConfig+0x2a0>
 c003bba:	687b      	ldr	r3, [r7, #4]
 c003bbc:	685b      	ldr	r3, [r3, #4]
 c003bbe:	f5b3 2fa0 	cmp.w	r3, #327680	; 0x50000
 c003bc2:	d113      	bne.n	c003bec <HAL_RCC_OscConfig+0x288>
 c003bc4:	4b06      	ldr	r3, [pc, #24]	; (c003be0 <HAL_RCC_OscConfig+0x27c>)
 c003bc6:	681b      	ldr	r3, [r3, #0]
 c003bc8:	4a05      	ldr	r2, [pc, #20]	; (c003be0 <HAL_RCC_OscConfig+0x27c>)
 c003bca:	f443 2380 	orr.w	r3, r3, #262144	; 0x40000
 c003bce:	6013      	str	r3, [r2, #0]
 c003bd0:	4b03      	ldr	r3, [pc, #12]	; (c003be0 <HAL_RCC_OscConfig+0x27c>)
 c003bd2:	681b      	ldr	r3, [r3, #0]
 c003bd4:	4a02      	ldr	r2, [pc, #8]	; (c003be0 <HAL_RCC_OscConfig+0x27c>)
 c003bd6:	f443 3380 	orr.w	r3, r3, #65536	; 0x10000
 c003bda:	6013      	str	r3, [r2, #0]
 c003bdc:	e012      	b.n	c003c04 <HAL_RCC_OscConfig+0x2a0>
 c003bde:	bf00      	nop
 c003be0:	50021000 	.word	0x50021000
 c003be4:	300000c0 	.word	0x300000c0
 c003be8:	300000c4 	.word	0x300000c4
 c003bec:	4b8b      	ldr	r3, [pc, #556]	; (c003e1c <HAL_RCC_OscConfig+0x4b8>)
 c003bee:	681b      	ldr	r3, [r3, #0]
 c003bf0:	4a8a      	ldr	r2, [pc, #552]	; (c003e1c <HAL_RCC_OscConfig+0x4b8>)
 c003bf2:	f423 3380 	bic.w	r3, r3, #65536	; 0x10000
 c003bf6:	6013      	str	r3, [r2, #0]
 c003bf8:	4b88      	ldr	r3, [pc, #544]	; (c003e1c <HAL_RCC_OscConfig+0x4b8>)
 c003bfa:	681b      	ldr	r3, [r3, #0]
 c003bfc:	4a87      	ldr	r2, [pc, #540]	; (c003e1c <HAL_RCC_OscConfig+0x4b8>)
 c003bfe:	f423 2380 	bic.w	r3, r3, #262144	; 0x40000
 c003c02:	6013      	str	r3, [r2, #0]

      /* Check the HSE State */
      if (RCC_OscInitStruct->HSEState != RCC_HSE_OFF)
 c003c04:	687b      	ldr	r3, [r7, #4]
 c003c06:	685b      	ldr	r3, [r3, #4]
 c003c08:	2b00      	cmp	r3, #0
 c003c0a:	d019      	beq.n	c003c40 <HAL_RCC_OscConfig+0x2dc>
      {
        /* Get Start Tick*/
        tickstart = HAL_GetTick();
 c003c0c:	f7fe fa58 	bl	c0020c0 <HAL_GetTick>
 c003c10:	6138      	str	r0, [r7, #16]

        /* Wait till HSE is ready */
        while (READ_BIT(RCC->CR, RCC_CR_HSERDY) == 0U)
 c003c12:	e00e      	b.n	c003c32 <HAL_RCC_OscConfig+0x2ce>
        {
          if ((HAL_GetTick() - tickstart) > HSE_TIMEOUT_VALUE)
 c003c14:	f7fe fa54 	bl	c0020c0 <HAL_GetTick>
 c003c18:	4602      	mov	r2, r0
 c003c1a:	693b      	ldr	r3, [r7, #16]
 c003c1c:	1ad3      	subs	r3, r2, r3
 c003c1e:	2b64      	cmp	r3, #100	; 0x64
 c003c20:	d907      	bls.n	c003c32 <HAL_RCC_OscConfig+0x2ce>
          {
            /* New check to avoid false timeout detection in case of preemption */
            if (READ_BIT(RCC->CR, RCC_CR_HSERDY) == 0U)
 c003c22:	4b7e      	ldr	r3, [pc, #504]	; (c003e1c <HAL_RCC_OscConfig+0x4b8>)
 c003c24:	681b      	ldr	r3, [r3, #0]
 c003c26:	f403 3300 	and.w	r3, r3, #131072	; 0x20000
 c003c2a:	2b00      	cmp	r3, #0
 c003c2c:	d101      	bne.n	c003c32 <HAL_RCC_OscConfig+0x2ce>
            {
              return HAL_TIMEOUT;
 c003c2e:	2303      	movs	r3, #3
 c003c30:	e364      	b.n	c0042fc <HAL_RCC_OscConfig+0x998>
        while (READ_BIT(RCC->CR, RCC_CR_HSERDY) == 0U)
 c003c32:	4b7a      	ldr	r3, [pc, #488]	; (c003e1c <HAL_RCC_OscConfig+0x4b8>)
 c003c34:	681b      	ldr	r3, [r3, #0]
 c003c36:	f403 3300 	and.w	r3, r3, #131072	; 0x20000
 c003c3a:	2b00      	cmp	r3, #0
 c003c3c:	d0ea      	beq.n	c003c14 <HAL_RCC_OscConfig+0x2b0>
 c003c3e:	e01a      	b.n	c003c76 <HAL_RCC_OscConfig+0x312>
        }
      }
      else
      {
        /* Get Start Tick*/
        tickstart = HAL_GetTick();
 c003c40:	f7fe fa3e 	bl	c0020c0 <HAL_GetTick>
 c003c44:	6138      	str	r0, [r7, #16]

        /* Wait till HSE is disabled */
        while (READ_BIT(RCC->CR, RCC_CR_HSERDY) != 0U)
 c003c46:	e00e      	b.n	c003c66 <HAL_RCC_OscConfig+0x302>
        {
          if ((HAL_GetTick() - tickstart) > HSE_TIMEOUT_VALUE)
 c003c48:	f7fe fa3a 	bl	c0020c0 <HAL_GetTick>
 c003c4c:	4602      	mov	r2, r0
 c003c4e:	693b      	ldr	r3, [r7, #16]
 c003c50:	1ad3      	subs	r3, r2, r3
 c003c52:	2b64      	cmp	r3, #100	; 0x64
 c003c54:	d907      	bls.n	c003c66 <HAL_RCC_OscConfig+0x302>
          {
            /* New check to avoid false timeout detection in case of preemption */
            if (READ_BIT(RCC->CR, RCC_CR_HSERDY) != 0U)
 c003c56:	4b71      	ldr	r3, [pc, #452]	; (c003e1c <HAL_RCC_OscConfig+0x4b8>)
 c003c58:	681b      	ldr	r3, [r3, #0]
 c003c5a:	f403 3300 	and.w	r3, r3, #131072	; 0x20000
 c003c5e:	2b00      	cmp	r3, #0
 c003c60:	d001      	beq.n	c003c66 <HAL_RCC_OscConfig+0x302>
            {
              return HAL_TIMEOUT;
 c003c62:	2303      	movs	r3, #3
 c003c64:	e34a      	b.n	c0042fc <HAL_RCC_OscConfig+0x998>
        while (READ_BIT(RCC->CR, RCC_CR_HSERDY) != 0U)
 c003c66:	4b6d      	ldr	r3, [pc, #436]	; (c003e1c <HAL_RCC_OscConfig+0x4b8>)
 c003c68:	681b      	ldr	r3, [r3, #0]
 c003c6a:	f403 3300 	and.w	r3, r3, #131072	; 0x20000
 c003c6e:	2b00      	cmp	r3, #0
 c003c70:	d1ea      	bne.n	c003c48 <HAL_RCC_OscConfig+0x2e4>
 c003c72:	e000      	b.n	c003c76 <HAL_RCC_OscConfig+0x312>
      if ((READ_BIT(RCC->CR, RCC_CR_HSERDY) != 0U) && (RCC_OscInitStruct->HSEState == RCC_HSE_OFF))
 c003c74:	bf00      	nop
        }
      }
    }
  }
  /*----------------------------- HSI Configuration --------------------------*/
  if (((RCC_OscInitStruct->OscillatorType) & RCC_OSCILLATORTYPE_HSI) == RCC_OSCILLATORTYPE_HSI)
 c003c76:	687b      	ldr	r3, [r7, #4]
 c003c78:	681b      	ldr	r3, [r3, #0]
 c003c7a:	f003 0302 	and.w	r3, r3, #2
 c003c7e:	2b00      	cmp	r3, #0
 c003c80:	d06c      	beq.n	c003d5c <HAL_RCC_OscConfig+0x3f8>
    /* Check the parameters */
    assert_param(IS_RCC_HSI(RCC_OscInitStruct->HSIState));
    assert_param(IS_RCC_HSI_CALIBRATION_VALUE(RCC_OscInitStruct->HSICalibrationValue));

    /* Check if HSI is used as system clock or as PLL source when PLL is selected as system clock */
    if ((sysclk_source == RCC_SYSCLKSOURCE_STATUS_HSI) ||
 c003c82:	69bb      	ldr	r3, [r7, #24]
 c003c84:	2b04      	cmp	r3, #4
 c003c86:	d005      	beq.n	c003c94 <HAL_RCC_OscConfig+0x330>
 c003c88:	69bb      	ldr	r3, [r7, #24]
 c003c8a:	2b0c      	cmp	r3, #12
 c003c8c:	d119      	bne.n	c003cc2 <HAL_RCC_OscConfig+0x35e>
        ((sysclk_source == RCC_SYSCLKSOURCE_STATUS_PLLCLK) && (pll_config == RCC_PLLSOURCE_HSI)))
 c003c8e:	697b      	ldr	r3, [r7, #20]
 c003c90:	2b02      	cmp	r3, #2
 c003c92:	d116      	bne.n	c003cc2 <HAL_RCC_OscConfig+0x35e>
    {
      /* When HSI is used as system clock it will not be disabled */
      if ((READ_BIT(RCC->CR, RCC_CR_HSIRDY) != 0U) && (RCC_OscInitStruct->HSIState == RCC_HSI_OFF))
 c003c94:	4b61      	ldr	r3, [pc, #388]	; (c003e1c <HAL_RCC_OscConfig+0x4b8>)
 c003c96:	681b      	ldr	r3, [r3, #0]
 c003c98:	f403 6380 	and.w	r3, r3, #1024	; 0x400
 c003c9c:	2b00      	cmp	r3, #0
 c003c9e:	d005      	beq.n	c003cac <HAL_RCC_OscConfig+0x348>
 c003ca0:	687b      	ldr	r3, [r7, #4]
 c003ca2:	68db      	ldr	r3, [r3, #12]
 c003ca4:	2b00      	cmp	r3, #0
 c003ca6:	d101      	bne.n	c003cac <HAL_RCC_OscConfig+0x348>
      {
        return HAL_ERROR;
 c003ca8:	2301      	movs	r3, #1
 c003caa:	e327      	b.n	c0042fc <HAL_RCC_OscConfig+0x998>
      }
      /* Otherwise, just the calibration is allowed */
      else
      {
        /* Adjusts the Internal High Speed oscillator (HSI) calibration value.*/
        __HAL_RCC_HSI_CALIBRATIONVALUE_ADJUST(RCC_OscInitStruct->HSICalibrationValue);
 c003cac:	4b5b      	ldr	r3, [pc, #364]	; (c003e1c <HAL_RCC_OscConfig+0x4b8>)
 c003cae:	685b      	ldr	r3, [r3, #4]
 c003cb0:	f023 42fe 	bic.w	r2, r3, #2130706432	; 0x7f000000
 c003cb4:	687b      	ldr	r3, [r7, #4]
 c003cb6:	691b      	ldr	r3, [r3, #16]
 c003cb8:	061b      	lsls	r3, r3, #24
 c003cba:	4958      	ldr	r1, [pc, #352]	; (c003e1c <HAL_RCC_OscConfig+0x4b8>)
 c003cbc:	4313      	orrs	r3, r2
 c003cbe:	604b      	str	r3, [r1, #4]
      if ((READ_BIT(RCC->CR, RCC_CR_HSIRDY) != 0U) && (RCC_OscInitStruct->HSIState == RCC_HSI_OFF))
 c003cc0:	e04c      	b.n	c003d5c <HAL_RCC_OscConfig+0x3f8>
      }
    }
    else
    {
      /* Check the HSI State */
      if (RCC_OscInitStruct->HSIState != RCC_HSI_OFF)
 c003cc2:	687b      	ldr	r3, [r7, #4]
 c003cc4:	68db      	ldr	r3, [r3, #12]
 c003cc6:	2b00      	cmp	r3, #0
 c003cc8:	d029      	beq.n	c003d1e <HAL_RCC_OscConfig+0x3ba>
      {
        /* Enable the Internal High Speed oscillator (HSI). */
        __HAL_RCC_HSI_ENABLE();
 c003cca:	4b54      	ldr	r3, [pc, #336]	; (c003e1c <HAL_RCC_OscConfig+0x4b8>)
 c003ccc:	681b      	ldr	r3, [r3, #0]
 c003cce:	4a53      	ldr	r2, [pc, #332]	; (c003e1c <HAL_RCC_OscConfig+0x4b8>)
 c003cd0:	f443 7380 	orr.w	r3, r3, #256	; 0x100
 c003cd4:	6013      	str	r3, [r2, #0]

        /* Get Start Tick*/
        tickstart = HAL_GetTick();
 c003cd6:	f7fe f9f3 	bl	c0020c0 <HAL_GetTick>
 c003cda:	6138      	str	r0, [r7, #16]

        /* Wait till HSI is ready */
        while (READ_BIT(RCC->CR, RCC_CR_HSIRDY) == 0U)
 c003cdc:	e00e      	b.n	c003cfc <HAL_RCC_OscConfig+0x398>
        {
          if ((HAL_GetTick() - tickstart) > HSI_TIMEOUT_VALUE)
 c003cde:	f7fe f9ef 	bl	c0020c0 <HAL_GetTick>
 c003ce2:	4602      	mov	r2, r0
 c003ce4:	693b      	ldr	r3, [r7, #16]
 c003ce6:	1ad3      	subs	r3, r2, r3
 c003ce8:	2b02      	cmp	r3, #2
 c003cea:	d907      	bls.n	c003cfc <HAL_RCC_OscConfig+0x398>
          {
            /* New check to avoid false timeout detection in case of preemption */
            if (READ_BIT(RCC->CR, RCC_CR_HSIRDY) == 0U)
 c003cec:	4b4b      	ldr	r3, [pc, #300]	; (c003e1c <HAL_RCC_OscConfig+0x4b8>)
 c003cee:	681b      	ldr	r3, [r3, #0]
 c003cf0:	f403 6380 	and.w	r3, r3, #1024	; 0x400
 c003cf4:	2b00      	cmp	r3, #0
 c003cf6:	d101      	bne.n	c003cfc <HAL_RCC_OscConfig+0x398>
            {
              return HAL_TIMEOUT;
 c003cf8:	2303      	movs	r3, #3
 c003cfa:	e2ff      	b.n	c0042fc <HAL_RCC_OscConfig+0x998>
        while (READ_BIT(RCC->CR, RCC_CR_HSIRDY) == 0U)
 c003cfc:	4b47      	ldr	r3, [pc, #284]	; (c003e1c <HAL_RCC_OscConfig+0x4b8>)
 c003cfe:	681b      	ldr	r3, [r3, #0]
 c003d00:	f403 6380 	and.w	r3, r3, #1024	; 0x400
 c003d04:	2b00      	cmp	r3, #0
 c003d06:	d0ea      	beq.n	c003cde <HAL_RCC_OscConfig+0x37a>
            }
          }
        }

        /* Adjusts the Internal High Speed oscillator (HSI) calibration value.*/
        __HAL_RCC_HSI_CALIBRATIONVALUE_ADJUST(RCC_OscInitStruct->HSICalibrationValue);
 c003d08:	4b44      	ldr	r3, [pc, #272]	; (c003e1c <HAL_RCC_OscConfig+0x4b8>)
 c003d0a:	685b      	ldr	r3, [r3, #4]
 c003d0c:	f023 42fe 	bic.w	r2, r3, #2130706432	; 0x7f000000
 c003d10:	687b      	ldr	r3, [r7, #4]
 c003d12:	691b      	ldr	r3, [r3, #16]
 c003d14:	061b      	lsls	r3, r3, #24
 c003d16:	4941      	ldr	r1, [pc, #260]	; (c003e1c <HAL_RCC_OscConfig+0x4b8>)
 c003d18:	4313      	orrs	r3, r2
 c003d1a:	604b      	str	r3, [r1, #4]
 c003d1c:	e01e      	b.n	c003d5c <HAL_RCC_OscConfig+0x3f8>
      }
      else
      {
        /* Disable the Internal High Speed oscillator (HSI). */
        __HAL_RCC_HSI_DISABLE();
 c003d1e:	4b3f      	ldr	r3, [pc, #252]	; (c003e1c <HAL_RCC_OscConfig+0x4b8>)
 c003d20:	681b      	ldr	r3, [r3, #0]
 c003d22:	4a3e      	ldr	r2, [pc, #248]	; (c003e1c <HAL_RCC_OscConfig+0x4b8>)
 c003d24:	f423 7380 	bic.w	r3, r3, #256	; 0x100
 c003d28:	6013      	str	r3, [r2, #0]

        /* Get Start Tick*/
        tickstart = HAL_GetTick();
 c003d2a:	f7fe f9c9 	bl	c0020c0 <HAL_GetTick>
 c003d2e:	6138      	str	r0, [r7, #16]

        /* Wait till HSI is disabled */
        while (READ_BIT(RCC->CR, RCC_CR_HSIRDY) != 0U)
 c003d30:	e00e      	b.n	c003d50 <HAL_RCC_OscConfig+0x3ec>
        {
          if ((HAL_GetTick() - tickstart) > HSI_TIMEOUT_VALUE)
 c003d32:	f7fe f9c5 	bl	c0020c0 <HAL_GetTick>
 c003d36:	4602      	mov	r2, r0
 c003d38:	693b      	ldr	r3, [r7, #16]
 c003d3a:	1ad3      	subs	r3, r2, r3
 c003d3c:	2b02      	cmp	r3, #2
 c003d3e:	d907      	bls.n	c003d50 <HAL_RCC_OscConfig+0x3ec>
          {
            /* New check to avoid false timeout detection in case of preemption */
            if (READ_BIT(RCC->CR, RCC_CR_HSIRDY) != 0U)
 c003d40:	4b36      	ldr	r3, [pc, #216]	; (c003e1c <HAL_RCC_OscConfig+0x4b8>)
 c003d42:	681b      	ldr	r3, [r3, #0]
 c003d44:	f403 6380 	and.w	r3, r3, #1024	; 0x400
 c003d48:	2b00      	cmp	r3, #0
 c003d4a:	d001      	beq.n	c003d50 <HAL_RCC_OscConfig+0x3ec>
            {
              return HAL_TIMEOUT;
 c003d4c:	2303      	movs	r3, #3
 c003d4e:	e2d5      	b.n	c0042fc <HAL_RCC_OscConfig+0x998>
        while (READ_BIT(RCC->CR, RCC_CR_HSIRDY) != 0U)
 c003d50:	4b32      	ldr	r3, [pc, #200]	; (c003e1c <HAL_RCC_OscConfig+0x4b8>)
 c003d52:	681b      	ldr	r3, [r3, #0]
 c003d54:	f403 6380 	and.w	r3, r3, #1024	; 0x400
 c003d58:	2b00      	cmp	r3, #0
 c003d5a:	d1ea      	bne.n	c003d32 <HAL_RCC_OscConfig+0x3ce>
        }
      }
    }
  }
  /*------------------------------ LSI Configuration -------------------------*/
  if (((RCC_OscInitStruct->OscillatorType) & RCC_OSCILLATORTYPE_LSI) == RCC_OSCILLATORTYPE_LSI)
 c003d5c:	687b      	ldr	r3, [r7, #4]
 c003d5e:	681b      	ldr	r3, [r3, #0]
 c003d60:	f003 0308 	and.w	r3, r3, #8
 c003d64:	2b00      	cmp	r3, #0
 c003d66:	d062      	beq.n	c003e2e <HAL_RCC_OscConfig+0x4ca>
  {
    /* Check the parameters */
    assert_param(IS_RCC_LSI(RCC_OscInitStruct->LSIState));

    /* Check the LSI State */
    if (RCC_OscInitStruct->LSIState != RCC_LSI_OFF)
 c003d68:	687b      	ldr	r3, [r7, #4]
 c003d6a:	695b      	ldr	r3, [r3, #20]
 c003d6c:	2b00      	cmp	r3, #0
 c003d6e:	d038      	beq.n	c003de2 <HAL_RCC_OscConfig+0x47e>
    {
      /* Apply prescaler value */
      if (RCC_OscInitStruct->LSIDiv == RCC_LSI_DIV1)
 c003d70:	687b      	ldr	r3, [r7, #4]
 c003d72:	699b      	ldr	r3, [r3, #24]
 c003d74:	2b00      	cmp	r3, #0
 c003d76:	d108      	bne.n	c003d8a <HAL_RCC_OscConfig+0x426>
      {
        CLEAR_BIT(RCC->CSR, RCC_CSR_LSIPRE);
 c003d78:	4b28      	ldr	r3, [pc, #160]	; (c003e1c <HAL_RCC_OscConfig+0x4b8>)
 c003d7a:	f8d3 3094 	ldr.w	r3, [r3, #148]	; 0x94
 c003d7e:	4a27      	ldr	r2, [pc, #156]	; (c003e1c <HAL_RCC_OscConfig+0x4b8>)
 c003d80:	f023 0310 	bic.w	r3, r3, #16
 c003d84:	f8c2 3094 	str.w	r3, [r2, #148]	; 0x94
 c003d88:	e007      	b.n	c003d9a <HAL_RCC_OscConfig+0x436>
      }
      else
      {
        SET_BIT(RCC->CSR, RCC_CSR_LSIPRE);
 c003d8a:	4b24      	ldr	r3, [pc, #144]	; (c003e1c <HAL_RCC_OscConfig+0x4b8>)
 c003d8c:	f8d3 3094 	ldr.w	r3, [r3, #148]	; 0x94
 c003d90:	4a22      	ldr	r2, [pc, #136]	; (c003e1c <HAL_RCC_OscConfig+0x4b8>)
 c003d92:	f043 0310 	orr.w	r3, r3, #16
 c003d96:	f8c2 3094 	str.w	r3, [r2, #148]	; 0x94
      }

      /* Enable the Internal Low Speed oscillator (LSI). */
      __HAL_RCC_LSI_ENABLE();
 c003d9a:	4b20      	ldr	r3, [pc, #128]	; (c003e1c <HAL_RCC_OscConfig+0x4b8>)
 c003d9c:	f8d3 3094 	ldr.w	r3, [r3, #148]	; 0x94
 c003da0:	4a1e      	ldr	r2, [pc, #120]	; (c003e1c <HAL_RCC_OscConfig+0x4b8>)
 c003da2:	f043 0301 	orr.w	r3, r3, #1
 c003da6:	f8c2 3094 	str.w	r3, [r2, #148]	; 0x94

      /* Get Start Tick*/
      tickstart = HAL_GetTick();
 c003daa:	f7fe f989 	bl	c0020c0 <HAL_GetTick>
 c003dae:	6138      	str	r0, [r7, #16]

      /* Wait till LSI is ready */
      while (READ_BIT(RCC->CSR, RCC_CSR_LSIRDY) == 0U)
 c003db0:	e00f      	b.n	c003dd2 <HAL_RCC_OscConfig+0x46e>
      {
        if ((HAL_GetTick() - tickstart) > LSI_TIMEOUT_VALUE)
 c003db2:	f7fe f985 	bl	c0020c0 <HAL_GetTick>
 c003db6:	4602      	mov	r2, r0
 c003db8:	693b      	ldr	r3, [r7, #16]
 c003dba:	1ad3      	subs	r3, r2, r3
 c003dbc:	2b07      	cmp	r3, #7
 c003dbe:	d908      	bls.n	c003dd2 <HAL_RCC_OscConfig+0x46e>
        {
          /* New check to avoid false timeout detection in case of preemption */
          if (READ_BIT(RCC->CSR, RCC_CSR_LSIRDY) == 0U)
 c003dc0:	4b16      	ldr	r3, [pc, #88]	; (c003e1c <HAL_RCC_OscConfig+0x4b8>)
 c003dc2:	f8d3 3094 	ldr.w	r3, [r3, #148]	; 0x94
 c003dc6:	f003 0302 	and.w	r3, r3, #2
 c003dca:	2b00      	cmp	r3, #0
 c003dcc:	d101      	bne.n	c003dd2 <HAL_RCC_OscConfig+0x46e>
          {
            return HAL_TIMEOUT;
 c003dce:	2303      	movs	r3, #3
 c003dd0:	e294      	b.n	c0042fc <HAL_RCC_OscConfig+0x998>
      while (READ_BIT(RCC->CSR, RCC_CSR_LSIRDY) == 0U)
 c003dd2:	4b12      	ldr	r3, [pc, #72]	; (c003e1c <HAL_RCC_OscConfig+0x4b8>)
 c003dd4:	f8d3 3094 	ldr.w	r3, [r3, #148]	; 0x94
 c003dd8:	f003 0302 	and.w	r3, r3, #2
 c003ddc:	2b00      	cmp	r3, #0
 c003dde:	d0e8      	beq.n	c003db2 <HAL_RCC_OscConfig+0x44e>
 c003de0:	e025      	b.n	c003e2e <HAL_RCC_OscConfig+0x4ca>
      }
    }
    else
    {
      /* Disable the Internal Low Speed oscillator (LSI). */
      __HAL_RCC_LSI_DISABLE();
 c003de2:	4b0e      	ldr	r3, [pc, #56]	; (c003e1c <HAL_RCC_OscConfig+0x4b8>)
 c003de4:	f8d3 3094 	ldr.w	r3, [r3, #148]	; 0x94
 c003de8:	4a0c      	ldr	r2, [pc, #48]	; (c003e1c <HAL_RCC_OscConfig+0x4b8>)
 c003dea:	f023 0301 	bic.w	r3, r3, #1
 c003dee:	f8c2 3094 	str.w	r3, [r2, #148]	; 0x94

      /* Get Start Tick*/
      tickstart = HAL_GetTick();
 c003df2:	f7fe f965 	bl	c0020c0 <HAL_GetTick>
 c003df6:	6138      	str	r0, [r7, #16]

      /* Wait till LSI is disabled */
      while (READ_BIT(RCC->CSR, RCC_CSR_LSIRDY) != 0U)
 c003df8:	e012      	b.n	c003e20 <HAL_RCC_OscConfig+0x4bc>
      {
        if ((HAL_GetTick() - tickstart) > LSI_TIMEOUT_VALUE)
 c003dfa:	f7fe f961 	bl	c0020c0 <HAL_GetTick>
 c003dfe:	4602      	mov	r2, r0
 c003e00:	693b      	ldr	r3, [r7, #16]
 c003e02:	1ad3      	subs	r3, r2, r3
 c003e04:	2b07      	cmp	r3, #7
 c003e06:	d90b      	bls.n	c003e20 <HAL_RCC_OscConfig+0x4bc>
        {
          /* New check to avoid false timeout detection in case of preemption */
          if (READ_BIT(RCC->CSR, RCC_CSR_LSIRDY) != 0U)
 c003e08:	4b04      	ldr	r3, [pc, #16]	; (c003e1c <HAL_RCC_OscConfig+0x4b8>)
 c003e0a:	f8d3 3094 	ldr.w	r3, [r3, #148]	; 0x94
 c003e0e:	f003 0302 	and.w	r3, r3, #2
 c003e12:	2b00      	cmp	r3, #0
 c003e14:	d004      	beq.n	c003e20 <HAL_RCC_OscConfig+0x4bc>
          {
            return HAL_TIMEOUT;
 c003e16:	2303      	movs	r3, #3
 c003e18:	e270      	b.n	c0042fc <HAL_RCC_OscConfig+0x998>
 c003e1a:	bf00      	nop
 c003e1c:	50021000 	.word	0x50021000
      while (READ_BIT(RCC->CSR, RCC_CSR_LSIRDY) != 0U)
 c003e20:	4ba8      	ldr	r3, [pc, #672]	; (c0040c4 <HAL_RCC_OscConfig+0x760>)
 c003e22:	f8d3 3094 	ldr.w	r3, [r3, #148]	; 0x94
 c003e26:	f003 0302 	and.w	r3, r3, #2
 c003e2a:	2b00      	cmp	r3, #0
 c003e2c:	d1e5      	bne.n	c003dfa <HAL_RCC_OscConfig+0x496>
        }
      }
    }
  }
  /*------------------------------ LSE Configuration -------------------------*/
  if (((RCC_OscInitStruct->OscillatorType) & RCC_OSCILLATORTYPE_LSE) == RCC_OSCILLATORTYPE_LSE)
 c003e2e:	687b      	ldr	r3, [r7, #4]
 c003e30:	681b      	ldr	r3, [r3, #0]
 c003e32:	f003 0304 	and.w	r3, r3, #4
 c003e36:	2b00      	cmp	r3, #0
 c003e38:	f000 812d 	beq.w	c004096 <HAL_RCC_OscConfig+0x732>
  {
    FlagStatus       pwrclkchanged = RESET;
 c003e3c:	2300      	movs	r3, #0
 c003e3e:	77fb      	strb	r3, [r7, #31]
    /* Check the parameters */
    assert_param(IS_RCC_LSE(RCC_OscInitStruct->LSEState));

    /* Update LSE configuration in Backup Domain control register    */
    /* Requires to enable write access to Backup Domain of necessary */
    if (HAL_IS_BIT_CLR(RCC->APB1ENR1, RCC_APB1ENR1_PWREN))
 c003e40:	4ba0      	ldr	r3, [pc, #640]	; (c0040c4 <HAL_RCC_OscConfig+0x760>)
 c003e42:	6d9b      	ldr	r3, [r3, #88]	; 0x58
 c003e44:	f003 5380 	and.w	r3, r3, #268435456	; 0x10000000
 c003e48:	2b00      	cmp	r3, #0
 c003e4a:	d10d      	bne.n	c003e68 <HAL_RCC_OscConfig+0x504>
    {
      __HAL_RCC_PWR_CLK_ENABLE();
 c003e4c:	4b9d      	ldr	r3, [pc, #628]	; (c0040c4 <HAL_RCC_OscConfig+0x760>)
 c003e4e:	6d9b      	ldr	r3, [r3, #88]	; 0x58
 c003e50:	4a9c      	ldr	r2, [pc, #624]	; (c0040c4 <HAL_RCC_OscConfig+0x760>)
 c003e52:	f043 5380 	orr.w	r3, r3, #268435456	; 0x10000000
 c003e56:	6593      	str	r3, [r2, #88]	; 0x58
 c003e58:	4b9a      	ldr	r3, [pc, #616]	; (c0040c4 <HAL_RCC_OscConfig+0x760>)
 c003e5a:	6d9b      	ldr	r3, [r3, #88]	; 0x58
 c003e5c:	f003 5380 	and.w	r3, r3, #268435456	; 0x10000000
 c003e60:	60bb      	str	r3, [r7, #8]
 c003e62:	68bb      	ldr	r3, [r7, #8]
      pwrclkchanged = SET;
 c003e64:	2301      	movs	r3, #1
 c003e66:	77fb      	strb	r3, [r7, #31]
    }

    if (HAL_IS_BIT_CLR(PWR->CR1, PWR_CR1_DBP))
 c003e68:	4b97      	ldr	r3, [pc, #604]	; (c0040c8 <HAL_RCC_OscConfig+0x764>)
 c003e6a:	681b      	ldr	r3, [r3, #0]
 c003e6c:	f403 7380 	and.w	r3, r3, #256	; 0x100
 c003e70:	2b00      	cmp	r3, #0
 c003e72:	d11e      	bne.n	c003eb2 <HAL_RCC_OscConfig+0x54e>
    {
      /* Enable write access to Backup domain */
      SET_BIT(PWR->CR1, PWR_CR1_DBP);
 c003e74:	4b94      	ldr	r3, [pc, #592]	; (c0040c8 <HAL_RCC_OscConfig+0x764>)
 c003e76:	681b      	ldr	r3, [r3, #0]
 c003e78:	4a93      	ldr	r2, [pc, #588]	; (c0040c8 <HAL_RCC_OscConfig+0x764>)
 c003e7a:	f443 7380 	orr.w	r3, r3, #256	; 0x100
 c003e7e:	6013      	str	r3, [r2, #0]

      /* Wait for Backup domain Write protection disable */
      tickstart = HAL_GetTick();
 c003e80:	f7fe f91e 	bl	c0020c0 <HAL_GetTick>
 c003e84:	6138      	str	r0, [r7, #16]

      while (HAL_IS_BIT_CLR(PWR->CR1, PWR_CR1_DBP))
 c003e86:	e00e      	b.n	c003ea6 <HAL_RCC_OscConfig+0x542>
      {
        if ((HAL_GetTick() - tickstart) > RCC_DBP_TIMEOUT_VALUE)
 c003e88:	f7fe f91a 	bl	c0020c0 <HAL_GetTick>
 c003e8c:	4602      	mov	r2, r0
 c003e8e:	693b      	ldr	r3, [r7, #16]
 c003e90:	1ad3      	subs	r3, r2, r3
 c003e92:	2b02      	cmp	r3, #2
 c003e94:	d907      	bls.n	c003ea6 <HAL_RCC_OscConfig+0x542>
        {
          /* New check to avoid false timeout detection in case of preemption */
          if (HAL_IS_BIT_CLR(PWR->CR1, PWR_CR1_DBP))
 c003e96:	4b8c      	ldr	r3, [pc, #560]	; (c0040c8 <HAL_RCC_OscConfig+0x764>)
 c003e98:	681b      	ldr	r3, [r3, #0]
 c003e9a:	f403 7380 	and.w	r3, r3, #256	; 0x100
 c003e9e:	2b00      	cmp	r3, #0
 c003ea0:	d101      	bne.n	c003ea6 <HAL_RCC_OscConfig+0x542>
          {
            return HAL_TIMEOUT;
 c003ea2:	2303      	movs	r3, #3
 c003ea4:	e22a      	b.n	c0042fc <HAL_RCC_OscConfig+0x998>
      while (HAL_IS_BIT_CLR(PWR->CR1, PWR_CR1_DBP))
 c003ea6:	4b88      	ldr	r3, [pc, #544]	; (c0040c8 <HAL_RCC_OscConfig+0x764>)
 c003ea8:	681b      	ldr	r3, [r3, #0]
 c003eaa:	f403 7380 	and.w	r3, r3, #256	; 0x100
 c003eae:	2b00      	cmp	r3, #0
 c003eb0:	d0ea      	beq.n	c003e88 <HAL_RCC_OscConfig+0x524>
        }
      }
    }

    /* Set the new LSE configuration -----------------------------------------*/
    if ((RCC_OscInitStruct->LSEState & RCC_BDCR_LSEON) != 0U)
 c003eb2:	687b      	ldr	r3, [r7, #4]
 c003eb4:	689b      	ldr	r3, [r3, #8]
 c003eb6:	f003 0301 	and.w	r3, r3, #1
 c003eba:	2b00      	cmp	r3, #0
 c003ebc:	d01f      	beq.n	c003efe <HAL_RCC_OscConfig+0x59a>
    {
      if ((RCC_OscInitStruct->LSEState & RCC_BDCR_LSEBYP) != 0U)
 c003ebe:	687b      	ldr	r3, [r7, #4]
 c003ec0:	689b      	ldr	r3, [r3, #8]
 c003ec2:	f003 0304 	and.w	r3, r3, #4
 c003ec6:	2b00      	cmp	r3, #0
 c003ec8:	d010      	beq.n	c003eec <HAL_RCC_OscConfig+0x588>
      {
        /* LSE oscillator bypass enable */
        SET_BIT(RCC->BDCR, RCC_BDCR_LSEBYP);
 c003eca:	4b7e      	ldr	r3, [pc, #504]	; (c0040c4 <HAL_RCC_OscConfig+0x760>)
 c003ecc:	f8d3 3090 	ldr.w	r3, [r3, #144]	; 0x90
 c003ed0:	4a7c      	ldr	r2, [pc, #496]	; (c0040c4 <HAL_RCC_OscConfig+0x760>)
 c003ed2:	f043 0304 	orr.w	r3, r3, #4
 c003ed6:	f8c2 3090 	str.w	r3, [r2, #144]	; 0x90
        SET_BIT(RCC->BDCR, RCC_BDCR_LSEON);
 c003eda:	4b7a      	ldr	r3, [pc, #488]	; (c0040c4 <HAL_RCC_OscConfig+0x760>)
 c003edc:	f8d3 3090 	ldr.w	r3, [r3, #144]	; 0x90
 c003ee0:	4a78      	ldr	r2, [pc, #480]	; (c0040c4 <HAL_RCC_OscConfig+0x760>)
 c003ee2:	f043 0301 	orr.w	r3, r3, #1
 c003ee6:	f8c2 3090 	str.w	r3, [r2, #144]	; 0x90
 c003eea:	e018      	b.n	c003f1e <HAL_RCC_OscConfig+0x5ba>
      }
      else
      {
        /* LSE oscillator enable */
        SET_BIT(RCC->BDCR, RCC_BDCR_LSEON);
 c003eec:	4b75      	ldr	r3, [pc, #468]	; (c0040c4 <HAL_RCC_OscConfig+0x760>)
 c003eee:	f8d3 3090 	ldr.w	r3, [r3, #144]	; 0x90
 c003ef2:	4a74      	ldr	r2, [pc, #464]	; (c0040c4 <HAL_RCC_OscConfig+0x760>)
 c003ef4:	f043 0301 	orr.w	r3, r3, #1
 c003ef8:	f8c2 3090 	str.w	r3, [r2, #144]	; 0x90
 c003efc:	e00f      	b.n	c003f1e <HAL_RCC_OscConfig+0x5ba>
      }
    }
    else
    {
      CLEAR_BIT(RCC->BDCR, RCC_BDCR_LSEON);
 c003efe:	4b71      	ldr	r3, [pc, #452]	; (c0040c4 <HAL_RCC_OscConfig+0x760>)
 c003f00:	f8d3 3090 	ldr.w	r3, [r3, #144]	; 0x90
 c003f04:	4a6f      	ldr	r2, [pc, #444]	; (c0040c4 <HAL_RCC_OscConfig+0x760>)
 c003f06:	f023 0301 	bic.w	r3, r3, #1
 c003f0a:	f8c2 3090 	str.w	r3, [r2, #144]	; 0x90
      CLEAR_BIT(RCC->BDCR, RCC_BDCR_LSEBYP);
 c003f0e:	4b6d      	ldr	r3, [pc, #436]	; (c0040c4 <HAL_RCC_OscConfig+0x760>)
 c003f10:	f8d3 3090 	ldr.w	r3, [r3, #144]	; 0x90
 c003f14:	4a6b      	ldr	r2, [pc, #428]	; (c0040c4 <HAL_RCC_OscConfig+0x760>)
 c003f16:	f023 0304 	bic.w	r3, r3, #4
 c003f1a:	f8c2 3090 	str.w	r3, [r2, #144]	; 0x90
    }

    /* Check the LSE State */
    if (RCC_OscInitStruct->LSEState != RCC_LSE_OFF)
 c003f1e:	687b      	ldr	r3, [r7, #4]
 c003f20:	689b      	ldr	r3, [r3, #8]
 c003f22:	2b00      	cmp	r3, #0
 c003f24:	d068      	beq.n	c003ff8 <HAL_RCC_OscConfig+0x694>
    {
      /* Get Start Tick*/
      tickstart = HAL_GetTick();
 c003f26:	f7fe f8cb 	bl	c0020c0 <HAL_GetTick>
 c003f2a:	6138      	str	r0, [r7, #16]

      /* Wait till LSE is ready */
      while (READ_BIT(RCC->BDCR, RCC_BDCR_LSERDY) == 0U)
 c003f2c:	e011      	b.n	c003f52 <HAL_RCC_OscConfig+0x5ee>
      {
        if ((HAL_GetTick() - tickstart) > RCC_LSE_TIMEOUT_VALUE)
 c003f2e:	f7fe f8c7 	bl	c0020c0 <HAL_GetTick>
 c003f32:	4602      	mov	r2, r0
 c003f34:	693b      	ldr	r3, [r7, #16]
 c003f36:	1ad3      	subs	r3, r2, r3
 c003f38:	f241 3288 	movw	r2, #5000	; 0x1388
 c003f3c:	4293      	cmp	r3, r2
 c003f3e:	d908      	bls.n	c003f52 <HAL_RCC_OscConfig+0x5ee>
        {
          /* New check to avoid false timeout detection in case of preemption */
          if (READ_BIT(RCC->BDCR, RCC_BDCR_LSERDY) == 0U)
 c003f40:	4b60      	ldr	r3, [pc, #384]	; (c0040c4 <HAL_RCC_OscConfig+0x760>)
 c003f42:	f8d3 3090 	ldr.w	r3, [r3, #144]	; 0x90
 c003f46:	f003 0302 	and.w	r3, r3, #2
 c003f4a:	2b00      	cmp	r3, #0
 c003f4c:	d101      	bne.n	c003f52 <HAL_RCC_OscConfig+0x5ee>
          {
            return HAL_TIMEOUT;
 c003f4e:	2303      	movs	r3, #3
 c003f50:	e1d4      	b.n	c0042fc <HAL_RCC_OscConfig+0x998>
      while (READ_BIT(RCC->BDCR, RCC_BDCR_LSERDY) == 0U)
 c003f52:	4b5c      	ldr	r3, [pc, #368]	; (c0040c4 <HAL_RCC_OscConfig+0x760>)
 c003f54:	f8d3 3090 	ldr.w	r3, [r3, #144]	; 0x90
 c003f58:	f003 0302 	and.w	r3, r3, #2
 c003f5c:	2b00      	cmp	r3, #0
 c003f5e:	d0e6      	beq.n	c003f2e <HAL_RCC_OscConfig+0x5ca>
          }
        }
      }

      /* Enable LSESYS additionally if requested */
      if ((RCC_OscInitStruct->LSEState & RCC_BDCR_LSESYSEN) != 0U)
 c003f60:	687b      	ldr	r3, [r7, #4]
 c003f62:	689b      	ldr	r3, [r3, #8]
 c003f64:	f003 0380 	and.w	r3, r3, #128	; 0x80
 c003f68:	2b00      	cmp	r3, #0
 c003f6a:	d022      	beq.n	c003fb2 <HAL_RCC_OscConfig+0x64e>
      {
        SET_BIT(RCC->BDCR, RCC_BDCR_LSESYSEN);
 c003f6c:	4b55      	ldr	r3, [pc, #340]	; (c0040c4 <HAL_RCC_OscConfig+0x760>)
 c003f6e:	f8d3 3090 	ldr.w	r3, [r3, #144]	; 0x90
 c003f72:	4a54      	ldr	r2, [pc, #336]	; (c0040c4 <HAL_RCC_OscConfig+0x760>)
 c003f74:	f043 0380 	orr.w	r3, r3, #128	; 0x80
 c003f78:	f8c2 3090 	str.w	r3, [r2, #144]	; 0x90

        /* Wait till LSESYS is ready */
        while (READ_BIT(RCC->BDCR, RCC_BDCR_LSESYSRDY) == 0U)
 c003f7c:	e011      	b.n	c003fa2 <HAL_RCC_OscConfig+0x63e>
        {
          if ((HAL_GetTick() - tickstart) > RCC_LSE_TIMEOUT_VALUE)
 c003f7e:	f7fe f89f 	bl	c0020c0 <HAL_GetTick>
 c003f82:	4602      	mov	r2, r0
 c003f84:	693b      	ldr	r3, [r7, #16]
 c003f86:	1ad3      	subs	r3, r2, r3
 c003f88:	f241 3288 	movw	r2, #5000	; 0x1388
 c003f8c:	4293      	cmp	r3, r2
 c003f8e:	d908      	bls.n	c003fa2 <HAL_RCC_OscConfig+0x63e>
          {
            /* New check to avoid false timeout detection in case of preemption */
            if (READ_BIT(RCC->BDCR, RCC_BDCR_LSESYSRDY) == 0U)
 c003f90:	4b4c      	ldr	r3, [pc, #304]	; (c0040c4 <HAL_RCC_OscConfig+0x760>)
 c003f92:	f8d3 3090 	ldr.w	r3, [r3, #144]	; 0x90
 c003f96:	f403 6300 	and.w	r3, r3, #2048	; 0x800
 c003f9a:	2b00      	cmp	r3, #0
 c003f9c:	d101      	bne.n	c003fa2 <HAL_RCC_OscConfig+0x63e>
            {
              return HAL_TIMEOUT;
 c003f9e:	2303      	movs	r3, #3
 c003fa0:	e1ac      	b.n	c0042fc <HAL_RCC_OscConfig+0x998>
        while (READ_BIT(RCC->BDCR, RCC_BDCR_LSESYSRDY) == 0U)
 c003fa2:	4b48      	ldr	r3, [pc, #288]	; (c0040c4 <HAL_RCC_OscConfig+0x760>)
 c003fa4:	f8d3 3090 	ldr.w	r3, [r3, #144]	; 0x90
 c003fa8:	f403 6300 	and.w	r3, r3, #2048	; 0x800
 c003fac:	2b00      	cmp	r3, #0
 c003fae:	d0e6      	beq.n	c003f7e <HAL_RCC_OscConfig+0x61a>
 c003fb0:	e068      	b.n	c004084 <HAL_RCC_OscConfig+0x720>
        }
      }
      else
      {
        /* Make sure LSESYSEN/LSESYSRDY are reset */
        CLEAR_BIT(RCC->BDCR, RCC_BDCR_LSESYSEN);
 c003fb2:	4b44      	ldr	r3, [pc, #272]	; (c0040c4 <HAL_RCC_OscConfig+0x760>)
 c003fb4:	f8d3 3090 	ldr.w	r3, [r3, #144]	; 0x90
 c003fb8:	4a42      	ldr	r2, [pc, #264]	; (c0040c4 <HAL_RCC_OscConfig+0x760>)
 c003fba:	f023 0380 	bic.w	r3, r3, #128	; 0x80
 c003fbe:	f8c2 3090 	str.w	r3, [r2, #144]	; 0x90

        /* Wait till LSESYSRDY is cleared */
        while (READ_BIT(RCC->BDCR, RCC_BDCR_LSESYSRDY) != 0U)
 c003fc2:	e011      	b.n	c003fe8 <HAL_RCC_OscConfig+0x684>
        {
          if ((HAL_GetTick() - tickstart) > RCC_LSE_TIMEOUT_VALUE)
 c003fc4:	f7fe f87c 	bl	c0020c0 <HAL_GetTick>
 c003fc8:	4602      	mov	r2, r0
 c003fca:	693b      	ldr	r3, [r7, #16]
 c003fcc:	1ad3      	subs	r3, r2, r3
 c003fce:	f241 3288 	movw	r2, #5000	; 0x1388
 c003fd2:	4293      	cmp	r3, r2
 c003fd4:	d908      	bls.n	c003fe8 <HAL_RCC_OscConfig+0x684>
          {
            /* New check to avoid false timeout detection in case of preemption */
            if (READ_BIT(RCC->BDCR, RCC_BDCR_LSESYSRDY) != 0U)
 c003fd6:	4b3b      	ldr	r3, [pc, #236]	; (c0040c4 <HAL_RCC_OscConfig+0x760>)
 c003fd8:	f8d3 3090 	ldr.w	r3, [r3, #144]	; 0x90
 c003fdc:	f403 6300 	and.w	r3, r3, #2048	; 0x800
 c003fe0:	2b00      	cmp	r3, #0
 c003fe2:	d001      	beq.n	c003fe8 <HAL_RCC_OscConfig+0x684>
            {
              return HAL_TIMEOUT;
 c003fe4:	2303      	movs	r3, #3
 c003fe6:	e189      	b.n	c0042fc <HAL_RCC_OscConfig+0x998>
        while (READ_BIT(RCC->BDCR, RCC_BDCR_LSESYSRDY) != 0U)
 c003fe8:	4b36      	ldr	r3, [pc, #216]	; (c0040c4 <HAL_RCC_OscConfig+0x760>)
 c003fea:	f8d3 3090 	ldr.w	r3, [r3, #144]	; 0x90
 c003fee:	f403 6300 	and.w	r3, r3, #2048	; 0x800
 c003ff2:	2b00      	cmp	r3, #0
 c003ff4:	d1e6      	bne.n	c003fc4 <HAL_RCC_OscConfig+0x660>
 c003ff6:	e045      	b.n	c004084 <HAL_RCC_OscConfig+0x720>
      }
    }
    else
    {
      /* Get Start Tick*/
      tickstart = HAL_GetTick();
 c003ff8:	f7fe f862 	bl	c0020c0 <HAL_GetTick>
 c003ffc:	6138      	str	r0, [r7, #16]

      /* Wait till LSE is disabled */
      while (READ_BIT(RCC->BDCR, RCC_BDCR_LSERDY) != 0U)
 c003ffe:	e011      	b.n	c004024 <HAL_RCC_OscConfig+0x6c0>
      {
        if ((HAL_GetTick() - tickstart) > RCC_LSE_TIMEOUT_VALUE)
 c004000:	f7fe f85e 	bl	c0020c0 <HAL_GetTick>
 c004004:	4602      	mov	r2, r0
 c004006:	693b      	ldr	r3, [r7, #16]
 c004008:	1ad3      	subs	r3, r2, r3
 c00400a:	f241 3288 	movw	r2, #5000	; 0x1388
 c00400e:	4293      	cmp	r3, r2
 c004010:	d908      	bls.n	c004024 <HAL_RCC_OscConfig+0x6c0>
        {
          /* New check to avoid false timeout detection in case of preemption */
          if (READ_BIT(RCC->BDCR, RCC_BDCR_LSERDY) != 0U)
 c004012:	4b2c      	ldr	r3, [pc, #176]	; (c0040c4 <HAL_RCC_OscConfig+0x760>)
 c004014:	f8d3 3090 	ldr.w	r3, [r3, #144]	; 0x90
 c004018:	f003 0302 	and.w	r3, r3, #2
 c00401c:	2b00      	cmp	r3, #0
 c00401e:	d001      	beq.n	c004024 <HAL_RCC_OscConfig+0x6c0>
          {
            return HAL_TIMEOUT;
 c004020:	2303      	movs	r3, #3
 c004022:	e16b      	b.n	c0042fc <HAL_RCC_OscConfig+0x998>
      while (READ_BIT(RCC->BDCR, RCC_BDCR_LSERDY) != 0U)
 c004024:	4b27      	ldr	r3, [pc, #156]	; (c0040c4 <HAL_RCC_OscConfig+0x760>)
 c004026:	f8d3 3090 	ldr.w	r3, [r3, #144]	; 0x90
 c00402a:	f003 0302 	and.w	r3, r3, #2
 c00402e:	2b00      	cmp	r3, #0
 c004030:	d1e6      	bne.n	c004000 <HAL_RCC_OscConfig+0x69c>
          }
        }
      }

      if (READ_BIT(RCC->BDCR, RCC_BDCR_LSESYSEN) != 0U)
 c004032:	4b24      	ldr	r3, [pc, #144]	; (c0040c4 <HAL_RCC_OscConfig+0x760>)
 c004034:	f8d3 3090 	ldr.w	r3, [r3, #144]	; 0x90
 c004038:	f003 0380 	and.w	r3, r3, #128	; 0x80
 c00403c:	2b00      	cmp	r3, #0
 c00403e:	d021      	beq.n	c004084 <HAL_RCC_OscConfig+0x720>
      {
        /* Reset LSESYSEN once LSE is disabled */
        CLEAR_BIT(RCC->BDCR, RCC_BDCR_LSESYSEN);
 c004040:	4b20      	ldr	r3, [pc, #128]	; (c0040c4 <HAL_RCC_OscConfig+0x760>)
 c004042:	f8d3 3090 	ldr.w	r3, [r3, #144]	; 0x90
 c004046:	4a1f      	ldr	r2, [pc, #124]	; (c0040c4 <HAL_RCC_OscConfig+0x760>)
 c004048:	f023 0380 	bic.w	r3, r3, #128	; 0x80
 c00404c:	f8c2 3090 	str.w	r3, [r2, #144]	; 0x90

        /* Wait till LSESYSRDY is cleared */
        while (READ_BIT(RCC->BDCR, RCC_BDCR_LSESYSRDY) != 0U)
 c004050:	e011      	b.n	c004076 <HAL_RCC_OscConfig+0x712>
        {
          if ((HAL_GetTick() - tickstart) > RCC_LSE_TIMEOUT_VALUE)
 c004052:	f7fe f835 	bl	c0020c0 <HAL_GetTick>
 c004056:	4602      	mov	r2, r0
 c004058:	693b      	ldr	r3, [r7, #16]
 c00405a:	1ad3      	subs	r3, r2, r3
 c00405c:	f241 3288 	movw	r2, #5000	; 0x1388
 c004060:	4293      	cmp	r3, r2
 c004062:	d908      	bls.n	c004076 <HAL_RCC_OscConfig+0x712>
          {
            /* New check to avoid false timeout detection in case of preemption */
            if (READ_BIT(RCC->BDCR, RCC_BDCR_LSESYSRDY) != 0U)
 c004064:	4b17      	ldr	r3, [pc, #92]	; (c0040c4 <HAL_RCC_OscConfig+0x760>)
 c004066:	f8d3 3090 	ldr.w	r3, [r3, #144]	; 0x90
 c00406a:	f403 6300 	and.w	r3, r3, #2048	; 0x800
 c00406e:	2b00      	cmp	r3, #0
 c004070:	d001      	beq.n	c004076 <HAL_RCC_OscConfig+0x712>
            {
              return HAL_TIMEOUT;
 c004072:	2303      	movs	r3, #3
 c004074:	e142      	b.n	c0042fc <HAL_RCC_OscConfig+0x998>
        while (READ_BIT(RCC->BDCR, RCC_BDCR_LSESYSRDY) != 0U)
 c004076:	4b13      	ldr	r3, [pc, #76]	; (c0040c4 <HAL_RCC_OscConfig+0x760>)
 c004078:	f8d3 3090 	ldr.w	r3, [r3, #144]	; 0x90
 c00407c:	f403 6300 	and.w	r3, r3, #2048	; 0x800
 c004080:	2b00      	cmp	r3, #0
 c004082:	d1e6      	bne.n	c004052 <HAL_RCC_OscConfig+0x6ee>
        }
      }
    }

    /* Restore clock configuration if changed */
    if (pwrclkchanged == SET)
 c004084:	7ffb      	ldrb	r3, [r7, #31]
 c004086:	2b01      	cmp	r3, #1
 c004088:	d105      	bne.n	c004096 <HAL_RCC_OscConfig+0x732>
    {
      __HAL_RCC_PWR_CLK_DISABLE();
 c00408a:	4b0e      	ldr	r3, [pc, #56]	; (c0040c4 <HAL_RCC_OscConfig+0x760>)
 c00408c:	6d9b      	ldr	r3, [r3, #88]	; 0x58
 c00408e:	4a0d      	ldr	r2, [pc, #52]	; (c0040c4 <HAL_RCC_OscConfig+0x760>)
 c004090:	f023 5380 	bic.w	r3, r3, #268435456	; 0x10000000
 c004094:	6593      	str	r3, [r2, #88]	; 0x58
    }
  }
  /*------------------------------ HSI48 Configuration -----------------------*/
  if (((RCC_OscInitStruct->OscillatorType) & RCC_OSCILLATORTYPE_HSI48) == RCC_OSCILLATORTYPE_HSI48)
 c004096:	687b      	ldr	r3, [r7, #4]
 c004098:	681b      	ldr	r3, [r3, #0]
 c00409a:	f003 0320 	and.w	r3, r3, #32
 c00409e:	2b00      	cmp	r3, #0
 c0040a0:	d04f      	beq.n	c004142 <HAL_RCC_OscConfig+0x7de>
  {
    /* Check the parameters */
    assert_param(IS_RCC_HSI48(RCC_OscInitStruct->HSI48State));

    /* Check the LSI State */
    if (RCC_OscInitStruct->HSI48State != RCC_HSI48_OFF)
 c0040a2:	687b      	ldr	r3, [r7, #4]
 c0040a4:	6a9b      	ldr	r3, [r3, #40]	; 0x28
 c0040a6:	2b00      	cmp	r3, #0
 c0040a8:	d028      	beq.n	c0040fc <HAL_RCC_OscConfig+0x798>
    {
      /* Enable the Internal Low Speed oscillator (HSI48). */
      __HAL_RCC_HSI48_ENABLE();
 c0040aa:	4b06      	ldr	r3, [pc, #24]	; (c0040c4 <HAL_RCC_OscConfig+0x760>)
 c0040ac:	f8d3 3098 	ldr.w	r3, [r3, #152]	; 0x98
 c0040b0:	4a04      	ldr	r2, [pc, #16]	; (c0040c4 <HAL_RCC_OscConfig+0x760>)
 c0040b2:	f043 0301 	orr.w	r3, r3, #1
 c0040b6:	f8c2 3098 	str.w	r3, [r2, #152]	; 0x98

      /* Get Start Tick*/
      tickstart = HAL_GetTick();
 c0040ba:	f7fe f801 	bl	c0020c0 <HAL_GetTick>
 c0040be:	6138      	str	r0, [r7, #16]

      /* Wait till HSI48 is ready */
      while (READ_BIT(RCC->CRRCR, RCC_CRRCR_HSI48RDY) == 0U)
 c0040c0:	e014      	b.n	c0040ec <HAL_RCC_OscConfig+0x788>
 c0040c2:	bf00      	nop
 c0040c4:	50021000 	.word	0x50021000
 c0040c8:	50007000 	.word	0x50007000
      {
        if ((HAL_GetTick() - tickstart) > HSI48_TIMEOUT_VALUE)
 c0040cc:	f7fd fff8 	bl	c0020c0 <HAL_GetTick>
 c0040d0:	4602      	mov	r2, r0
 c0040d2:	693b      	ldr	r3, [r7, #16]
 c0040d4:	1ad3      	subs	r3, r2, r3
 c0040d6:	2b02      	cmp	r3, #2
 c0040d8:	d908      	bls.n	c0040ec <HAL_RCC_OscConfig+0x788>
        {
          /* New check to avoid false timeout detection in case of preemption */
          if (READ_BIT(RCC->CRRCR, RCC_CRRCR_HSI48RDY) == 0U)
 c0040da:	4b8a      	ldr	r3, [pc, #552]	; (c004304 <HAL_RCC_OscConfig+0x9a0>)
 c0040dc:	f8d3 3098 	ldr.w	r3, [r3, #152]	; 0x98
 c0040e0:	f003 0302 	and.w	r3, r3, #2
 c0040e4:	2b00      	cmp	r3, #0
 c0040e6:	d101      	bne.n	c0040ec <HAL_RCC_OscConfig+0x788>
          {
            return HAL_TIMEOUT;
 c0040e8:	2303      	movs	r3, #3
 c0040ea:	e107      	b.n	c0042fc <HAL_RCC_OscConfig+0x998>
      while (READ_BIT(RCC->CRRCR, RCC_CRRCR_HSI48RDY) == 0U)
 c0040ec:	4b85      	ldr	r3, [pc, #532]	; (c004304 <HAL_RCC_OscConfig+0x9a0>)
 c0040ee:	f8d3 3098 	ldr.w	r3, [r3, #152]	; 0x98
 c0040f2:	f003 0302 	and.w	r3, r3, #2
 c0040f6:	2b00      	cmp	r3, #0
 c0040f8:	d0e8      	beq.n	c0040cc <HAL_RCC_OscConfig+0x768>
 c0040fa:	e022      	b.n	c004142 <HAL_RCC_OscConfig+0x7de>
      }
    }
    else
    {
      /* Disable the Internal Low Speed oscillator (HSI48). */
      __HAL_RCC_HSI48_DISABLE();
 c0040fc:	4b81      	ldr	r3, [pc, #516]	; (c004304 <HAL_RCC_OscConfig+0x9a0>)
 c0040fe:	f8d3 3098 	ldr.w	r3, [r3, #152]	; 0x98
 c004102:	4a80      	ldr	r2, [pc, #512]	; (c004304 <HAL_RCC_OscConfig+0x9a0>)
 c004104:	f023 0301 	bic.w	r3, r3, #1
 c004108:	f8c2 3098 	str.w	r3, [r2, #152]	; 0x98

      /* Get Start Tick*/
      tickstart = HAL_GetTick();
 c00410c:	f7fd ffd8 	bl	c0020c0 <HAL_GetTick>
 c004110:	6138      	str	r0, [r7, #16]

      /* Wait till HSI48 is disabled */
      while (READ_BIT(RCC->CRRCR, RCC_CRRCR_HSI48RDY) != 0U)
 c004112:	e00f      	b.n	c004134 <HAL_RCC_OscConfig+0x7d0>
      {
        if ((HAL_GetTick() - tickstart) > HSI48_TIMEOUT_VALUE)
 c004114:	f7fd ffd4 	bl	c0020c0 <HAL_GetTick>
 c004118:	4602      	mov	r2, r0
 c00411a:	693b      	ldr	r3, [r7, #16]
 c00411c:	1ad3      	subs	r3, r2, r3
 c00411e:	2b02      	cmp	r3, #2
 c004120:	d908      	bls.n	c004134 <HAL_RCC_OscConfig+0x7d0>
        {
          /* New check to avoid false timeout detection in case of preemption */
          if (READ_BIT(RCC->CRRCR, RCC_CRRCR_HSI48RDY) != 0U)
 c004122:	4b78      	ldr	r3, [pc, #480]	; (c004304 <HAL_RCC_OscConfig+0x9a0>)
 c004124:	f8d3 3098 	ldr.w	r3, [r3, #152]	; 0x98
 c004128:	f003 0302 	and.w	r3, r3, #2
 c00412c:	2b00      	cmp	r3, #0
 c00412e:	d001      	beq.n	c004134 <HAL_RCC_OscConfig+0x7d0>
          {
            return HAL_TIMEOUT;
 c004130:	2303      	movs	r3, #3
 c004132:	e0e3      	b.n	c0042fc <HAL_RCC_OscConfig+0x998>
      while (READ_BIT(RCC->CRRCR, RCC_CRRCR_HSI48RDY) != 0U)
 c004134:	4b73      	ldr	r3, [pc, #460]	; (c004304 <HAL_RCC_OscConfig+0x9a0>)
 c004136:	f8d3 3098 	ldr.w	r3, [r3, #152]	; 0x98
 c00413a:	f003 0302 	and.w	r3, r3, #2
 c00413e:	2b00      	cmp	r3, #0
 c004140:	d1e8      	bne.n	c004114 <HAL_RCC_OscConfig+0x7b0>
  }
  /*-------------------------------- PLL Configuration -----------------------*/
  /* Check the parameters */
  assert_param(IS_RCC_PLL(RCC_OscInitStruct->PLL.PLLState));

  if (RCC_OscInitStruct->PLL.PLLState != RCC_PLL_NONE)
 c004142:	687b      	ldr	r3, [r7, #4]
 c004144:	6adb      	ldr	r3, [r3, #44]	; 0x2c
 c004146:	2b00      	cmp	r3, #0
 c004148:	f000 80d7 	beq.w	c0042fa <HAL_RCC_OscConfig+0x996>
  {
    /* Check if the PLL is used as system clock or not */
    if (__HAL_RCC_GET_SYSCLK_SOURCE() != RCC_SYSCLKSOURCE_STATUS_PLLCLK)
 c00414c:	4b6d      	ldr	r3, [pc, #436]	; (c004304 <HAL_RCC_OscConfig+0x9a0>)
 c00414e:	689b      	ldr	r3, [r3, #8]
 c004150:	f003 030c 	and.w	r3, r3, #12
 c004154:	2b0c      	cmp	r3, #12
 c004156:	f000 8091 	beq.w	c00427c <HAL_RCC_OscConfig+0x918>
    {
      if (RCC_OscInitStruct->PLL.PLLState == RCC_PLL_ON)
 c00415a:	687b      	ldr	r3, [r7, #4]
 c00415c:	6adb      	ldr	r3, [r3, #44]	; 0x2c
 c00415e:	2b02      	cmp	r3, #2
 c004160:	d166      	bne.n	c004230 <HAL_RCC_OscConfig+0x8cc>
        assert_param(IS_RCC_PLLP_VALUE(RCC_OscInitStruct->PLL.PLLP));
        assert_param(IS_RCC_PLLQ_VALUE(RCC_OscInitStruct->PLL.PLLQ));
        assert_param(IS_RCC_PLLR_VALUE(RCC_OscInitStruct->PLL.PLLR));

        /* Disable the main PLL. */
        __HAL_RCC_PLL_DISABLE();
 c004162:	4b68      	ldr	r3, [pc, #416]	; (c004304 <HAL_RCC_OscConfig+0x9a0>)
 c004164:	681b      	ldr	r3, [r3, #0]
 c004166:	4a67      	ldr	r2, [pc, #412]	; (c004304 <HAL_RCC_OscConfig+0x9a0>)
 c004168:	f023 7380 	bic.w	r3, r3, #16777216	; 0x1000000
 c00416c:	6013      	str	r3, [r2, #0]

        /* Get Start Tick*/
        tickstart = HAL_GetTick();
 c00416e:	f7fd ffa7 	bl	c0020c0 <HAL_GetTick>
 c004172:	6138      	str	r0, [r7, #16]

        /* Wait till PLL is ready */
        while (READ_BIT(RCC->CR, RCC_CR_PLLRDY) != 0U)
 c004174:	e00e      	b.n	c004194 <HAL_RCC_OscConfig+0x830>
        {
          if ((HAL_GetTick() - tickstart) > PLL_TIMEOUT_VALUE)
 c004176:	f7fd ffa3 	bl	c0020c0 <HAL_GetTick>
 c00417a:	4602      	mov	r2, r0
 c00417c:	693b      	ldr	r3, [r7, #16]
 c00417e:	1ad3      	subs	r3, r2, r3
 c004180:	2b02      	cmp	r3, #2
 c004182:	d907      	bls.n	c004194 <HAL_RCC_OscConfig+0x830>
          {
            /* New check to avoid false timeout detection in case of preemption */
            if (READ_BIT(RCC->CR, RCC_CR_PLLRDY) != 0U)
 c004184:	4b5f      	ldr	r3, [pc, #380]	; (c004304 <HAL_RCC_OscConfig+0x9a0>)
 c004186:	681b      	ldr	r3, [r3, #0]
 c004188:	f003 7300 	and.w	r3, r3, #33554432	; 0x2000000
 c00418c:	2b00      	cmp	r3, #0
 c00418e:	d001      	beq.n	c004194 <HAL_RCC_OscConfig+0x830>
            {
              return HAL_TIMEOUT;
 c004190:	2303      	movs	r3, #3
 c004192:	e0b3      	b.n	c0042fc <HAL_RCC_OscConfig+0x998>
        while (READ_BIT(RCC->CR, RCC_CR_PLLRDY) != 0U)
 c004194:	4b5b      	ldr	r3, [pc, #364]	; (c004304 <HAL_RCC_OscConfig+0x9a0>)
 c004196:	681b      	ldr	r3, [r3, #0]
 c004198:	f003 7300 	and.w	r3, r3, #33554432	; 0x2000000
 c00419c:	2b00      	cmp	r3, #0
 c00419e:	d1ea      	bne.n	c004176 <HAL_RCC_OscConfig+0x812>
            }
          }
        }

        /* Configure the main PLL clock source, multiplication and division factors. */
        __HAL_RCC_PLL_CONFIG(RCC_OscInitStruct->PLL.PLLSource,
 c0041a0:	4b58      	ldr	r3, [pc, #352]	; (c004304 <HAL_RCC_OscConfig+0x9a0>)
 c0041a2:	68da      	ldr	r2, [r3, #12]
 c0041a4:	4b58      	ldr	r3, [pc, #352]	; (c004308 <HAL_RCC_OscConfig+0x9a4>)
 c0041a6:	4013      	ands	r3, r2
 c0041a8:	687a      	ldr	r2, [r7, #4]
 c0041aa:	6b11      	ldr	r1, [r2, #48]	; 0x30
 c0041ac:	687a      	ldr	r2, [r7, #4]
 c0041ae:	6b52      	ldr	r2, [r2, #52]	; 0x34
 c0041b0:	3a01      	subs	r2, #1
 c0041b2:	0112      	lsls	r2, r2, #4
 c0041b4:	4311      	orrs	r1, r2
 c0041b6:	687a      	ldr	r2, [r7, #4]
 c0041b8:	6b92      	ldr	r2, [r2, #56]	; 0x38
 c0041ba:	0212      	lsls	r2, r2, #8
 c0041bc:	4311      	orrs	r1, r2
 c0041be:	687a      	ldr	r2, [r7, #4]
 c0041c0:	6c12      	ldr	r2, [r2, #64]	; 0x40
 c0041c2:	0852      	lsrs	r2, r2, #1
 c0041c4:	3a01      	subs	r2, #1
 c0041c6:	0552      	lsls	r2, r2, #21
 c0041c8:	4311      	orrs	r1, r2
 c0041ca:	687a      	ldr	r2, [r7, #4]
 c0041cc:	6c52      	ldr	r2, [r2, #68]	; 0x44
 c0041ce:	0852      	lsrs	r2, r2, #1
 c0041d0:	3a01      	subs	r2, #1
 c0041d2:	0652      	lsls	r2, r2, #25
 c0041d4:	4311      	orrs	r1, r2
 c0041d6:	687a      	ldr	r2, [r7, #4]
 c0041d8:	6bd2      	ldr	r2, [r2, #60]	; 0x3c
 c0041da:	06d2      	lsls	r2, r2, #27
 c0041dc:	430a      	orrs	r2, r1
 c0041de:	4949      	ldr	r1, [pc, #292]	; (c004304 <HAL_RCC_OscConfig+0x9a0>)
 c0041e0:	4313      	orrs	r3, r2
 c0041e2:	60cb      	str	r3, [r1, #12]
                             RCC_OscInitStruct->PLL.PLLP,
                             RCC_OscInitStruct->PLL.PLLQ,
                             RCC_OscInitStruct->PLL.PLLR);

        /* Enable the main PLL. */
        __HAL_RCC_PLL_ENABLE();
 c0041e4:	4b47      	ldr	r3, [pc, #284]	; (c004304 <HAL_RCC_OscConfig+0x9a0>)
 c0041e6:	681b      	ldr	r3, [r3, #0]
 c0041e8:	4a46      	ldr	r2, [pc, #280]	; (c004304 <HAL_RCC_OscConfig+0x9a0>)
 c0041ea:	f043 7380 	orr.w	r3, r3, #16777216	; 0x1000000
 c0041ee:	6013      	str	r3, [r2, #0]

        /* Enable PLL System Clock output. */
        __HAL_RCC_PLLCLKOUT_ENABLE(RCC_PLL_SYSCLK);
 c0041f0:	4b44      	ldr	r3, [pc, #272]	; (c004304 <HAL_RCC_OscConfig+0x9a0>)
 c0041f2:	68db      	ldr	r3, [r3, #12]
 c0041f4:	4a43      	ldr	r2, [pc, #268]	; (c004304 <HAL_RCC_OscConfig+0x9a0>)
 c0041f6:	f043 7380 	orr.w	r3, r3, #16777216	; 0x1000000
 c0041fa:	60d3      	str	r3, [r2, #12]

        /* Get Start Tick*/
        tickstart = HAL_GetTick();
 c0041fc:	f7fd ff60 	bl	c0020c0 <HAL_GetTick>
 c004200:	6138      	str	r0, [r7, #16]

        /* Wait till PLL is ready */
        while (READ_BIT(RCC->CR, RCC_CR_PLLRDY) == 0U)
 c004202:	e00e      	b.n	c004222 <HAL_RCC_OscConfig+0x8be>
        {
          if ((HAL_GetTick() - tickstart) > PLL_TIMEOUT_VALUE)
 c004204:	f7fd ff5c 	bl	c0020c0 <HAL_GetTick>
 c004208:	4602      	mov	r2, r0
 c00420a:	693b      	ldr	r3, [r7, #16]
 c00420c:	1ad3      	subs	r3, r2, r3
 c00420e:	2b02      	cmp	r3, #2
 c004210:	d907      	bls.n	c004222 <HAL_RCC_OscConfig+0x8be>
          {
            /* New check to avoid false timeout detection in case of preemption */
            if (READ_BIT(RCC->CR, RCC_CR_PLLRDY) == 0U)
 c004212:	4b3c      	ldr	r3, [pc, #240]	; (c004304 <HAL_RCC_OscConfig+0x9a0>)
 c004214:	681b      	ldr	r3, [r3, #0]
 c004216:	f003 7300 	and.w	r3, r3, #33554432	; 0x2000000
 c00421a:	2b00      	cmp	r3, #0
 c00421c:	d101      	bne.n	c004222 <HAL_RCC_OscConfig+0x8be>
            {
              return HAL_TIMEOUT;
 c00421e:	2303      	movs	r3, #3
 c004220:	e06c      	b.n	c0042fc <HAL_RCC_OscConfig+0x998>
        while (READ_BIT(RCC->CR, RCC_CR_PLLRDY) == 0U)
 c004222:	4b38      	ldr	r3, [pc, #224]	; (c004304 <HAL_RCC_OscConfig+0x9a0>)
 c004224:	681b      	ldr	r3, [r3, #0]
 c004226:	f003 7300 	and.w	r3, r3, #33554432	; 0x2000000
 c00422a:	2b00      	cmp	r3, #0
 c00422c:	d0ea      	beq.n	c004204 <HAL_RCC_OscConfig+0x8a0>
 c00422e:	e064      	b.n	c0042fa <HAL_RCC_OscConfig+0x996>
        }
      }
      else
      {
        /* Disable the main PLL. */
        __HAL_RCC_PLL_DISABLE();
 c004230:	4b34      	ldr	r3, [pc, #208]	; (c004304 <HAL_RCC_OscConfig+0x9a0>)
 c004232:	681b      	ldr	r3, [r3, #0]
 c004234:	4a33      	ldr	r2, [pc, #204]	; (c004304 <HAL_RCC_OscConfig+0x9a0>)
 c004236:	f023 7380 	bic.w	r3, r3, #16777216	; 0x1000000
 c00423a:	6013      	str	r3, [r2, #0]

        /* Get Start Tick*/
        tickstart = HAL_GetTick();
 c00423c:	f7fd ff40 	bl	c0020c0 <HAL_GetTick>
 c004240:	6138      	str	r0, [r7, #16]

        /* Wait till PLL is disabled */
        while (READ_BIT(RCC->CR, RCC_CR_PLLRDY) != 0U)
 c004242:	e00e      	b.n	c004262 <HAL_RCC_OscConfig+0x8fe>
        {
          if ((HAL_GetTick() - tickstart) > PLL_TIMEOUT_VALUE)
 c004244:	f7fd ff3c 	bl	c0020c0 <HAL_GetTick>
 c004248:	4602      	mov	r2, r0
 c00424a:	693b      	ldr	r3, [r7, #16]
 c00424c:	1ad3      	subs	r3, r2, r3
 c00424e:	2b02      	cmp	r3, #2
 c004250:	d907      	bls.n	c004262 <HAL_RCC_OscConfig+0x8fe>
          {
            /* New check to avoid false timeout detection in case of preemption */
            if (READ_BIT(RCC->CR, RCC_CR_PLLRDY) != 0U)
 c004252:	4b2c      	ldr	r3, [pc, #176]	; (c004304 <HAL_RCC_OscConfig+0x9a0>)
 c004254:	681b      	ldr	r3, [r3, #0]
 c004256:	f003 7300 	and.w	r3, r3, #33554432	; 0x2000000
 c00425a:	2b00      	cmp	r3, #0
 c00425c:	d001      	beq.n	c004262 <HAL_RCC_OscConfig+0x8fe>
            {
              return HAL_TIMEOUT;
 c00425e:	2303      	movs	r3, #3
 c004260:	e04c      	b.n	c0042fc <HAL_RCC_OscConfig+0x998>
        while (READ_BIT(RCC->CR, RCC_CR_PLLRDY) != 0U)
 c004262:	4b28      	ldr	r3, [pc, #160]	; (c004304 <HAL_RCC_OscConfig+0x9a0>)
 c004264:	681b      	ldr	r3, [r3, #0]
 c004266:	f003 7300 	and.w	r3, r3, #33554432	; 0x2000000
 c00426a:	2b00      	cmp	r3, #0
 c00426c:	d1ea      	bne.n	c004244 <HAL_RCC_OscConfig+0x8e0>
            }
          }
        }

        /* Unselect PLL clock source and disable outputs to save power */
        RCC->PLLCFGR &= ~(RCC_PLLCFGR_PLLSRC | RCC_PLL_SYSCLK | RCC_PLL_48M1CLK | RCC_PLL_SAI3CLK);
 c00426e:	4b25      	ldr	r3, [pc, #148]	; (c004304 <HAL_RCC_OscConfig+0x9a0>)
 c004270:	68da      	ldr	r2, [r3, #12]
 c004272:	4924      	ldr	r1, [pc, #144]	; (c004304 <HAL_RCC_OscConfig+0x9a0>)
 c004274:	4b25      	ldr	r3, [pc, #148]	; (c00430c <HAL_RCC_OscConfig+0x9a8>)
 c004276:	4013      	ands	r3, r2
 c004278:	60cb      	str	r3, [r1, #12]
 c00427a:	e03e      	b.n	c0042fa <HAL_RCC_OscConfig+0x996>
      }
    }
    else
    {
      /* Check if there is a request to disable the PLL used as System clock source */
      if (RCC_OscInitStruct->PLL.PLLState == RCC_PLL_OFF)
 c00427c:	687b      	ldr	r3, [r7, #4]
 c00427e:	6adb      	ldr	r3, [r3, #44]	; 0x2c
 c004280:	2b01      	cmp	r3, #1
 c004282:	d101      	bne.n	c004288 <HAL_RCC_OscConfig+0x924>
      {
        return HAL_ERROR;
 c004284:	2301      	movs	r3, #1
 c004286:	e039      	b.n	c0042fc <HAL_RCC_OscConfig+0x998>
      }
      else
      {
        pll_config = RCC->PLLCFGR;
 c004288:	4b1e      	ldr	r3, [pc, #120]	; (c004304 <HAL_RCC_OscConfig+0x9a0>)
 c00428a:	68db      	ldr	r3, [r3, #12]
 c00428c:	617b      	str	r3, [r7, #20]
        /* Do not return HAL_ERROR if request repeats the current configuration */
        if ((READ_BIT(pll_config, RCC_PLLCFGR_PLLSRC)  != RCC_OscInitStruct->PLL.PLLSource) ||
 c00428e:	697b      	ldr	r3, [r7, #20]
 c004290:	f003 0203 	and.w	r2, r3, #3
 c004294:	687b      	ldr	r3, [r7, #4]
 c004296:	6b1b      	ldr	r3, [r3, #48]	; 0x30
 c004298:	429a      	cmp	r2, r3
 c00429a:	d12c      	bne.n	c0042f6 <HAL_RCC_OscConfig+0x992>
            (READ_BIT(pll_config, RCC_PLLCFGR_PLLM)    != ((RCC_OscInitStruct->PLL.PLLM - 1U) << RCC_PLLCFGR_PLLM_Pos)) ||
 c00429c:	697b      	ldr	r3, [r7, #20]
 c00429e:	f003 02f0 	and.w	r2, r3, #240	; 0xf0
 c0042a2:	687b      	ldr	r3, [r7, #4]
 c0042a4:	6b5b      	ldr	r3, [r3, #52]	; 0x34
 c0042a6:	3b01      	subs	r3, #1
 c0042a8:	011b      	lsls	r3, r3, #4
        if ((READ_BIT(pll_config, RCC_PLLCFGR_PLLSRC)  != RCC_OscInitStruct->PLL.PLLSource) ||
 c0042aa:	429a      	cmp	r2, r3
 c0042ac:	d123      	bne.n	c0042f6 <HAL_RCC_OscConfig+0x992>
            (READ_BIT(pll_config, RCC_PLLCFGR_PLLN)    != (RCC_OscInitStruct->PLL.PLLN << RCC_PLLCFGR_PLLN_Pos)) ||
 c0042ae:	697b      	ldr	r3, [r7, #20]
 c0042b0:	f403 42fe 	and.w	r2, r3, #32512	; 0x7f00
 c0042b4:	687b      	ldr	r3, [r7, #4]
 c0042b6:	6b9b      	ldr	r3, [r3, #56]	; 0x38
 c0042b8:	021b      	lsls	r3, r3, #8
            (READ_BIT(pll_config, RCC_PLLCFGR_PLLM)    != ((RCC_OscInitStruct->PLL.PLLM - 1U) << RCC_PLLCFGR_PLLM_Pos)) ||
 c0042ba:	429a      	cmp	r2, r3
 c0042bc:	d11b      	bne.n	c0042f6 <HAL_RCC_OscConfig+0x992>
            (READ_BIT(pll_config, RCC_PLLCFGR_PLLPDIV) != (RCC_OscInitStruct->PLL.PLLP << RCC_PLLCFGR_PLLPDIV_Pos)) ||
 c0042be:	697b      	ldr	r3, [r7, #20]
 c0042c0:	f003 4278 	and.w	r2, r3, #4160749568	; 0xf8000000
 c0042c4:	687b      	ldr	r3, [r7, #4]
 c0042c6:	6bdb      	ldr	r3, [r3, #60]	; 0x3c
 c0042c8:	06db      	lsls	r3, r3, #27
            (READ_BIT(pll_config, RCC_PLLCFGR_PLLN)    != (RCC_OscInitStruct->PLL.PLLN << RCC_PLLCFGR_PLLN_Pos)) ||
 c0042ca:	429a      	cmp	r2, r3
 c0042cc:	d113      	bne.n	c0042f6 <HAL_RCC_OscConfig+0x992>
            (READ_BIT(pll_config, RCC_PLLCFGR_PLLQ)    != ((((RCC_OscInitStruct->PLL.PLLQ) >> 1U) - 1U) << RCC_PLLCFGR_PLLQ_Pos)) ||
 c0042ce:	697b      	ldr	r3, [r7, #20]
 c0042d0:	f403 02c0 	and.w	r2, r3, #6291456	; 0x600000
 c0042d4:	687b      	ldr	r3, [r7, #4]
 c0042d6:	6c1b      	ldr	r3, [r3, #64]	; 0x40
 c0042d8:	085b      	lsrs	r3, r3, #1
 c0042da:	3b01      	subs	r3, #1
 c0042dc:	055b      	lsls	r3, r3, #21
            (READ_BIT(pll_config, RCC_PLLCFGR_PLLPDIV) != (RCC_OscInitStruct->PLL.PLLP << RCC_PLLCFGR_PLLPDIV_Pos)) ||
 c0042de:	429a      	cmp	r2, r3
 c0042e0:	d109      	bne.n	c0042f6 <HAL_RCC_OscConfig+0x992>
            (READ_BIT(pll_config, RCC_PLLCFGR_PLLR)    != ((((RCC_OscInitStruct->PLL.PLLR) >> 1U) - 1U) << RCC_PLLCFGR_PLLR_Pos)))
 c0042e2:	697b      	ldr	r3, [r7, #20]
 c0042e4:	f003 62c0 	and.w	r2, r3, #100663296	; 0x6000000
 c0042e8:	687b      	ldr	r3, [r7, #4]
 c0042ea:	6c5b      	ldr	r3, [r3, #68]	; 0x44
 c0042ec:	085b      	lsrs	r3, r3, #1
 c0042ee:	3b01      	subs	r3, #1
 c0042f0:	065b      	lsls	r3, r3, #25
            (READ_BIT(pll_config, RCC_PLLCFGR_PLLQ)    != ((((RCC_OscInitStruct->PLL.PLLQ) >> 1U) - 1U) << RCC_PLLCFGR_PLLQ_Pos)) ||
 c0042f2:	429a      	cmp	r2, r3
 c0042f4:	d001      	beq.n	c0042fa <HAL_RCC_OscConfig+0x996>
        {
          return HAL_ERROR;
 c0042f6:	2301      	movs	r3, #1
 c0042f8:	e000      	b.n	c0042fc <HAL_RCC_OscConfig+0x998>
        }
      }
    }
  }

  return HAL_OK;
 c0042fa:	2300      	movs	r3, #0
}
 c0042fc:	4618      	mov	r0, r3
 c0042fe:	3720      	adds	r7, #32
 c004300:	46bd      	mov	sp, r7
 c004302:	bd80      	pop	{r7, pc}
 c004304:	50021000 	.word	0x50021000
 c004308:	019f800c 	.word	0x019f800c
 c00430c:	feeefffc 	.word	0xfeeefffc

0c004310 <HAL_RCC_ClockConfig>:
  *         HPRE[3:0] bits to ensure that HCLK not exceed the maximum allowed frequency
  *         (for more details refer to section above "Initialization/de-initialization functions")
  * @retval None
  */
HAL_StatusTypeDef HAL_RCC_ClockConfig(RCC_ClkInitTypeDef  *RCC_ClkInitStruct, uint32_t FLatency)
{
 c004310:	b580      	push	{r7, lr}
 c004312:	b086      	sub	sp, #24
 c004314:	af00      	add	r7, sp, #0
 c004316:	6078      	str	r0, [r7, #4]
 c004318:	6039      	str	r1, [r7, #0]
  uint32_t tickstart;
  uint32_t pllfreq;
  uint32_t hpre = RCC_SYSCLK_DIV1;
 c00431a:	2300      	movs	r3, #0
 c00431c:	617b      	str	r3, [r7, #20]

  /* Check Null pointer */
  if (RCC_ClkInitStruct == NULL)
 c00431e:	687b      	ldr	r3, [r7, #4]
 c004320:	2b00      	cmp	r3, #0
 c004322:	d101      	bne.n	c004328 <HAL_RCC_ClockConfig+0x18>
  {
    return HAL_ERROR;
 c004324:	2301      	movs	r3, #1
 c004326:	e11c      	b.n	c004562 <HAL_RCC_ClockConfig+0x252>
  /* To correctly read data from FLASH memory, the number of wait states (LATENCY)
    must be correctly programmed according to the frequency of the CPU clock
    (HCLK) and the supply voltage of the device. */

  /* Increasing the number of wait states because of higher CPU frequency */
  if (FLatency > __HAL_FLASH_GET_LATENCY())
 c004328:	4b90      	ldr	r3, [pc, #576]	; (c00456c <HAL_RCC_ClockConfig+0x25c>)
 c00432a:	681b      	ldr	r3, [r3, #0]
 c00432c:	f003 030f 	and.w	r3, r3, #15
 c004330:	683a      	ldr	r2, [r7, #0]
 c004332:	429a      	cmp	r2, r3
 c004334:	d910      	bls.n	c004358 <HAL_RCC_ClockConfig+0x48>
  {
    /* Program the new number of wait states to the LATENCY bits in the FLASH_ACR register */
    __HAL_FLASH_SET_LATENCY(FLatency);
 c004336:	4b8d      	ldr	r3, [pc, #564]	; (c00456c <HAL_RCC_ClockConfig+0x25c>)
 c004338:	681b      	ldr	r3, [r3, #0]
 c00433a:	f023 020f 	bic.w	r2, r3, #15
 c00433e:	498b      	ldr	r1, [pc, #556]	; (c00456c <HAL_RCC_ClockConfig+0x25c>)
 c004340:	683b      	ldr	r3, [r7, #0]
 c004342:	4313      	orrs	r3, r2
 c004344:	600b      	str	r3, [r1, #0]

    /* Check that the new number of wait states is taken into account to access the Flash
    memory by reading the FLASH_ACR register */
    if (__HAL_FLASH_GET_LATENCY() != FLatency)
 c004346:	4b89      	ldr	r3, [pc, #548]	; (c00456c <HAL_RCC_ClockConfig+0x25c>)
 c004348:	681b      	ldr	r3, [r3, #0]
 c00434a:	f003 030f 	and.w	r3, r3, #15
 c00434e:	683a      	ldr	r2, [r7, #0]
 c004350:	429a      	cmp	r2, r3
 c004352:	d001      	beq.n	c004358 <HAL_RCC_ClockConfig+0x48>
    {
      return HAL_ERROR;
 c004354:	2301      	movs	r3, #1
 c004356:	e104      	b.n	c004562 <HAL_RCC_ClockConfig+0x252>
    }
  }

  /*----------------- HCLK Configuration prior to SYSCLK----------------------*/
  /* Apply higher HCLK prescaler request here to ensure CPU clock is not of of spec when SYSCLK is increased */
  if(((RCC_ClkInitStruct->ClockType) & RCC_CLOCKTYPE_HCLK) == RCC_CLOCKTYPE_HCLK)
 c004358:	687b      	ldr	r3, [r7, #4]
 c00435a:	681b      	ldr	r3, [r3, #0]
 c00435c:	f003 0302 	and.w	r3, r3, #2
 c004360:	2b00      	cmp	r3, #0
 c004362:	d010      	beq.n	c004386 <HAL_RCC_ClockConfig+0x76>
  {
    assert_param(IS_RCC_HCLK(RCC_ClkInitStruct->AHBCLKDivider));

    if(RCC_ClkInitStruct->AHBCLKDivider > READ_BIT(RCC->CFGR, RCC_CFGR_HPRE))
 c004364:	687b      	ldr	r3, [r7, #4]
 c004366:	689a      	ldr	r2, [r3, #8]
 c004368:	4b81      	ldr	r3, [pc, #516]	; (c004570 <HAL_RCC_ClockConfig+0x260>)
 c00436a:	689b      	ldr	r3, [r3, #8]
 c00436c:	f003 03f0 	and.w	r3, r3, #240	; 0xf0
 c004370:	429a      	cmp	r2, r3
 c004372:	d908      	bls.n	c004386 <HAL_RCC_ClockConfig+0x76>
    {
      MODIFY_REG(RCC->CFGR, RCC_CFGR_HPRE, RCC_ClkInitStruct->AHBCLKDivider);
 c004374:	4b7e      	ldr	r3, [pc, #504]	; (c004570 <HAL_RCC_ClockConfig+0x260>)
 c004376:	689b      	ldr	r3, [r3, #8]
 c004378:	f023 02f0 	bic.w	r2, r3, #240	; 0xf0
 c00437c:	687b      	ldr	r3, [r7, #4]
 c00437e:	689b      	ldr	r3, [r3, #8]
 c004380:	497b      	ldr	r1, [pc, #492]	; (c004570 <HAL_RCC_ClockConfig+0x260>)
 c004382:	4313      	orrs	r3, r2
 c004384:	608b      	str	r3, [r1, #8]
    }
  }

  /*------------------------- SYSCLK Configuration ---------------------------*/
  if (((RCC_ClkInitStruct->ClockType) & RCC_CLOCKTYPE_SYSCLK) == RCC_CLOCKTYPE_SYSCLK)
 c004386:	687b      	ldr	r3, [r7, #4]
 c004388:	681b      	ldr	r3, [r3, #0]
 c00438a:	f003 0301 	and.w	r3, r3, #1
 c00438e:	2b00      	cmp	r3, #0
 c004390:	f000 8085 	beq.w	c00449e <HAL_RCC_ClockConfig+0x18e>
  {
    assert_param(IS_RCC_SYSCLKSOURCE(RCC_ClkInitStruct->SYSCLKSource));

    /* PLL is selected as System Clock Source */
    if (RCC_ClkInitStruct->SYSCLKSource == RCC_SYSCLKSOURCE_PLLCLK)
 c004394:	687b      	ldr	r3, [r7, #4]
 c004396:	685b      	ldr	r3, [r3, #4]
 c004398:	2b03      	cmp	r3, #3
 c00439a:	d11f      	bne.n	c0043dc <HAL_RCC_ClockConfig+0xcc>
    {
      /* Check the PLL ready flag */
      if (READ_BIT(RCC->CR, RCC_CR_PLLRDY) == 0U)
 c00439c:	4b74      	ldr	r3, [pc, #464]	; (c004570 <HAL_RCC_ClockConfig+0x260>)
 c00439e:	681b      	ldr	r3, [r3, #0]
 c0043a0:	f003 7300 	and.w	r3, r3, #33554432	; 0x2000000
 c0043a4:	2b00      	cmp	r3, #0
 c0043a6:	d101      	bne.n	c0043ac <HAL_RCC_ClockConfig+0x9c>
      {
        return HAL_ERROR;
 c0043a8:	2301      	movs	r3, #1
 c0043aa:	e0da      	b.n	c004562 <HAL_RCC_ClockConfig+0x252>
      }

      /* Transition state management when selecting PLL as SYSCLK source and */
      /* target frequency above 80Mhz */
      /* Compute target PLL output frequency */
      pllfreq = RCC_GetSysClockFreqFromPLLSource();
 c0043ac:	f000 fa26 	bl	c0047fc <RCC_GetSysClockFreqFromPLLSource>
 c0043b0:	6138      	str	r0, [r7, #16]

      /* Intermediate step with HCLK prescaler 2 necessary before to go over 80Mhz */
      if (pllfreq > 80000000U)
 c0043b2:	693b      	ldr	r3, [r7, #16]
 c0043b4:	4a6f      	ldr	r2, [pc, #444]	; (c004574 <HAL_RCC_ClockConfig+0x264>)
 c0043b6:	4293      	cmp	r3, r2
 c0043b8:	d947      	bls.n	c00444a <HAL_RCC_ClockConfig+0x13a>
      {
        /* If lowest HCLK prescaler, apply intermediate step with HCLK prescaler 2 necessary before to go over 80Mhz */
        if (READ_BIT(RCC->CFGR, RCC_CFGR_HPRE) == RCC_SYSCLK_DIV1)
 c0043ba:	4b6d      	ldr	r3, [pc, #436]	; (c004570 <HAL_RCC_ClockConfig+0x260>)
 c0043bc:	689b      	ldr	r3, [r3, #8]
 c0043be:	f003 03f0 	and.w	r3, r3, #240	; 0xf0
 c0043c2:	2b00      	cmp	r3, #0
 c0043c4:	d141      	bne.n	c00444a <HAL_RCC_ClockConfig+0x13a>
        {
          MODIFY_REG(RCC->CFGR, RCC_CFGR_HPRE, RCC_SYSCLK_DIV2);
 c0043c6:	4b6a      	ldr	r3, [pc, #424]	; (c004570 <HAL_RCC_ClockConfig+0x260>)
 c0043c8:	689b      	ldr	r3, [r3, #8]
 c0043ca:	f023 03f0 	bic.w	r3, r3, #240	; 0xf0
 c0043ce:	4a68      	ldr	r2, [pc, #416]	; (c004570 <HAL_RCC_ClockConfig+0x260>)
 c0043d0:	f043 0380 	orr.w	r3, r3, #128	; 0x80
 c0043d4:	6093      	str	r3, [r2, #8]
          hpre = RCC_SYSCLK_DIV2;
 c0043d6:	2380      	movs	r3, #128	; 0x80
 c0043d8:	617b      	str	r3, [r7, #20]
 c0043da:	e036      	b.n	c00444a <HAL_RCC_ClockConfig+0x13a>
      }
    }
    else
    {
      /* HSE is selected as System Clock Source */
      if (RCC_ClkInitStruct->SYSCLKSource == RCC_SYSCLKSOURCE_HSE)
 c0043dc:	687b      	ldr	r3, [r7, #4]
 c0043de:	685b      	ldr	r3, [r3, #4]
 c0043e0:	2b02      	cmp	r3, #2
 c0043e2:	d107      	bne.n	c0043f4 <HAL_RCC_ClockConfig+0xe4>
      {
        /* Check the HSE ready flag */
        if (READ_BIT(RCC->CR, RCC_CR_HSERDY) == 0U)
 c0043e4:	4b62      	ldr	r3, [pc, #392]	; (c004570 <HAL_RCC_ClockConfig+0x260>)
 c0043e6:	681b      	ldr	r3, [r3, #0]
 c0043e8:	f403 3300 	and.w	r3, r3, #131072	; 0x20000
 c0043ec:	2b00      	cmp	r3, #0
 c0043ee:	d115      	bne.n	c00441c <HAL_RCC_ClockConfig+0x10c>
        {
          return HAL_ERROR;
 c0043f0:	2301      	movs	r3, #1
 c0043f2:	e0b6      	b.n	c004562 <HAL_RCC_ClockConfig+0x252>
        }
      }
      /* MSI is selected as System Clock Source */
      else if (RCC_ClkInitStruct->SYSCLKSource == RCC_SYSCLKSOURCE_MSI)
 c0043f4:	687b      	ldr	r3, [r7, #4]
 c0043f6:	685b      	ldr	r3, [r3, #4]
 c0043f8:	2b00      	cmp	r3, #0
 c0043fa:	d107      	bne.n	c00440c <HAL_RCC_ClockConfig+0xfc>
      {
        /* Check the MSI ready flag */
        if (READ_BIT(RCC->CR, RCC_CR_MSIRDY) == 0U)
 c0043fc:	4b5c      	ldr	r3, [pc, #368]	; (c004570 <HAL_RCC_ClockConfig+0x260>)
 c0043fe:	681b      	ldr	r3, [r3, #0]
 c004400:	f003 0302 	and.w	r3, r3, #2
 c004404:	2b00      	cmp	r3, #0
 c004406:	d109      	bne.n	c00441c <HAL_RCC_ClockConfig+0x10c>
        {
          return HAL_ERROR;
 c004408:	2301      	movs	r3, #1
 c00440a:	e0aa      	b.n	c004562 <HAL_RCC_ClockConfig+0x252>
      }
      /* HSI is selected as System Clock Source */
      else
      {
        /* Check the HSI ready flag */
        if (READ_BIT(RCC->CR, RCC_CR_HSIRDY) == 0U)
 c00440c:	4b58      	ldr	r3, [pc, #352]	; (c004570 <HAL_RCC_ClockConfig+0x260>)
 c00440e:	681b      	ldr	r3, [r3, #0]
 c004410:	f403 6380 	and.w	r3, r3, #1024	; 0x400
 c004414:	2b00      	cmp	r3, #0
 c004416:	d101      	bne.n	c00441c <HAL_RCC_ClockConfig+0x10c>
        {
          return HAL_ERROR;
 c004418:	2301      	movs	r3, #1
 c00441a:	e0a2      	b.n	c004562 <HAL_RCC_ClockConfig+0x252>
        }
      }

      /* Transition state management when when going down from PLL used as */
      /* SYSCLK source and frequency above 80Mhz */
      pllfreq = HAL_RCC_GetSysClockFreq();
 c00441c:	f000 f8b0 	bl	c004580 <HAL_RCC_GetSysClockFreq>
 c004420:	6138      	str	r0, [r7, #16]

      /* Intermediate step with HCLK prescaler 2 necessary before to go under 80Mhz */
      if (pllfreq > 80000000U)
 c004422:	693b      	ldr	r3, [r7, #16]
 c004424:	4a53      	ldr	r2, [pc, #332]	; (c004574 <HAL_RCC_ClockConfig+0x264>)
 c004426:	4293      	cmp	r3, r2
 c004428:	d90f      	bls.n	c00444a <HAL_RCC_ClockConfig+0x13a>
      {
        /* If lowest HCLK prescaler, apply intermediate step with HCLK prescaler 2 necessary before to go under 80Mhz */
        if(READ_BIT(RCC->CFGR, RCC_CFGR_HPRE) == RCC_SYSCLK_DIV1)
 c00442a:	4b51      	ldr	r3, [pc, #324]	; (c004570 <HAL_RCC_ClockConfig+0x260>)
 c00442c:	689b      	ldr	r3, [r3, #8]
 c00442e:	f003 03f0 	and.w	r3, r3, #240	; 0xf0
 c004432:	2b00      	cmp	r3, #0
 c004434:	d109      	bne.n	c00444a <HAL_RCC_ClockConfig+0x13a>
        {
          MODIFY_REG(RCC->CFGR, RCC_CFGR_HPRE, RCC_SYSCLK_DIV2);
 c004436:	4b4e      	ldr	r3, [pc, #312]	; (c004570 <HAL_RCC_ClockConfig+0x260>)
 c004438:	689b      	ldr	r3, [r3, #8]
 c00443a:	f023 03f0 	bic.w	r3, r3, #240	; 0xf0
 c00443e:	4a4c      	ldr	r2, [pc, #304]	; (c004570 <HAL_RCC_ClockConfig+0x260>)
 c004440:	f043 0380 	orr.w	r3, r3, #128	; 0x80
 c004444:	6093      	str	r3, [r2, #8]
          hpre = RCC_SYSCLK_DIV2;
 c004446:	2380      	movs	r3, #128	; 0x80
 c004448:	617b      	str	r3, [r7, #20]
        }
      }
    }

    MODIFY_REG(RCC->CFGR, RCC_CFGR_SW, RCC_ClkInitStruct->SYSCLKSource);
 c00444a:	4b49      	ldr	r3, [pc, #292]	; (c004570 <HAL_RCC_ClockConfig+0x260>)
 c00444c:	689b      	ldr	r3, [r3, #8]
 c00444e:	f023 0203 	bic.w	r2, r3, #3
 c004452:	687b      	ldr	r3, [r7, #4]
 c004454:	685b      	ldr	r3, [r3, #4]
 c004456:	4946      	ldr	r1, [pc, #280]	; (c004570 <HAL_RCC_ClockConfig+0x260>)
 c004458:	4313      	orrs	r3, r2
 c00445a:	608b      	str	r3, [r1, #8]

    /* Get Start Tick*/
    tickstart = HAL_GetTick();
 c00445c:	f7fd fe30 	bl	c0020c0 <HAL_GetTick>
 c004460:	60f8      	str	r0, [r7, #12]

    while (__HAL_RCC_GET_SYSCLK_SOURCE() != (RCC_ClkInitStruct->SYSCLKSource << RCC_CFGR_SWS_Pos))
 c004462:	e013      	b.n	c00448c <HAL_RCC_ClockConfig+0x17c>
    {
      if ((HAL_GetTick() - tickstart) > CLOCKSWITCH_TIMEOUT_VALUE)
 c004464:	f7fd fe2c 	bl	c0020c0 <HAL_GetTick>
 c004468:	4602      	mov	r2, r0
 c00446a:	68fb      	ldr	r3, [r7, #12]
 c00446c:	1ad3      	subs	r3, r2, r3
 c00446e:	f241 3288 	movw	r2, #5000	; 0x1388
 c004472:	4293      	cmp	r3, r2
 c004474:	d90a      	bls.n	c00448c <HAL_RCC_ClockConfig+0x17c>
      {
        /* New check to avoid false timeout detection in case of preemption */
        if (__HAL_RCC_GET_SYSCLK_SOURCE() != (RCC_ClkInitStruct->SYSCLKSource << RCC_CFGR_SWS_Pos))
 c004476:	4b3e      	ldr	r3, [pc, #248]	; (c004570 <HAL_RCC_ClockConfig+0x260>)
 c004478:	689b      	ldr	r3, [r3, #8]
 c00447a:	f003 020c 	and.w	r2, r3, #12
 c00447e:	687b      	ldr	r3, [r7, #4]
 c004480:	685b      	ldr	r3, [r3, #4]
 c004482:	009b      	lsls	r3, r3, #2
 c004484:	429a      	cmp	r2, r3
 c004486:	d001      	beq.n	c00448c <HAL_RCC_ClockConfig+0x17c>
        {
          return HAL_TIMEOUT;
 c004488:	2303      	movs	r3, #3
 c00448a:	e06a      	b.n	c004562 <HAL_RCC_ClockConfig+0x252>
    while (__HAL_RCC_GET_SYSCLK_SOURCE() != (RCC_ClkInitStruct->SYSCLKSource << RCC_CFGR_SWS_Pos))
 c00448c:	4b38      	ldr	r3, [pc, #224]	; (c004570 <HAL_RCC_ClockConfig+0x260>)
 c00448e:	689b      	ldr	r3, [r3, #8]
 c004490:	f003 020c 	and.w	r2, r3, #12
 c004494:	687b      	ldr	r3, [r7, #4]
 c004496:	685b      	ldr	r3, [r3, #4]
 c004498:	009b      	lsls	r3, r3, #2
 c00449a:	429a      	cmp	r2, r3
 c00449c:	d1e2      	bne.n	c004464 <HAL_RCC_ClockConfig+0x154>
      }
    }
  }

  /* Is intermediate HCLK prescaler 2 applied internally, resume with HCLK prescaler 1 */
  if(hpre == RCC_SYSCLK_DIV2)
 c00449e:	697b      	ldr	r3, [r7, #20]
 c0044a0:	2b80      	cmp	r3, #128	; 0x80
 c0044a2:	d105      	bne.n	c0044b0 <HAL_RCC_ClockConfig+0x1a0>
  {
    MODIFY_REG(RCC->CFGR, RCC_CFGR_HPRE, RCC_SYSCLK_DIV1);
 c0044a4:	4b32      	ldr	r3, [pc, #200]	; (c004570 <HAL_RCC_ClockConfig+0x260>)
 c0044a6:	689b      	ldr	r3, [r3, #8]
 c0044a8:	4a31      	ldr	r2, [pc, #196]	; (c004570 <HAL_RCC_ClockConfig+0x260>)
 c0044aa:	f023 03f0 	bic.w	r3, r3, #240	; 0xf0
 c0044ae:	6093      	str	r3, [r2, #8]
  }

  /*----------------- HCLK Configuration after SYSCLK-------------------------*/
  /* Apply lower HCLK prescaler request here to ensure CPU clock is not of of spec when SYSCLK is set */
  if(((RCC_ClkInitStruct->ClockType) & RCC_CLOCKTYPE_HCLK) == RCC_CLOCKTYPE_HCLK)
 c0044b0:	687b      	ldr	r3, [r7, #4]
 c0044b2:	681b      	ldr	r3, [r3, #0]
 c0044b4:	f003 0302 	and.w	r3, r3, #2
 c0044b8:	2b00      	cmp	r3, #0
 c0044ba:	d010      	beq.n	c0044de <HAL_RCC_ClockConfig+0x1ce>
  {
    if(RCC_ClkInitStruct->AHBCLKDivider < READ_BIT(RCC->CFGR, RCC_CFGR_HPRE))
 c0044bc:	687b      	ldr	r3, [r7, #4]
 c0044be:	689a      	ldr	r2, [r3, #8]
 c0044c0:	4b2b      	ldr	r3, [pc, #172]	; (c004570 <HAL_RCC_ClockConfig+0x260>)
 c0044c2:	689b      	ldr	r3, [r3, #8]
 c0044c4:	f003 03f0 	and.w	r3, r3, #240	; 0xf0
 c0044c8:	429a      	cmp	r2, r3
 c0044ca:	d208      	bcs.n	c0044de <HAL_RCC_ClockConfig+0x1ce>
    {
      MODIFY_REG(RCC->CFGR, RCC_CFGR_HPRE, RCC_ClkInitStruct->AHBCLKDivider);
 c0044cc:	4b28      	ldr	r3, [pc, #160]	; (c004570 <HAL_RCC_ClockConfig+0x260>)
 c0044ce:	689b      	ldr	r3, [r3, #8]
 c0044d0:	f023 02f0 	bic.w	r2, r3, #240	; 0xf0
 c0044d4:	687b      	ldr	r3, [r7, #4]
 c0044d6:	689b      	ldr	r3, [r3, #8]
 c0044d8:	4925      	ldr	r1, [pc, #148]	; (c004570 <HAL_RCC_ClockConfig+0x260>)
 c0044da:	4313      	orrs	r3, r2
 c0044dc:	608b      	str	r3, [r1, #8]
    }
  }

  /* Allow decreasing of the number of wait states (because of lower CPU frequency expected) */
  if (FLatency < __HAL_FLASH_GET_LATENCY())
 c0044de:	4b23      	ldr	r3, [pc, #140]	; (c00456c <HAL_RCC_ClockConfig+0x25c>)
 c0044e0:	681b      	ldr	r3, [r3, #0]
 c0044e2:	f003 030f 	and.w	r3, r3, #15
 c0044e6:	683a      	ldr	r2, [r7, #0]
 c0044e8:	429a      	cmp	r2, r3
 c0044ea:	d210      	bcs.n	c00450e <HAL_RCC_ClockConfig+0x1fe>
  {
    /* Program the new number of wait states to the LATENCY bits in the FLASH_ACR register */
    __HAL_FLASH_SET_LATENCY(FLatency);
 c0044ec:	4b1f      	ldr	r3, [pc, #124]	; (c00456c <HAL_RCC_ClockConfig+0x25c>)
 c0044ee:	681b      	ldr	r3, [r3, #0]
 c0044f0:	f023 020f 	bic.w	r2, r3, #15
 c0044f4:	491d      	ldr	r1, [pc, #116]	; (c00456c <HAL_RCC_ClockConfig+0x25c>)
 c0044f6:	683b      	ldr	r3, [r7, #0]
 c0044f8:	4313      	orrs	r3, r2
 c0044fa:	600b      	str	r3, [r1, #0]

    /* Check that the new number of wait states is taken into account to access the Flash
    memory by reading the FLASH_ACR register */
    if (__HAL_FLASH_GET_LATENCY() != FLatency)
 c0044fc:	4b1b      	ldr	r3, [pc, #108]	; (c00456c <HAL_RCC_ClockConfig+0x25c>)
 c0044fe:	681b      	ldr	r3, [r3, #0]
 c004500:	f003 030f 	and.w	r3, r3, #15
 c004504:	683a      	ldr	r2, [r7, #0]
 c004506:	429a      	cmp	r2, r3
 c004508:	d001      	beq.n	c00450e <HAL_RCC_ClockConfig+0x1fe>
    {
      return HAL_ERROR;
 c00450a:	2301      	movs	r3, #1
 c00450c:	e029      	b.n	c004562 <HAL_RCC_ClockConfig+0x252>
    }
  }

  /*-------------------------- PCLK1 Configuration ---------------------------*/
  if (((RCC_ClkInitStruct->ClockType) & RCC_CLOCKTYPE_PCLK1) == RCC_CLOCKTYPE_PCLK1)
 c00450e:	687b      	ldr	r3, [r7, #4]
 c004510:	681b      	ldr	r3, [r3, #0]
 c004512:	f003 0304 	and.w	r3, r3, #4
 c004516:	2b00      	cmp	r3, #0
 c004518:	d008      	beq.n	c00452c <HAL_RCC_ClockConfig+0x21c>
  {
    assert_param(IS_RCC_PCLK(RCC_ClkInitStruct->APB1CLKDivider));
    MODIFY_REG(RCC->CFGR, RCC_CFGR_PPRE1, RCC_ClkInitStruct->APB1CLKDivider);
 c00451a:	4b15      	ldr	r3, [pc, #84]	; (c004570 <HAL_RCC_ClockConfig+0x260>)
 c00451c:	689b      	ldr	r3, [r3, #8]
 c00451e:	f423 62e0 	bic.w	r2, r3, #1792	; 0x700
 c004522:	687b      	ldr	r3, [r7, #4]
 c004524:	68db      	ldr	r3, [r3, #12]
 c004526:	4912      	ldr	r1, [pc, #72]	; (c004570 <HAL_RCC_ClockConfig+0x260>)
 c004528:	4313      	orrs	r3, r2
 c00452a:	608b      	str	r3, [r1, #8]
  }

  /*-------------------------- PCLK2 Configuration ---------------------------*/
  if (((RCC_ClkInitStruct->ClockType) & RCC_CLOCKTYPE_PCLK2) == RCC_CLOCKTYPE_PCLK2)
 c00452c:	687b      	ldr	r3, [r7, #4]
 c00452e:	681b      	ldr	r3, [r3, #0]
 c004530:	f003 0308 	and.w	r3, r3, #8
 c004534:	2b00      	cmp	r3, #0
 c004536:	d009      	beq.n	c00454c <HAL_RCC_ClockConfig+0x23c>
  {
    assert_param(IS_RCC_PCLK(RCC_ClkInitStruct->APB2CLKDivider));
    MODIFY_REG(RCC->CFGR, RCC_CFGR_PPRE2, ((RCC_ClkInitStruct->APB2CLKDivider) << 3U));
 c004538:	4b0d      	ldr	r3, [pc, #52]	; (c004570 <HAL_RCC_ClockConfig+0x260>)
 c00453a:	689b      	ldr	r3, [r3, #8]
 c00453c:	f423 5260 	bic.w	r2, r3, #14336	; 0x3800
 c004540:	687b      	ldr	r3, [r7, #4]
 c004542:	691b      	ldr	r3, [r3, #16]
 c004544:	00db      	lsls	r3, r3, #3
 c004546:	490a      	ldr	r1, [pc, #40]	; (c004570 <HAL_RCC_ClockConfig+0x260>)
 c004548:	4313      	orrs	r3, r2
 c00454a:	608b      	str	r3, [r1, #8]
  }

  /* Update the SystemCoreClock global variable */
  SystemCoreClock = HAL_RCC_GetHCLKFreq();
 c00454c:	f000 f8b6 	bl	c0046bc <HAL_RCC_GetHCLKFreq>
 c004550:	4603      	mov	r3, r0
 c004552:	4a09      	ldr	r2, [pc, #36]	; (c004578 <HAL_RCC_ClockConfig+0x268>)
 c004554:	6013      	str	r3, [r2, #0]

  /* Configure the source of time base considering new system clocks settings*/
  return HAL_InitTick(uwTickPrio);
 c004556:	4b09      	ldr	r3, [pc, #36]	; (c00457c <HAL_RCC_ClockConfig+0x26c>)
 c004558:	681b      	ldr	r3, [r3, #0]
 c00455a:	4618      	mov	r0, r3
 c00455c:	f7fd fd60 	bl	c002020 <HAL_InitTick>
 c004560:	4603      	mov	r3, r0
}
 c004562:	4618      	mov	r0, r3
 c004564:	3718      	adds	r7, #24
 c004566:	46bd      	mov	sp, r7
 c004568:	bd80      	pop	{r7, pc}
 c00456a:	bf00      	nop
 c00456c:	50022000 	.word	0x50022000
 c004570:	50021000 	.word	0x50021000
 c004574:	04c4b400 	.word	0x04c4b400
 c004578:	300000c0 	.word	0x300000c0
 c00457c:	300000c4 	.word	0x300000c4

0c004580 <HAL_RCC_GetSysClockFreq>:
  *
  *
  * @retval SYSCLK frequency
  */
uint32_t HAL_RCC_GetSysClockFreq(void)
{
 c004580:	b480      	push	{r7}
 c004582:	b089      	sub	sp, #36	; 0x24
 c004584:	af00      	add	r7, sp, #0
  uint32_t msirange = 0U, sysclockfreq = 0U;
 c004586:	2300      	movs	r3, #0
 c004588:	61fb      	str	r3, [r7, #28]
 c00458a:	2300      	movs	r3, #0
 c00458c:	61bb      	str	r3, [r7, #24]
  uint32_t pllvco, pllsource, pllr, pllm;    /* no init needed */
  uint32_t sysclk_source, pll_oscsource;

  sysclk_source = __HAL_RCC_GET_SYSCLK_SOURCE();
 c00458e:	4b47      	ldr	r3, [pc, #284]	; (c0046ac <HAL_RCC_GetSysClockFreq+0x12c>)
 c004590:	689b      	ldr	r3, [r3, #8]
 c004592:	f003 030c 	and.w	r3, r3, #12
 c004596:	613b      	str	r3, [r7, #16]
  pll_oscsource = __HAL_RCC_GET_PLL_OSCSOURCE();
 c004598:	4b44      	ldr	r3, [pc, #272]	; (c0046ac <HAL_RCC_GetSysClockFreq+0x12c>)
 c00459a:	68db      	ldr	r3, [r3, #12]
 c00459c:	f003 0303 	and.w	r3, r3, #3
 c0045a0:	60fb      	str	r3, [r7, #12]

  if ((sysclk_source == RCC_SYSCLKSOURCE_STATUS_MSI) ||
 c0045a2:	693b      	ldr	r3, [r7, #16]
 c0045a4:	2b00      	cmp	r3, #0
 c0045a6:	d005      	beq.n	c0045b4 <HAL_RCC_GetSysClockFreq+0x34>
 c0045a8:	693b      	ldr	r3, [r7, #16]
 c0045aa:	2b0c      	cmp	r3, #12
 c0045ac:	d121      	bne.n	c0045f2 <HAL_RCC_GetSysClockFreq+0x72>
      ((sysclk_source == RCC_SYSCLKSOURCE_STATUS_PLLCLK) && (pll_oscsource == RCC_PLLSOURCE_MSI)))
 c0045ae:	68fb      	ldr	r3, [r7, #12]
 c0045b0:	2b01      	cmp	r3, #1
 c0045b2:	d11e      	bne.n	c0045f2 <HAL_RCC_GetSysClockFreq+0x72>
  {
    /* MSI or PLL with MSI source used as system clock source */

    /* Get SYSCLK source */
    if (READ_BIT(RCC->CR, RCC_CR_MSIRGSEL) == 0U)
 c0045b4:	4b3d      	ldr	r3, [pc, #244]	; (c0046ac <HAL_RCC_GetSysClockFreq+0x12c>)
 c0045b6:	681b      	ldr	r3, [r3, #0]
 c0045b8:	f003 0308 	and.w	r3, r3, #8
 c0045bc:	2b00      	cmp	r3, #0
 c0045be:	d107      	bne.n	c0045d0 <HAL_RCC_GetSysClockFreq+0x50>
    {
      /* MSISRANGE from RCC_CSR applies */
      msirange = READ_BIT(RCC->CSR, RCC_CSR_MSISRANGE) >> RCC_CSR_MSISRANGE_Pos;
 c0045c0:	4b3a      	ldr	r3, [pc, #232]	; (c0046ac <HAL_RCC_GetSysClockFreq+0x12c>)
 c0045c2:	f8d3 3094 	ldr.w	r3, [r3, #148]	; 0x94
 c0045c6:	0a1b      	lsrs	r3, r3, #8
 c0045c8:	f003 030f 	and.w	r3, r3, #15
 c0045cc:	61fb      	str	r3, [r7, #28]
 c0045ce:	e005      	b.n	c0045dc <HAL_RCC_GetSysClockFreq+0x5c>
    }
    else
    {
      /* MSIRANGE from RCC_CR applies */
      msirange = READ_BIT(RCC->CR, RCC_CR_MSIRANGE) >> RCC_CR_MSIRANGE_Pos;
 c0045d0:	4b36      	ldr	r3, [pc, #216]	; (c0046ac <HAL_RCC_GetSysClockFreq+0x12c>)
 c0045d2:	681b      	ldr	r3, [r3, #0]
 c0045d4:	091b      	lsrs	r3, r3, #4
 c0045d6:	f003 030f 	and.w	r3, r3, #15
 c0045da:	61fb      	str	r3, [r7, #28]
    }
    /*MSI frequency range in Hz*/
    msirange = MSIRangeTable[msirange];
 c0045dc:	4a34      	ldr	r2, [pc, #208]	; (c0046b0 <HAL_RCC_GetSysClockFreq+0x130>)
 c0045de:	69fb      	ldr	r3, [r7, #28]
 c0045e0:	f852 3023 	ldr.w	r3, [r2, r3, lsl #2]
 c0045e4:	61fb      	str	r3, [r7, #28]

    if (sysclk_source == RCC_SYSCLKSOURCE_STATUS_MSI)
 c0045e6:	693b      	ldr	r3, [r7, #16]
 c0045e8:	2b00      	cmp	r3, #0
 c0045ea:	d10d      	bne.n	c004608 <HAL_RCC_GetSysClockFreq+0x88>
    {
      /* MSI used as system clock source */
      sysclockfreq = msirange;
 c0045ec:	69fb      	ldr	r3, [r7, #28]
 c0045ee:	61bb      	str	r3, [r7, #24]
    if (sysclk_source == RCC_SYSCLKSOURCE_STATUS_MSI)
 c0045f0:	e00a      	b.n	c004608 <HAL_RCC_GetSysClockFreq+0x88>
    }
  }
  else if (sysclk_source == RCC_SYSCLKSOURCE_STATUS_HSI)
 c0045f2:	693b      	ldr	r3, [r7, #16]
 c0045f4:	2b04      	cmp	r3, #4
 c0045f6:	d102      	bne.n	c0045fe <HAL_RCC_GetSysClockFreq+0x7e>
  {
    /* HSI used as system clock source */
    sysclockfreq = HSI_VALUE;
 c0045f8:	4b2e      	ldr	r3, [pc, #184]	; (c0046b4 <HAL_RCC_GetSysClockFreq+0x134>)
 c0045fa:	61bb      	str	r3, [r7, #24]
 c0045fc:	e004      	b.n	c004608 <HAL_RCC_GetSysClockFreq+0x88>
  }
  else if (sysclk_source == RCC_SYSCLKSOURCE_STATUS_HSE)
 c0045fe:	693b      	ldr	r3, [r7, #16]
 c004600:	2b08      	cmp	r3, #8
 c004602:	d101      	bne.n	c004608 <HAL_RCC_GetSysClockFreq+0x88>
  {
    /* HSE used as system clock source */
    sysclockfreq = HSE_VALUE;
 c004604:	4b2c      	ldr	r3, [pc, #176]	; (c0046b8 <HAL_RCC_GetSysClockFreq+0x138>)
 c004606:	61bb      	str	r3, [r7, #24]
  else
  {
    /* unexpected case: sysclockfreq at 0 */
  }

  if (sysclk_source == RCC_SYSCLKSOURCE_STATUS_PLLCLK)
 c004608:	693b      	ldr	r3, [r7, #16]
 c00460a:	2b0c      	cmp	r3, #12
 c00460c:	d146      	bne.n	c00469c <HAL_RCC_GetSysClockFreq+0x11c>
    /* PLL used as system clock  source */

    /* PLL_VCO = (HSE_VALUE or HSI_VALUE or MSI_VALUE/ PLLM) * PLLN
    SYSCLK = PLL_VCO / PLLR
    */
    pllsource = (RCC->PLLCFGR & RCC_PLLCFGR_PLLSRC);
 c00460e:	4b27      	ldr	r3, [pc, #156]	; (c0046ac <HAL_RCC_GetSysClockFreq+0x12c>)
 c004610:	68db      	ldr	r3, [r3, #12]
 c004612:	f003 0303 	and.w	r3, r3, #3
 c004616:	60bb      	str	r3, [r7, #8]
    pllm = ((RCC->PLLCFGR & RCC_PLLCFGR_PLLM) >> RCC_PLLCFGR_PLLM_Pos) + 1U ;
 c004618:	4b24      	ldr	r3, [pc, #144]	; (c0046ac <HAL_RCC_GetSysClockFreq+0x12c>)
 c00461a:	68db      	ldr	r3, [r3, #12]
 c00461c:	091b      	lsrs	r3, r3, #4
 c00461e:	f003 030f 	and.w	r3, r3, #15
 c004622:	3301      	adds	r3, #1
 c004624:	607b      	str	r3, [r7, #4]

    switch (pllsource)
 c004626:	68bb      	ldr	r3, [r7, #8]
 c004628:	2b02      	cmp	r3, #2
 c00462a:	d003      	beq.n	c004634 <HAL_RCC_GetSysClockFreq+0xb4>
 c00462c:	68bb      	ldr	r3, [r7, #8]
 c00462e:	2b03      	cmp	r3, #3
 c004630:	d00d      	beq.n	c00464e <HAL_RCC_GetSysClockFreq+0xce>
 c004632:	e019      	b.n	c004668 <HAL_RCC_GetSysClockFreq+0xe8>
    {
      case RCC_PLLSOURCE_HSI:  /* HSI used as PLL clock source */
        pllvco = (HSI_VALUE / pllm) * ((RCC->PLLCFGR & RCC_PLLCFGR_PLLN) >> RCC_PLLCFGR_PLLN_Pos);
 c004634:	4a1f      	ldr	r2, [pc, #124]	; (c0046b4 <HAL_RCC_GetSysClockFreq+0x134>)
 c004636:	687b      	ldr	r3, [r7, #4]
 c004638:	fbb2 f3f3 	udiv	r3, r2, r3
 c00463c:	4a1b      	ldr	r2, [pc, #108]	; (c0046ac <HAL_RCC_GetSysClockFreq+0x12c>)
 c00463e:	68d2      	ldr	r2, [r2, #12]
 c004640:	0a12      	lsrs	r2, r2, #8
 c004642:	f002 027f 	and.w	r2, r2, #127	; 0x7f
 c004646:	fb02 f303 	mul.w	r3, r2, r3
 c00464a:	617b      	str	r3, [r7, #20]
        break;
 c00464c:	e019      	b.n	c004682 <HAL_RCC_GetSysClockFreq+0x102>

      case RCC_PLLSOURCE_HSE:  /* HSE used as PLL clock source */
        pllvco = (HSE_VALUE / pllm) * ((RCC->PLLCFGR & RCC_PLLCFGR_PLLN) >> RCC_PLLCFGR_PLLN_Pos);
 c00464e:	4a1a      	ldr	r2, [pc, #104]	; (c0046b8 <HAL_RCC_GetSysClockFreq+0x138>)
 c004650:	687b      	ldr	r3, [r7, #4]
 c004652:	fbb2 f3f3 	udiv	r3, r2, r3
 c004656:	4a15      	ldr	r2, [pc, #84]	; (c0046ac <HAL_RCC_GetSysClockFreq+0x12c>)
 c004658:	68d2      	ldr	r2, [r2, #12]
 c00465a:	0a12      	lsrs	r2, r2, #8
 c00465c:	f002 027f 	and.w	r2, r2, #127	; 0x7f
 c004660:	fb02 f303 	mul.w	r3, r2, r3
 c004664:	617b      	str	r3, [r7, #20]
        break;
 c004666:	e00c      	b.n	c004682 <HAL_RCC_GetSysClockFreq+0x102>

      case RCC_PLLSOURCE_MSI:  /* MSI used as PLL clock source */
      default:
        pllvco = (msirange / pllm) * ((RCC->PLLCFGR & RCC_PLLCFGR_PLLN) >> RCC_PLLCFGR_PLLN_Pos);
 c004668:	69fa      	ldr	r2, [r7, #28]
 c00466a:	687b      	ldr	r3, [r7, #4]
 c00466c:	fbb2 f3f3 	udiv	r3, r2, r3
 c004670:	4a0e      	ldr	r2, [pc, #56]	; (c0046ac <HAL_RCC_GetSysClockFreq+0x12c>)
 c004672:	68d2      	ldr	r2, [r2, #12]
 c004674:	0a12      	lsrs	r2, r2, #8
 c004676:	f002 027f 	and.w	r2, r2, #127	; 0x7f
 c00467a:	fb02 f303 	mul.w	r3, r2, r3
 c00467e:	617b      	str	r3, [r7, #20]
        break;
 c004680:	bf00      	nop
    }
    pllr = (((RCC->PLLCFGR & RCC_PLLCFGR_PLLR) >> RCC_PLLCFGR_PLLR_Pos) + 1U) * 2U;
 c004682:	4b0a      	ldr	r3, [pc, #40]	; (c0046ac <HAL_RCC_GetSysClockFreq+0x12c>)
 c004684:	68db      	ldr	r3, [r3, #12]
 c004686:	0e5b      	lsrs	r3, r3, #25
 c004688:	f003 0303 	and.w	r3, r3, #3
 c00468c:	3301      	adds	r3, #1
 c00468e:	005b      	lsls	r3, r3, #1
 c004690:	603b      	str	r3, [r7, #0]
    sysclockfreq = pllvco / pllr;
 c004692:	697a      	ldr	r2, [r7, #20]
 c004694:	683b      	ldr	r3, [r7, #0]
 c004696:	fbb2 f3f3 	udiv	r3, r2, r3
 c00469a:	61bb      	str	r3, [r7, #24]
  }

  return sysclockfreq;
 c00469c:	69bb      	ldr	r3, [r7, #24]
}
 c00469e:	4618      	mov	r0, r3
 c0046a0:	3724      	adds	r7, #36	; 0x24
 c0046a2:	46bd      	mov	sp, r7
 c0046a4:	f85d 7b04 	ldr.w	r7, [sp], #4
 c0046a8:	4770      	bx	lr
 c0046aa:	bf00      	nop
 c0046ac:	50021000 	.word	0x50021000
 c0046b0:	0c008008 	.word	0x0c008008
 c0046b4:	00f42400 	.word	0x00f42400
 c0046b8:	007a1200 	.word	0x007a1200

0c0046bc <HAL_RCC_GetHCLKFreq>:
  * @note   Each time HCLK changes, this function must be called to update the
  *         right HCLK value. Otherwise, any configuration based on this function will be incorrect.
  * @retval HCLK frequency in Hz
  */
uint32_t HAL_RCC_GetHCLKFreq(void)
{
 c0046bc:	b580      	push	{r7, lr}
 c0046be:	af00      	add	r7, sp, #0
  return (HAL_RCC_GetSysClockFreq() >> AHBPrescTable[(RCC->CFGR & RCC_CFGR_HPRE) >> RCC_CFGR_HPRE_Pos]);
 c0046c0:	f7ff ff5e 	bl	c004580 <HAL_RCC_GetSysClockFreq>
 c0046c4:	4602      	mov	r2, r0
 c0046c6:	4b05      	ldr	r3, [pc, #20]	; (c0046dc <HAL_RCC_GetHCLKFreq+0x20>)
 c0046c8:	689b      	ldr	r3, [r3, #8]
 c0046ca:	091b      	lsrs	r3, r3, #4
 c0046cc:	f003 030f 	and.w	r3, r3, #15
 c0046d0:	4903      	ldr	r1, [pc, #12]	; (c0046e0 <HAL_RCC_GetHCLKFreq+0x24>)
 c0046d2:	5ccb      	ldrb	r3, [r1, r3]
 c0046d4:	fa22 f303 	lsr.w	r3, r2, r3
}
 c0046d8:	4618      	mov	r0, r3
 c0046da:	bd80      	pop	{r7, pc}
 c0046dc:	50021000 	.word	0x50021000
 c0046e0:	0c007ff0 	.word	0x0c007ff0

0c0046e4 <HAL_RCC_GetPCLK1Freq>:
  * @note   Each time PCLK1 changes, this function must be called to update the
  *         right PCLK1 value. Otherwise, any configuration based on this function will be incorrect.
  * @retval PCLK1 frequency in Hz
  */
uint32_t HAL_RCC_GetPCLK1Freq(void)
{
 c0046e4:	b580      	push	{r7, lr}
 c0046e6:	af00      	add	r7, sp, #0
  /* Get HCLK source and Compute PCLK1 frequency ---------------------------*/
  return (HAL_RCC_GetHCLKFreq() >> APBPrescTable[(RCC->CFGR & RCC_CFGR_PPRE1) >> RCC_CFGR_PPRE1_Pos]);
 c0046e8:	f7ff ffe8 	bl	c0046bc <HAL_RCC_GetHCLKFreq>
 c0046ec:	4602      	mov	r2, r0
 c0046ee:	4b05      	ldr	r3, [pc, #20]	; (c004704 <HAL_RCC_GetPCLK1Freq+0x20>)
 c0046f0:	689b      	ldr	r3, [r3, #8]
 c0046f2:	0a1b      	lsrs	r3, r3, #8
 c0046f4:	f003 0307 	and.w	r3, r3, #7
 c0046f8:	4903      	ldr	r1, [pc, #12]	; (c004708 <HAL_RCC_GetPCLK1Freq+0x24>)
 c0046fa:	5ccb      	ldrb	r3, [r1, r3]
 c0046fc:	fa22 f303 	lsr.w	r3, r2, r3
}
 c004700:	4618      	mov	r0, r3
 c004702:	bd80      	pop	{r7, pc}
 c004704:	50021000 	.word	0x50021000
 c004708:	0c008000 	.word	0x0c008000

0c00470c <HAL_RCC_GetPCLK2Freq>:
  * @note   Each time PCLK2 changes, this function must be called to update the
  *         right PCLK2 value. Otherwise, any configuration based on this function will be incorrect.
  * @retval PCLK2 frequency in Hz
  */
uint32_t HAL_RCC_GetPCLK2Freq(void)
{
 c00470c:	b580      	push	{r7, lr}
 c00470e:	af00      	add	r7, sp, #0
  /* Get HCLK source and Compute PCLK2 frequency ---------------------------*/
  return (HAL_RCC_GetHCLKFreq() >> APBPrescTable[(RCC->CFGR & RCC_CFGR_PPRE2) >> RCC_CFGR_PPRE2_Pos]);
 c004710:	f7ff ffd4 	bl	c0046bc <HAL_RCC_GetHCLKFreq>
 c004714:	4602      	mov	r2, r0
 c004716:	4b05      	ldr	r3, [pc, #20]	; (c00472c <HAL_RCC_GetPCLK2Freq+0x20>)
 c004718:	689b      	ldr	r3, [r3, #8]
 c00471a:	0adb      	lsrs	r3, r3, #11
 c00471c:	f003 0307 	and.w	r3, r3, #7
 c004720:	4903      	ldr	r1, [pc, #12]	; (c004730 <HAL_RCC_GetPCLK2Freq+0x24>)
 c004722:	5ccb      	ldrb	r3, [r1, r3]
 c004724:	fa22 f303 	lsr.w	r3, r2, r3
}
 c004728:	4618      	mov	r0, r3
 c00472a:	bd80      	pop	{r7, pc}
 c00472c:	50021000 	.word	0x50021000
 c004730:	0c008000 	.word	0x0c008000

0c004734 <RCC_SetFlashLatencyFromMSIRange>:
            voltage range.
  * @param  msirange  MSI range value from RCC_MSIRANGE_0 to RCC_MSIRANGE_11
  * @retval HAL status
  */
static HAL_StatusTypeDef RCC_SetFlashLatencyFromMSIRange(uint32_t msirange)
{
 c004734:	b580      	push	{r7, lr}
 c004736:	b086      	sub	sp, #24
 c004738:	af00      	add	r7, sp, #0
 c00473a:	6078      	str	r0, [r7, #4]
  uint32_t latency = FLASH_LATENCY_0;  /* default value 0WS */
 c00473c:	2300      	movs	r3, #0
 c00473e:	617b      	str	r3, [r7, #20]
  uint32_t vos;

  if (__HAL_RCC_PWR_IS_CLK_ENABLED())
 c004740:	4b2c      	ldr	r3, [pc, #176]	; (c0047f4 <RCC_SetFlashLatencyFromMSIRange+0xc0>)
 c004742:	6d9b      	ldr	r3, [r3, #88]	; 0x58
 c004744:	f003 5380 	and.w	r3, r3, #268435456	; 0x10000000
 c004748:	2b00      	cmp	r3, #0
 c00474a:	d003      	beq.n	c004754 <RCC_SetFlashLatencyFromMSIRange+0x20>
  {
    vos = HAL_PWREx_GetVoltageRange();
 c00474c:	f7ff f85c 	bl	c003808 <HAL_PWREx_GetVoltageRange>
 c004750:	6138      	str	r0, [r7, #16]
 c004752:	e014      	b.n	c00477e <RCC_SetFlashLatencyFromMSIRange+0x4a>
  }
  else
  {
    __HAL_RCC_PWR_CLK_ENABLE();
 c004754:	4b27      	ldr	r3, [pc, #156]	; (c0047f4 <RCC_SetFlashLatencyFromMSIRange+0xc0>)
 c004756:	6d9b      	ldr	r3, [r3, #88]	; 0x58
 c004758:	4a26      	ldr	r2, [pc, #152]	; (c0047f4 <RCC_SetFlashLatencyFromMSIRange+0xc0>)
 c00475a:	f043 5380 	orr.w	r3, r3, #268435456	; 0x10000000
 c00475e:	6593      	str	r3, [r2, #88]	; 0x58
 c004760:	4b24      	ldr	r3, [pc, #144]	; (c0047f4 <RCC_SetFlashLatencyFromMSIRange+0xc0>)
 c004762:	6d9b      	ldr	r3, [r3, #88]	; 0x58
 c004764:	f003 5380 	and.w	r3, r3, #268435456	; 0x10000000
 c004768:	60fb      	str	r3, [r7, #12]
 c00476a:	68fb      	ldr	r3, [r7, #12]
    vos = HAL_PWREx_GetVoltageRange();
 c00476c:	f7ff f84c 	bl	c003808 <HAL_PWREx_GetVoltageRange>
 c004770:	6138      	str	r0, [r7, #16]
    __HAL_RCC_PWR_CLK_DISABLE();
 c004772:	4b20      	ldr	r3, [pc, #128]	; (c0047f4 <RCC_SetFlashLatencyFromMSIRange+0xc0>)
 c004774:	6d9b      	ldr	r3, [r3, #88]	; 0x58
 c004776:	4a1f      	ldr	r2, [pc, #124]	; (c0047f4 <RCC_SetFlashLatencyFromMSIRange+0xc0>)
 c004778:	f023 5380 	bic.w	r3, r3, #268435456	; 0x10000000
 c00477c:	6593      	str	r3, [r2, #88]	; 0x58
  }

  if ((vos == PWR_REGULATOR_VOLTAGE_SCALE0) || (vos == PWR_REGULATOR_VOLTAGE_SCALE1))
 c00477e:	693b      	ldr	r3, [r7, #16]
 c004780:	2b00      	cmp	r3, #0
 c004782:	d003      	beq.n	c00478c <RCC_SetFlashLatencyFromMSIRange+0x58>
 c004784:	693b      	ldr	r3, [r7, #16]
 c004786:	f5b3 7f00 	cmp.w	r3, #512	; 0x200
 c00478a:	d10b      	bne.n	c0047a4 <RCC_SetFlashLatencyFromMSIRange+0x70>
  {
    if (msirange > RCC_MSIRANGE_8)
 c00478c:	687b      	ldr	r3, [r7, #4]
 c00478e:	2b80      	cmp	r3, #128	; 0x80
 c004790:	d919      	bls.n	c0047c6 <RCC_SetFlashLatencyFromMSIRange+0x92>
    {
      /* MSI > 16Mhz */
      if (msirange > RCC_MSIRANGE_10)
 c004792:	687b      	ldr	r3, [r7, #4]
 c004794:	2ba0      	cmp	r3, #160	; 0xa0
 c004796:	d902      	bls.n	c00479e <RCC_SetFlashLatencyFromMSIRange+0x6a>
      {
        /* MSI 48Mhz */
        latency = FLASH_LATENCY_2; /* 2WS */
 c004798:	2302      	movs	r3, #2
 c00479a:	617b      	str	r3, [r7, #20]
    if (msirange > RCC_MSIRANGE_8)
 c00479c:	e013      	b.n	c0047c6 <RCC_SetFlashLatencyFromMSIRange+0x92>
      }
      else
      {
        /* MSI 24Mhz or 32Mhz */
        latency = FLASH_LATENCY_1; /* 1WS */
 c00479e:	2301      	movs	r3, #1
 c0047a0:	617b      	str	r3, [r7, #20]
    if (msirange > RCC_MSIRANGE_8)
 c0047a2:	e010      	b.n	c0047c6 <RCC_SetFlashLatencyFromMSIRange+0x92>
    }
    /* else MSI <= 16Mhz default FLASH_LATENCY_0 0WS */
  }
  else
  {
    if (msirange > RCC_MSIRANGE_8)
 c0047a4:	687b      	ldr	r3, [r7, #4]
 c0047a6:	2b80      	cmp	r3, #128	; 0x80
 c0047a8:	d902      	bls.n	c0047b0 <RCC_SetFlashLatencyFromMSIRange+0x7c>
    {
      /* MSI > 16Mhz */
      latency = FLASH_LATENCY_3; /* 3WS */
 c0047aa:	2303      	movs	r3, #3
 c0047ac:	617b      	str	r3, [r7, #20]
 c0047ae:	e00a      	b.n	c0047c6 <RCC_SetFlashLatencyFromMSIRange+0x92>
    }
    else
    {
      if (msirange == RCC_MSIRANGE_8)
 c0047b0:	687b      	ldr	r3, [r7, #4]
 c0047b2:	2b80      	cmp	r3, #128	; 0x80
 c0047b4:	d102      	bne.n	c0047bc <RCC_SetFlashLatencyFromMSIRange+0x88>
      {
        /* MSI 16Mhz */
        latency = FLASH_LATENCY_2; /* 2WS */
 c0047b6:	2302      	movs	r3, #2
 c0047b8:	617b      	str	r3, [r7, #20]
 c0047ba:	e004      	b.n	c0047c6 <RCC_SetFlashLatencyFromMSIRange+0x92>
      }
      else if (msirange == RCC_MSIRANGE_7)
 c0047bc:	687b      	ldr	r3, [r7, #4]
 c0047be:	2b70      	cmp	r3, #112	; 0x70
 c0047c0:	d101      	bne.n	c0047c6 <RCC_SetFlashLatencyFromMSIRange+0x92>
      {
        /* MSI 8Mhz */
        latency = FLASH_LATENCY_1; /* 1WS */
 c0047c2:	2301      	movs	r3, #1
 c0047c4:	617b      	str	r3, [r7, #20]
        /* MSI < 8Mhz default FLASH_LATENCY_0 0WS */
      }
    }
  }

  __HAL_FLASH_SET_LATENCY(latency);
 c0047c6:	4b0c      	ldr	r3, [pc, #48]	; (c0047f8 <RCC_SetFlashLatencyFromMSIRange+0xc4>)
 c0047c8:	681b      	ldr	r3, [r3, #0]
 c0047ca:	f023 020f 	bic.w	r2, r3, #15
 c0047ce:	490a      	ldr	r1, [pc, #40]	; (c0047f8 <RCC_SetFlashLatencyFromMSIRange+0xc4>)
 c0047d0:	697b      	ldr	r3, [r7, #20]
 c0047d2:	4313      	orrs	r3, r2
 c0047d4:	600b      	str	r3, [r1, #0]

  /* Check that the new number of wait states is taken into account to access the Flash
     memory by reading the FLASH_ACR register */
  if ((FLASH->ACR & FLASH_ACR_LATENCY) != latency)
 c0047d6:	4b08      	ldr	r3, [pc, #32]	; (c0047f8 <RCC_SetFlashLatencyFromMSIRange+0xc4>)
 c0047d8:	681b      	ldr	r3, [r3, #0]
 c0047da:	f003 030f 	and.w	r3, r3, #15
 c0047de:	697a      	ldr	r2, [r7, #20]
 c0047e0:	429a      	cmp	r2, r3
 c0047e2:	d001      	beq.n	c0047e8 <RCC_SetFlashLatencyFromMSIRange+0xb4>
  {
    return HAL_ERROR;
 c0047e4:	2301      	movs	r3, #1
 c0047e6:	e000      	b.n	c0047ea <RCC_SetFlashLatencyFromMSIRange+0xb6>
  }

  return HAL_OK;
 c0047e8:	2300      	movs	r3, #0
}
 c0047ea:	4618      	mov	r0, r3
 c0047ec:	3718      	adds	r7, #24
 c0047ee:	46bd      	mov	sp, r7
 c0047f0:	bd80      	pop	{r7, pc}
 c0047f2:	bf00      	nop
 c0047f4:	50021000 	.word	0x50021000
 c0047f8:	50022000 	.word	0x50022000

0c0047fc <RCC_GetSysClockFreqFromPLLSource>:
/**
  * @brief  Compute SYSCLK frequency based on PLL SYSCLK source.
  * @retval SYSCLK frequency
  */
static uint32_t RCC_GetSysClockFreqFromPLLSource(void)
{
 c0047fc:	b480      	push	{r7}
 c0047fe:	b087      	sub	sp, #28
 c004800:	af00      	add	r7, sp, #0
  uint32_t msirange, pllvco, pllsource, pllr, pllm, sysclockfreq;    /* no init needed */

  /* PLL_VCO = (HSE_VALUE or HSI_VALUE or MSI_VALUE/ PLLM) * PLLN
     SYSCLK = PLL_VCO / PLLR
   */
  pllsource = READ_BIT(RCC->PLLCFGR, RCC_PLLCFGR_PLLSRC);
 c004802:	4b31      	ldr	r3, [pc, #196]	; (c0048c8 <RCC_GetSysClockFreqFromPLLSource+0xcc>)
 c004804:	68db      	ldr	r3, [r3, #12]
 c004806:	f003 0303 	and.w	r3, r3, #3
 c00480a:	60fb      	str	r3, [r7, #12]
  pllm = (READ_BIT(RCC->PLLCFGR, RCC_PLLCFGR_PLLM) >> RCC_PLLCFGR_PLLM_Pos) + 1U ;
 c00480c:	4b2e      	ldr	r3, [pc, #184]	; (c0048c8 <RCC_GetSysClockFreqFromPLLSource+0xcc>)
 c00480e:	68db      	ldr	r3, [r3, #12]
 c004810:	091b      	lsrs	r3, r3, #4
 c004812:	f003 030f 	and.w	r3, r3, #15
 c004816:	3301      	adds	r3, #1
 c004818:	60bb      	str	r3, [r7, #8]

  switch (pllsource)
 c00481a:	68fb      	ldr	r3, [r7, #12]
 c00481c:	2b03      	cmp	r3, #3
 c00481e:	d015      	beq.n	c00484c <RCC_GetSysClockFreqFromPLLSource+0x50>
 c004820:	68fb      	ldr	r3, [r7, #12]
 c004822:	2b03      	cmp	r3, #3
 c004824:	d839      	bhi.n	c00489a <RCC_GetSysClockFreqFromPLLSource+0x9e>
 c004826:	68fb      	ldr	r3, [r7, #12]
 c004828:	2b01      	cmp	r3, #1
 c00482a:	d01c      	beq.n	c004866 <RCC_GetSysClockFreqFromPLLSource+0x6a>
 c00482c:	68fb      	ldr	r3, [r7, #12]
 c00482e:	2b02      	cmp	r3, #2
 c004830:	d133      	bne.n	c00489a <RCC_GetSysClockFreqFromPLLSource+0x9e>
  {
    case RCC_PLLSOURCE_HSI:  /* HSI used as PLL clock source */
      pllvco = (HSI_VALUE / pllm) * (READ_BIT(RCC->PLLCFGR, RCC_PLLCFGR_PLLN) >> RCC_PLLCFGR_PLLN_Pos);
 c004832:	4a26      	ldr	r2, [pc, #152]	; (c0048cc <RCC_GetSysClockFreqFromPLLSource+0xd0>)
 c004834:	68bb      	ldr	r3, [r7, #8]
 c004836:	fbb2 f3f3 	udiv	r3, r2, r3
 c00483a:	4a23      	ldr	r2, [pc, #140]	; (c0048c8 <RCC_GetSysClockFreqFromPLLSource+0xcc>)
 c00483c:	68d2      	ldr	r2, [r2, #12]
 c00483e:	0a12      	lsrs	r2, r2, #8
 c004840:	f002 027f 	and.w	r2, r2, #127	; 0x7f
 c004844:	fb02 f303 	mul.w	r3, r2, r3
 c004848:	613b      	str	r3, [r7, #16]
      break;
 c00484a:	e029      	b.n	c0048a0 <RCC_GetSysClockFreqFromPLLSource+0xa4>

    case RCC_PLLSOURCE_HSE:  /* HSE used as PLL clock source */
      pllvco = (HSE_VALUE / pllm) * (READ_BIT(RCC->PLLCFGR, RCC_PLLCFGR_PLLN) >> RCC_PLLCFGR_PLLN_Pos);
 c00484c:	4a20      	ldr	r2, [pc, #128]	; (c0048d0 <RCC_GetSysClockFreqFromPLLSource+0xd4>)
 c00484e:	68bb      	ldr	r3, [r7, #8]
 c004850:	fbb2 f3f3 	udiv	r3, r2, r3
 c004854:	4a1c      	ldr	r2, [pc, #112]	; (c0048c8 <RCC_GetSysClockFreqFromPLLSource+0xcc>)
 c004856:	68d2      	ldr	r2, [r2, #12]
 c004858:	0a12      	lsrs	r2, r2, #8
 c00485a:	f002 027f 	and.w	r2, r2, #127	; 0x7f
 c00485e:	fb02 f303 	mul.w	r3, r2, r3
 c004862:	613b      	str	r3, [r7, #16]
      break;
 c004864:	e01c      	b.n	c0048a0 <RCC_GetSysClockFreqFromPLLSource+0xa4>

    case RCC_PLLSOURCE_MSI:  /* MSI used as PLL clock source */
      /* Get MSI range source */
      if(READ_BIT(RCC->CR, RCC_CR_MSIRGSEL) == 0U)
 c004866:	4b18      	ldr	r3, [pc, #96]	; (c0048c8 <RCC_GetSysClockFreqFromPLLSource+0xcc>)
 c004868:	681b      	ldr	r3, [r3, #0]
 c00486a:	f003 0308 	and.w	r3, r3, #8
 c00486e:	2b00      	cmp	r3, #0
 c004870:	d107      	bne.n	c004882 <RCC_GetSysClockFreqFromPLLSource+0x86>
      { /* MSISRANGE from RCC_CSR applies */
        msirange = READ_BIT(RCC->CSR, RCC_CSR_MSISRANGE) >> RCC_CSR_MSISRANGE_Pos;
 c004872:	4b15      	ldr	r3, [pc, #84]	; (c0048c8 <RCC_GetSysClockFreqFromPLLSource+0xcc>)
 c004874:	f8d3 3094 	ldr.w	r3, [r3, #148]	; 0x94
 c004878:	0a1b      	lsrs	r3, r3, #8
 c00487a:	f003 030f 	and.w	r3, r3, #15
 c00487e:	617b      	str	r3, [r7, #20]
 c004880:	e005      	b.n	c00488e <RCC_GetSysClockFreqFromPLLSource+0x92>
      }
      else
      { /* MSIRANGE from RCC_CR applies */
        msirange = READ_BIT(RCC->CR, RCC_CR_MSIRANGE) >> RCC_CR_MSIRANGE_Pos;
 c004882:	4b11      	ldr	r3, [pc, #68]	; (c0048c8 <RCC_GetSysClockFreqFromPLLSource+0xcc>)
 c004884:	681b      	ldr	r3, [r3, #0]
 c004886:	091b      	lsrs	r3, r3, #4
 c004888:	f003 030f 	and.w	r3, r3, #15
 c00488c:	617b      	str	r3, [r7, #20]
      }
        /*MSI frequency range in HZ*/
        pllvco = MSIRangeTable[msirange];
 c00488e:	4a11      	ldr	r2, [pc, #68]	; (c0048d4 <RCC_GetSysClockFreqFromPLLSource+0xd8>)
 c004890:	697b      	ldr	r3, [r7, #20]
 c004892:	f852 3023 	ldr.w	r3, [r2, r3, lsl #2]
 c004896:	613b      	str	r3, [r7, #16]
        break;
 c004898:	e002      	b.n	c0048a0 <RCC_GetSysClockFreqFromPLLSource+0xa4>
    default:
      /* unexpected */
      pllvco = 0;
 c00489a:	2300      	movs	r3, #0
 c00489c:	613b      	str	r3, [r7, #16]
      break;
 c00489e:	bf00      	nop
  }

  pllr = ((READ_BIT(RCC->PLLCFGR, RCC_PLLCFGR_PLLR) >> RCC_PLLCFGR_PLLR_Pos) + 1U) * 2U;
 c0048a0:	4b09      	ldr	r3, [pc, #36]	; (c0048c8 <RCC_GetSysClockFreqFromPLLSource+0xcc>)
 c0048a2:	68db      	ldr	r3, [r3, #12]
 c0048a4:	0e5b      	lsrs	r3, r3, #25
 c0048a6:	f003 0303 	and.w	r3, r3, #3
 c0048aa:	3301      	adds	r3, #1
 c0048ac:	005b      	lsls	r3, r3, #1
 c0048ae:	607b      	str	r3, [r7, #4]
  sysclockfreq = pllvco / pllr;
 c0048b0:	693a      	ldr	r2, [r7, #16]
 c0048b2:	687b      	ldr	r3, [r7, #4]
 c0048b4:	fbb2 f3f3 	udiv	r3, r2, r3
 c0048b8:	603b      	str	r3, [r7, #0]

  return sysclockfreq;
 c0048ba:	683b      	ldr	r3, [r7, #0]
}
 c0048bc:	4618      	mov	r0, r3
 c0048be:	371c      	adds	r7, #28
 c0048c0:	46bd      	mov	sp, r7
 c0048c2:	f85d 7b04 	ldr.w	r7, [sp], #4
 c0048c6:	4770      	bx	lr
 c0048c8:	50021000 	.word	0x50021000
 c0048cc:	00f42400 	.word	0x00f42400
 c0048d0:	007a1200 	.word	0x007a1200
 c0048d4:	0c008008 	.word	0x0c008008

0c0048d8 <HAL_RCCEx_PeriphCLKConfig>:
  *         the RTC clock source: in this case the access to Backup domain is enabled.
  *
  * @retval HAL status
  */
HAL_StatusTypeDef HAL_RCCEx_PeriphCLKConfig(RCC_PeriphCLKInitTypeDef  *PeriphClkInit)
{
 c0048d8:	b580      	push	{r7, lr}
 c0048da:	b088      	sub	sp, #32
 c0048dc:	af00      	add	r7, sp, #0
 c0048de:	6078      	str	r0, [r7, #4]
  HAL_StatusTypeDef ret = HAL_OK;      /* Intermediate status */
 c0048e0:	2300      	movs	r3, #0
 c0048e2:	77fb      	strb	r3, [r7, #31]
  HAL_StatusTypeDef status = HAL_OK;   /* Final status */
 c0048e4:	2300      	movs	r3, #0
 c0048e6:	77bb      	strb	r3, [r7, #30]

  /* Check the parameters */
  assert_param(IS_RCC_PERIPHCLOCK(PeriphClkInit->PeriphClockSelection));

  /*-------------------------- SAI1 clock source configuration ---------------------*/
  if ((((PeriphClkInit->PeriphClockSelection) & RCC_PERIPHCLK_SAI1) == RCC_PERIPHCLK_SAI1))
 c0048e8:	687b      	ldr	r3, [r7, #4]
 c0048ea:	681b      	ldr	r3, [r3, #0]
 c0048ec:	f403 6300 	and.w	r3, r3, #2048	; 0x800
 c0048f0:	2b00      	cmp	r3, #0
 c0048f2:	d040      	beq.n	c004976 <HAL_RCCEx_PeriphCLKConfig+0x9e>
  {
    /* Check the parameters */
    assert_param(IS_RCC_SAI1CLK(PeriphClkInit->Sai1ClockSelection));

    switch (PeriphClkInit->Sai1ClockSelection)
 c0048f4:	687b      	ldr	r3, [r7, #4]
 c0048f6:	6edb      	ldr	r3, [r3, #108]	; 0x6c
 c0048f8:	2b80      	cmp	r3, #128	; 0x80
 c0048fa:	d02a      	beq.n	c004952 <HAL_RCCEx_PeriphCLKConfig+0x7a>
 c0048fc:	2b80      	cmp	r3, #128	; 0x80
 c0048fe:	d825      	bhi.n	c00494c <HAL_RCCEx_PeriphCLKConfig+0x74>
 c004900:	2b60      	cmp	r3, #96	; 0x60
 c004902:	d026      	beq.n	c004952 <HAL_RCCEx_PeriphCLKConfig+0x7a>
 c004904:	2b60      	cmp	r3, #96	; 0x60
 c004906:	d821      	bhi.n	c00494c <HAL_RCCEx_PeriphCLKConfig+0x74>
 c004908:	2b40      	cmp	r3, #64	; 0x40
 c00490a:	d006      	beq.n	c00491a <HAL_RCCEx_PeriphCLKConfig+0x42>
 c00490c:	2b40      	cmp	r3, #64	; 0x40
 c00490e:	d81d      	bhi.n	c00494c <HAL_RCCEx_PeriphCLKConfig+0x74>
 c004910:	2b00      	cmp	r3, #0
 c004912:	d009      	beq.n	c004928 <HAL_RCCEx_PeriphCLKConfig+0x50>
 c004914:	2b20      	cmp	r3, #32
 c004916:	d010      	beq.n	c00493a <HAL_RCCEx_PeriphCLKConfig+0x62>
 c004918:	e018      	b.n	c00494c <HAL_RCCEx_PeriphCLKConfig+0x74>
    {
      case RCC_SAI1CLKSOURCE_PLL:      /* PLL is used as clock source for SAI1*/
        /* Enable SAI Clock output generated from System PLL . */
        __HAL_RCC_PLLCLKOUT_ENABLE(RCC_PLL_SAI3CLK);
 c00491a:	4b8f      	ldr	r3, [pc, #572]	; (c004b58 <HAL_RCCEx_PeriphCLKConfig+0x280>)
 c00491c:	68db      	ldr	r3, [r3, #12]
 c00491e:	4a8e      	ldr	r2, [pc, #568]	; (c004b58 <HAL_RCCEx_PeriphCLKConfig+0x280>)
 c004920:	f443 3380 	orr.w	r3, r3, #65536	; 0x10000
 c004924:	60d3      	str	r3, [r2, #12]
        /* SAI1 clock source config set later after clock selection check */
        break;
 c004926:	e015      	b.n	c004954 <HAL_RCCEx_PeriphCLKConfig+0x7c>

      case RCC_SAI1CLKSOURCE_PLLSAI1:  /* PLLSAI1 is used as clock source for SAI1*/
        /* PLLSAI1 input clock, parameters M, N & P configuration and clock output (PLLSAI1ClockOut) */
        ret = RCCEx_PLLSAI1_Config(&(PeriphClkInit->PLLSAI1), DIVIDER_P_UPDATE);
 c004928:	687b      	ldr	r3, [r7, #4]
 c00492a:	3304      	adds	r3, #4
 c00492c:	2100      	movs	r1, #0
 c00492e:	4618      	mov	r0, r3
 c004930:	f000 fb56 	bl	c004fe0 <RCCEx_PLLSAI1_Config>
 c004934:	4603      	mov	r3, r0
 c004936:	77fb      	strb	r3, [r7, #31]
        /* SAI1 clock source config set later after clock selection check */
        break;
 c004938:	e00c      	b.n	c004954 <HAL_RCCEx_PeriphCLKConfig+0x7c>

      case RCC_SAI1CLKSOURCE_PLLSAI2:  /* PLLSAI2 is used as clock source for SAI1*/
        /* PLLSAI2 input clock, parameters M, N & P configuration clock output (PLLSAI2ClockOut) */
        ret = RCCEx_PLLSAI2_Config(&(PeriphClkInit->PLLSAI2), DIVIDER_P_UPDATE);
 c00493a:	687b      	ldr	r3, [r7, #4]
 c00493c:	3320      	adds	r3, #32
 c00493e:	2100      	movs	r1, #0
 c004940:	4618      	mov	r0, r3
 c004942:	f000 fc33 	bl	c0051ac <RCCEx_PLLSAI2_Config>
 c004946:	4603      	mov	r3, r0
 c004948:	77fb      	strb	r3, [r7, #31]
        /* SAI1 clock source config set later after clock selection check */
        break;
 c00494a:	e003      	b.n	c004954 <HAL_RCCEx_PeriphCLKConfig+0x7c>
      case RCC_SAI1CLKSOURCE_HSI:      /* HSI is used as source of SAI1 clock*/
        /* SAI1 clock source config set later after clock selection check */
        break;

      default:
        ret = HAL_ERROR;
 c00494c:	2301      	movs	r3, #1
 c00494e:	77fb      	strb	r3, [r7, #31]
        break;
 c004950:	e000      	b.n	c004954 <HAL_RCCEx_PeriphCLKConfig+0x7c>
        break;
 c004952:	bf00      	nop
    }

    if (ret == HAL_OK)
 c004954:	7ffb      	ldrb	r3, [r7, #31]
 c004956:	2b00      	cmp	r3, #0
 c004958:	d10b      	bne.n	c004972 <HAL_RCCEx_PeriphCLKConfig+0x9a>
    {
      /* Set the source of SAI1 clock*/
      __HAL_RCC_SAI1_CONFIG(PeriphClkInit->Sai1ClockSelection);
 c00495a:	4b7f      	ldr	r3, [pc, #508]	; (c004b58 <HAL_RCCEx_PeriphCLKConfig+0x280>)
 c00495c:	f8d3 309c 	ldr.w	r3, [r3, #156]	; 0x9c
 c004960:	f023 02e0 	bic.w	r2, r3, #224	; 0xe0
 c004964:	687b      	ldr	r3, [r7, #4]
 c004966:	6edb      	ldr	r3, [r3, #108]	; 0x6c
 c004968:	497b      	ldr	r1, [pc, #492]	; (c004b58 <HAL_RCCEx_PeriphCLKConfig+0x280>)
 c00496a:	4313      	orrs	r3, r2
 c00496c:	f8c1 309c 	str.w	r3, [r1, #156]	; 0x9c
 c004970:	e001      	b.n	c004976 <HAL_RCCEx_PeriphCLKConfig+0x9e>
    }
    else
    {
      /* set overall return value */
      status = ret;
 c004972:	7ffb      	ldrb	r3, [r7, #31]
 c004974:	77bb      	strb	r3, [r7, #30]
    }
  }

  /*-------------------------- SAI2 clock source configuration ---------------------*/
  if ((((PeriphClkInit->PeriphClockSelection) & RCC_PERIPHCLK_SAI2) == RCC_PERIPHCLK_SAI2))
 c004976:	687b      	ldr	r3, [r7, #4]
 c004978:	681b      	ldr	r3, [r3, #0]
 c00497a:	f403 5380 	and.w	r3, r3, #4096	; 0x1000
 c00497e:	2b00      	cmp	r3, #0
 c004980:	d047      	beq.n	c004a12 <HAL_RCCEx_PeriphCLKConfig+0x13a>
  {
    /* Check the parameters */
    assert_param(IS_RCC_SAI2CLK(PeriphClkInit->Sai2ClockSelection));

    switch (PeriphClkInit->Sai2ClockSelection)
 c004982:	687b      	ldr	r3, [r7, #4]
 c004984:	6f1b      	ldr	r3, [r3, #112]	; 0x70
 c004986:	f5b3 6f80 	cmp.w	r3, #1024	; 0x400
 c00498a:	d030      	beq.n	c0049ee <HAL_RCCEx_PeriphCLKConfig+0x116>
 c00498c:	f5b3 6f80 	cmp.w	r3, #1024	; 0x400
 c004990:	d82a      	bhi.n	c0049e8 <HAL_RCCEx_PeriphCLKConfig+0x110>
 c004992:	f5b3 7f40 	cmp.w	r3, #768	; 0x300
 c004996:	d02a      	beq.n	c0049ee <HAL_RCCEx_PeriphCLKConfig+0x116>
 c004998:	f5b3 7f40 	cmp.w	r3, #768	; 0x300
 c00499c:	d824      	bhi.n	c0049e8 <HAL_RCCEx_PeriphCLKConfig+0x110>
 c00499e:	f5b3 7f00 	cmp.w	r3, #512	; 0x200
 c0049a2:	d008      	beq.n	c0049b6 <HAL_RCCEx_PeriphCLKConfig+0xde>
 c0049a4:	f5b3 7f00 	cmp.w	r3, #512	; 0x200
 c0049a8:	d81e      	bhi.n	c0049e8 <HAL_RCCEx_PeriphCLKConfig+0x110>
 c0049aa:	2b00      	cmp	r3, #0
 c0049ac:	d00a      	beq.n	c0049c4 <HAL_RCCEx_PeriphCLKConfig+0xec>
 c0049ae:	f5b3 7f80 	cmp.w	r3, #256	; 0x100
 c0049b2:	d010      	beq.n	c0049d6 <HAL_RCCEx_PeriphCLKConfig+0xfe>
 c0049b4:	e018      	b.n	c0049e8 <HAL_RCCEx_PeriphCLKConfig+0x110>
    {
      case RCC_SAI2CLKSOURCE_PLL:      /* PLL is used as clock source for SAI2*/
        /* Enable SAI Clock output generated from System PLL . */
        __HAL_RCC_PLLCLKOUT_ENABLE(RCC_PLL_SAI3CLK);
 c0049b6:	4b68      	ldr	r3, [pc, #416]	; (c004b58 <HAL_RCCEx_PeriphCLKConfig+0x280>)
 c0049b8:	68db      	ldr	r3, [r3, #12]
 c0049ba:	4a67      	ldr	r2, [pc, #412]	; (c004b58 <HAL_RCCEx_PeriphCLKConfig+0x280>)
 c0049bc:	f443 3380 	orr.w	r3, r3, #65536	; 0x10000
 c0049c0:	60d3      	str	r3, [r2, #12]
        /* SAI2 clock source config set later after clock selection check */
        break;
 c0049c2:	e015      	b.n	c0049f0 <HAL_RCCEx_PeriphCLKConfig+0x118>

      case RCC_SAI2CLKSOURCE_PLLSAI1: /* PLLSAI1 is used as clock source for SAI2*/
        /* PLLSAI1 input clock, parameters M, N & P configuration and clock output (PLLSAI1ClockOut) */
        ret = RCCEx_PLLSAI1_Config(&(PeriphClkInit->PLLSAI1), DIVIDER_P_UPDATE);
 c0049c4:	687b      	ldr	r3, [r7, #4]
 c0049c6:	3304      	adds	r3, #4
 c0049c8:	2100      	movs	r1, #0
 c0049ca:	4618      	mov	r0, r3
 c0049cc:	f000 fb08 	bl	c004fe0 <RCCEx_PLLSAI1_Config>
 c0049d0:	4603      	mov	r3, r0
 c0049d2:	77fb      	strb	r3, [r7, #31]
        /* SAI2 clock source config set later after clock selection check */
        break;
 c0049d4:	e00c      	b.n	c0049f0 <HAL_RCCEx_PeriphCLKConfig+0x118>

      case RCC_SAI2CLKSOURCE_PLLSAI2:  /* PLLSAI2 is used as clock source for SAI2*/
        /* PLLSAI2 input clock, parameters M, N & P configuration and clock output (PLLSAI2ClockOut) */
        ret = RCCEx_PLLSAI2_Config(&(PeriphClkInit->PLLSAI2), DIVIDER_P_UPDATE);
 c0049d6:	687b      	ldr	r3, [r7, #4]
 c0049d8:	3320      	adds	r3, #32
 c0049da:	2100      	movs	r1, #0
 c0049dc:	4618      	mov	r0, r3
 c0049de:	f000 fbe5 	bl	c0051ac <RCCEx_PLLSAI2_Config>
 c0049e2:	4603      	mov	r3, r0
 c0049e4:	77fb      	strb	r3, [r7, #31]
        /* SAI2 clock source config set later after clock selection check */
        break;
 c0049e6:	e003      	b.n	c0049f0 <HAL_RCCEx_PeriphCLKConfig+0x118>
      case RCC_SAI2CLKSOURCE_HSI:      /* HSI is used as source of SAI2 clock*/
        /* SAI2 clock source config set later after clock selection check */
        break;

      default:
        ret = HAL_ERROR;
 c0049e8:	2301      	movs	r3, #1
 c0049ea:	77fb      	strb	r3, [r7, #31]
        break;
 c0049ec:	e000      	b.n	c0049f0 <HAL_RCCEx_PeriphCLKConfig+0x118>
        break;
 c0049ee:	bf00      	nop
    }

    if (ret == HAL_OK)
 c0049f0:	7ffb      	ldrb	r3, [r7, #31]
 c0049f2:	2b00      	cmp	r3, #0
 c0049f4:	d10b      	bne.n	c004a0e <HAL_RCCEx_PeriphCLKConfig+0x136>
    {
      /* Set the source of SAI2 clock*/
      __HAL_RCC_SAI2_CONFIG(PeriphClkInit->Sai2ClockSelection);
 c0049f6:	4b58      	ldr	r3, [pc, #352]	; (c004b58 <HAL_RCCEx_PeriphCLKConfig+0x280>)
 c0049f8:	f8d3 309c 	ldr.w	r3, [r3, #156]	; 0x9c
 c0049fc:	f423 62e0 	bic.w	r2, r3, #1792	; 0x700
 c004a00:	687b      	ldr	r3, [r7, #4]
 c004a02:	6f1b      	ldr	r3, [r3, #112]	; 0x70
 c004a04:	4954      	ldr	r1, [pc, #336]	; (c004b58 <HAL_RCCEx_PeriphCLKConfig+0x280>)
 c004a06:	4313      	orrs	r3, r2
 c004a08:	f8c1 309c 	str.w	r3, [r1, #156]	; 0x9c
 c004a0c:	e001      	b.n	c004a12 <HAL_RCCEx_PeriphCLKConfig+0x13a>
    }
    else
    {
      /* set overall return value */
      status = ret;
 c004a0e:	7ffb      	ldrb	r3, [r7, #31]
 c004a10:	77bb      	strb	r3, [r7, #30]
    }
  }

  /*-------------------------- RTC clock source configuration ----------------------*/
  if ((PeriphClkInit->PeriphClockSelection & RCC_PERIPHCLK_RTC) == RCC_PERIPHCLK_RTC)
 c004a12:	687b      	ldr	r3, [r7, #4]
 c004a14:	681b      	ldr	r3, [r3, #0]
 c004a16:	f403 3300 	and.w	r3, r3, #131072	; 0x20000
 c004a1a:	2b00      	cmp	r3, #0
 c004a1c:	f000 80ab 	beq.w	c004b76 <HAL_RCCEx_PeriphCLKConfig+0x29e>
  {
    FlagStatus       pwrclkchanged = RESET;
 c004a20:	2300      	movs	r3, #0
 c004a22:	75fb      	strb	r3, [r7, #23]

    /* Check for RTC Parameters used to output RTCCLK */
    assert_param(IS_RCC_RTCCLKSOURCE(PeriphClkInit->RTCClockSelection));

    /* Enable Power Clock */
    if (__HAL_RCC_PWR_IS_CLK_DISABLED())
 c004a24:	4b4c      	ldr	r3, [pc, #304]	; (c004b58 <HAL_RCCEx_PeriphCLKConfig+0x280>)
 c004a26:	6d9b      	ldr	r3, [r3, #88]	; 0x58
 c004a28:	f003 5380 	and.w	r3, r3, #268435456	; 0x10000000
 c004a2c:	2b00      	cmp	r3, #0
 c004a2e:	d10d      	bne.n	c004a4c <HAL_RCCEx_PeriphCLKConfig+0x174>
    {
      __HAL_RCC_PWR_CLK_ENABLE();
 c004a30:	4b49      	ldr	r3, [pc, #292]	; (c004b58 <HAL_RCCEx_PeriphCLKConfig+0x280>)
 c004a32:	6d9b      	ldr	r3, [r3, #88]	; 0x58
 c004a34:	4a48      	ldr	r2, [pc, #288]	; (c004b58 <HAL_RCCEx_PeriphCLKConfig+0x280>)
 c004a36:	f043 5380 	orr.w	r3, r3, #268435456	; 0x10000000
 c004a3a:	6593      	str	r3, [r2, #88]	; 0x58
 c004a3c:	4b46      	ldr	r3, [pc, #280]	; (c004b58 <HAL_RCCEx_PeriphCLKConfig+0x280>)
 c004a3e:	6d9b      	ldr	r3, [r3, #88]	; 0x58
 c004a40:	f003 5380 	and.w	r3, r3, #268435456	; 0x10000000
 c004a44:	60fb      	str	r3, [r7, #12]
 c004a46:	68fb      	ldr	r3, [r7, #12]
      pwrclkchanged = SET;
 c004a48:	2301      	movs	r3, #1
 c004a4a:	75fb      	strb	r3, [r7, #23]
    }

    /* Enable write access to Backup domain */
    SET_BIT(PWR->CR1, PWR_CR1_DBP);
 c004a4c:	4b43      	ldr	r3, [pc, #268]	; (c004b5c <HAL_RCCEx_PeriphCLKConfig+0x284>)
 c004a4e:	681b      	ldr	r3, [r3, #0]
 c004a50:	4a42      	ldr	r2, [pc, #264]	; (c004b5c <HAL_RCCEx_PeriphCLKConfig+0x284>)
 c004a52:	f443 7380 	orr.w	r3, r3, #256	; 0x100
 c004a56:	6013      	str	r3, [r2, #0]

    /* Wait for Backup domain Write protection disable */
    tickstart = HAL_GetTick();
 c004a58:	f7fd fb32 	bl	c0020c0 <HAL_GetTick>
 c004a5c:	6138      	str	r0, [r7, #16]

    while ((PWR->CR1 & PWR_CR1_DBP) == 0U)
 c004a5e:	e00f      	b.n	c004a80 <HAL_RCCEx_PeriphCLKConfig+0x1a8>
    {
      if ((HAL_GetTick() - tickstart) > RCC_DBP_TIMEOUT_VALUE)
 c004a60:	f7fd fb2e 	bl	c0020c0 <HAL_GetTick>
 c004a64:	4602      	mov	r2, r0
 c004a66:	693b      	ldr	r3, [r7, #16]
 c004a68:	1ad3      	subs	r3, r2, r3
 c004a6a:	2b02      	cmp	r3, #2
 c004a6c:	d908      	bls.n	c004a80 <HAL_RCCEx_PeriphCLKConfig+0x1a8>
      {
        /* New check to avoid false timeout detection in case of preemption */
        if ((PWR->CR1 & PWR_CR1_DBP) == 0U)
 c004a6e:	4b3b      	ldr	r3, [pc, #236]	; (c004b5c <HAL_RCCEx_PeriphCLKConfig+0x284>)
 c004a70:	681b      	ldr	r3, [r3, #0]
 c004a72:	f403 7380 	and.w	r3, r3, #256	; 0x100
 c004a76:	2b00      	cmp	r3, #0
 c004a78:	d109      	bne.n	c004a8e <HAL_RCCEx_PeriphCLKConfig+0x1b6>
        {
          ret = HAL_TIMEOUT;
 c004a7a:	2303      	movs	r3, #3
 c004a7c:	77fb      	strb	r3, [r7, #31]
        }
        break;
 c004a7e:	e006      	b.n	c004a8e <HAL_RCCEx_PeriphCLKConfig+0x1b6>
    while ((PWR->CR1 & PWR_CR1_DBP) == 0U)
 c004a80:	4b36      	ldr	r3, [pc, #216]	; (c004b5c <HAL_RCCEx_PeriphCLKConfig+0x284>)
 c004a82:	681b      	ldr	r3, [r3, #0]
 c004a84:	f403 7380 	and.w	r3, r3, #256	; 0x100
 c004a88:	2b00      	cmp	r3, #0
 c004a8a:	d0e9      	beq.n	c004a60 <HAL_RCCEx_PeriphCLKConfig+0x188>
 c004a8c:	e000      	b.n	c004a90 <HAL_RCCEx_PeriphCLKConfig+0x1b8>
        break;
 c004a8e:	bf00      	nop
      }
    }

    if (ret == HAL_OK)
 c004a90:	7ffb      	ldrb	r3, [r7, #31]
 c004a92:	2b00      	cmp	r3, #0
 c004a94:	d164      	bne.n	c004b60 <HAL_RCCEx_PeriphCLKConfig+0x288>
    {
      /* Reset the Backup domain only if the RTC Clock source selection is modified from default */
      tmpregister = READ_BIT(RCC->BDCR, RCC_BDCR_RTCSEL);
 c004a96:	4b30      	ldr	r3, [pc, #192]	; (c004b58 <HAL_RCCEx_PeriphCLKConfig+0x280>)
 c004a98:	f8d3 3090 	ldr.w	r3, [r3, #144]	; 0x90
 c004a9c:	f403 7340 	and.w	r3, r3, #768	; 0x300
 c004aa0:	61bb      	str	r3, [r7, #24]

      if ((tmpregister != RCC_RTCCLKSOURCE_NONE) && (tmpregister != PeriphClkInit->RTCClockSelection))
 c004aa2:	69bb      	ldr	r3, [r7, #24]
 c004aa4:	2b00      	cmp	r3, #0
 c004aa6:	d01f      	beq.n	c004ae8 <HAL_RCCEx_PeriphCLKConfig+0x210>
 c004aa8:	687b      	ldr	r3, [r7, #4]
 c004aaa:	f8d3 3090 	ldr.w	r3, [r3, #144]	; 0x90
 c004aae:	69ba      	ldr	r2, [r7, #24]
 c004ab0:	429a      	cmp	r2, r3
 c004ab2:	d019      	beq.n	c004ae8 <HAL_RCCEx_PeriphCLKConfig+0x210>
      {
        /* Store the content of BDCR register before the reset of Backup Domain */
        tmpregister = READ_BIT(RCC->BDCR, ~(RCC_BDCR_RTCSEL));
 c004ab4:	4b28      	ldr	r3, [pc, #160]	; (c004b58 <HAL_RCCEx_PeriphCLKConfig+0x280>)
 c004ab6:	f8d3 3090 	ldr.w	r3, [r3, #144]	; 0x90
 c004aba:	f423 7340 	bic.w	r3, r3, #768	; 0x300
 c004abe:	61bb      	str	r3, [r7, #24]
        /* RTC Clock selection can be changed only if the Backup Domain is reset */
        __HAL_RCC_BACKUPRESET_FORCE();
 c004ac0:	4b25      	ldr	r3, [pc, #148]	; (c004b58 <HAL_RCCEx_PeriphCLKConfig+0x280>)
 c004ac2:	f8d3 3090 	ldr.w	r3, [r3, #144]	; 0x90
 c004ac6:	4a24      	ldr	r2, [pc, #144]	; (c004b58 <HAL_RCCEx_PeriphCLKConfig+0x280>)
 c004ac8:	f443 3380 	orr.w	r3, r3, #65536	; 0x10000
 c004acc:	f8c2 3090 	str.w	r3, [r2, #144]	; 0x90
        __HAL_RCC_BACKUPRESET_RELEASE();
 c004ad0:	4b21      	ldr	r3, [pc, #132]	; (c004b58 <HAL_RCCEx_PeriphCLKConfig+0x280>)
 c004ad2:	f8d3 3090 	ldr.w	r3, [r3, #144]	; 0x90
 c004ad6:	4a20      	ldr	r2, [pc, #128]	; (c004b58 <HAL_RCCEx_PeriphCLKConfig+0x280>)
 c004ad8:	f423 3380 	bic.w	r3, r3, #65536	; 0x10000
 c004adc:	f8c2 3090 	str.w	r3, [r2, #144]	; 0x90
        /* Restore the Content of BDCR register */
        RCC->BDCR = tmpregister;
 c004ae0:	4a1d      	ldr	r2, [pc, #116]	; (c004b58 <HAL_RCCEx_PeriphCLKConfig+0x280>)
 c004ae2:	69bb      	ldr	r3, [r7, #24]
 c004ae4:	f8c2 3090 	str.w	r3, [r2, #144]	; 0x90
      }

      /* Wait for LSE reactivation if LSE was enable prior to Backup Domain reset */
      if (HAL_IS_BIT_SET(tmpregister, RCC_BDCR_LSEON))
 c004ae8:	69bb      	ldr	r3, [r7, #24]
 c004aea:	f003 0301 	and.w	r3, r3, #1
 c004aee:	2b00      	cmp	r3, #0
 c004af0:	d01f      	beq.n	c004b32 <HAL_RCCEx_PeriphCLKConfig+0x25a>
      {
        /* Get Start Tick*/
        tickstart = HAL_GetTick();
 c004af2:	f7fd fae5 	bl	c0020c0 <HAL_GetTick>
 c004af6:	6138      	str	r0, [r7, #16]

        /* Wait till LSE is ready */
        while (READ_BIT(RCC->BDCR, RCC_BDCR_LSERDY) == 0U)
 c004af8:	e012      	b.n	c004b20 <HAL_RCCEx_PeriphCLKConfig+0x248>
        {
          if ((HAL_GetTick() - tickstart) > RCC_LSE_TIMEOUT_VALUE)
 c004afa:	f7fd fae1 	bl	c0020c0 <HAL_GetTick>
 c004afe:	4602      	mov	r2, r0
 c004b00:	693b      	ldr	r3, [r7, #16]
 c004b02:	1ad3      	subs	r3, r2, r3
 c004b04:	f241 3288 	movw	r2, #5000	; 0x1388
 c004b08:	4293      	cmp	r3, r2
 c004b0a:	d909      	bls.n	c004b20 <HAL_RCCEx_PeriphCLKConfig+0x248>
          {
            /* New check to avoid false timeout detection in case of preemption */
            if (READ_BIT(RCC->BDCR, RCC_BDCR_LSERDY) == 0U)
 c004b0c:	4b12      	ldr	r3, [pc, #72]	; (c004b58 <HAL_RCCEx_PeriphCLKConfig+0x280>)
 c004b0e:	f8d3 3090 	ldr.w	r3, [r3, #144]	; 0x90
 c004b12:	f003 0302 	and.w	r3, r3, #2
 c004b16:	2b00      	cmp	r3, #0
 c004b18:	d10a      	bne.n	c004b30 <HAL_RCCEx_PeriphCLKConfig+0x258>
            {
              ret = HAL_TIMEOUT;
 c004b1a:	2303      	movs	r3, #3
 c004b1c:	77fb      	strb	r3, [r7, #31]
            }
            break;
 c004b1e:	e007      	b.n	c004b30 <HAL_RCCEx_PeriphCLKConfig+0x258>
        while (READ_BIT(RCC->BDCR, RCC_BDCR_LSERDY) == 0U)
 c004b20:	4b0d      	ldr	r3, [pc, #52]	; (c004b58 <HAL_RCCEx_PeriphCLKConfig+0x280>)
 c004b22:	f8d3 3090 	ldr.w	r3, [r3, #144]	; 0x90
 c004b26:	f003 0302 	and.w	r3, r3, #2
 c004b2a:	2b00      	cmp	r3, #0
 c004b2c:	d0e5      	beq.n	c004afa <HAL_RCCEx_PeriphCLKConfig+0x222>
 c004b2e:	e000      	b.n	c004b32 <HAL_RCCEx_PeriphCLKConfig+0x25a>
            break;
 c004b30:	bf00      	nop
          }
        }
      }

      if (ret == HAL_OK)
 c004b32:	7ffb      	ldrb	r3, [r7, #31]
 c004b34:	2b00      	cmp	r3, #0
 c004b36:	d10c      	bne.n	c004b52 <HAL_RCCEx_PeriphCLKConfig+0x27a>
      {
        /* Apply new RTC clock source selection */
        __HAL_RCC_RTC_CONFIG(PeriphClkInit->RTCClockSelection);
 c004b38:	4b07      	ldr	r3, [pc, #28]	; (c004b58 <HAL_RCCEx_PeriphCLKConfig+0x280>)
 c004b3a:	f8d3 3090 	ldr.w	r3, [r3, #144]	; 0x90
 c004b3e:	f423 7240 	bic.w	r2, r3, #768	; 0x300
 c004b42:	687b      	ldr	r3, [r7, #4]
 c004b44:	f8d3 3090 	ldr.w	r3, [r3, #144]	; 0x90
 c004b48:	4903      	ldr	r1, [pc, #12]	; (c004b58 <HAL_RCCEx_PeriphCLKConfig+0x280>)
 c004b4a:	4313      	orrs	r3, r2
 c004b4c:	f8c1 3090 	str.w	r3, [r1, #144]	; 0x90
 c004b50:	e008      	b.n	c004b64 <HAL_RCCEx_PeriphCLKConfig+0x28c>
      }
      else
      {
        /* set overall return value */
        status = ret;
 c004b52:	7ffb      	ldrb	r3, [r7, #31]
 c004b54:	77bb      	strb	r3, [r7, #30]
 c004b56:	e005      	b.n	c004b64 <HAL_RCCEx_PeriphCLKConfig+0x28c>
 c004b58:	50021000 	.word	0x50021000
 c004b5c:	50007000 	.word	0x50007000
      }
    }
    else
    {
      /* set overall return value */
      status = ret;
 c004b60:	7ffb      	ldrb	r3, [r7, #31]
 c004b62:	77bb      	strb	r3, [r7, #30]
    }

    /* Restore clock configuration if changed */
    if (pwrclkchanged == SET)
 c004b64:	7dfb      	ldrb	r3, [r7, #23]
 c004b66:	2b01      	cmp	r3, #1
 c004b68:	d105      	bne.n	c004b76 <HAL_RCCEx_PeriphCLKConfig+0x29e>
    {
      __HAL_RCC_PWR_CLK_DISABLE();
 c004b6a:	4b9c      	ldr	r3, [pc, #624]	; (c004ddc <HAL_RCCEx_PeriphCLKConfig+0x504>)
 c004b6c:	6d9b      	ldr	r3, [r3, #88]	; 0x58
 c004b6e:	4a9b      	ldr	r2, [pc, #620]	; (c004ddc <HAL_RCCEx_PeriphCLKConfig+0x504>)
 c004b70:	f023 5380 	bic.w	r3, r3, #268435456	; 0x10000000
 c004b74:	6593      	str	r3, [r2, #88]	; 0x58
    }
  }

  /*-------------------------- USART1 clock source configuration -------------------*/
  if (((PeriphClkInit->PeriphClockSelection) & RCC_PERIPHCLK_USART1) == RCC_PERIPHCLK_USART1)
 c004b76:	687b      	ldr	r3, [r7, #4]
 c004b78:	681b      	ldr	r3, [r3, #0]
 c004b7a:	f003 0301 	and.w	r3, r3, #1
 c004b7e:	2b00      	cmp	r3, #0
 c004b80:	d00a      	beq.n	c004b98 <HAL_RCCEx_PeriphCLKConfig+0x2c0>
  {
    /* Check the parameters */
    assert_param(IS_RCC_USART1CLKSOURCE(PeriphClkInit->Usart1ClockSelection));

    /* Configure the USART1 clock source */
    __HAL_RCC_USART1_CONFIG(PeriphClkInit->Usart1ClockSelection);
 c004b82:	4b96      	ldr	r3, [pc, #600]	; (c004ddc <HAL_RCCEx_PeriphCLKConfig+0x504>)
 c004b84:	f8d3 3088 	ldr.w	r3, [r3, #136]	; 0x88
 c004b88:	f023 0203 	bic.w	r2, r3, #3
 c004b8c:	687b      	ldr	r3, [r7, #4]
 c004b8e:	6b5b      	ldr	r3, [r3, #52]	; 0x34
 c004b90:	4992      	ldr	r1, [pc, #584]	; (c004ddc <HAL_RCCEx_PeriphCLKConfig+0x504>)
 c004b92:	4313      	orrs	r3, r2
 c004b94:	f8c1 3088 	str.w	r3, [r1, #136]	; 0x88
  }

  /*-------------------------- USART2 clock source configuration -------------------*/
  if (((PeriphClkInit->PeriphClockSelection) & RCC_PERIPHCLK_USART2) == RCC_PERIPHCLK_USART2)
 c004b98:	687b      	ldr	r3, [r7, #4]
 c004b9a:	681b      	ldr	r3, [r3, #0]
 c004b9c:	f003 0302 	and.w	r3, r3, #2
 c004ba0:	2b00      	cmp	r3, #0
 c004ba2:	d00a      	beq.n	c004bba <HAL_RCCEx_PeriphCLKConfig+0x2e2>
  {
    /* Check the parameters */
    assert_param(IS_RCC_USART2CLKSOURCE(PeriphClkInit->Usart2ClockSelection));

    /* Configure the USART2 clock source */
    __HAL_RCC_USART2_CONFIG(PeriphClkInit->Usart2ClockSelection);
 c004ba4:	4b8d      	ldr	r3, [pc, #564]	; (c004ddc <HAL_RCCEx_PeriphCLKConfig+0x504>)
 c004ba6:	f8d3 3088 	ldr.w	r3, [r3, #136]	; 0x88
 c004baa:	f023 020c 	bic.w	r2, r3, #12
 c004bae:	687b      	ldr	r3, [r7, #4]
 c004bb0:	6b9b      	ldr	r3, [r3, #56]	; 0x38
 c004bb2:	498a      	ldr	r1, [pc, #552]	; (c004ddc <HAL_RCCEx_PeriphCLKConfig+0x504>)
 c004bb4:	4313      	orrs	r3, r2
 c004bb6:	f8c1 3088 	str.w	r3, [r1, #136]	; 0x88
  }

  /*-------------------------- USART3 clock source configuration -------------------*/
  if (((PeriphClkInit->PeriphClockSelection) & RCC_PERIPHCLK_USART3) == RCC_PERIPHCLK_USART3)
 c004bba:	687b      	ldr	r3, [r7, #4]
 c004bbc:	681b      	ldr	r3, [r3, #0]
 c004bbe:	f003 0304 	and.w	r3, r3, #4
 c004bc2:	2b00      	cmp	r3, #0
 c004bc4:	d00a      	beq.n	c004bdc <HAL_RCCEx_PeriphCLKConfig+0x304>
  {
    /* Check the parameters */
    assert_param(IS_RCC_USART3CLKSOURCE(PeriphClkInit->Usart3ClockSelection));

    /* Configure the USART3 clock source */
    __HAL_RCC_USART3_CONFIG(PeriphClkInit->Usart3ClockSelection);
 c004bc6:	4b85      	ldr	r3, [pc, #532]	; (c004ddc <HAL_RCCEx_PeriphCLKConfig+0x504>)
 c004bc8:	f8d3 3088 	ldr.w	r3, [r3, #136]	; 0x88
 c004bcc:	f023 0230 	bic.w	r2, r3, #48	; 0x30
 c004bd0:	687b      	ldr	r3, [r7, #4]
 c004bd2:	6bdb      	ldr	r3, [r3, #60]	; 0x3c
 c004bd4:	4981      	ldr	r1, [pc, #516]	; (c004ddc <HAL_RCCEx_PeriphCLKConfig+0x504>)
 c004bd6:	4313      	orrs	r3, r2
 c004bd8:	f8c1 3088 	str.w	r3, [r1, #136]	; 0x88
  }

  /*-------------------------- UART4 clock source configuration --------------------*/
  if (((PeriphClkInit->PeriphClockSelection) & RCC_PERIPHCLK_UART4) == RCC_PERIPHCLK_UART4)
 c004bdc:	687b      	ldr	r3, [r7, #4]
 c004bde:	681b      	ldr	r3, [r3, #0]
 c004be0:	f003 0308 	and.w	r3, r3, #8
 c004be4:	2b00      	cmp	r3, #0
 c004be6:	d00a      	beq.n	c004bfe <HAL_RCCEx_PeriphCLKConfig+0x326>
  {
    /* Check the parameters */
    assert_param(IS_RCC_UART4CLKSOURCE(PeriphClkInit->Uart4ClockSelection));

    /* Configure the UART4 clock source */
    __HAL_RCC_UART4_CONFIG(PeriphClkInit->Uart4ClockSelection);
 c004be8:	4b7c      	ldr	r3, [pc, #496]	; (c004ddc <HAL_RCCEx_PeriphCLKConfig+0x504>)
 c004bea:	f8d3 3088 	ldr.w	r3, [r3, #136]	; 0x88
 c004bee:	f023 02c0 	bic.w	r2, r3, #192	; 0xc0
 c004bf2:	687b      	ldr	r3, [r7, #4]
 c004bf4:	6c1b      	ldr	r3, [r3, #64]	; 0x40
 c004bf6:	4979      	ldr	r1, [pc, #484]	; (c004ddc <HAL_RCCEx_PeriphCLKConfig+0x504>)
 c004bf8:	4313      	orrs	r3, r2
 c004bfa:	f8c1 3088 	str.w	r3, [r1, #136]	; 0x88
  }

  /*-------------------------- UART5 clock source configuration --------------------*/
  if (((PeriphClkInit->PeriphClockSelection) & RCC_PERIPHCLK_UART5) == RCC_PERIPHCLK_UART5)
 c004bfe:	687b      	ldr	r3, [r7, #4]
 c004c00:	681b      	ldr	r3, [r3, #0]
 c004c02:	f003 0310 	and.w	r3, r3, #16
 c004c06:	2b00      	cmp	r3, #0
 c004c08:	d00a      	beq.n	c004c20 <HAL_RCCEx_PeriphCLKConfig+0x348>
  {
    /* Check the parameters */
    assert_param(IS_RCC_UART5CLKSOURCE(PeriphClkInit->Uart5ClockSelection));

    /* Configure the UART5 clock source */
    __HAL_RCC_UART5_CONFIG(PeriphClkInit->Uart5ClockSelection);
 c004c0a:	4b74      	ldr	r3, [pc, #464]	; (c004ddc <HAL_RCCEx_PeriphCLKConfig+0x504>)
 c004c0c:	f8d3 3088 	ldr.w	r3, [r3, #136]	; 0x88
 c004c10:	f423 7240 	bic.w	r2, r3, #768	; 0x300
 c004c14:	687b      	ldr	r3, [r7, #4]
 c004c16:	6c5b      	ldr	r3, [r3, #68]	; 0x44
 c004c18:	4970      	ldr	r1, [pc, #448]	; (c004ddc <HAL_RCCEx_PeriphCLKConfig+0x504>)
 c004c1a:	4313      	orrs	r3, r2
 c004c1c:	f8c1 3088 	str.w	r3, [r1, #136]	; 0x88
  }

  /*-------------------------- LPUART1 clock source configuration ------------------*/
  if (((PeriphClkInit->PeriphClockSelection) & RCC_PERIPHCLK_LPUART1) == RCC_PERIPHCLK_LPUART1)
 c004c20:	687b      	ldr	r3, [r7, #4]
 c004c22:	681b      	ldr	r3, [r3, #0]
 c004c24:	f003 0320 	and.w	r3, r3, #32
 c004c28:	2b00      	cmp	r3, #0
 c004c2a:	d00a      	beq.n	c004c42 <HAL_RCCEx_PeriphCLKConfig+0x36a>
  {
    /* Check the parameters */
    assert_param(IS_RCC_LPUART1CLKSOURCE(PeriphClkInit->Lpuart1ClockSelection));

    /* Configure the LPUART1 clock source */
    __HAL_RCC_LPUART1_CONFIG(PeriphClkInit->Lpuart1ClockSelection);
 c004c2c:	4b6b      	ldr	r3, [pc, #428]	; (c004ddc <HAL_RCCEx_PeriphCLKConfig+0x504>)
 c004c2e:	f8d3 3088 	ldr.w	r3, [r3, #136]	; 0x88
 c004c32:	f423 6240 	bic.w	r2, r3, #3072	; 0xc00
 c004c36:	687b      	ldr	r3, [r7, #4]
 c004c38:	6c9b      	ldr	r3, [r3, #72]	; 0x48
 c004c3a:	4968      	ldr	r1, [pc, #416]	; (c004ddc <HAL_RCCEx_PeriphCLKConfig+0x504>)
 c004c3c:	4313      	orrs	r3, r2
 c004c3e:	f8c1 3088 	str.w	r3, [r1, #136]	; 0x88
  }

  /*-------------------------- LPTIM1 clock source configuration -------------------*/
  if (((PeriphClkInit->PeriphClockSelection) & RCC_PERIPHCLK_LPTIM1) == (RCC_PERIPHCLK_LPTIM1))
 c004c42:	687b      	ldr	r3, [r7, #4]
 c004c44:	681b      	ldr	r3, [r3, #0]
 c004c46:	f403 7300 	and.w	r3, r3, #512	; 0x200
 c004c4a:	2b00      	cmp	r3, #0
 c004c4c:	d00a      	beq.n	c004c64 <HAL_RCCEx_PeriphCLKConfig+0x38c>
  {
    /* Check the parameters */
    assert_param(IS_RCC_LPTIM1CLK(PeriphClkInit->Lptim1ClockSelection));

    /* Configure the LPTIM1 clock source */
    __HAL_RCC_LPTIM1_CONFIG(PeriphClkInit->Lptim1ClockSelection);
 c004c4e:	4b63      	ldr	r3, [pc, #396]	; (c004ddc <HAL_RCCEx_PeriphCLKConfig+0x504>)
 c004c50:	f8d3 3088 	ldr.w	r3, [r3, #136]	; 0x88
 c004c54:	f423 2240 	bic.w	r2, r3, #786432	; 0xc0000
 c004c58:	687b      	ldr	r3, [r7, #4]
 c004c5a:	6ddb      	ldr	r3, [r3, #92]	; 0x5c
 c004c5c:	495f      	ldr	r1, [pc, #380]	; (c004ddc <HAL_RCCEx_PeriphCLKConfig+0x504>)
 c004c5e:	4313      	orrs	r3, r2
 c004c60:	f8c1 3088 	str.w	r3, [r1, #136]	; 0x88
  }

  /*-------------------------- LPTIM2 clock source configuration -------------------*/
  if (((PeriphClkInit->PeriphClockSelection) & RCC_PERIPHCLK_LPTIM2) == (RCC_PERIPHCLK_LPTIM2))
 c004c64:	687b      	ldr	r3, [r7, #4]
 c004c66:	681b      	ldr	r3, [r3, #0]
 c004c68:	f403 6380 	and.w	r3, r3, #1024	; 0x400
 c004c6c:	2b00      	cmp	r3, #0
 c004c6e:	d00a      	beq.n	c004c86 <HAL_RCCEx_PeriphCLKConfig+0x3ae>
  {
    /* Check the parameters */
    assert_param(IS_RCC_LPTIM2CLK(PeriphClkInit->Lptim2ClockSelection));

    /* Configure the LPTIM2 clock source */
    __HAL_RCC_LPTIM2_CONFIG(PeriphClkInit->Lptim2ClockSelection);
 c004c70:	4b5a      	ldr	r3, [pc, #360]	; (c004ddc <HAL_RCCEx_PeriphCLKConfig+0x504>)
 c004c72:	f8d3 3088 	ldr.w	r3, [r3, #136]	; 0x88
 c004c76:	f423 1240 	bic.w	r2, r3, #3145728	; 0x300000
 c004c7a:	687b      	ldr	r3, [r7, #4]
 c004c7c:	6e1b      	ldr	r3, [r3, #96]	; 0x60
 c004c7e:	4957      	ldr	r1, [pc, #348]	; (c004ddc <HAL_RCCEx_PeriphCLKConfig+0x504>)
 c004c80:	4313      	orrs	r3, r2
 c004c82:	f8c1 3088 	str.w	r3, [r1, #136]	; 0x88
  }

  /*-------------------------- LPTIM3 clock source configuration -------------------*/
  if (((PeriphClkInit->PeriphClockSelection) & RCC_PERIPHCLK_LPTIM3) == (RCC_PERIPHCLK_LPTIM3))
 c004c86:	687b      	ldr	r3, [r7, #4]
 c004c88:	681b      	ldr	r3, [r3, #0]
 c004c8a:	f403 0380 	and.w	r3, r3, #4194304	; 0x400000
 c004c8e:	2b00      	cmp	r3, #0
 c004c90:	d00a      	beq.n	c004ca8 <HAL_RCCEx_PeriphCLKConfig+0x3d0>
  {
    /* Check the parameters */
    assert_param(IS_RCC_LPTIM3CLK(PeriphClkInit->Lptim3ClockSelection));

    /* Configure the LPTIM3 clock source */
    __HAL_RCC_LPTIM3_CONFIG(PeriphClkInit->Lptim3ClockSelection);
 c004c92:	4b52      	ldr	r3, [pc, #328]	; (c004ddc <HAL_RCCEx_PeriphCLKConfig+0x504>)
 c004c94:	f8d3 3088 	ldr.w	r3, [r3, #136]	; 0x88
 c004c98:	f423 0240 	bic.w	r2, r3, #12582912	; 0xc00000
 c004c9c:	687b      	ldr	r3, [r7, #4]
 c004c9e:	6e5b      	ldr	r3, [r3, #100]	; 0x64
 c004ca0:	494e      	ldr	r1, [pc, #312]	; (c004ddc <HAL_RCCEx_PeriphCLKConfig+0x504>)
 c004ca2:	4313      	orrs	r3, r2
 c004ca4:	f8c1 3088 	str.w	r3, [r1, #136]	; 0x88
  }

  /*-------------------------- FDCAN kernel clock source configuration -------------*/
  if (((PeriphClkInit->PeriphClockSelection) & RCC_PERIPHCLK_FDCAN) == (RCC_PERIPHCLK_FDCAN))
 c004ca8:	687b      	ldr	r3, [r7, #4]
 c004caa:	681b      	ldr	r3, [r3, #0]
 c004cac:	f003 7300 	and.w	r3, r3, #33554432	; 0x2000000
 c004cb0:	2b00      	cmp	r3, #0
 c004cb2:	d031      	beq.n	c004d18 <HAL_RCCEx_PeriphCLKConfig+0x440>
  {
    /* Check the parameters */
    assert_param(IS_RCC_FDCANCLK(PeriphClkInit->FdcanClockSelection));

    /* Configure the FDCAN kernel clock source */
    switch (PeriphClkInit->FdcanClockSelection)
 c004cb4:	687b      	ldr	r3, [r7, #4]
 c004cb6:	6e9b      	ldr	r3, [r3, #104]	; 0x68
 c004cb8:	f1b3 7f00 	cmp.w	r3, #33554432	; 0x2000000
 c004cbc:	d00e      	beq.n	c004cdc <HAL_RCCEx_PeriphCLKConfig+0x404>
 c004cbe:	f1b3 7f00 	cmp.w	r3, #33554432	; 0x2000000
 c004cc2:	d814      	bhi.n	c004cee <HAL_RCCEx_PeriphCLKConfig+0x416>
 c004cc4:	2b00      	cmp	r3, #0
 c004cc6:	d015      	beq.n	c004cf4 <HAL_RCCEx_PeriphCLKConfig+0x41c>
 c004cc8:	f1b3 7f80 	cmp.w	r3, #16777216	; 0x1000000
 c004ccc:	d10f      	bne.n	c004cee <HAL_RCCEx_PeriphCLKConfig+0x416>
        /* FDCAN kernel clock source config set later after clock selection check */
        break;

      case RCC_FDCANCLKSOURCE_PLL:      /* PLL is used as clock source for FDCAN kernel clock*/
        /* Enable PLL48M1CLK output clock generated from System PLL . */
        __HAL_RCC_PLLCLKOUT_ENABLE(RCC_PLL_48M1CLK);
 c004cce:	4b43      	ldr	r3, [pc, #268]	; (c004ddc <HAL_RCCEx_PeriphCLKConfig+0x504>)
 c004cd0:	68db      	ldr	r3, [r3, #12]
 c004cd2:	4a42      	ldr	r2, [pc, #264]	; (c004ddc <HAL_RCCEx_PeriphCLKConfig+0x504>)
 c004cd4:	f443 1380 	orr.w	r3, r3, #1048576	; 0x100000
 c004cd8:	60d3      	str	r3, [r2, #12]
        /* FDCAN kernel clock source config set later after clock selection check */
        break;
 c004cda:	e00c      	b.n	c004cf6 <HAL_RCCEx_PeriphCLKConfig+0x41e>

      case RCC_FDCANCLKSOURCE_PLLSAI1:  /* PLLSAI1 is used as clock source for FDCAN kernel clock*/
        /* PLLSAI1 input clock, parameters M, N & P configuration and clock output (PLLSAI1ClockOut) */
        ret = RCCEx_PLLSAI1_Config(&(PeriphClkInit->PLLSAI1), DIVIDER_P_UPDATE);
 c004cdc:	687b      	ldr	r3, [r7, #4]
 c004cde:	3304      	adds	r3, #4
 c004ce0:	2100      	movs	r1, #0
 c004ce2:	4618      	mov	r0, r3
 c004ce4:	f000 f97c 	bl	c004fe0 <RCCEx_PLLSAI1_Config>
 c004ce8:	4603      	mov	r3, r0
 c004cea:	77fb      	strb	r3, [r7, #31]
        /* FDCAN kernel clock source config set later after clock selection check */
        break;
 c004cec:	e003      	b.n	c004cf6 <HAL_RCCEx_PeriphCLKConfig+0x41e>

      default:
        ret = HAL_ERROR;
 c004cee:	2301      	movs	r3, #1
 c004cf0:	77fb      	strb	r3, [r7, #31]
        break;
 c004cf2:	e000      	b.n	c004cf6 <HAL_RCCEx_PeriphCLKConfig+0x41e>
        break;
 c004cf4:	bf00      	nop
    }

    if (ret == HAL_OK)
 c004cf6:	7ffb      	ldrb	r3, [r7, #31]
 c004cf8:	2b00      	cmp	r3, #0
 c004cfa:	d10b      	bne.n	c004d14 <HAL_RCCEx_PeriphCLKConfig+0x43c>
    {
      /* Set the source of FDCAN kernel clock*/
      __HAL_RCC_FDCAN_CONFIG(PeriphClkInit->FdcanClockSelection);
 c004cfc:	4b37      	ldr	r3, [pc, #220]	; (c004ddc <HAL_RCCEx_PeriphCLKConfig+0x504>)
 c004cfe:	f8d3 3088 	ldr.w	r3, [r3, #136]	; 0x88
 c004d02:	f023 7240 	bic.w	r2, r3, #50331648	; 0x3000000
 c004d06:	687b      	ldr	r3, [r7, #4]
 c004d08:	6e9b      	ldr	r3, [r3, #104]	; 0x68
 c004d0a:	4934      	ldr	r1, [pc, #208]	; (c004ddc <HAL_RCCEx_PeriphCLKConfig+0x504>)
 c004d0c:	4313      	orrs	r3, r2
 c004d0e:	f8c1 3088 	str.w	r3, [r1, #136]	; 0x88
 c004d12:	e001      	b.n	c004d18 <HAL_RCCEx_PeriphCLKConfig+0x440>
    }
    else
    {
      /* set overall return value */
      status = ret;
 c004d14:	7ffb      	ldrb	r3, [r7, #31]
 c004d16:	77bb      	strb	r3, [r7, #30]
    }
  }

  /*-------------------------- I2C1 clock source configuration ---------------------*/
  if (((PeriphClkInit->PeriphClockSelection) & RCC_PERIPHCLK_I2C1) == RCC_PERIPHCLK_I2C1)
 c004d18:	687b      	ldr	r3, [r7, #4]
 c004d1a:	681b      	ldr	r3, [r3, #0]
 c004d1c:	f003 0340 	and.w	r3, r3, #64	; 0x40
 c004d20:	2b00      	cmp	r3, #0
 c004d22:	d00a      	beq.n	c004d3a <HAL_RCCEx_PeriphCLKConfig+0x462>
  {
    /* Check the parameters */
    assert_param(IS_RCC_I2C1CLKSOURCE(PeriphClkInit->I2c1ClockSelection));

    /* Configure the I2C1 clock source */
    __HAL_RCC_I2C1_CONFIG(PeriphClkInit->I2c1ClockSelection);
 c004d24:	4b2d      	ldr	r3, [pc, #180]	; (c004ddc <HAL_RCCEx_PeriphCLKConfig+0x504>)
 c004d26:	f8d3 3088 	ldr.w	r3, [r3, #136]	; 0x88
 c004d2a:	f423 5240 	bic.w	r2, r3, #12288	; 0x3000
 c004d2e:	687b      	ldr	r3, [r7, #4]
 c004d30:	6cdb      	ldr	r3, [r3, #76]	; 0x4c
 c004d32:	492a      	ldr	r1, [pc, #168]	; (c004ddc <HAL_RCCEx_PeriphCLKConfig+0x504>)
 c004d34:	4313      	orrs	r3, r2
 c004d36:	f8c1 3088 	str.w	r3, [r1, #136]	; 0x88
  }

  /*-------------------------- I2C2 clock source configuration ---------------------*/
  if (((PeriphClkInit->PeriphClockSelection) & RCC_PERIPHCLK_I2C2) == RCC_PERIPHCLK_I2C2)
 c004d3a:	687b      	ldr	r3, [r7, #4]
 c004d3c:	681b      	ldr	r3, [r3, #0]
 c004d3e:	f003 0380 	and.w	r3, r3, #128	; 0x80
 c004d42:	2b00      	cmp	r3, #0
 c004d44:	d00a      	beq.n	c004d5c <HAL_RCCEx_PeriphCLKConfig+0x484>
  {
    /* Check the parameters */
    assert_param(IS_RCC_I2C2CLKSOURCE(PeriphClkInit->I2c2ClockSelection));

    /* Configure the I2C2 clock source */
    __HAL_RCC_I2C2_CONFIG(PeriphClkInit->I2c2ClockSelection);
 c004d46:	4b25      	ldr	r3, [pc, #148]	; (c004ddc <HAL_RCCEx_PeriphCLKConfig+0x504>)
 c004d48:	f8d3 3088 	ldr.w	r3, [r3, #136]	; 0x88
 c004d4c:	f423 4240 	bic.w	r2, r3, #49152	; 0xc000
 c004d50:	687b      	ldr	r3, [r7, #4]
 c004d52:	6d1b      	ldr	r3, [r3, #80]	; 0x50
 c004d54:	4921      	ldr	r1, [pc, #132]	; (c004ddc <HAL_RCCEx_PeriphCLKConfig+0x504>)
 c004d56:	4313      	orrs	r3, r2
 c004d58:	f8c1 3088 	str.w	r3, [r1, #136]	; 0x88
  }

  /*-------------------------- I2C3 clock source configuration ---------------------*/
  if (((PeriphClkInit->PeriphClockSelection) & RCC_PERIPHCLK_I2C3) == RCC_PERIPHCLK_I2C3)
 c004d5c:	687b      	ldr	r3, [r7, #4]
 c004d5e:	681b      	ldr	r3, [r3, #0]
 c004d60:	f403 7380 	and.w	r3, r3, #256	; 0x100
 c004d64:	2b00      	cmp	r3, #0
 c004d66:	d00a      	beq.n	c004d7e <HAL_RCCEx_PeriphCLKConfig+0x4a6>
  {
    /* Check the parameters */
    assert_param(IS_RCC_I2C3CLKSOURCE(PeriphClkInit->I2c3ClockSelection));

    /* Configure the I2C3 clock source */
    __HAL_RCC_I2C3_CONFIG(PeriphClkInit->I2c3ClockSelection);
 c004d68:	4b1c      	ldr	r3, [pc, #112]	; (c004ddc <HAL_RCCEx_PeriphCLKConfig+0x504>)
 c004d6a:	f8d3 3088 	ldr.w	r3, [r3, #136]	; 0x88
 c004d6e:	f423 3240 	bic.w	r2, r3, #196608	; 0x30000
 c004d72:	687b      	ldr	r3, [r7, #4]
 c004d74:	6d5b      	ldr	r3, [r3, #84]	; 0x54
 c004d76:	4919      	ldr	r1, [pc, #100]	; (c004ddc <HAL_RCCEx_PeriphCLKConfig+0x504>)
 c004d78:	4313      	orrs	r3, r2
 c004d7a:	f8c1 3088 	str.w	r3, [r1, #136]	; 0x88
  }

  /*-------------------------- I2C4 clock source configuration ---------------------*/
  if (((PeriphClkInit->PeriphClockSelection) & RCC_PERIPHCLK_I2C4) == RCC_PERIPHCLK_I2C4)
 c004d7e:	687b      	ldr	r3, [r7, #4]
 c004d80:	681b      	ldr	r3, [r3, #0]
 c004d82:	f403 1380 	and.w	r3, r3, #1048576	; 0x100000
 c004d86:	2b00      	cmp	r3, #0
 c004d88:	d00a      	beq.n	c004da0 <HAL_RCCEx_PeriphCLKConfig+0x4c8>
  {
    /* Check the parameters */
    assert_param(IS_RCC_I2C4CLKSOURCE(PeriphClkInit->I2c4ClockSelection));

    /* Configure the I2C4 clock source */
    __HAL_RCC_I2C4_CONFIG(PeriphClkInit->I2c4ClockSelection);
 c004d8a:	4b14      	ldr	r3, [pc, #80]	; (c004ddc <HAL_RCCEx_PeriphCLKConfig+0x504>)
 c004d8c:	f8d3 309c 	ldr.w	r3, [r3, #156]	; 0x9c
 c004d90:	f023 0203 	bic.w	r2, r3, #3
 c004d94:	687b      	ldr	r3, [r7, #4]
 c004d96:	6d9b      	ldr	r3, [r3, #88]	; 0x58
 c004d98:	4910      	ldr	r1, [pc, #64]	; (c004ddc <HAL_RCCEx_PeriphCLKConfig+0x504>)
 c004d9a:	4313      	orrs	r3, r2
 c004d9c:	f8c1 309c 	str.w	r3, [r1, #156]	; 0x9c
  }

#if defined(USB)

  /*-------------------------- USB clock source configuration ----------------------*/
  if (((PeriphClkInit->PeriphClockSelection) & RCC_PERIPHCLK_USB) == (RCC_PERIPHCLK_USB))
 c004da0:	687b      	ldr	r3, [r7, #4]
 c004da2:	681b      	ldr	r3, [r3, #0]
 c004da4:	f403 5300 	and.w	r3, r3, #8192	; 0x2000
 c004da8:	2b00      	cmp	r3, #0
 c004daa:	d02b      	beq.n	c004e04 <HAL_RCCEx_PeriphCLKConfig+0x52c>
  {
    /* Check the parameters */
    assert_param(IS_RCC_USBCLKSOURCE(PeriphClkInit->UsbClockSelection));

    /* Configure the USB clock source */
    __HAL_RCC_USB_CONFIG(PeriphClkInit->UsbClockSelection);
 c004dac:	4b0b      	ldr	r3, [pc, #44]	; (c004ddc <HAL_RCCEx_PeriphCLKConfig+0x504>)
 c004dae:	f8d3 3088 	ldr.w	r3, [r3, #136]	; 0x88
 c004db2:	f023 6240 	bic.w	r2, r3, #201326592	; 0xc000000
 c004db6:	687b      	ldr	r3, [r7, #4]
 c004db8:	6f5b      	ldr	r3, [r3, #116]	; 0x74
 c004dba:	4908      	ldr	r1, [pc, #32]	; (c004ddc <HAL_RCCEx_PeriphCLKConfig+0x504>)
 c004dbc:	4313      	orrs	r3, r2
 c004dbe:	f8c1 3088 	str.w	r3, [r1, #136]	; 0x88

    if (PeriphClkInit->UsbClockSelection == RCC_USBCLKSOURCE_PLL)
 c004dc2:	687b      	ldr	r3, [r7, #4]
 c004dc4:	6f5b      	ldr	r3, [r3, #116]	; 0x74
 c004dc6:	f1b3 6f00 	cmp.w	r3, #134217728	; 0x8000000
 c004dca:	d109      	bne.n	c004de0 <HAL_RCCEx_PeriphCLKConfig+0x508>
    {
      /* Enable PLL48M1CLK output clock */
      __HAL_RCC_PLLCLKOUT_ENABLE(RCC_PLL_48M1CLK);
 c004dcc:	4b03      	ldr	r3, [pc, #12]	; (c004ddc <HAL_RCCEx_PeriphCLKConfig+0x504>)
 c004dce:	68db      	ldr	r3, [r3, #12]
 c004dd0:	4a02      	ldr	r2, [pc, #8]	; (c004ddc <HAL_RCCEx_PeriphCLKConfig+0x504>)
 c004dd2:	f443 1380 	orr.w	r3, r3, #1048576	; 0x100000
 c004dd6:	60d3      	str	r3, [r2, #12]
 c004dd8:	e014      	b.n	c004e04 <HAL_RCCEx_PeriphCLKConfig+0x52c>
 c004dda:	bf00      	nop
 c004ddc:	50021000 	.word	0x50021000
    }
    else
    {
      if (PeriphClkInit->UsbClockSelection == RCC_USBCLKSOURCE_PLLSAI1)
 c004de0:	687b      	ldr	r3, [r7, #4]
 c004de2:	6f5b      	ldr	r3, [r3, #116]	; 0x74
 c004de4:	f1b3 6f80 	cmp.w	r3, #67108864	; 0x4000000
 c004de8:	d10c      	bne.n	c004e04 <HAL_RCCEx_PeriphCLKConfig+0x52c>
      {
        /* PLLSAI1 input clock, parameters M, N & Q configuration and clock output (PLLSAI1ClockOut) */
        ret = RCCEx_PLLSAI1_Config(&(PeriphClkInit->PLLSAI1), DIVIDER_Q_UPDATE);
 c004dea:	687b      	ldr	r3, [r7, #4]
 c004dec:	3304      	adds	r3, #4
 c004dee:	2101      	movs	r1, #1
 c004df0:	4618      	mov	r0, r3
 c004df2:	f000 f8f5 	bl	c004fe0 <RCCEx_PLLSAI1_Config>
 c004df6:	4603      	mov	r3, r0
 c004df8:	77fb      	strb	r3, [r7, #31]

        if (ret != HAL_OK)
 c004dfa:	7ffb      	ldrb	r3, [r7, #31]
 c004dfc:	2b00      	cmp	r3, #0
 c004dfe:	d001      	beq.n	c004e04 <HAL_RCCEx_PeriphCLKConfig+0x52c>
        {
          /* set overall return value */
          status = ret;
 c004e00:	7ffb      	ldrb	r3, [r7, #31]
 c004e02:	77bb      	strb	r3, [r7, #30]
  }

#endif /* USB */

  /*-------------------------- SDMMC1 clock source configuration -------------------*/
  if (((PeriphClkInit->PeriphClockSelection) & RCC_PERIPHCLK_SDMMC1) == (RCC_PERIPHCLK_SDMMC1))
 c004e04:	687b      	ldr	r3, [r7, #4]
 c004e06:	681b      	ldr	r3, [r3, #0]
 c004e08:	f403 2300 	and.w	r3, r3, #524288	; 0x80000
 c004e0c:	2b00      	cmp	r3, #0
 c004e0e:	d04a      	beq.n	c004ea6 <HAL_RCCEx_PeriphCLKConfig+0x5ce>
  {
    /* Check the parameters */
    assert_param(IS_RCC_SDMMC1CLKSOURCE(PeriphClkInit->Sdmmc1ClockSelection));

    /* Configure the SDMMC1 clock source */
    __HAL_RCC_SDMMC1_CONFIG(PeriphClkInit->Sdmmc1ClockSelection);
 c004e10:	687b      	ldr	r3, [r7, #4]
 c004e12:	6f9b      	ldr	r3, [r3, #120]	; 0x78
 c004e14:	f5b3 4f80 	cmp.w	r3, #16384	; 0x4000
 c004e18:	d108      	bne.n	c004e2c <HAL_RCCEx_PeriphCLKConfig+0x554>
 c004e1a:	4b70      	ldr	r3, [pc, #448]	; (c004fdc <HAL_RCCEx_PeriphCLKConfig+0x704>)
 c004e1c:	f8d3 309c 	ldr.w	r3, [r3, #156]	; 0x9c
 c004e20:	4a6e      	ldr	r2, [pc, #440]	; (c004fdc <HAL_RCCEx_PeriphCLKConfig+0x704>)
 c004e22:	f443 4380 	orr.w	r3, r3, #16384	; 0x4000
 c004e26:	f8c2 309c 	str.w	r3, [r2, #156]	; 0x9c
 c004e2a:	e012      	b.n	c004e52 <HAL_RCCEx_PeriphCLKConfig+0x57a>
 c004e2c:	4b6b      	ldr	r3, [pc, #428]	; (c004fdc <HAL_RCCEx_PeriphCLKConfig+0x704>)
 c004e2e:	f8d3 3088 	ldr.w	r3, [r3, #136]	; 0x88
 c004e32:	f023 6240 	bic.w	r2, r3, #201326592	; 0xc000000
 c004e36:	687b      	ldr	r3, [r7, #4]
 c004e38:	6f9b      	ldr	r3, [r3, #120]	; 0x78
 c004e3a:	4968      	ldr	r1, [pc, #416]	; (c004fdc <HAL_RCCEx_PeriphCLKConfig+0x704>)
 c004e3c:	4313      	orrs	r3, r2
 c004e3e:	f8c1 3088 	str.w	r3, [r1, #136]	; 0x88
 c004e42:	4b66      	ldr	r3, [pc, #408]	; (c004fdc <HAL_RCCEx_PeriphCLKConfig+0x704>)
 c004e44:	f8d3 309c 	ldr.w	r3, [r3, #156]	; 0x9c
 c004e48:	4a64      	ldr	r2, [pc, #400]	; (c004fdc <HAL_RCCEx_PeriphCLKConfig+0x704>)
 c004e4a:	f423 4380 	bic.w	r3, r3, #16384	; 0x4000
 c004e4e:	f8c2 309c 	str.w	r3, [r2, #156]	; 0x9c

    if (PeriphClkInit->Sdmmc1ClockSelection == RCC_SDMMC1CLKSOURCE_PLLSAI1)
 c004e52:	687b      	ldr	r3, [r7, #4]
 c004e54:	6f9b      	ldr	r3, [r3, #120]	; 0x78
 c004e56:	f1b3 6f80 	cmp.w	r3, #67108864	; 0x4000000
 c004e5a:	d10d      	bne.n	c004e78 <HAL_RCCEx_PeriphCLKConfig+0x5a0>
    {
      /* PLLSAI1 input clock, parameters M, N & Q configuration and clock output (PLLSAI1ClockOut) */
      ret = RCCEx_PLLSAI1_Config(&(PeriphClkInit->PLLSAI1), DIVIDER_Q_UPDATE);
 c004e5c:	687b      	ldr	r3, [r7, #4]
 c004e5e:	3304      	adds	r3, #4
 c004e60:	2101      	movs	r1, #1
 c004e62:	4618      	mov	r0, r3
 c004e64:	f000 f8bc 	bl	c004fe0 <RCCEx_PLLSAI1_Config>
 c004e68:	4603      	mov	r3, r0
 c004e6a:	77fb      	strb	r3, [r7, #31]

      if (ret != HAL_OK)
 c004e6c:	7ffb      	ldrb	r3, [r7, #31]
 c004e6e:	2b00      	cmp	r3, #0
 c004e70:	d019      	beq.n	c004ea6 <HAL_RCCEx_PeriphCLKConfig+0x5ce>
      {
        /* set overall return value */
        status = ret;
 c004e72:	7ffb      	ldrb	r3, [r7, #31]
 c004e74:	77bb      	strb	r3, [r7, #30]
 c004e76:	e016      	b.n	c004ea6 <HAL_RCCEx_PeriphCLKConfig+0x5ce>
      }
    }
    else if (PeriphClkInit->Sdmmc1ClockSelection == RCC_SDMMC1CLKSOURCE_PLL)
 c004e78:	687b      	ldr	r3, [r7, #4]
 c004e7a:	6f9b      	ldr	r3, [r3, #120]	; 0x78
 c004e7c:	f1b3 6f00 	cmp.w	r3, #134217728	; 0x8000000
 c004e80:	d106      	bne.n	c004e90 <HAL_RCCEx_PeriphCLKConfig+0x5b8>
    {
      /* Enable PLL48M1CLK output clock */
      __HAL_RCC_PLLCLKOUT_ENABLE(RCC_PLL_48M1CLK);
 c004e82:	4b56      	ldr	r3, [pc, #344]	; (c004fdc <HAL_RCCEx_PeriphCLKConfig+0x704>)
 c004e84:	68db      	ldr	r3, [r3, #12]
 c004e86:	4a55      	ldr	r2, [pc, #340]	; (c004fdc <HAL_RCCEx_PeriphCLKConfig+0x704>)
 c004e88:	f443 1380 	orr.w	r3, r3, #1048576	; 0x100000
 c004e8c:	60d3      	str	r3, [r2, #12]
 c004e8e:	e00a      	b.n	c004ea6 <HAL_RCCEx_PeriphCLKConfig+0x5ce>
    }
    else if (PeriphClkInit->Sdmmc1ClockSelection == RCC_SDMMC1CLKSOURCE_PLLP)
 c004e90:	687b      	ldr	r3, [r7, #4]
 c004e92:	6f9b      	ldr	r3, [r3, #120]	; 0x78
 c004e94:	f5b3 4f80 	cmp.w	r3, #16384	; 0x4000
 c004e98:	d105      	bne.n	c004ea6 <HAL_RCCEx_PeriphCLKConfig+0x5ce>
    {
      /* Enable PLLSAI3CLK output clock */
      __HAL_RCC_PLLCLKOUT_ENABLE(RCC_PLL_SAI3CLK);
 c004e9a:	4b50      	ldr	r3, [pc, #320]	; (c004fdc <HAL_RCCEx_PeriphCLKConfig+0x704>)
 c004e9c:	68db      	ldr	r3, [r3, #12]
 c004e9e:	4a4f      	ldr	r2, [pc, #316]	; (c004fdc <HAL_RCCEx_PeriphCLKConfig+0x704>)
 c004ea0:	f443 3380 	orr.w	r3, r3, #65536	; 0x10000
 c004ea4:	60d3      	str	r3, [r2, #12]
      /* Nothing to do */
    }
  }

  /*-------------------------- RNG clock source configuration ----------------------*/
  if (((PeriphClkInit->PeriphClockSelection) & RCC_PERIPHCLK_RNG) == (RCC_PERIPHCLK_RNG))
 c004ea6:	687b      	ldr	r3, [r7, #4]
 c004ea8:	681b      	ldr	r3, [r3, #0]
 c004eaa:	f403 2380 	and.w	r3, r3, #262144	; 0x40000
 c004eae:	2b00      	cmp	r3, #0
 c004eb0:	d028      	beq.n	c004f04 <HAL_RCCEx_PeriphCLKConfig+0x62c>
  {
    /* Check the parameters */
    assert_param(IS_RCC_RNGCLKSOURCE(PeriphClkInit->RngClockSelection));

    /* Configure the RNG clock source */
    __HAL_RCC_RNG_CONFIG(PeriphClkInit->RngClockSelection);
 c004eb2:	4b4a      	ldr	r3, [pc, #296]	; (c004fdc <HAL_RCCEx_PeriphCLKConfig+0x704>)
 c004eb4:	f8d3 3088 	ldr.w	r3, [r3, #136]	; 0x88
 c004eb8:	f023 6240 	bic.w	r2, r3, #201326592	; 0xc000000
 c004ebc:	687b      	ldr	r3, [r7, #4]
 c004ebe:	6fdb      	ldr	r3, [r3, #124]	; 0x7c
 c004ec0:	4946      	ldr	r1, [pc, #280]	; (c004fdc <HAL_RCCEx_PeriphCLKConfig+0x704>)
 c004ec2:	4313      	orrs	r3, r2
 c004ec4:	f8c1 3088 	str.w	r3, [r1, #136]	; 0x88

    if (PeriphClkInit->RngClockSelection == RCC_RNGCLKSOURCE_PLL)
 c004ec8:	687b      	ldr	r3, [r7, #4]
 c004eca:	6fdb      	ldr	r3, [r3, #124]	; 0x7c
 c004ecc:	f1b3 6f00 	cmp.w	r3, #134217728	; 0x8000000
 c004ed0:	d106      	bne.n	c004ee0 <HAL_RCCEx_PeriphCLKConfig+0x608>
    {
      /* Enable PLL48M1CLK output clock */
      __HAL_RCC_PLLCLKOUT_ENABLE(RCC_PLL_48M1CLK);
 c004ed2:	4b42      	ldr	r3, [pc, #264]	; (c004fdc <HAL_RCCEx_PeriphCLKConfig+0x704>)
 c004ed4:	68db      	ldr	r3, [r3, #12]
 c004ed6:	4a41      	ldr	r2, [pc, #260]	; (c004fdc <HAL_RCCEx_PeriphCLKConfig+0x704>)
 c004ed8:	f443 1380 	orr.w	r3, r3, #1048576	; 0x100000
 c004edc:	60d3      	str	r3, [r2, #12]
 c004ede:	e011      	b.n	c004f04 <HAL_RCCEx_PeriphCLKConfig+0x62c>
    }
    else if (PeriphClkInit->RngClockSelection == RCC_RNGCLKSOURCE_PLLSAI1)
 c004ee0:	687b      	ldr	r3, [r7, #4]
 c004ee2:	6fdb      	ldr	r3, [r3, #124]	; 0x7c
 c004ee4:	f1b3 6f80 	cmp.w	r3, #67108864	; 0x4000000
 c004ee8:	d10c      	bne.n	c004f04 <HAL_RCCEx_PeriphCLKConfig+0x62c>
    {
      /* PLLSAI1 input clock, parameters M, N & Q configuration and clock output (PLLSAI1ClockOut) */
      ret = RCCEx_PLLSAI1_Config(&(PeriphClkInit->PLLSAI1), DIVIDER_Q_UPDATE);
 c004eea:	687b      	ldr	r3, [r7, #4]
 c004eec:	3304      	adds	r3, #4
 c004eee:	2101      	movs	r1, #1
 c004ef0:	4618      	mov	r0, r3
 c004ef2:	f000 f875 	bl	c004fe0 <RCCEx_PLLSAI1_Config>
 c004ef6:	4603      	mov	r3, r0
 c004ef8:	77fb      	strb	r3, [r7, #31]

      if (ret != HAL_OK)
 c004efa:	7ffb      	ldrb	r3, [r7, #31]
 c004efc:	2b00      	cmp	r3, #0
 c004efe:	d001      	beq.n	c004f04 <HAL_RCCEx_PeriphCLKConfig+0x62c>
      {
        /* set overall return value */
        status = ret;
 c004f00:	7ffb      	ldrb	r3, [r7, #31]
 c004f02:	77bb      	strb	r3, [r7, #30]
      /* Nothing to do */
    }
  }

  /*-------------------------- ADC clock source configuration ----------------------*/
  if (((PeriphClkInit->PeriphClockSelection) & RCC_PERIPHCLK_ADC) == RCC_PERIPHCLK_ADC)
 c004f04:	687b      	ldr	r3, [r7, #4]
 c004f06:	681b      	ldr	r3, [r3, #0]
 c004f08:	f403 4380 	and.w	r3, r3, #16384	; 0x4000
 c004f0c:	2b00      	cmp	r3, #0
 c004f0e:	d01e      	beq.n	c004f4e <HAL_RCCEx_PeriphCLKConfig+0x676>
  {
    /* Check the parameters */
    assert_param(IS_RCC_ADCCLKSOURCE(PeriphClkInit->AdcClockSelection));

    /* Configure the ADC interface clock source */
    __HAL_RCC_ADC_CONFIG(PeriphClkInit->AdcClockSelection);
 c004f10:	4b32      	ldr	r3, [pc, #200]	; (c004fdc <HAL_RCCEx_PeriphCLKConfig+0x704>)
 c004f12:	f8d3 3088 	ldr.w	r3, [r3, #136]	; 0x88
 c004f16:	f023 5240 	bic.w	r2, r3, #805306368	; 0x30000000
 c004f1a:	687b      	ldr	r3, [r7, #4]
 c004f1c:	f8d3 3080 	ldr.w	r3, [r3, #128]	; 0x80
 c004f20:	492e      	ldr	r1, [pc, #184]	; (c004fdc <HAL_RCCEx_PeriphCLKConfig+0x704>)
 c004f22:	4313      	orrs	r3, r2
 c004f24:	f8c1 3088 	str.w	r3, [r1, #136]	; 0x88

    if (PeriphClkInit->AdcClockSelection == RCC_ADCCLKSOURCE_PLLSAI1)
 c004f28:	687b      	ldr	r3, [r7, #4]
 c004f2a:	f8d3 3080 	ldr.w	r3, [r3, #128]	; 0x80
 c004f2e:	f1b3 5f80 	cmp.w	r3, #268435456	; 0x10000000
 c004f32:	d10c      	bne.n	c004f4e <HAL_RCCEx_PeriphCLKConfig+0x676>
    {
      /* PLLSAI1 input clock, parameters M, N & R configuration and clock output (PLLSAI1ClockOut) */
      ret = RCCEx_PLLSAI1_Config(&(PeriphClkInit->PLLSAI1), DIVIDER_R_UPDATE);
 c004f34:	687b      	ldr	r3, [r7, #4]
 c004f36:	3304      	adds	r3, #4
 c004f38:	2102      	movs	r1, #2
 c004f3a:	4618      	mov	r0, r3
 c004f3c:	f000 f850 	bl	c004fe0 <RCCEx_PLLSAI1_Config>
 c004f40:	4603      	mov	r3, r0
 c004f42:	77fb      	strb	r3, [r7, #31]

      if (ret != HAL_OK)
 c004f44:	7ffb      	ldrb	r3, [r7, #31]
 c004f46:	2b00      	cmp	r3, #0
 c004f48:	d001      	beq.n	c004f4e <HAL_RCCEx_PeriphCLKConfig+0x676>
      {
        /* set overall return value */
        status = ret;
 c004f4a:	7ffb      	ldrb	r3, [r7, #31]
 c004f4c:	77bb      	strb	r3, [r7, #30]
      }
    }
  }

  /*-------------------------- DFSDM1 clock source configuration -------------------*/
  if (((PeriphClkInit->PeriphClockSelection) & RCC_PERIPHCLK_DFSDM1) == RCC_PERIPHCLK_DFSDM1)
 c004f4e:	687b      	ldr	r3, [r7, #4]
 c004f50:	681b      	ldr	r3, [r3, #0]
 c004f52:	f403 3380 	and.w	r3, r3, #65536	; 0x10000
 c004f56:	2b00      	cmp	r3, #0
 c004f58:	d00b      	beq.n	c004f72 <HAL_RCCEx_PeriphCLKConfig+0x69a>
  {
    /* Check the parameters */
    assert_param(IS_RCC_DFSDM1CLKSOURCE(PeriphClkInit->Dfsdm1ClockSelection));

    /* Configure the DFSDM1 interface clock source */
    __HAL_RCC_DFSDM1_CONFIG(PeriphClkInit->Dfsdm1ClockSelection);
 c004f5a:	4b20      	ldr	r3, [pc, #128]	; (c004fdc <HAL_RCCEx_PeriphCLKConfig+0x704>)
 c004f5c:	f8d3 309c 	ldr.w	r3, [r3, #156]	; 0x9c
 c004f60:	f023 0204 	bic.w	r2, r3, #4
 c004f64:	687b      	ldr	r3, [r7, #4]
 c004f66:	f8d3 3084 	ldr.w	r3, [r3, #132]	; 0x84
 c004f6a:	491c      	ldr	r1, [pc, #112]	; (c004fdc <HAL_RCCEx_PeriphCLKConfig+0x704>)
 c004f6c:	4313      	orrs	r3, r2
 c004f6e:	f8c1 309c 	str.w	r3, [r1, #156]	; 0x9c
  }

  /*-------------------------- DFSDM1 audio clock source configuration -------------*/
  if (((PeriphClkInit->PeriphClockSelection) & RCC_PERIPHCLK_DFSDM1AUDIO) == RCC_PERIPHCLK_DFSDM1AUDIO)
 c004f72:	687b      	ldr	r3, [r7, #4]
 c004f74:	681b      	ldr	r3, [r3, #0]
 c004f76:	f403 1300 	and.w	r3, r3, #2097152	; 0x200000
 c004f7a:	2b00      	cmp	r3, #0
 c004f7c:	d00b      	beq.n	c004f96 <HAL_RCCEx_PeriphCLKConfig+0x6be>
  {
    /* Check the parameters */
    assert_param(IS_RCC_DFSDM1AUDIOCLKSOURCE(PeriphClkInit->Dfsdm1AudioClockSelection));

    /* Configure the DFSDM1 interface audio clock source */
    __HAL_RCC_DFSDM1AUDIO_CONFIG(PeriphClkInit->Dfsdm1AudioClockSelection);
 c004f7e:	4b17      	ldr	r3, [pc, #92]	; (c004fdc <HAL_RCCEx_PeriphCLKConfig+0x704>)
 c004f80:	f8d3 309c 	ldr.w	r3, [r3, #156]	; 0x9c
 c004f84:	f023 0218 	bic.w	r2, r3, #24
 c004f88:	687b      	ldr	r3, [r7, #4]
 c004f8a:	f8d3 3088 	ldr.w	r3, [r3, #136]	; 0x88
 c004f8e:	4913      	ldr	r1, [pc, #76]	; (c004fdc <HAL_RCCEx_PeriphCLKConfig+0x704>)
 c004f90:	4313      	orrs	r3, r2
 c004f92:	f8c1 309c 	str.w	r3, [r1, #156]	; 0x9c
  }

  /*-------------------------- OctoSPIx clock source configuration ----------------*/
  if (((PeriphClkInit->PeriphClockSelection) & RCC_PERIPHCLK_OSPI) == RCC_PERIPHCLK_OSPI)
 c004f96:	687b      	ldr	r3, [r7, #4]
 c004f98:	681b      	ldr	r3, [r3, #0]
 c004f9a:	f003 7380 	and.w	r3, r3, #16777216	; 0x1000000
 c004f9e:	2b00      	cmp	r3, #0
 c004fa0:	d017      	beq.n	c004fd2 <HAL_RCCEx_PeriphCLKConfig+0x6fa>
  {
    /* Check the parameters */
    assert_param(IS_RCC_OSPICLKSOURCE(PeriphClkInit->OspiClockSelection));

    /* Configure the OctoSPI clock source */
    __HAL_RCC_OSPI_CONFIG(PeriphClkInit->OspiClockSelection);
 c004fa2:	4b0e      	ldr	r3, [pc, #56]	; (c004fdc <HAL_RCCEx_PeriphCLKConfig+0x704>)
 c004fa4:	f8d3 309c 	ldr.w	r3, [r3, #156]	; 0x9c
 c004fa8:	f423 1240 	bic.w	r2, r3, #3145728	; 0x300000
 c004fac:	687b      	ldr	r3, [r7, #4]
 c004fae:	f8d3 308c 	ldr.w	r3, [r3, #140]	; 0x8c
 c004fb2:	490a      	ldr	r1, [pc, #40]	; (c004fdc <HAL_RCCEx_PeriphCLKConfig+0x704>)
 c004fb4:	4313      	orrs	r3, r2
 c004fb6:	f8c1 309c 	str.w	r3, [r1, #156]	; 0x9c

    if (PeriphClkInit->OspiClockSelection == RCC_OSPICLKSOURCE_PLL)
 c004fba:	687b      	ldr	r3, [r7, #4]
 c004fbc:	f8d3 308c 	ldr.w	r3, [r3, #140]	; 0x8c
 c004fc0:	f5b3 1f00 	cmp.w	r3, #2097152	; 0x200000
 c004fc4:	d105      	bne.n	c004fd2 <HAL_RCCEx_PeriphCLKConfig+0x6fa>
    {
      /* Enable PLL48M1CLK output clock */
      __HAL_RCC_PLLCLKOUT_ENABLE(RCC_PLL_48M1CLK);
 c004fc6:	4b05      	ldr	r3, [pc, #20]	; (c004fdc <HAL_RCCEx_PeriphCLKConfig+0x704>)
 c004fc8:	68db      	ldr	r3, [r3, #12]
 c004fca:	4a04      	ldr	r2, [pc, #16]	; (c004fdc <HAL_RCCEx_PeriphCLKConfig+0x704>)
 c004fcc:	f443 1380 	orr.w	r3, r3, #1048576	; 0x100000
 c004fd0:	60d3      	str	r3, [r2, #12]
    }
  }

  return status;
 c004fd2:	7fbb      	ldrb	r3, [r7, #30]
}
 c004fd4:	4618      	mov	r0, r3
 c004fd6:	3720      	adds	r7, #32
 c004fd8:	46bd      	mov	sp, r7
 c004fda:	bd80      	pop	{r7, pc}
 c004fdc:	50021000 	.word	0x50021000

0c004fe0 <RCCEx_PLLSAI1_Config>:
  * @note   PLLSAI1 is temporary disable to apply new parameters
  *
  * @retval HAL status
  */
static HAL_StatusTypeDef RCCEx_PLLSAI1_Config(RCC_PLLSAI1InitTypeDef *pPllSai1, uint32_t Divider)
{
 c004fe0:	b580      	push	{r7, lr}
 c004fe2:	b084      	sub	sp, #16
 c004fe4:	af00      	add	r7, sp, #0
 c004fe6:	6078      	str	r0, [r7, #4]
 c004fe8:	6039      	str	r1, [r7, #0]
  HAL_StatusTypeDef status = HAL_OK;
 c004fea:	2300      	movs	r3, #0
 c004fec:	73fb      	strb	r3, [r7, #15]
  assert_param(IS_RCC_PLLSAI1M_VALUE(pPllSai1->PLLSAI1M));
  assert_param(IS_RCC_PLLSAI1N_VALUE(pPllSai1->PLLSAI1N));
  assert_param(IS_RCC_PLLSAI1CLOCKOUT_VALUE(pPllSai1->PLLSAI1ClockOut));

  /* Check PLLSAI1 clock source availability */
  switch (pPllSai1->PLLSAI1Source)
 c004fee:	687b      	ldr	r3, [r7, #4]
 c004ff0:	681b      	ldr	r3, [r3, #0]
 c004ff2:	2b03      	cmp	r3, #3
 c004ff4:	d018      	beq.n	c005028 <RCCEx_PLLSAI1_Config+0x48>
 c004ff6:	2b03      	cmp	r3, #3
 c004ff8:	d81f      	bhi.n	c00503a <RCCEx_PLLSAI1_Config+0x5a>
 c004ffa:	2b01      	cmp	r3, #1
 c004ffc:	d002      	beq.n	c005004 <RCCEx_PLLSAI1_Config+0x24>
 c004ffe:	2b02      	cmp	r3, #2
 c005000:	d009      	beq.n	c005016 <RCCEx_PLLSAI1_Config+0x36>
 c005002:	e01a      	b.n	c00503a <RCCEx_PLLSAI1_Config+0x5a>
  {
    case RCC_PLLSOURCE_MSI:
      if (HAL_IS_BIT_CLR(RCC->CR, RCC_CR_MSIRDY))
 c005004:	4b65      	ldr	r3, [pc, #404]	; (c00519c <RCCEx_PLLSAI1_Config+0x1bc>)
 c005006:	681b      	ldr	r3, [r3, #0]
 c005008:	f003 0302 	and.w	r3, r3, #2
 c00500c:	2b00      	cmp	r3, #0
 c00500e:	d117      	bne.n	c005040 <RCCEx_PLLSAI1_Config+0x60>
      {
        status = HAL_ERROR;
 c005010:	2301      	movs	r3, #1
 c005012:	73fb      	strb	r3, [r7, #15]
      }
      break;
 c005014:	e014      	b.n	c005040 <RCCEx_PLLSAI1_Config+0x60>
    case RCC_PLLSOURCE_HSI:
      if (HAL_IS_BIT_CLR(RCC->CR, RCC_CR_HSIRDY))
 c005016:	4b61      	ldr	r3, [pc, #388]	; (c00519c <RCCEx_PLLSAI1_Config+0x1bc>)
 c005018:	681b      	ldr	r3, [r3, #0]
 c00501a:	f403 6380 	and.w	r3, r3, #1024	; 0x400
 c00501e:	2b00      	cmp	r3, #0
 c005020:	d110      	bne.n	c005044 <RCCEx_PLLSAI1_Config+0x64>
      {
        status = HAL_ERROR;
 c005022:	2301      	movs	r3, #1
 c005024:	73fb      	strb	r3, [r7, #15]
      }
      break;
 c005026:	e00d      	b.n	c005044 <RCCEx_PLLSAI1_Config+0x64>
    case RCC_PLLSOURCE_HSE:
      if (HAL_IS_BIT_CLR(RCC->CR, (RCC_CR_HSERDY | RCC_CR_HSEBYP)))
 c005028:	4b5c      	ldr	r3, [pc, #368]	; (c00519c <RCCEx_PLLSAI1_Config+0x1bc>)
 c00502a:	681b      	ldr	r3, [r3, #0]
 c00502c:	f403 23c0 	and.w	r3, r3, #393216	; 0x60000
 c005030:	2b00      	cmp	r3, #0
 c005032:	d109      	bne.n	c005048 <RCCEx_PLLSAI1_Config+0x68>
      {
        status = HAL_ERROR;
 c005034:	2301      	movs	r3, #1
 c005036:	73fb      	strb	r3, [r7, #15]
      }
      break;
 c005038:	e006      	b.n	c005048 <RCCEx_PLLSAI1_Config+0x68>
    default:
      status = HAL_ERROR;
 c00503a:	2301      	movs	r3, #1
 c00503c:	73fb      	strb	r3, [r7, #15]
      break;
 c00503e:	e004      	b.n	c00504a <RCCEx_PLLSAI1_Config+0x6a>
      break;
 c005040:	bf00      	nop
 c005042:	e002      	b.n	c00504a <RCCEx_PLLSAI1_Config+0x6a>
      break;
 c005044:	bf00      	nop
 c005046:	e000      	b.n	c00504a <RCCEx_PLLSAI1_Config+0x6a>
      break;
 c005048:	bf00      	nop
  }

  if (status == HAL_OK)
 c00504a:	7bfb      	ldrb	r3, [r7, #15]
 c00504c:	2b00      	cmp	r3, #0
 c00504e:	f040 809f 	bne.w	c005190 <RCCEx_PLLSAI1_Config+0x1b0>
  {
    /* Disable the PLLSAI1 */
    __HAL_RCC_PLLSAI1_DISABLE();
 c005052:	4b52      	ldr	r3, [pc, #328]	; (c00519c <RCCEx_PLLSAI1_Config+0x1bc>)
 c005054:	681b      	ldr	r3, [r3, #0]
 c005056:	4a51      	ldr	r2, [pc, #324]	; (c00519c <RCCEx_PLLSAI1_Config+0x1bc>)
 c005058:	f023 6380 	bic.w	r3, r3, #67108864	; 0x4000000
 c00505c:	6013      	str	r3, [r2, #0]

    /* Get Start Tick*/
    tickstart = HAL_GetTick();
 c00505e:	f7fd f82f 	bl	c0020c0 <HAL_GetTick>
 c005062:	60b8      	str	r0, [r7, #8]

    /* Wait till PLLSAI1 is ready to be updated */
    while (READ_BIT(RCC->CR, RCC_CR_PLLSAI1RDY) != 0U)
 c005064:	e00f      	b.n	c005086 <RCCEx_PLLSAI1_Config+0xa6>
    {
      if ((HAL_GetTick() - tickstart) > PLLSAI1_TIMEOUT_VALUE)
 c005066:	f7fd f82b 	bl	c0020c0 <HAL_GetTick>
 c00506a:	4602      	mov	r2, r0
 c00506c:	68bb      	ldr	r3, [r7, #8]
 c00506e:	1ad3      	subs	r3, r2, r3
 c005070:	2b02      	cmp	r3, #2
 c005072:	d908      	bls.n	c005086 <RCCEx_PLLSAI1_Config+0xa6>
      {
        /* New check to avoid false timeout detection in case of preemption */
        if (READ_BIT(RCC->CR, RCC_CR_PLLSAI1RDY) != 0U)
 c005074:	4b49      	ldr	r3, [pc, #292]	; (c00519c <RCCEx_PLLSAI1_Config+0x1bc>)
 c005076:	681b      	ldr	r3, [r3, #0]
 c005078:	f003 6300 	and.w	r3, r3, #134217728	; 0x8000000
 c00507c:	2b00      	cmp	r3, #0
 c00507e:	d009      	beq.n	c005094 <RCCEx_PLLSAI1_Config+0xb4>
        {
          status = HAL_TIMEOUT;
 c005080:	2303      	movs	r3, #3
 c005082:	73fb      	strb	r3, [r7, #15]
        }
        break;
 c005084:	e006      	b.n	c005094 <RCCEx_PLLSAI1_Config+0xb4>
    while (READ_BIT(RCC->CR, RCC_CR_PLLSAI1RDY) != 0U)
 c005086:	4b45      	ldr	r3, [pc, #276]	; (c00519c <RCCEx_PLLSAI1_Config+0x1bc>)
 c005088:	681b      	ldr	r3, [r3, #0]
 c00508a:	f003 6300 	and.w	r3, r3, #134217728	; 0x8000000
 c00508e:	2b00      	cmp	r3, #0
 c005090:	d1e9      	bne.n	c005066 <RCCEx_PLLSAI1_Config+0x86>
 c005092:	e000      	b.n	c005096 <RCCEx_PLLSAI1_Config+0xb6>
        break;
 c005094:	bf00      	nop
      }
    }

    if (status == HAL_OK)
 c005096:	7bfb      	ldrb	r3, [r7, #15]
 c005098:	2b00      	cmp	r3, #0
 c00509a:	d179      	bne.n	c005190 <RCCEx_PLLSAI1_Config+0x1b0>
    {
      if (Divider == DIVIDER_P_UPDATE)
 c00509c:	683b      	ldr	r3, [r7, #0]
 c00509e:	2b00      	cmp	r3, #0
 c0050a0:	d116      	bne.n	c0050d0 <RCCEx_PLLSAI1_Config+0xf0>
      {
        assert_param(IS_RCC_PLLSAI1P_VALUE(pPllSai1->PLLSAI1P));

        /* Configure the PLLSAI1 Division factor M, P and Multiplication factor N*/
        MODIFY_REG(RCC->PLLSAI1CFGR,
 c0050a2:	4b3e      	ldr	r3, [pc, #248]	; (c00519c <RCCEx_PLLSAI1_Config+0x1bc>)
 c0050a4:	691a      	ldr	r2, [r3, #16]
 c0050a6:	4b3e      	ldr	r3, [pc, #248]	; (c0051a0 <RCCEx_PLLSAI1_Config+0x1c0>)
 c0050a8:	4013      	ands	r3, r2
 c0050aa:	687a      	ldr	r2, [r7, #4]
 c0050ac:	6892      	ldr	r2, [r2, #8]
 c0050ae:	0211      	lsls	r1, r2, #8
 c0050b0:	687a      	ldr	r2, [r7, #4]
 c0050b2:	68d2      	ldr	r2, [r2, #12]
 c0050b4:	06d2      	lsls	r2, r2, #27
 c0050b6:	4311      	orrs	r1, r2
 c0050b8:	687a      	ldr	r2, [r7, #4]
 c0050ba:	6852      	ldr	r2, [r2, #4]
 c0050bc:	3a01      	subs	r2, #1
 c0050be:	0112      	lsls	r2, r2, #4
 c0050c0:	4311      	orrs	r1, r2
 c0050c2:	687a      	ldr	r2, [r7, #4]
 c0050c4:	6812      	ldr	r2, [r2, #0]
 c0050c6:	430a      	orrs	r2, r1
 c0050c8:	4934      	ldr	r1, [pc, #208]	; (c00519c <RCCEx_PLLSAI1_Config+0x1bc>)
 c0050ca:	4313      	orrs	r3, r2
 c0050cc:	610b      	str	r3, [r1, #16]
 c0050ce:	e033      	b.n	c005138 <RCCEx_PLLSAI1_Config+0x158>
                   (pPllSai1->PLLSAI1N << RCC_PLLSAI1CFGR_PLLSAI1N_Pos) |
                   (pPllSai1->PLLSAI1P << RCC_PLLSAI1CFGR_PLLSAI1PDIV_Pos) |
                   ((pPllSai1->PLLSAI1M - 1U) << RCC_PLLSAI1CFGR_PLLSAI1M_Pos) |
                   pPllSai1->PLLSAI1Source);
      }
      else if (Divider == DIVIDER_Q_UPDATE)
 c0050d0:	683b      	ldr	r3, [r7, #0]
 c0050d2:	2b01      	cmp	r3, #1
 c0050d4:	d118      	bne.n	c005108 <RCCEx_PLLSAI1_Config+0x128>
      {
        assert_param(IS_RCC_PLLSAI1Q_VALUE(pPllSai1->PLLSAI1Q));

        /* Configure the PLLSAI1 Division factor M, Q and Multiplication factor N*/
        MODIFY_REG(RCC->PLLSAI1CFGR,
 c0050d6:	4b31      	ldr	r3, [pc, #196]	; (c00519c <RCCEx_PLLSAI1_Config+0x1bc>)
 c0050d8:	691a      	ldr	r2, [r3, #16]
 c0050da:	4b32      	ldr	r3, [pc, #200]	; (c0051a4 <RCCEx_PLLSAI1_Config+0x1c4>)
 c0050dc:	4013      	ands	r3, r2
 c0050de:	687a      	ldr	r2, [r7, #4]
 c0050e0:	6892      	ldr	r2, [r2, #8]
 c0050e2:	0211      	lsls	r1, r2, #8
 c0050e4:	687a      	ldr	r2, [r7, #4]
 c0050e6:	6912      	ldr	r2, [r2, #16]
 c0050e8:	0852      	lsrs	r2, r2, #1
 c0050ea:	3a01      	subs	r2, #1
 c0050ec:	0552      	lsls	r2, r2, #21
 c0050ee:	4311      	orrs	r1, r2
 c0050f0:	687a      	ldr	r2, [r7, #4]
 c0050f2:	6852      	ldr	r2, [r2, #4]
 c0050f4:	3a01      	subs	r2, #1
 c0050f6:	0112      	lsls	r2, r2, #4
 c0050f8:	4311      	orrs	r1, r2
 c0050fa:	687a      	ldr	r2, [r7, #4]
 c0050fc:	6812      	ldr	r2, [r2, #0]
 c0050fe:	430a      	orrs	r2, r1
 c005100:	4926      	ldr	r1, [pc, #152]	; (c00519c <RCCEx_PLLSAI1_Config+0x1bc>)
 c005102:	4313      	orrs	r3, r2
 c005104:	610b      	str	r3, [r1, #16]
 c005106:	e017      	b.n	c005138 <RCCEx_PLLSAI1_Config+0x158>
      else
      {
        assert_param(IS_RCC_PLLSAI1R_VALUE(pPllSai1->PLLSAI1R));

        /* Configure the PLLSAI1 Division factor M, R and Multiplication factor N*/
        MODIFY_REG(RCC->PLLSAI1CFGR,
 c005108:	4b24      	ldr	r3, [pc, #144]	; (c00519c <RCCEx_PLLSAI1_Config+0x1bc>)
 c00510a:	691a      	ldr	r2, [r3, #16]
 c00510c:	4b26      	ldr	r3, [pc, #152]	; (c0051a8 <RCCEx_PLLSAI1_Config+0x1c8>)
 c00510e:	4013      	ands	r3, r2
 c005110:	687a      	ldr	r2, [r7, #4]
 c005112:	6892      	ldr	r2, [r2, #8]
 c005114:	0211      	lsls	r1, r2, #8
 c005116:	687a      	ldr	r2, [r7, #4]
 c005118:	6952      	ldr	r2, [r2, #20]
 c00511a:	0852      	lsrs	r2, r2, #1
 c00511c:	3a01      	subs	r2, #1
 c00511e:	0652      	lsls	r2, r2, #25
 c005120:	4311      	orrs	r1, r2
 c005122:	687a      	ldr	r2, [r7, #4]
 c005124:	6852      	ldr	r2, [r2, #4]
 c005126:	3a01      	subs	r2, #1
 c005128:	0112      	lsls	r2, r2, #4
 c00512a:	4311      	orrs	r1, r2
 c00512c:	687a      	ldr	r2, [r7, #4]
 c00512e:	6812      	ldr	r2, [r2, #0]
 c005130:	430a      	orrs	r2, r1
 c005132:	491a      	ldr	r1, [pc, #104]	; (c00519c <RCCEx_PLLSAI1_Config+0x1bc>)
 c005134:	4313      	orrs	r3, r2
 c005136:	610b      	str	r3, [r1, #16]
                   ((pPllSai1->PLLSAI1M - 1U) << RCC_PLLSAI1CFGR_PLLSAI1M_Pos) |
                   pPllSai1->PLLSAI1Source);
      }

      /* Enable the PLLSAI1 again by setting PLLSAI1ON to 1*/
      __HAL_RCC_PLLSAI1_ENABLE();
 c005138:	4b18      	ldr	r3, [pc, #96]	; (c00519c <RCCEx_PLLSAI1_Config+0x1bc>)
 c00513a:	681b      	ldr	r3, [r3, #0]
 c00513c:	4a17      	ldr	r2, [pc, #92]	; (c00519c <RCCEx_PLLSAI1_Config+0x1bc>)
 c00513e:	f043 6380 	orr.w	r3, r3, #67108864	; 0x4000000
 c005142:	6013      	str	r3, [r2, #0]

      /* Get Start Tick*/
      tickstart = HAL_GetTick();
 c005144:	f7fc ffbc 	bl	c0020c0 <HAL_GetTick>
 c005148:	60b8      	str	r0, [r7, #8]

      /* Wait till PLLSAI1 is ready */
      while (READ_BIT(RCC->CR, RCC_CR_PLLSAI1RDY) == 0U)
 c00514a:	e00f      	b.n	c00516c <RCCEx_PLLSAI1_Config+0x18c>
      {
        if ((HAL_GetTick() - tickstart) > PLLSAI1_TIMEOUT_VALUE)
 c00514c:	f7fc ffb8 	bl	c0020c0 <HAL_GetTick>
 c005150:	4602      	mov	r2, r0
 c005152:	68bb      	ldr	r3, [r7, #8]
 c005154:	1ad3      	subs	r3, r2, r3
 c005156:	2b02      	cmp	r3, #2
 c005158:	d908      	bls.n	c00516c <RCCEx_PLLSAI1_Config+0x18c>
        {
          /* New check to avoid false timeout detection in case of preemption */
          if (READ_BIT(RCC->CR, RCC_CR_PLLSAI1RDY) == 0U)
 c00515a:	4b10      	ldr	r3, [pc, #64]	; (c00519c <RCCEx_PLLSAI1_Config+0x1bc>)
 c00515c:	681b      	ldr	r3, [r3, #0]
 c00515e:	f003 6300 	and.w	r3, r3, #134217728	; 0x8000000
 c005162:	2b00      	cmp	r3, #0
 c005164:	d109      	bne.n	c00517a <RCCEx_PLLSAI1_Config+0x19a>
          {
            status = HAL_TIMEOUT;
 c005166:	2303      	movs	r3, #3
 c005168:	73fb      	strb	r3, [r7, #15]
          }
          break;
 c00516a:	e006      	b.n	c00517a <RCCEx_PLLSAI1_Config+0x19a>
      while (READ_BIT(RCC->CR, RCC_CR_PLLSAI1RDY) == 0U)
 c00516c:	4b0b      	ldr	r3, [pc, #44]	; (c00519c <RCCEx_PLLSAI1_Config+0x1bc>)
 c00516e:	681b      	ldr	r3, [r3, #0]
 c005170:	f003 6300 	and.w	r3, r3, #134217728	; 0x8000000
 c005174:	2b00      	cmp	r3, #0
 c005176:	d0e9      	beq.n	c00514c <RCCEx_PLLSAI1_Config+0x16c>
 c005178:	e000      	b.n	c00517c <RCCEx_PLLSAI1_Config+0x19c>
          break;
 c00517a:	bf00      	nop
        }
      }

      if (status == HAL_OK)
 c00517c:	7bfb      	ldrb	r3, [r7, #15]
 c00517e:	2b00      	cmp	r3, #0
 c005180:	d106      	bne.n	c005190 <RCCEx_PLLSAI1_Config+0x1b0>
      {
        /* Configure the PLLSAI1 Clock output(s) */
        __HAL_RCC_PLLSAI1CLKOUT_ENABLE(pPllSai1->PLLSAI1ClockOut);
 c005182:	4b06      	ldr	r3, [pc, #24]	; (c00519c <RCCEx_PLLSAI1_Config+0x1bc>)
 c005184:	691a      	ldr	r2, [r3, #16]
 c005186:	687b      	ldr	r3, [r7, #4]
 c005188:	699b      	ldr	r3, [r3, #24]
 c00518a:	4904      	ldr	r1, [pc, #16]	; (c00519c <RCCEx_PLLSAI1_Config+0x1bc>)
 c00518c:	4313      	orrs	r3, r2
 c00518e:	610b      	str	r3, [r1, #16]
      }
    }
  }

  return status;
 c005190:	7bfb      	ldrb	r3, [r7, #15]
}
 c005192:	4618      	mov	r0, r3
 c005194:	3710      	adds	r7, #16
 c005196:	46bd      	mov	sp, r7
 c005198:	bd80      	pop	{r7, pc}
 c00519a:	bf00      	nop
 c00519c:	50021000 	.word	0x50021000
 c0051a0:	07ff800c 	.word	0x07ff800c
 c0051a4:	ff9f800c 	.word	0xff9f800c
 c0051a8:	f9ff800c 	.word	0xf9ff800c

0c0051ac <RCCEx_PLLSAI2_Config>:
  * @note   PLLSAI2 is temporary disable to apply new parameters
  *
  * @retval HAL status
  */
static HAL_StatusTypeDef RCCEx_PLLSAI2_Config(RCC_PLLSAI2InitTypeDef *pPllSai2, uint32_t Divider)
{
 c0051ac:	b580      	push	{r7, lr}
 c0051ae:	b084      	sub	sp, #16
 c0051b0:	af00      	add	r7, sp, #0
 c0051b2:	6078      	str	r0, [r7, #4]
 c0051b4:	6039      	str	r1, [r7, #0]
  HAL_StatusTypeDef status = HAL_OK;
 c0051b6:	2300      	movs	r3, #0
 c0051b8:	73fb      	strb	r3, [r7, #15]
  assert_param(IS_RCC_PLLSAI2M_VALUE(pPllSai2->PLLSAI2M));
  assert_param(IS_RCC_PLLSAI2N_VALUE(pPllSai2->PLLSAI2N));
  assert_param(IS_RCC_PLLSAI2CLOCKOUT_VALUE(pPllSai2->PLLSAI2ClockOut));

  /* Check PLLSAI2 clock source availability */
  switch (pPllSai2->PLLSAI2Source)
 c0051ba:	687b      	ldr	r3, [r7, #4]
 c0051bc:	681b      	ldr	r3, [r3, #0]
 c0051be:	2b03      	cmp	r3, #3
 c0051c0:	d018      	beq.n	c0051f4 <RCCEx_PLLSAI2_Config+0x48>
 c0051c2:	2b03      	cmp	r3, #3
 c0051c4:	d81f      	bhi.n	c005206 <RCCEx_PLLSAI2_Config+0x5a>
 c0051c6:	2b01      	cmp	r3, #1
 c0051c8:	d002      	beq.n	c0051d0 <RCCEx_PLLSAI2_Config+0x24>
 c0051ca:	2b02      	cmp	r3, #2
 c0051cc:	d009      	beq.n	c0051e2 <RCCEx_PLLSAI2_Config+0x36>
 c0051ce:	e01a      	b.n	c005206 <RCCEx_PLLSAI2_Config+0x5a>
  {
    case RCC_PLLSOURCE_MSI:
      if (HAL_IS_BIT_CLR(RCC->CR, RCC_CR_MSIRDY))
 c0051d0:	4b4a      	ldr	r3, [pc, #296]	; (c0052fc <RCCEx_PLLSAI2_Config+0x150>)
 c0051d2:	681b      	ldr	r3, [r3, #0]
 c0051d4:	f003 0302 	and.w	r3, r3, #2
 c0051d8:	2b00      	cmp	r3, #0
 c0051da:	d117      	bne.n	c00520c <RCCEx_PLLSAI2_Config+0x60>
      {
        status = HAL_ERROR;
 c0051dc:	2301      	movs	r3, #1
 c0051de:	73fb      	strb	r3, [r7, #15]
      }
      break;
 c0051e0:	e014      	b.n	c00520c <RCCEx_PLLSAI2_Config+0x60>
    case RCC_PLLSOURCE_HSI:
      if (HAL_IS_BIT_CLR(RCC->CR, RCC_CR_HSIRDY))
 c0051e2:	4b46      	ldr	r3, [pc, #280]	; (c0052fc <RCCEx_PLLSAI2_Config+0x150>)
 c0051e4:	681b      	ldr	r3, [r3, #0]
 c0051e6:	f403 6380 	and.w	r3, r3, #1024	; 0x400
 c0051ea:	2b00      	cmp	r3, #0
 c0051ec:	d110      	bne.n	c005210 <RCCEx_PLLSAI2_Config+0x64>
      {
        status = HAL_ERROR;
 c0051ee:	2301      	movs	r3, #1
 c0051f0:	73fb      	strb	r3, [r7, #15]
      }
      break;
 c0051f2:	e00d      	b.n	c005210 <RCCEx_PLLSAI2_Config+0x64>
    case RCC_PLLSOURCE_HSE:
      if (HAL_IS_BIT_CLR(RCC->CR, (RCC_CR_HSERDY | RCC_CR_HSEBYP)))
 c0051f4:	4b41      	ldr	r3, [pc, #260]	; (c0052fc <RCCEx_PLLSAI2_Config+0x150>)
 c0051f6:	681b      	ldr	r3, [r3, #0]
 c0051f8:	f403 23c0 	and.w	r3, r3, #393216	; 0x60000
 c0051fc:	2b00      	cmp	r3, #0
 c0051fe:	d109      	bne.n	c005214 <RCCEx_PLLSAI2_Config+0x68>
      {
        status = HAL_ERROR;
 c005200:	2301      	movs	r3, #1
 c005202:	73fb      	strb	r3, [r7, #15]
      }
      break;
 c005204:	e006      	b.n	c005214 <RCCEx_PLLSAI2_Config+0x68>
    default:
      status = HAL_ERROR;
 c005206:	2301      	movs	r3, #1
 c005208:	73fb      	strb	r3, [r7, #15]
      break;
 c00520a:	e004      	b.n	c005216 <RCCEx_PLLSAI2_Config+0x6a>
      break;
 c00520c:	bf00      	nop
 c00520e:	e002      	b.n	c005216 <RCCEx_PLLSAI2_Config+0x6a>
      break;
 c005210:	bf00      	nop
 c005212:	e000      	b.n	c005216 <RCCEx_PLLSAI2_Config+0x6a>
      break;
 c005214:	bf00      	nop
  }

  if (status == HAL_OK)
 c005216:	7bfb      	ldrb	r3, [r7, #15]
 c005218:	2b00      	cmp	r3, #0
 c00521a:	d169      	bne.n	c0052f0 <RCCEx_PLLSAI2_Config+0x144>
  {
    /* Disable the PLLSAI2 */
    __HAL_RCC_PLLSAI2_DISABLE();
 c00521c:	4b37      	ldr	r3, [pc, #220]	; (c0052fc <RCCEx_PLLSAI2_Config+0x150>)
 c00521e:	681b      	ldr	r3, [r3, #0]
 c005220:	4a36      	ldr	r2, [pc, #216]	; (c0052fc <RCCEx_PLLSAI2_Config+0x150>)
 c005222:	f023 5380 	bic.w	r3, r3, #268435456	; 0x10000000
 c005226:	6013      	str	r3, [r2, #0]

    /* Get Start Tick*/
    tickstart = HAL_GetTick();
 c005228:	f7fc ff4a 	bl	c0020c0 <HAL_GetTick>
 c00522c:	60b8      	str	r0, [r7, #8]

    /* Wait till PLLSAI2 is ready to be updated */
    while (READ_BIT(RCC->CR, RCC_CR_PLLSAI2RDY) != 0U)
 c00522e:	e00f      	b.n	c005250 <RCCEx_PLLSAI2_Config+0xa4>
    {
      if ((HAL_GetTick() - tickstart) > PLLSAI2_TIMEOUT_VALUE)
 c005230:	f7fc ff46 	bl	c0020c0 <HAL_GetTick>
 c005234:	4602      	mov	r2, r0
 c005236:	68bb      	ldr	r3, [r7, #8]
 c005238:	1ad3      	subs	r3, r2, r3
 c00523a:	2b02      	cmp	r3, #2
 c00523c:	d908      	bls.n	c005250 <RCCEx_PLLSAI2_Config+0xa4>
      {
        /* New check to avoid false timeout detection in case of preemption */
        if (READ_BIT(RCC->CR, RCC_CR_PLLSAI2RDY) != 0U)
 c00523e:	4b2f      	ldr	r3, [pc, #188]	; (c0052fc <RCCEx_PLLSAI2_Config+0x150>)
 c005240:	681b      	ldr	r3, [r3, #0]
 c005242:	f003 5300 	and.w	r3, r3, #536870912	; 0x20000000
 c005246:	2b00      	cmp	r3, #0
 c005248:	d009      	beq.n	c00525e <RCCEx_PLLSAI2_Config+0xb2>
        {
          status = HAL_TIMEOUT;
 c00524a:	2303      	movs	r3, #3
 c00524c:	73fb      	strb	r3, [r7, #15]
        }
        break;
 c00524e:	e006      	b.n	c00525e <RCCEx_PLLSAI2_Config+0xb2>
    while (READ_BIT(RCC->CR, RCC_CR_PLLSAI2RDY) != 0U)
 c005250:	4b2a      	ldr	r3, [pc, #168]	; (c0052fc <RCCEx_PLLSAI2_Config+0x150>)
 c005252:	681b      	ldr	r3, [r3, #0]
 c005254:	f003 5300 	and.w	r3, r3, #536870912	; 0x20000000
 c005258:	2b00      	cmp	r3, #0
 c00525a:	d1e9      	bne.n	c005230 <RCCEx_PLLSAI2_Config+0x84>
 c00525c:	e000      	b.n	c005260 <RCCEx_PLLSAI2_Config+0xb4>
        break;
 c00525e:	bf00      	nop
      }
    }

    if (status == HAL_OK)
 c005260:	7bfb      	ldrb	r3, [r7, #15]
 c005262:	2b00      	cmp	r3, #0
 c005264:	d144      	bne.n	c0052f0 <RCCEx_PLLSAI2_Config+0x144>
    {
      if (Divider == DIVIDER_P_UPDATE)
 c005266:	683b      	ldr	r3, [r7, #0]
 c005268:	2b00      	cmp	r3, #0
 c00526a:	d115      	bne.n	c005298 <RCCEx_PLLSAI2_Config+0xec>
      {
        assert_param(IS_RCC_PLLSAI2P_VALUE(pPllSai2->PLLSAI2P));

        /* Configure the PLLSAI2 Division factor M, P and Multiplication factor N*/
        MODIFY_REG(RCC->PLLSAI2CFGR,
 c00526c:	4b23      	ldr	r3, [pc, #140]	; (c0052fc <RCCEx_PLLSAI2_Config+0x150>)
 c00526e:	695a      	ldr	r2, [r3, #20]
 c005270:	4b23      	ldr	r3, [pc, #140]	; (c005300 <RCCEx_PLLSAI2_Config+0x154>)
 c005272:	4013      	ands	r3, r2
 c005274:	687a      	ldr	r2, [r7, #4]
 c005276:	6892      	ldr	r2, [r2, #8]
 c005278:	0211      	lsls	r1, r2, #8
 c00527a:	687a      	ldr	r2, [r7, #4]
 c00527c:	68d2      	ldr	r2, [r2, #12]
 c00527e:	06d2      	lsls	r2, r2, #27
 c005280:	4311      	orrs	r1, r2
 c005282:	687a      	ldr	r2, [r7, #4]
 c005284:	6852      	ldr	r2, [r2, #4]
 c005286:	3a01      	subs	r2, #1
 c005288:	0112      	lsls	r2, r2, #4
 c00528a:	4311      	orrs	r1, r2
 c00528c:	687a      	ldr	r2, [r7, #4]
 c00528e:	6812      	ldr	r2, [r2, #0]
 c005290:	430a      	orrs	r2, r1
 c005292:	491a      	ldr	r1, [pc, #104]	; (c0052fc <RCCEx_PLLSAI2_Config+0x150>)
 c005294:	4313      	orrs	r3, r2
 c005296:	614b      	str	r3, [r1, #20]
                   pPllSai2->PLLSAI2Source);

      }

      /* Enable the PLLSAI2 again by setting PLLSAI2ON to 1*/
      __HAL_RCC_PLLSAI2_ENABLE();
 c005298:	4b18      	ldr	r3, [pc, #96]	; (c0052fc <RCCEx_PLLSAI2_Config+0x150>)
 c00529a:	681b      	ldr	r3, [r3, #0]
 c00529c:	4a17      	ldr	r2, [pc, #92]	; (c0052fc <RCCEx_PLLSAI2_Config+0x150>)
 c00529e:	f043 5380 	orr.w	r3, r3, #268435456	; 0x10000000
 c0052a2:	6013      	str	r3, [r2, #0]

      /* Get Start Tick*/
      tickstart = HAL_GetTick();
 c0052a4:	f7fc ff0c 	bl	c0020c0 <HAL_GetTick>
 c0052a8:	60b8      	str	r0, [r7, #8]

      /* Wait till PLLSAI2 is ready */
      while (READ_BIT(RCC->CR, RCC_CR_PLLSAI2RDY) == 0U)
 c0052aa:	e00f      	b.n	c0052cc <RCCEx_PLLSAI2_Config+0x120>
      {
        if ((HAL_GetTick() - tickstart) > PLLSAI2_TIMEOUT_VALUE)
 c0052ac:	f7fc ff08 	bl	c0020c0 <HAL_GetTick>
 c0052b0:	4602      	mov	r2, r0
 c0052b2:	68bb      	ldr	r3, [r7, #8]
 c0052b4:	1ad3      	subs	r3, r2, r3
 c0052b6:	2b02      	cmp	r3, #2
 c0052b8:	d908      	bls.n	c0052cc <RCCEx_PLLSAI2_Config+0x120>
        {
          /* New check to avoid false timeout detection in case of preemption */
          if (READ_BIT(RCC->CR, RCC_CR_PLLSAI2RDY) == 0U)
 c0052ba:	4b10      	ldr	r3, [pc, #64]	; (c0052fc <RCCEx_PLLSAI2_Config+0x150>)
 c0052bc:	681b      	ldr	r3, [r3, #0]
 c0052be:	f003 5300 	and.w	r3, r3, #536870912	; 0x20000000
 c0052c2:	2b00      	cmp	r3, #0
 c0052c4:	d109      	bne.n	c0052da <RCCEx_PLLSAI2_Config+0x12e>
          {
            status = HAL_TIMEOUT;
 c0052c6:	2303      	movs	r3, #3
 c0052c8:	73fb      	strb	r3, [r7, #15]
          }
          break;
 c0052ca:	e006      	b.n	c0052da <RCCEx_PLLSAI2_Config+0x12e>
      while (READ_BIT(RCC->CR, RCC_CR_PLLSAI2RDY) == 0U)
 c0052cc:	4b0b      	ldr	r3, [pc, #44]	; (c0052fc <RCCEx_PLLSAI2_Config+0x150>)
 c0052ce:	681b      	ldr	r3, [r3, #0]
 c0052d0:	f003 5300 	and.w	r3, r3, #536870912	; 0x20000000
 c0052d4:	2b00      	cmp	r3, #0
 c0052d6:	d0e9      	beq.n	c0052ac <RCCEx_PLLSAI2_Config+0x100>
 c0052d8:	e000      	b.n	c0052dc <RCCEx_PLLSAI2_Config+0x130>
          break;
 c0052da:	bf00      	nop
        }
      }

      if (status == HAL_OK)
 c0052dc:	7bfb      	ldrb	r3, [r7, #15]
 c0052de:	2b00      	cmp	r3, #0
 c0052e0:	d106      	bne.n	c0052f0 <RCCEx_PLLSAI2_Config+0x144>
      {
        /* Configure the PLLSAI2 Clock output(s) */
        __HAL_RCC_PLLSAI2CLKOUT_ENABLE(pPllSai2->PLLSAI2ClockOut);
 c0052e2:	4b06      	ldr	r3, [pc, #24]	; (c0052fc <RCCEx_PLLSAI2_Config+0x150>)
 c0052e4:	695a      	ldr	r2, [r3, #20]
 c0052e6:	687b      	ldr	r3, [r7, #4]
 c0052e8:	691b      	ldr	r3, [r3, #16]
 c0052ea:	4904      	ldr	r1, [pc, #16]	; (c0052fc <RCCEx_PLLSAI2_Config+0x150>)
 c0052ec:	4313      	orrs	r3, r2
 c0052ee:	614b      	str	r3, [r1, #20]
      }
    }
  }

  return status;
 c0052f0:	7bfb      	ldrb	r3, [r7, #15]
}
 c0052f2:	4618      	mov	r0, r3
 c0052f4:	3710      	adds	r7, #16
 c0052f6:	46bd      	mov	sp, r7
 c0052f8:	bd80      	pop	{r7, pc}
 c0052fa:	bf00      	nop
 c0052fc:	50021000 	.word	0x50021000
 c005300:	07ff800c 	.word	0x07ff800c

0c005304 <HAL_SPI_Init>:
  * @param  hspi pointer to a SPI_HandleTypeDef structure that contains
  *               the configuration information for SPI module.
  * @retval HAL status
  */
HAL_StatusTypeDef HAL_SPI_Init(SPI_HandleTypeDef *hspi)
{
 c005304:	b580      	push	{r7, lr}
 c005306:	b084      	sub	sp, #16
 c005308:	af00      	add	r7, sp, #0
 c00530a:	6078      	str	r0, [r7, #4]
  uint32_t frxth;

  /* Check the SPI handle allocation */
  if (hspi == NULL)
 c00530c:	687b      	ldr	r3, [r7, #4]
 c00530e:	2b00      	cmp	r3, #0
 c005310:	d101      	bne.n	c005316 <HAL_SPI_Init+0x12>
  {
    return HAL_ERROR;
 c005312:	2301      	movs	r3, #1
 c005314:	e095      	b.n	c005442 <HAL_SPI_Init+0x13e>
  assert_param(IS_SPI_NSS(hspi->Init.NSS));
  assert_param(IS_SPI_NSSP(hspi->Init.NSSPMode));
  assert_param(IS_SPI_BAUDRATE_PRESCALER(hspi->Init.BaudRatePrescaler));
  assert_param(IS_SPI_FIRST_BIT(hspi->Init.FirstBit));
  assert_param(IS_SPI_TIMODE(hspi->Init.TIMode));
  if (hspi->Init.TIMode == SPI_TIMODE_DISABLE)
 c005316:	687b      	ldr	r3, [r7, #4]
 c005318:	6a5b      	ldr	r3, [r3, #36]	; 0x24
 c00531a:	2b00      	cmp	r3, #0
 c00531c:	d108      	bne.n	c005330 <HAL_SPI_Init+0x2c>
  {
    assert_param(IS_SPI_CPOL(hspi->Init.CLKPolarity));
    assert_param(IS_SPI_CPHA(hspi->Init.CLKPhase));

    if (hspi->Init.Mode == SPI_MODE_MASTER)
 c00531e:	687b      	ldr	r3, [r7, #4]
 c005320:	685b      	ldr	r3, [r3, #4]
 c005322:	f5b3 7f82 	cmp.w	r3, #260	; 0x104
 c005326:	d009      	beq.n	c00533c <HAL_SPI_Init+0x38>
      assert_param(IS_SPI_BAUDRATE_PRESCALER(hspi->Init.BaudRatePrescaler));
    }
    else
    {
      /* Baudrate prescaler not use in Motoraola Slave mode. force to default value */
      hspi->Init.BaudRatePrescaler = SPI_BAUDRATEPRESCALER_2;
 c005328:	687b      	ldr	r3, [r7, #4]
 c00532a:	2200      	movs	r2, #0
 c00532c:	61da      	str	r2, [r3, #28]
 c00532e:	e005      	b.n	c00533c <HAL_SPI_Init+0x38>
  else
  {
    assert_param(IS_SPI_BAUDRATE_PRESCALER(hspi->Init.BaudRatePrescaler));

    /* Force polarity and phase to TI protocaol requirements */
    hspi->Init.CLKPolarity = SPI_POLARITY_LOW;
 c005330:	687b      	ldr	r3, [r7, #4]
 c005332:	2200      	movs	r2, #0
 c005334:	611a      	str	r2, [r3, #16]
    hspi->Init.CLKPhase    = SPI_PHASE_1EDGE;
 c005336:	687b      	ldr	r3, [r7, #4]
 c005338:	2200      	movs	r2, #0
 c00533a:	615a      	str	r2, [r3, #20]
  {
    assert_param(IS_SPI_CRC_POLYNOMIAL(hspi->Init.CRCPolynomial));
    assert_param(IS_SPI_CRC_LENGTH(hspi->Init.CRCLength));
  }
#else
  hspi->Init.CRCCalculation = SPI_CRCCALCULATION_DISABLE;
 c00533c:	687b      	ldr	r3, [r7, #4]
 c00533e:	2200      	movs	r2, #0
 c005340:	629a      	str	r2, [r3, #40]	; 0x28
#endif /* USE_SPI_CRC */

  if (hspi->State == HAL_SPI_STATE_RESET)
 c005342:	687b      	ldr	r3, [r7, #4]
 c005344:	f893 305d 	ldrb.w	r3, [r3, #93]	; 0x5d
 c005348:	b2db      	uxtb	r3, r3
 c00534a:	2b00      	cmp	r3, #0
 c00534c:	d106      	bne.n	c00535c <HAL_SPI_Init+0x58>
  {
    /* Allocate lock resource and initialize it */
    hspi->Lock = HAL_UNLOCKED;
 c00534e:	687b      	ldr	r3, [r7, #4]
 c005350:	2200      	movs	r2, #0
 c005352:	f883 205c 	strb.w	r2, [r3, #92]	; 0x5c

    /* Init the low level hardware : GPIO, CLOCK, NVIC... */
    hspi->MspInitCallback(hspi);
#else
    /* Init the low level hardware : GPIO, CLOCK, NVIC... */
    HAL_SPI_MspInit(hspi);
 c005356:	6878      	ldr	r0, [r7, #4]
 c005358:	f7fc fa30 	bl	c0017bc <HAL_SPI_MspInit>
#endif /* USE_HAL_SPI_REGISTER_CALLBACKS */
  }

  hspi->State = HAL_SPI_STATE_BUSY;
 c00535c:	687b      	ldr	r3, [r7, #4]
 c00535e:	2202      	movs	r2, #2
 c005360:	f883 205d 	strb.w	r2, [r3, #93]	; 0x5d

  /* Disable the selected SPI peripheral */
  __HAL_SPI_DISABLE(hspi);
 c005364:	687b      	ldr	r3, [r7, #4]
 c005366:	681b      	ldr	r3, [r3, #0]
 c005368:	681a      	ldr	r2, [r3, #0]
 c00536a:	687b      	ldr	r3, [r7, #4]
 c00536c:	681b      	ldr	r3, [r3, #0]
 c00536e:	f022 0240 	bic.w	r2, r2, #64	; 0x40
 c005372:	601a      	str	r2, [r3, #0]

  /* Align by default the rs fifo threshold on the data size */
  if (hspi->Init.DataSize > SPI_DATASIZE_8BIT)
 c005374:	687b      	ldr	r3, [r7, #4]
 c005376:	68db      	ldr	r3, [r3, #12]
 c005378:	f5b3 6fe0 	cmp.w	r3, #1792	; 0x700
 c00537c:	d902      	bls.n	c005384 <HAL_SPI_Init+0x80>
  {
    frxth = SPI_RXFIFO_THRESHOLD_HF;
 c00537e:	2300      	movs	r3, #0
 c005380:	60fb      	str	r3, [r7, #12]
 c005382:	e002      	b.n	c00538a <HAL_SPI_Init+0x86>
  }
  else
  {
    frxth = SPI_RXFIFO_THRESHOLD_QF;
 c005384:	f44f 5380 	mov.w	r3, #4096	; 0x1000
 c005388:	60fb      	str	r3, [r7, #12]
  }

  /* CRC calculation is valid only for 16Bit and 8 Bit */
  if ((hspi->Init.DataSize != SPI_DATASIZE_16BIT) && (hspi->Init.DataSize != SPI_DATASIZE_8BIT))
 c00538a:	687b      	ldr	r3, [r7, #4]
 c00538c:	68db      	ldr	r3, [r3, #12]
 c00538e:	f5b3 6f70 	cmp.w	r3, #3840	; 0xf00
 c005392:	d007      	beq.n	c0053a4 <HAL_SPI_Init+0xa0>
 c005394:	687b      	ldr	r3, [r7, #4]
 c005396:	68db      	ldr	r3, [r3, #12]
 c005398:	f5b3 6fe0 	cmp.w	r3, #1792	; 0x700
 c00539c:	d002      	beq.n	c0053a4 <HAL_SPI_Init+0xa0>
  {
    /* CRC must be disabled */
    hspi->Init.CRCCalculation = SPI_CRCCALCULATION_DISABLE;
 c00539e:	687b      	ldr	r3, [r7, #4]
 c0053a0:	2200      	movs	r2, #0
 c0053a2:	629a      	str	r2, [r3, #40]	; 0x28
  }

  /*----------------------- SPIx CR1 & CR2 Configuration ---------------------*/
  /* Configure : SPI Mode, Communication Mode, Clock polarity and phase, NSS management,
  Communication speed, First bit and CRC calculation state */
  WRITE_REG(hspi->Instance->CR1, ((hspi->Init.Mode & (SPI_CR1_MSTR | SPI_CR1_SSI)) |
 c0053a4:	687b      	ldr	r3, [r7, #4]
 c0053a6:	685b      	ldr	r3, [r3, #4]
 c0053a8:	f403 7282 	and.w	r2, r3, #260	; 0x104
 c0053ac:	687b      	ldr	r3, [r7, #4]
 c0053ae:	689b      	ldr	r3, [r3, #8]
 c0053b0:	f403 4304 	and.w	r3, r3, #33792	; 0x8400
 c0053b4:	431a      	orrs	r2, r3
 c0053b6:	687b      	ldr	r3, [r7, #4]
 c0053b8:	691b      	ldr	r3, [r3, #16]
 c0053ba:	f003 0302 	and.w	r3, r3, #2
 c0053be:	431a      	orrs	r2, r3
 c0053c0:	687b      	ldr	r3, [r7, #4]
 c0053c2:	695b      	ldr	r3, [r3, #20]
 c0053c4:	f003 0301 	and.w	r3, r3, #1
 c0053c8:	431a      	orrs	r2, r3
 c0053ca:	687b      	ldr	r3, [r7, #4]
 c0053cc:	699b      	ldr	r3, [r3, #24]
 c0053ce:	f403 7300 	and.w	r3, r3, #512	; 0x200
 c0053d2:	431a      	orrs	r2, r3
 c0053d4:	687b      	ldr	r3, [r7, #4]
 c0053d6:	69db      	ldr	r3, [r3, #28]
 c0053d8:	f003 0338 	and.w	r3, r3, #56	; 0x38
 c0053dc:	431a      	orrs	r2, r3
 c0053de:	687b      	ldr	r3, [r7, #4]
 c0053e0:	6a1b      	ldr	r3, [r3, #32]
 c0053e2:	f003 0380 	and.w	r3, r3, #128	; 0x80
 c0053e6:	ea42 0103 	orr.w	r1, r2, r3
 c0053ea:	687b      	ldr	r3, [r7, #4]
 c0053ec:	6a9b      	ldr	r3, [r3, #40]	; 0x28
 c0053ee:	f403 5200 	and.w	r2, r3, #8192	; 0x2000
 c0053f2:	687b      	ldr	r3, [r7, #4]
 c0053f4:	681b      	ldr	r3, [r3, #0]
 c0053f6:	430a      	orrs	r2, r1
 c0053f8:	601a      	str	r2, [r3, #0]
    }
  }
#endif /* USE_SPI_CRC */

  /* Configure : NSS management, TI Mode, NSS Pulse, Data size and Rx Fifo threshold */
  WRITE_REG(hspi->Instance->CR2, (((hspi->Init.NSS >> 16U) & SPI_CR2_SSOE) |
 c0053fa:	687b      	ldr	r3, [r7, #4]
 c0053fc:	699b      	ldr	r3, [r3, #24]
 c0053fe:	0c1b      	lsrs	r3, r3, #16
 c005400:	f003 0204 	and.w	r2, r3, #4
 c005404:	687b      	ldr	r3, [r7, #4]
 c005406:	6a5b      	ldr	r3, [r3, #36]	; 0x24
 c005408:	f003 0310 	and.w	r3, r3, #16
 c00540c:	431a      	orrs	r2, r3
 c00540e:	687b      	ldr	r3, [r7, #4]
 c005410:	6b5b      	ldr	r3, [r3, #52]	; 0x34
 c005412:	f003 0308 	and.w	r3, r3, #8
 c005416:	431a      	orrs	r2, r3
 c005418:	687b      	ldr	r3, [r7, #4]
 c00541a:	68db      	ldr	r3, [r3, #12]
 c00541c:	f403 6370 	and.w	r3, r3, #3840	; 0xf00
 c005420:	ea42 0103 	orr.w	r1, r2, r3
 c005424:	68fb      	ldr	r3, [r7, #12]
 c005426:	f403 5280 	and.w	r2, r3, #4096	; 0x1000
 c00542a:	687b      	ldr	r3, [r7, #4]
 c00542c:	681b      	ldr	r3, [r3, #0]
 c00542e:	430a      	orrs	r2, r1
 c005430:	605a      	str	r2, [r3, #4]
#if defined(SPI_I2SCFGR_I2SMOD)
  /* Activate the SPI mode (Make sure that I2SMOD bit in I2SCFGR register is reset) */
  CLEAR_BIT(hspi->Instance->I2SCFGR, SPI_I2SCFGR_I2SMOD);
#endif /* SPI_I2SCFGR_I2SMOD */

  hspi->ErrorCode = HAL_SPI_ERROR_NONE;
 c005432:	687b      	ldr	r3, [r7, #4]
 c005434:	2200      	movs	r2, #0
 c005436:	661a      	str	r2, [r3, #96]	; 0x60
  hspi->State     = HAL_SPI_STATE_READY;
 c005438:	687b      	ldr	r3, [r7, #4]
 c00543a:	2201      	movs	r2, #1
 c00543c:	f883 205d 	strb.w	r2, [r3, #93]	; 0x5d

  return HAL_OK;
 c005440:	2300      	movs	r3, #0
}
 c005442:	4618      	mov	r0, r3
 c005444:	3710      	adds	r7, #16
 c005446:	46bd      	mov	sp, r7
 c005448:	bd80      	pop	{r7, pc}
	...

0c00544c <HAL_SPI_Transmit_DMA>:
  * @param  pData pointer to data buffer
  * @param  Size amount of data to be sent
  * @retval HAL status
  */
HAL_StatusTypeDef HAL_SPI_Transmit_DMA(SPI_HandleTypeDef *hspi, uint8_t *pData, uint16_t Size)
{
 c00544c:	b580      	push	{r7, lr}
 c00544e:	b086      	sub	sp, #24
 c005450:	af00      	add	r7, sp, #0
 c005452:	60f8      	str	r0, [r7, #12]
 c005454:	60b9      	str	r1, [r7, #8]
 c005456:	4613      	mov	r3, r2
 c005458:	80fb      	strh	r3, [r7, #6]
  HAL_StatusTypeDef errorcode = HAL_OK;
 c00545a:	2300      	movs	r3, #0
 c00545c:	75fb      	strb	r3, [r7, #23]

  /* Check Direction parameter */
  assert_param(IS_SPI_DIRECTION_2LINES_OR_1LINE(hspi->Init.Direction));

  /* Process Locked */
  __HAL_LOCK(hspi);
 c00545e:	68fb      	ldr	r3, [r7, #12]
 c005460:	f893 305c 	ldrb.w	r3, [r3, #92]	; 0x5c
 c005464:	2b01      	cmp	r3, #1
 c005466:	d101      	bne.n	c00546c <HAL_SPI_Transmit_DMA+0x20>
 c005468:	2302      	movs	r3, #2
 c00546a:	e0d8      	b.n	c00561e <HAL_SPI_Transmit_DMA+0x1d2>
 c00546c:	68fb      	ldr	r3, [r7, #12]
 c00546e:	2201      	movs	r2, #1
 c005470:	f883 205c 	strb.w	r2, [r3, #92]	; 0x5c

  if (hspi->State != HAL_SPI_STATE_READY)
 c005474:	68fb      	ldr	r3, [r7, #12]
 c005476:	f893 305d 	ldrb.w	r3, [r3, #93]	; 0x5d
 c00547a:	b2db      	uxtb	r3, r3
 c00547c:	2b01      	cmp	r3, #1
 c00547e:	d002      	beq.n	c005486 <HAL_SPI_Transmit_DMA+0x3a>
  {
    errorcode = HAL_BUSY;
 c005480:	2302      	movs	r3, #2
 c005482:	75fb      	strb	r3, [r7, #23]
    goto error;
 c005484:	e0c6      	b.n	c005614 <HAL_SPI_Transmit_DMA+0x1c8>
  }

  if ((pData == NULL) || (Size == 0U))
 c005486:	68bb      	ldr	r3, [r7, #8]
 c005488:	2b00      	cmp	r3, #0
 c00548a:	d002      	beq.n	c005492 <HAL_SPI_Transmit_DMA+0x46>
 c00548c:	88fb      	ldrh	r3, [r7, #6]
 c00548e:	2b00      	cmp	r3, #0
 c005490:	d102      	bne.n	c005498 <HAL_SPI_Transmit_DMA+0x4c>
  {
    errorcode = HAL_ERROR;
 c005492:	2301      	movs	r3, #1
 c005494:	75fb      	strb	r3, [r7, #23]
    goto error;
 c005496:	e0bd      	b.n	c005614 <HAL_SPI_Transmit_DMA+0x1c8>
  }

  /* Set the transaction information */
  hspi->State       = HAL_SPI_STATE_BUSY_TX;
 c005498:	68fb      	ldr	r3, [r7, #12]
 c00549a:	2203      	movs	r2, #3
 c00549c:	f883 205d 	strb.w	r2, [r3, #93]	; 0x5d
  hspi->ErrorCode   = HAL_SPI_ERROR_NONE;
 c0054a0:	68fb      	ldr	r3, [r7, #12]
 c0054a2:	2200      	movs	r2, #0
 c0054a4:	661a      	str	r2, [r3, #96]	; 0x60
  hspi->pTxBuffPtr  = (uint8_t *)pData;
 c0054a6:	68fb      	ldr	r3, [r7, #12]
 c0054a8:	68ba      	ldr	r2, [r7, #8]
 c0054aa:	639a      	str	r2, [r3, #56]	; 0x38
  hspi->TxXferSize  = Size;
 c0054ac:	68fb      	ldr	r3, [r7, #12]
 c0054ae:	88fa      	ldrh	r2, [r7, #6]
 c0054b0:	879a      	strh	r2, [r3, #60]	; 0x3c
  hspi->TxXferCount = Size;
 c0054b2:	68fb      	ldr	r3, [r7, #12]
 c0054b4:	88fa      	ldrh	r2, [r7, #6]
 c0054b6:	87da      	strh	r2, [r3, #62]	; 0x3e

  /* Init field not used in handle to zero */
  hspi->pRxBuffPtr  = (uint8_t *)NULL;
 c0054b8:	68fb      	ldr	r3, [r7, #12]
 c0054ba:	2200      	movs	r2, #0
 c0054bc:	641a      	str	r2, [r3, #64]	; 0x40
  hspi->TxISR       = NULL;
 c0054be:	68fb      	ldr	r3, [r7, #12]
 c0054c0:	2200      	movs	r2, #0
 c0054c2:	651a      	str	r2, [r3, #80]	; 0x50
  hspi->RxISR       = NULL;
 c0054c4:	68fb      	ldr	r3, [r7, #12]
 c0054c6:	2200      	movs	r2, #0
 c0054c8:	64da      	str	r2, [r3, #76]	; 0x4c
  hspi->RxXferSize  = 0U;
 c0054ca:	68fb      	ldr	r3, [r7, #12]
 c0054cc:	2200      	movs	r2, #0
 c0054ce:	f8a3 2044 	strh.w	r2, [r3, #68]	; 0x44
  hspi->RxXferCount = 0U;
 c0054d2:	68fb      	ldr	r3, [r7, #12]
 c0054d4:	2200      	movs	r2, #0
 c0054d6:	f8a3 2046 	strh.w	r2, [r3, #70]	; 0x46

  /* Configure communication direction : 1Line */
  if (hspi->Init.Direction == SPI_DIRECTION_1LINE)
 c0054da:	68fb      	ldr	r3, [r7, #12]
 c0054dc:	689b      	ldr	r3, [r3, #8]
 c0054de:	f5b3 4f00 	cmp.w	r3, #32768	; 0x8000
 c0054e2:	d10f      	bne.n	c005504 <HAL_SPI_Transmit_DMA+0xb8>
  {
    /* Disable SPI Peripheral before set 1Line direction (BIDIOE bit) */
    __HAL_SPI_DISABLE(hspi);
 c0054e4:	68fb      	ldr	r3, [r7, #12]
 c0054e6:	681b      	ldr	r3, [r3, #0]
 c0054e8:	681a      	ldr	r2, [r3, #0]
 c0054ea:	68fb      	ldr	r3, [r7, #12]
 c0054ec:	681b      	ldr	r3, [r3, #0]
 c0054ee:	f022 0240 	bic.w	r2, r2, #64	; 0x40
 c0054f2:	601a      	str	r2, [r3, #0]
    SPI_1LINE_TX(hspi);
 c0054f4:	68fb      	ldr	r3, [r7, #12]
 c0054f6:	681b      	ldr	r3, [r3, #0]
 c0054f8:	681a      	ldr	r2, [r3, #0]
 c0054fa:	68fb      	ldr	r3, [r7, #12]
 c0054fc:	681b      	ldr	r3, [r3, #0]
 c0054fe:	f442 4280 	orr.w	r2, r2, #16384	; 0x4000
 c005502:	601a      	str	r2, [r3, #0]
    SPI_RESET_CRC(hspi);
  }
#endif /* USE_SPI_CRC */

  /* Set the SPI TxDMA Half transfer complete callback */
  hspi->hdmatx->XferHalfCpltCallback = SPI_DMAHalfTransmitCplt;
 c005504:	68fb      	ldr	r3, [r7, #12]
 c005506:	6d5b      	ldr	r3, [r3, #84]	; 0x54
 c005508:	4a47      	ldr	r2, [pc, #284]	; (c005628 <HAL_SPI_Transmit_DMA+0x1dc>)
 c00550a:	631a      	str	r2, [r3, #48]	; 0x30

  /* Set the SPI TxDMA transfer complete callback */
  hspi->hdmatx->XferCpltCallback = SPI_DMATransmitCplt;
 c00550c:	68fb      	ldr	r3, [r7, #12]
 c00550e:	6d5b      	ldr	r3, [r3, #84]	; 0x54
 c005510:	4a46      	ldr	r2, [pc, #280]	; (c00562c <HAL_SPI_Transmit_DMA+0x1e0>)
 c005512:	62da      	str	r2, [r3, #44]	; 0x2c

  /* Set the DMA error callback */
  hspi->hdmatx->XferErrorCallback = SPI_DMAError;
 c005514:	68fb      	ldr	r3, [r7, #12]
 c005516:	6d5b      	ldr	r3, [r3, #84]	; 0x54
 c005518:	4a45      	ldr	r2, [pc, #276]	; (c005630 <HAL_SPI_Transmit_DMA+0x1e4>)
 c00551a:	63da      	str	r2, [r3, #60]	; 0x3c

  /* Set the DMA AbortCpltCallback */
  hspi->hdmatx->XferAbortCallback = NULL;
 c00551c:	68fb      	ldr	r3, [r7, #12]
 c00551e:	6d5b      	ldr	r3, [r3, #84]	; 0x54
 c005520:	2200      	movs	r2, #0
 c005522:	641a      	str	r2, [r3, #64]	; 0x40

  CLEAR_BIT(hspi->Instance->CR2, SPI_CR2_LDMATX);
 c005524:	68fb      	ldr	r3, [r7, #12]
 c005526:	681b      	ldr	r3, [r3, #0]
 c005528:	685a      	ldr	r2, [r3, #4]
 c00552a:	68fb      	ldr	r3, [r7, #12]
 c00552c:	681b      	ldr	r3, [r3, #0]
 c00552e:	f422 4280 	bic.w	r2, r2, #16384	; 0x4000
 c005532:	605a      	str	r2, [r3, #4]
  /* Packing mode is enabled only if the DMA setting is HALWORD */
  if ((hspi->Init.DataSize <= SPI_DATASIZE_8BIT) && (hspi->hdmatx->Init.MemDataAlignment == DMA_MDATAALIGN_HALFWORD))
 c005534:	68fb      	ldr	r3, [r7, #12]
 c005536:	68db      	ldr	r3, [r3, #12]
 c005538:	f5b3 6fe0 	cmp.w	r3, #1792	; 0x700
 c00553c:	d82d      	bhi.n	c00559a <HAL_SPI_Transmit_DMA+0x14e>
 c00553e:	68fb      	ldr	r3, [r7, #12]
 c005540:	6d5b      	ldr	r3, [r3, #84]	; 0x54
 c005542:	699b      	ldr	r3, [r3, #24]
 c005544:	f5b3 6f80 	cmp.w	r3, #1024	; 0x400
 c005548:	d127      	bne.n	c00559a <HAL_SPI_Transmit_DMA+0x14e>
  {
    /* Check the even/odd of the data size + crc if enabled */
    if ((hspi->TxXferCount & 0x1U) == 0U)
 c00554a:	68fb      	ldr	r3, [r7, #12]
 c00554c:	8fdb      	ldrh	r3, [r3, #62]	; 0x3e
 c00554e:	b29b      	uxth	r3, r3
 c005550:	f003 0301 	and.w	r3, r3, #1
 c005554:	2b00      	cmp	r3, #0
 c005556:	d10f      	bne.n	c005578 <HAL_SPI_Transmit_DMA+0x12c>
    {
      CLEAR_BIT(hspi->Instance->CR2, SPI_CR2_LDMATX);
 c005558:	68fb      	ldr	r3, [r7, #12]
 c00555a:	681b      	ldr	r3, [r3, #0]
 c00555c:	685a      	ldr	r2, [r3, #4]
 c00555e:	68fb      	ldr	r3, [r7, #12]
 c005560:	681b      	ldr	r3, [r3, #0]
 c005562:	f422 4280 	bic.w	r2, r2, #16384	; 0x4000
 c005566:	605a      	str	r2, [r3, #4]
      hspi->TxXferCount = (hspi->TxXferCount >> 1U);
 c005568:	68fb      	ldr	r3, [r7, #12]
 c00556a:	8fdb      	ldrh	r3, [r3, #62]	; 0x3e
 c00556c:	b29b      	uxth	r3, r3
 c00556e:	085b      	lsrs	r3, r3, #1
 c005570:	b29a      	uxth	r2, r3
 c005572:	68fb      	ldr	r3, [r7, #12]
 c005574:	87da      	strh	r2, [r3, #62]	; 0x3e
 c005576:	e010      	b.n	c00559a <HAL_SPI_Transmit_DMA+0x14e>
    }
    else
    {
      SET_BIT(hspi->Instance->CR2, SPI_CR2_LDMATX);
 c005578:	68fb      	ldr	r3, [r7, #12]
 c00557a:	681b      	ldr	r3, [r3, #0]
 c00557c:	685a      	ldr	r2, [r3, #4]
 c00557e:	68fb      	ldr	r3, [r7, #12]
 c005580:	681b      	ldr	r3, [r3, #0]
 c005582:	f442 4280 	orr.w	r2, r2, #16384	; 0x4000
 c005586:	605a      	str	r2, [r3, #4]
      hspi->TxXferCount = (hspi->TxXferCount >> 1U) + 1U;
 c005588:	68fb      	ldr	r3, [r7, #12]
 c00558a:	8fdb      	ldrh	r3, [r3, #62]	; 0x3e
 c00558c:	b29b      	uxth	r3, r3
 c00558e:	085b      	lsrs	r3, r3, #1
 c005590:	b29b      	uxth	r3, r3
 c005592:	3301      	adds	r3, #1
 c005594:	b29a      	uxth	r2, r3
 c005596:	68fb      	ldr	r3, [r7, #12]
 c005598:	87da      	strh	r2, [r3, #62]	; 0x3e
    }
  }

  /* Enable the Tx DMA Stream/Channel */
  if (HAL_OK != HAL_DMA_Start_IT(hspi->hdmatx, (uint32_t)hspi->pTxBuffPtr, (uint32_t)&hspi->Instance->DR,
 c00559a:	68fb      	ldr	r3, [r7, #12]
 c00559c:	6d58      	ldr	r0, [r3, #84]	; 0x54
 c00559e:	68fb      	ldr	r3, [r7, #12]
 c0055a0:	6b9b      	ldr	r3, [r3, #56]	; 0x38
 c0055a2:	4619      	mov	r1, r3
 c0055a4:	68fb      	ldr	r3, [r7, #12]
 c0055a6:	681b      	ldr	r3, [r3, #0]
 c0055a8:	330c      	adds	r3, #12
 c0055aa:	461a      	mov	r2, r3
                                 hspi->TxXferCount))
 c0055ac:	68fb      	ldr	r3, [r7, #12]
 c0055ae:	8fdb      	ldrh	r3, [r3, #62]	; 0x3e
 c0055b0:	b29b      	uxth	r3, r3
  if (HAL_OK != HAL_DMA_Start_IT(hspi->hdmatx, (uint32_t)hspi->pTxBuffPtr, (uint32_t)&hspi->Instance->DR,
 c0055b2:	f7fc ff6d 	bl	c002490 <HAL_DMA_Start_IT>
 c0055b6:	4603      	mov	r3, r0
 c0055b8:	2b00      	cmp	r3, #0
 c0055ba:	d00c      	beq.n	c0055d6 <HAL_SPI_Transmit_DMA+0x18a>
  {
    /* Update SPI error code */
    SET_BIT(hspi->ErrorCode, HAL_SPI_ERROR_DMA);
 c0055bc:	68fb      	ldr	r3, [r7, #12]
 c0055be:	6e1b      	ldr	r3, [r3, #96]	; 0x60
 c0055c0:	f043 0210 	orr.w	r2, r3, #16
 c0055c4:	68fb      	ldr	r3, [r7, #12]
 c0055c6:	661a      	str	r2, [r3, #96]	; 0x60
    errorcode = HAL_ERROR;
 c0055c8:	2301      	movs	r3, #1
 c0055ca:	75fb      	strb	r3, [r7, #23]

    hspi->State = HAL_SPI_STATE_READY;
 c0055cc:	68fb      	ldr	r3, [r7, #12]
 c0055ce:	2201      	movs	r2, #1
 c0055d0:	f883 205d 	strb.w	r2, [r3, #93]	; 0x5d
    goto error;
 c0055d4:	e01e      	b.n	c005614 <HAL_SPI_Transmit_DMA+0x1c8>
  }

  /* Check if the SPI is already enabled */
  if ((hspi->Instance->CR1 & SPI_CR1_SPE) != SPI_CR1_SPE)
 c0055d6:	68fb      	ldr	r3, [r7, #12]
 c0055d8:	681b      	ldr	r3, [r3, #0]
 c0055da:	681b      	ldr	r3, [r3, #0]
 c0055dc:	f003 0340 	and.w	r3, r3, #64	; 0x40
 c0055e0:	2b40      	cmp	r3, #64	; 0x40
 c0055e2:	d007      	beq.n	c0055f4 <HAL_SPI_Transmit_DMA+0x1a8>
  {
    /* Enable SPI peripheral */
    __HAL_SPI_ENABLE(hspi);
 c0055e4:	68fb      	ldr	r3, [r7, #12]
 c0055e6:	681b      	ldr	r3, [r3, #0]
 c0055e8:	681a      	ldr	r2, [r3, #0]
 c0055ea:	68fb      	ldr	r3, [r7, #12]
 c0055ec:	681b      	ldr	r3, [r3, #0]
 c0055ee:	f042 0240 	orr.w	r2, r2, #64	; 0x40
 c0055f2:	601a      	str	r2, [r3, #0]
  }

  /* Enable the SPI Error Interrupt Bit */
  __HAL_SPI_ENABLE_IT(hspi, (SPI_IT_ERR));
 c0055f4:	68fb      	ldr	r3, [r7, #12]
 c0055f6:	681b      	ldr	r3, [r3, #0]
 c0055f8:	685a      	ldr	r2, [r3, #4]
 c0055fa:	68fb      	ldr	r3, [r7, #12]
 c0055fc:	681b      	ldr	r3, [r3, #0]
 c0055fe:	f042 0220 	orr.w	r2, r2, #32
 c005602:	605a      	str	r2, [r3, #4]

  /* Enable Tx DMA Request */
  SET_BIT(hspi->Instance->CR2, SPI_CR2_TXDMAEN);
 c005604:	68fb      	ldr	r3, [r7, #12]
 c005606:	681b      	ldr	r3, [r3, #0]
 c005608:	685a      	ldr	r2, [r3, #4]
 c00560a:	68fb      	ldr	r3, [r7, #12]
 c00560c:	681b      	ldr	r3, [r3, #0]
 c00560e:	f042 0202 	orr.w	r2, r2, #2
 c005612:	605a      	str	r2, [r3, #4]

error :
  /* Process Unlocked */
  __HAL_UNLOCK(hspi);
 c005614:	68fb      	ldr	r3, [r7, #12]
 c005616:	2200      	movs	r2, #0
 c005618:	f883 205c 	strb.w	r2, [r3, #92]	; 0x5c
  return errorcode;
 c00561c:	7dfb      	ldrb	r3, [r7, #23]
}
 c00561e:	4618      	mov	r0, r3
 c005620:	3718      	adds	r7, #24
 c005622:	46bd      	mov	sp, r7
 c005624:	bd80      	pop	{r7, pc}
 c005626:	bf00      	nop
 c005628:	0c005703 	.word	0x0c005703
 c00562c:	0c00565d 	.word	0x0c00565d
 c005630:	0c00571f 	.word	0x0c00571f

0c005634 <HAL_SPI_TxHalfCpltCallback>:
  * @param  hspi pointer to a SPI_HandleTypeDef structure that contains
  *               the configuration information for SPI module.
  * @retval None
  */
__weak void HAL_SPI_TxHalfCpltCallback(SPI_HandleTypeDef *hspi)
{
 c005634:	b480      	push	{r7}
 c005636:	b083      	sub	sp, #12
 c005638:	af00      	add	r7, sp, #0
 c00563a:	6078      	str	r0, [r7, #4]
  UNUSED(hspi);

  /* NOTE : This function should not be modified, when the callback is needed,
            the HAL_SPI_TxHalfCpltCallback should be implemented in the user file
   */
}
 c00563c:	bf00      	nop
 c00563e:	370c      	adds	r7, #12
 c005640:	46bd      	mov	sp, r7
 c005642:	f85d 7b04 	ldr.w	r7, [sp], #4
 c005646:	4770      	bx	lr

0c005648 <HAL_SPI_ErrorCallback>:
  * @param  hspi pointer to a SPI_HandleTypeDef structure that contains
  *               the configuration information for SPI module.
  * @retval None
  */
__weak void HAL_SPI_ErrorCallback(SPI_HandleTypeDef *hspi)
{
 c005648:	b480      	push	{r7}
 c00564a:	b083      	sub	sp, #12
 c00564c:	af00      	add	r7, sp, #0
 c00564e:	6078      	str	r0, [r7, #4]
            the HAL_SPI_ErrorCallback should be implemented in the user file
   */
  /* NOTE : The ErrorCode parameter in the hspi handle is updated by the SPI processes
            and user can use HAL_SPI_GetError() API to check the latest error occurred
   */
}
 c005650:	bf00      	nop
 c005652:	370c      	adds	r7, #12
 c005654:	46bd      	mov	sp, r7
 c005656:	f85d 7b04 	ldr.w	r7, [sp], #4
 c00565a:	4770      	bx	lr

0c00565c <SPI_DMATransmitCplt>:
  * @param  hdma pointer to a DMA_HandleTypeDef structure that contains
  *               the configuration information for the specified DMA module.
  * @retval None
  */
static void SPI_DMATransmitCplt(DMA_HandleTypeDef *hdma)
{
 c00565c:	b580      	push	{r7, lr}
 c00565e:	b086      	sub	sp, #24
 c005660:	af00      	add	r7, sp, #0
 c005662:	6078      	str	r0, [r7, #4]
  SPI_HandleTypeDef *hspi = (SPI_HandleTypeDef *)(((DMA_HandleTypeDef *)hdma)->Parent); /* Derogation MISRAC2012-Rule-11.5 */
 c005664:	687b      	ldr	r3, [r7, #4]
 c005666:	6a9b      	ldr	r3, [r3, #40]	; 0x28
 c005668:	617b      	str	r3, [r7, #20]
  uint32_t tickstart;

  /* Init tickstart for timeout management*/
  tickstart = HAL_GetTick();
 c00566a:	f7fc fd29 	bl	c0020c0 <HAL_GetTick>
 c00566e:	6138      	str	r0, [r7, #16]

  /* DMA Normal Mode */
  if ((hdma->Instance->CCR & DMA_CCR_CIRC) != DMA_CCR_CIRC)
 c005670:	687b      	ldr	r3, [r7, #4]
 c005672:	681b      	ldr	r3, [r3, #0]
 c005674:	681b      	ldr	r3, [r3, #0]
 c005676:	f003 0320 	and.w	r3, r3, #32
 c00567a:	2b20      	cmp	r3, #32
 c00567c:	d03b      	beq.n	c0056f6 <SPI_DMATransmitCplt+0x9a>
  {
    /* Disable ERR interrupt */
    __HAL_SPI_DISABLE_IT(hspi, SPI_IT_ERR);
 c00567e:	697b      	ldr	r3, [r7, #20]
 c005680:	681b      	ldr	r3, [r3, #0]
 c005682:	685a      	ldr	r2, [r3, #4]
 c005684:	697b      	ldr	r3, [r7, #20]
 c005686:	681b      	ldr	r3, [r3, #0]
 c005688:	f022 0220 	bic.w	r2, r2, #32
 c00568c:	605a      	str	r2, [r3, #4]

    /* Disable Tx DMA Request */
    CLEAR_BIT(hspi->Instance->CR2, SPI_CR2_TXDMAEN);
 c00568e:	697b      	ldr	r3, [r7, #20]
 c005690:	681b      	ldr	r3, [r3, #0]
 c005692:	685a      	ldr	r2, [r3, #4]
 c005694:	697b      	ldr	r3, [r7, #20]
 c005696:	681b      	ldr	r3, [r3, #0]
 c005698:	f022 0202 	bic.w	r2, r2, #2
 c00569c:	605a      	str	r2, [r3, #4]

    /* Check the end of the transaction */
    if (SPI_EndRxTxTransaction(hspi, SPI_DEFAULT_TIMEOUT, tickstart) != HAL_OK)
 c00569e:	693a      	ldr	r2, [r7, #16]
 c0056a0:	2164      	movs	r1, #100	; 0x64
 c0056a2:	6978      	ldr	r0, [r7, #20]
 c0056a4:	f000 f97a 	bl	c00599c <SPI_EndRxTxTransaction>
 c0056a8:	4603      	mov	r3, r0
 c0056aa:	2b00      	cmp	r3, #0
 c0056ac:	d005      	beq.n	c0056ba <SPI_DMATransmitCplt+0x5e>
    {
      SET_BIT(hspi->ErrorCode, HAL_SPI_ERROR_FLAG);
 c0056ae:	697b      	ldr	r3, [r7, #20]
 c0056b0:	6e1b      	ldr	r3, [r3, #96]	; 0x60
 c0056b2:	f043 0220 	orr.w	r2, r3, #32
 c0056b6:	697b      	ldr	r3, [r7, #20]
 c0056b8:	661a      	str	r2, [r3, #96]	; 0x60
    }

    /* Clear overrun flag in 2 Lines communication mode because received data is not read */
    if (hspi->Init.Direction == SPI_DIRECTION_2LINES)
 c0056ba:	697b      	ldr	r3, [r7, #20]
 c0056bc:	689b      	ldr	r3, [r3, #8]
 c0056be:	2b00      	cmp	r3, #0
 c0056c0:	d10a      	bne.n	c0056d8 <SPI_DMATransmitCplt+0x7c>
    {
      __HAL_SPI_CLEAR_OVRFLAG(hspi);
 c0056c2:	2300      	movs	r3, #0
 c0056c4:	60fb      	str	r3, [r7, #12]
 c0056c6:	697b      	ldr	r3, [r7, #20]
 c0056c8:	681b      	ldr	r3, [r3, #0]
 c0056ca:	68db      	ldr	r3, [r3, #12]
 c0056cc:	60fb      	str	r3, [r7, #12]
 c0056ce:	697b      	ldr	r3, [r7, #20]
 c0056d0:	681b      	ldr	r3, [r3, #0]
 c0056d2:	689b      	ldr	r3, [r3, #8]
 c0056d4:	60fb      	str	r3, [r7, #12]
 c0056d6:	68fb      	ldr	r3, [r7, #12]
    }

    hspi->TxXferCount = 0U;
 c0056d8:	697b      	ldr	r3, [r7, #20]
 c0056da:	2200      	movs	r2, #0
 c0056dc:	87da      	strh	r2, [r3, #62]	; 0x3e
    hspi->State = HAL_SPI_STATE_READY;
 c0056de:	697b      	ldr	r3, [r7, #20]
 c0056e0:	2201      	movs	r2, #1
 c0056e2:	f883 205d 	strb.w	r2, [r3, #93]	; 0x5d

    if (hspi->ErrorCode != HAL_SPI_ERROR_NONE)
 c0056e6:	697b      	ldr	r3, [r7, #20]
 c0056e8:	6e1b      	ldr	r3, [r3, #96]	; 0x60
 c0056ea:	2b00      	cmp	r3, #0
 c0056ec:	d003      	beq.n	c0056f6 <SPI_DMATransmitCplt+0x9a>
    {
      /* Call user error callback */
#if (USE_HAL_SPI_REGISTER_CALLBACKS == 1U)
      hspi->ErrorCallback(hspi);
#else
      HAL_SPI_ErrorCallback(hspi);
 c0056ee:	6978      	ldr	r0, [r7, #20]
 c0056f0:	f7ff ffaa 	bl	c005648 <HAL_SPI_ErrorCallback>
#endif /* USE_HAL_SPI_REGISTER_CALLBACKS */
      return;
 c0056f4:	e002      	b.n	c0056fc <SPI_DMATransmitCplt+0xa0>
  }
  /* Call user Tx complete callback */
#if (USE_HAL_SPI_REGISTER_CALLBACKS == 1U)
  hspi->TxCpltCallback(hspi);
#else
  HAL_SPI_TxCpltCallback(hspi);
 c0056f6:	6978      	ldr	r0, [r7, #20]
 c0056f8:	f7fb fbba 	bl	c000e70 <HAL_SPI_TxCpltCallback>
#endif /* USE_HAL_SPI_REGISTER_CALLBACKS */
}
 c0056fc:	3718      	adds	r7, #24
 c0056fe:	46bd      	mov	sp, r7
 c005700:	bd80      	pop	{r7, pc}

0c005702 <SPI_DMAHalfTransmitCplt>:
  * @param  hdma pointer to a DMA_HandleTypeDef structure that contains
  *               the configuration information for the specified DMA module.
  * @retval None
  */
static void SPI_DMAHalfTransmitCplt(DMA_HandleTypeDef *hdma)
{
 c005702:	b580      	push	{r7, lr}
 c005704:	b084      	sub	sp, #16
 c005706:	af00      	add	r7, sp, #0
 c005708:	6078      	str	r0, [r7, #4]
  SPI_HandleTypeDef *hspi = (SPI_HandleTypeDef *)(((DMA_HandleTypeDef *)hdma)->Parent); /* Derogation MISRAC2012-Rule-11.5 */
 c00570a:	687b      	ldr	r3, [r7, #4]
 c00570c:	6a9b      	ldr	r3, [r3, #40]	; 0x28
 c00570e:	60fb      	str	r3, [r7, #12]

  /* Call user Tx half complete callback */
#if (USE_HAL_SPI_REGISTER_CALLBACKS == 1U)
  hspi->TxHalfCpltCallback(hspi);
#else
  HAL_SPI_TxHalfCpltCallback(hspi);
 c005710:	68f8      	ldr	r0, [r7, #12]
 c005712:	f7ff ff8f 	bl	c005634 <HAL_SPI_TxHalfCpltCallback>
#endif /* USE_HAL_SPI_REGISTER_CALLBACKS */
}
 c005716:	bf00      	nop
 c005718:	3710      	adds	r7, #16
 c00571a:	46bd      	mov	sp, r7
 c00571c:	bd80      	pop	{r7, pc}

0c00571e <SPI_DMAError>:
  * @param  hdma pointer to a DMA_HandleTypeDef structure that contains
  *               the configuration information for the specified DMA module.
  * @retval None
  */
static void SPI_DMAError(DMA_HandleTypeDef *hdma)
{
 c00571e:	b580      	push	{r7, lr}
 c005720:	b084      	sub	sp, #16
 c005722:	af00      	add	r7, sp, #0
 c005724:	6078      	str	r0, [r7, #4]
  SPI_HandleTypeDef *hspi = (SPI_HandleTypeDef *)(((DMA_HandleTypeDef *)hdma)->Parent); /* Derogation MISRAC2012-Rule-11.5 */
 c005726:	687b      	ldr	r3, [r7, #4]
 c005728:	6a9b      	ldr	r3, [r3, #40]	; 0x28
 c00572a:	60fb      	str	r3, [r7, #12]

  /* Stop the disable DMA transfer on SPI side */
  CLEAR_BIT(hspi->Instance->CR2, SPI_CR2_TXDMAEN | SPI_CR2_RXDMAEN);
 c00572c:	68fb      	ldr	r3, [r7, #12]
 c00572e:	681b      	ldr	r3, [r3, #0]
 c005730:	685a      	ldr	r2, [r3, #4]
 c005732:	68fb      	ldr	r3, [r7, #12]
 c005734:	681b      	ldr	r3, [r3, #0]
 c005736:	f022 0203 	bic.w	r2, r2, #3
 c00573a:	605a      	str	r2, [r3, #4]

  SET_BIT(hspi->ErrorCode, HAL_SPI_ERROR_DMA);
 c00573c:	68fb      	ldr	r3, [r7, #12]
 c00573e:	6e1b      	ldr	r3, [r3, #96]	; 0x60
 c005740:	f043 0210 	orr.w	r2, r3, #16
 c005744:	68fb      	ldr	r3, [r7, #12]
 c005746:	661a      	str	r2, [r3, #96]	; 0x60
  hspi->State = HAL_SPI_STATE_READY;
 c005748:	68fb      	ldr	r3, [r7, #12]
 c00574a:	2201      	movs	r2, #1
 c00574c:	f883 205d 	strb.w	r2, [r3, #93]	; 0x5d
  /* Call user error callback */
#if (USE_HAL_SPI_REGISTER_CALLBACKS == 1U)
  hspi->ErrorCallback(hspi);
#else
  HAL_SPI_ErrorCallback(hspi);
 c005750:	68f8      	ldr	r0, [r7, #12]
 c005752:	f7ff ff79 	bl	c005648 <HAL_SPI_ErrorCallback>
#endif /* USE_HAL_SPI_REGISTER_CALLBACKS */
}
 c005756:	bf00      	nop
 c005758:	3710      	adds	r7, #16
 c00575a:	46bd      	mov	sp, r7
 c00575c:	bd80      	pop	{r7, pc}
	...

0c005760 <SPI_WaitFlagStateUntilTimeout>:
  * @param  Tickstart tick start value
  * @retval HAL status
  */
static HAL_StatusTypeDef SPI_WaitFlagStateUntilTimeout(SPI_HandleTypeDef *hspi, uint32_t Flag, FlagStatus State,
                                                       uint32_t Timeout, uint32_t Tickstart)
{
 c005760:	b580      	push	{r7, lr}
 c005762:	b088      	sub	sp, #32
 c005764:	af00      	add	r7, sp, #0
 c005766:	60f8      	str	r0, [r7, #12]
 c005768:	60b9      	str	r1, [r7, #8]
 c00576a:	603b      	str	r3, [r7, #0]
 c00576c:	4613      	mov	r3, r2
 c00576e:	71fb      	strb	r3, [r7, #7]
  __IO uint32_t count;
  uint32_t tmp_timeout;
  uint32_t tmp_tickstart;

  /* Adjust Timeout value  in case of end of transfer */
  tmp_timeout   = Timeout - (HAL_GetTick() - Tickstart);
 c005770:	f7fc fca6 	bl	c0020c0 <HAL_GetTick>
 c005774:	4602      	mov	r2, r0
 c005776:	6abb      	ldr	r3, [r7, #40]	; 0x28
 c005778:	1a9b      	subs	r3, r3, r2
 c00577a:	683a      	ldr	r2, [r7, #0]
 c00577c:	4413      	add	r3, r2
 c00577e:	61fb      	str	r3, [r7, #28]
  tmp_tickstart = HAL_GetTick();
 c005780:	f7fc fc9e 	bl	c0020c0 <HAL_GetTick>
 c005784:	61b8      	str	r0, [r7, #24]

  /* Calculate Timeout based on a software loop to avoid blocking issue if Systick is disabled */
  count = tmp_timeout * ((SystemCoreClock * 32U) >> 20U);
 c005786:	4b39      	ldr	r3, [pc, #228]	; (c00586c <SPI_WaitFlagStateUntilTimeout+0x10c>)
 c005788:	681b      	ldr	r3, [r3, #0]
 c00578a:	015b      	lsls	r3, r3, #5
 c00578c:	0d1b      	lsrs	r3, r3, #20
 c00578e:	69fa      	ldr	r2, [r7, #28]
 c005790:	fb02 f303 	mul.w	r3, r2, r3
 c005794:	617b      	str	r3, [r7, #20]

  while ((__HAL_SPI_GET_FLAG(hspi, Flag) ? SET : RESET) != State)
 c005796:	e054      	b.n	c005842 <SPI_WaitFlagStateUntilTimeout+0xe2>
  {
    if (Timeout != HAL_MAX_DELAY)
 c005798:	683b      	ldr	r3, [r7, #0]
 c00579a:	f1b3 3fff 	cmp.w	r3, #4294967295
 c00579e:	d050      	beq.n	c005842 <SPI_WaitFlagStateUntilTimeout+0xe2>
    {
      if (((HAL_GetTick() - tmp_tickstart) >= tmp_timeout) || (tmp_timeout == 0U))
 c0057a0:	f7fc fc8e 	bl	c0020c0 <HAL_GetTick>
 c0057a4:	4602      	mov	r2, r0
 c0057a6:	69bb      	ldr	r3, [r7, #24]
 c0057a8:	1ad3      	subs	r3, r2, r3
 c0057aa:	69fa      	ldr	r2, [r7, #28]
 c0057ac:	429a      	cmp	r2, r3
 c0057ae:	d902      	bls.n	c0057b6 <SPI_WaitFlagStateUntilTimeout+0x56>
 c0057b0:	69fb      	ldr	r3, [r7, #28]
 c0057b2:	2b00      	cmp	r3, #0
 c0057b4:	d13d      	bne.n	c005832 <SPI_WaitFlagStateUntilTimeout+0xd2>
        /* Disable the SPI and reset the CRC: the CRC value should be cleared
           on both master and slave sides in order to resynchronize the master
           and slave for their respective CRC calculation */

        /* Disable TXE, RXNE and ERR interrupts for the interrupt process */
        __HAL_SPI_DISABLE_IT(hspi, (SPI_IT_TXE | SPI_IT_RXNE | SPI_IT_ERR));
 c0057b6:	68fb      	ldr	r3, [r7, #12]
 c0057b8:	681b      	ldr	r3, [r3, #0]
 c0057ba:	685a      	ldr	r2, [r3, #4]
 c0057bc:	68fb      	ldr	r3, [r7, #12]
 c0057be:	681b      	ldr	r3, [r3, #0]
 c0057c0:	f022 02e0 	bic.w	r2, r2, #224	; 0xe0
 c0057c4:	605a      	str	r2, [r3, #4]

        if ((hspi->Init.Mode == SPI_MODE_MASTER) && ((hspi->Init.Direction == SPI_DIRECTION_1LINE)
 c0057c6:	68fb      	ldr	r3, [r7, #12]
 c0057c8:	685b      	ldr	r3, [r3, #4]
 c0057ca:	f5b3 7f82 	cmp.w	r3, #260	; 0x104
 c0057ce:	d111      	bne.n	c0057f4 <SPI_WaitFlagStateUntilTimeout+0x94>
 c0057d0:	68fb      	ldr	r3, [r7, #12]
 c0057d2:	689b      	ldr	r3, [r3, #8]
 c0057d4:	f5b3 4f00 	cmp.w	r3, #32768	; 0x8000
 c0057d8:	d004      	beq.n	c0057e4 <SPI_WaitFlagStateUntilTimeout+0x84>
                                                     || (hspi->Init.Direction == SPI_DIRECTION_2LINES_RXONLY)))
 c0057da:	68fb      	ldr	r3, [r7, #12]
 c0057dc:	689b      	ldr	r3, [r3, #8]
 c0057de:	f5b3 6f80 	cmp.w	r3, #1024	; 0x400
 c0057e2:	d107      	bne.n	c0057f4 <SPI_WaitFlagStateUntilTimeout+0x94>
        {
          /* Disable SPI peripheral */
          __HAL_SPI_DISABLE(hspi);
 c0057e4:	68fb      	ldr	r3, [r7, #12]
 c0057e6:	681b      	ldr	r3, [r3, #0]
 c0057e8:	681a      	ldr	r2, [r3, #0]
 c0057ea:	68fb      	ldr	r3, [r7, #12]
 c0057ec:	681b      	ldr	r3, [r3, #0]
 c0057ee:	f022 0240 	bic.w	r2, r2, #64	; 0x40
 c0057f2:	601a      	str	r2, [r3, #0]
        }

        /* Reset CRC Calculation */
        if (hspi->Init.CRCCalculation == SPI_CRCCALCULATION_ENABLE)
 c0057f4:	68fb      	ldr	r3, [r7, #12]
 c0057f6:	6a9b      	ldr	r3, [r3, #40]	; 0x28
 c0057f8:	f5b3 5f00 	cmp.w	r3, #8192	; 0x2000
 c0057fc:	d10f      	bne.n	c00581e <SPI_WaitFlagStateUntilTimeout+0xbe>
        {
          SPI_RESET_CRC(hspi);
 c0057fe:	68fb      	ldr	r3, [r7, #12]
 c005800:	681b      	ldr	r3, [r3, #0]
 c005802:	681a      	ldr	r2, [r3, #0]
 c005804:	68fb      	ldr	r3, [r7, #12]
 c005806:	681b      	ldr	r3, [r3, #0]
 c005808:	f422 5200 	bic.w	r2, r2, #8192	; 0x2000
 c00580c:	601a      	str	r2, [r3, #0]
 c00580e:	68fb      	ldr	r3, [r7, #12]
 c005810:	681b      	ldr	r3, [r3, #0]
 c005812:	681a      	ldr	r2, [r3, #0]
 c005814:	68fb      	ldr	r3, [r7, #12]
 c005816:	681b      	ldr	r3, [r3, #0]
 c005818:	f442 5200 	orr.w	r2, r2, #8192	; 0x2000
 c00581c:	601a      	str	r2, [r3, #0]
        }

        hspi->State = HAL_SPI_STATE_READY;
 c00581e:	68fb      	ldr	r3, [r7, #12]
 c005820:	2201      	movs	r2, #1
 c005822:	f883 205d 	strb.w	r2, [r3, #93]	; 0x5d

        /* Process Unlocked */
        __HAL_UNLOCK(hspi);
 c005826:	68fb      	ldr	r3, [r7, #12]
 c005828:	2200      	movs	r2, #0
 c00582a:	f883 205c 	strb.w	r2, [r3, #92]	; 0x5c

        return HAL_TIMEOUT;
 c00582e:	2303      	movs	r3, #3
 c005830:	e017      	b.n	c005862 <SPI_WaitFlagStateUntilTimeout+0x102>
      }
      /* If Systick is disabled or not incremented, deactivate timeout to go in disable loop procedure */
      if (count == 0U)
 c005832:	697b      	ldr	r3, [r7, #20]
 c005834:	2b00      	cmp	r3, #0
 c005836:	d101      	bne.n	c00583c <SPI_WaitFlagStateUntilTimeout+0xdc>
      {
        tmp_timeout = 0U;
 c005838:	2300      	movs	r3, #0
 c00583a:	61fb      	str	r3, [r7, #28]
      }
      count--;
 c00583c:	697b      	ldr	r3, [r7, #20]
 c00583e:	3b01      	subs	r3, #1
 c005840:	617b      	str	r3, [r7, #20]
  while ((__HAL_SPI_GET_FLAG(hspi, Flag) ? SET : RESET) != State)
 c005842:	68fb      	ldr	r3, [r7, #12]
 c005844:	681b      	ldr	r3, [r3, #0]
 c005846:	689a      	ldr	r2, [r3, #8]
 c005848:	68bb      	ldr	r3, [r7, #8]
 c00584a:	4013      	ands	r3, r2
 c00584c:	68ba      	ldr	r2, [r7, #8]
 c00584e:	429a      	cmp	r2, r3
 c005850:	bf0c      	ite	eq
 c005852:	2301      	moveq	r3, #1
 c005854:	2300      	movne	r3, #0
 c005856:	b2db      	uxtb	r3, r3
 c005858:	461a      	mov	r2, r3
 c00585a:	79fb      	ldrb	r3, [r7, #7]
 c00585c:	429a      	cmp	r2, r3
 c00585e:	d19b      	bne.n	c005798 <SPI_WaitFlagStateUntilTimeout+0x38>
    }
  }

  return HAL_OK;
 c005860:	2300      	movs	r3, #0
}
 c005862:	4618      	mov	r0, r3
 c005864:	3720      	adds	r7, #32
 c005866:	46bd      	mov	sp, r7
 c005868:	bd80      	pop	{r7, pc}
 c00586a:	bf00      	nop
 c00586c:	300000c0 	.word	0x300000c0

0c005870 <SPI_WaitFifoStateUntilTimeout>:
  * @param  Tickstart tick start value
  * @retval HAL status
  */
static HAL_StatusTypeDef SPI_WaitFifoStateUntilTimeout(SPI_HandleTypeDef *hspi, uint32_t Fifo, uint32_t State,
                                                       uint32_t Timeout, uint32_t Tickstart)
{
 c005870:	b580      	push	{r7, lr}
 c005872:	b08a      	sub	sp, #40	; 0x28
 c005874:	af00      	add	r7, sp, #0
 c005876:	60f8      	str	r0, [r7, #12]
 c005878:	60b9      	str	r1, [r7, #8]
 c00587a:	607a      	str	r2, [r7, #4]
 c00587c:	603b      	str	r3, [r7, #0]
  __IO uint32_t count;
  uint32_t tmp_timeout;
  uint32_t tmp_tickstart;
  __IO uint8_t  *ptmpreg8;
  __IO uint8_t  tmpreg8 = 0;
 c00587e:	2300      	movs	r3, #0
 c005880:	75fb      	strb	r3, [r7, #23]

  /* Adjust Timeout value  in case of end of transfer */
  tmp_timeout = Timeout - (HAL_GetTick() - Tickstart);
 c005882:	f7fc fc1d 	bl	c0020c0 <HAL_GetTick>
 c005886:	4602      	mov	r2, r0
 c005888:	6b3b      	ldr	r3, [r7, #48]	; 0x30
 c00588a:	1a9b      	subs	r3, r3, r2
 c00588c:	683a      	ldr	r2, [r7, #0]
 c00588e:	4413      	add	r3, r2
 c005890:	627b      	str	r3, [r7, #36]	; 0x24
  tmp_tickstart = HAL_GetTick();
 c005892:	f7fc fc15 	bl	c0020c0 <HAL_GetTick>
 c005896:	6238      	str	r0, [r7, #32]

  /* Initialize the 8bit temporary pointer */
  ptmpreg8 = (__IO uint8_t *)&hspi->Instance->DR;
 c005898:	68fb      	ldr	r3, [r7, #12]
 c00589a:	681b      	ldr	r3, [r3, #0]
 c00589c:	330c      	adds	r3, #12
 c00589e:	61fb      	str	r3, [r7, #28]

  /* Calculate Timeout based on a software loop to avoid blocking issue if Systick is disabled */
  count = tmp_timeout * ((SystemCoreClock * 35U) >> 20U);
 c0058a0:	4b3d      	ldr	r3, [pc, #244]	; (c005998 <SPI_WaitFifoStateUntilTimeout+0x128>)
 c0058a2:	681a      	ldr	r2, [r3, #0]
 c0058a4:	4613      	mov	r3, r2
 c0058a6:	009b      	lsls	r3, r3, #2
 c0058a8:	4413      	add	r3, r2
 c0058aa:	00da      	lsls	r2, r3, #3
 c0058ac:	1ad3      	subs	r3, r2, r3
 c0058ae:	0d1b      	lsrs	r3, r3, #20
 c0058b0:	6a7a      	ldr	r2, [r7, #36]	; 0x24
 c0058b2:	fb02 f303 	mul.w	r3, r2, r3
 c0058b6:	61bb      	str	r3, [r7, #24]

  while ((hspi->Instance->SR & Fifo) != State)
 c0058b8:	e060      	b.n	c00597c <SPI_WaitFifoStateUntilTimeout+0x10c>
  {
    if ((Fifo == SPI_SR_FRLVL) && (State == SPI_FRLVL_EMPTY))
 c0058ba:	68bb      	ldr	r3, [r7, #8]
 c0058bc:	f5b3 6fc0 	cmp.w	r3, #1536	; 0x600
 c0058c0:	d107      	bne.n	c0058d2 <SPI_WaitFifoStateUntilTimeout+0x62>
 c0058c2:	687b      	ldr	r3, [r7, #4]
 c0058c4:	2b00      	cmp	r3, #0
 c0058c6:	d104      	bne.n	c0058d2 <SPI_WaitFifoStateUntilTimeout+0x62>
    {
      /* Flush Data Register by a blank read */
      tmpreg8 = *ptmpreg8;
 c0058c8:	69fb      	ldr	r3, [r7, #28]
 c0058ca:	781b      	ldrb	r3, [r3, #0]
 c0058cc:	b2db      	uxtb	r3, r3
 c0058ce:	75fb      	strb	r3, [r7, #23]
      /* To avoid GCC warning */
      UNUSED(tmpreg8);
 c0058d0:	7dfb      	ldrb	r3, [r7, #23]
    }

    if (Timeout != HAL_MAX_DELAY)
 c0058d2:	683b      	ldr	r3, [r7, #0]
 c0058d4:	f1b3 3fff 	cmp.w	r3, #4294967295
 c0058d8:	d050      	beq.n	c00597c <SPI_WaitFifoStateUntilTimeout+0x10c>
    {
      if (((HAL_GetTick() - tmp_tickstart) >= tmp_timeout) || (tmp_timeout == 0U))
 c0058da:	f7fc fbf1 	bl	c0020c0 <HAL_GetTick>
 c0058de:	4602      	mov	r2, r0
 c0058e0:	6a3b      	ldr	r3, [r7, #32]
 c0058e2:	1ad3      	subs	r3, r2, r3
 c0058e4:	6a7a      	ldr	r2, [r7, #36]	; 0x24
 c0058e6:	429a      	cmp	r2, r3
 c0058e8:	d902      	bls.n	c0058f0 <SPI_WaitFifoStateUntilTimeout+0x80>
 c0058ea:	6a7b      	ldr	r3, [r7, #36]	; 0x24
 c0058ec:	2b00      	cmp	r3, #0
 c0058ee:	d13d      	bne.n	c00596c <SPI_WaitFifoStateUntilTimeout+0xfc>
        /* Disable the SPI and reset the CRC: the CRC value should be cleared
           on both master and slave sides in order to resynchronize the master
           and slave for their respective CRC calculation */

        /* Disable TXE, RXNE and ERR interrupts for the interrupt process */
        __HAL_SPI_DISABLE_IT(hspi, (SPI_IT_TXE | SPI_IT_RXNE | SPI_IT_ERR));
 c0058f0:	68fb      	ldr	r3, [r7, #12]
 c0058f2:	681b      	ldr	r3, [r3, #0]
 c0058f4:	685a      	ldr	r2, [r3, #4]
 c0058f6:	68fb      	ldr	r3, [r7, #12]
 c0058f8:	681b      	ldr	r3, [r3, #0]
 c0058fa:	f022 02e0 	bic.w	r2, r2, #224	; 0xe0
 c0058fe:	605a      	str	r2, [r3, #4]

        if ((hspi->Init.Mode == SPI_MODE_MASTER) && ((hspi->Init.Direction == SPI_DIRECTION_1LINE)
 c005900:	68fb      	ldr	r3, [r7, #12]
 c005902:	685b      	ldr	r3, [r3, #4]
 c005904:	f5b3 7f82 	cmp.w	r3, #260	; 0x104
 c005908:	d111      	bne.n	c00592e <SPI_WaitFifoStateUntilTimeout+0xbe>
 c00590a:	68fb      	ldr	r3, [r7, #12]
 c00590c:	689b      	ldr	r3, [r3, #8]
 c00590e:	f5b3 4f00 	cmp.w	r3, #32768	; 0x8000
 c005912:	d004      	beq.n	c00591e <SPI_WaitFifoStateUntilTimeout+0xae>
                                                     || (hspi->Init.Direction == SPI_DIRECTION_2LINES_RXONLY)))
 c005914:	68fb      	ldr	r3, [r7, #12]
 c005916:	689b      	ldr	r3, [r3, #8]
 c005918:	f5b3 6f80 	cmp.w	r3, #1024	; 0x400
 c00591c:	d107      	bne.n	c00592e <SPI_WaitFifoStateUntilTimeout+0xbe>
        {
          /* Disable SPI peripheral */
          __HAL_SPI_DISABLE(hspi);
 c00591e:	68fb      	ldr	r3, [r7, #12]
 c005920:	681b      	ldr	r3, [r3, #0]
 c005922:	681a      	ldr	r2, [r3, #0]
 c005924:	68fb      	ldr	r3, [r7, #12]
 c005926:	681b      	ldr	r3, [r3, #0]
 c005928:	f022 0240 	bic.w	r2, r2, #64	; 0x40
 c00592c:	601a      	str	r2, [r3, #0]
        }

        /* Reset CRC Calculation */
        if (hspi->Init.CRCCalculation == SPI_CRCCALCULATION_ENABLE)
 c00592e:	68fb      	ldr	r3, [r7, #12]
 c005930:	6a9b      	ldr	r3, [r3, #40]	; 0x28
 c005932:	f5b3 5f00 	cmp.w	r3, #8192	; 0x2000
 c005936:	d10f      	bne.n	c005958 <SPI_WaitFifoStateUntilTimeout+0xe8>
        {
          SPI_RESET_CRC(hspi);
 c005938:	68fb      	ldr	r3, [r7, #12]
 c00593a:	681b      	ldr	r3, [r3, #0]
 c00593c:	681a      	ldr	r2, [r3, #0]
 c00593e:	68fb      	ldr	r3, [r7, #12]
 c005940:	681b      	ldr	r3, [r3, #0]
 c005942:	f422 5200 	bic.w	r2, r2, #8192	; 0x2000
 c005946:	601a      	str	r2, [r3, #0]
 c005948:	68fb      	ldr	r3, [r7, #12]
 c00594a:	681b      	ldr	r3, [r3, #0]
 c00594c:	681a      	ldr	r2, [r3, #0]
 c00594e:	68fb      	ldr	r3, [r7, #12]
 c005950:	681b      	ldr	r3, [r3, #0]
 c005952:	f442 5200 	orr.w	r2, r2, #8192	; 0x2000
 c005956:	601a      	str	r2, [r3, #0]
        }

        hspi->State = HAL_SPI_STATE_READY;
 c005958:	68fb      	ldr	r3, [r7, #12]
 c00595a:	2201      	movs	r2, #1
 c00595c:	f883 205d 	strb.w	r2, [r3, #93]	; 0x5d

        /* Process Unlocked */
        __HAL_UNLOCK(hspi);
 c005960:	68fb      	ldr	r3, [r7, #12]
 c005962:	2200      	movs	r2, #0
 c005964:	f883 205c 	strb.w	r2, [r3, #92]	; 0x5c

        return HAL_TIMEOUT;
 c005968:	2303      	movs	r3, #3
 c00596a:	e010      	b.n	c00598e <SPI_WaitFifoStateUntilTimeout+0x11e>
      }
      /* If Systick is disabled or not incremented, deactivate timeout to go in disable loop procedure */
      if (count == 0U)
 c00596c:	69bb      	ldr	r3, [r7, #24]
 c00596e:	2b00      	cmp	r3, #0
 c005970:	d101      	bne.n	c005976 <SPI_WaitFifoStateUntilTimeout+0x106>
      {
        tmp_timeout = 0U;
 c005972:	2300      	movs	r3, #0
 c005974:	627b      	str	r3, [r7, #36]	; 0x24
      }
      count--;
 c005976:	69bb      	ldr	r3, [r7, #24]
 c005978:	3b01      	subs	r3, #1
 c00597a:	61bb      	str	r3, [r7, #24]
  while ((hspi->Instance->SR & Fifo) != State)
 c00597c:	68fb      	ldr	r3, [r7, #12]
 c00597e:	681b      	ldr	r3, [r3, #0]
 c005980:	689a      	ldr	r2, [r3, #8]
 c005982:	68bb      	ldr	r3, [r7, #8]
 c005984:	4013      	ands	r3, r2
 c005986:	687a      	ldr	r2, [r7, #4]
 c005988:	429a      	cmp	r2, r3
 c00598a:	d196      	bne.n	c0058ba <SPI_WaitFifoStateUntilTimeout+0x4a>
    }
  }

  return HAL_OK;
 c00598c:	2300      	movs	r3, #0
}
 c00598e:	4618      	mov	r0, r3
 c005990:	3728      	adds	r7, #40	; 0x28
 c005992:	46bd      	mov	sp, r7
 c005994:	bd80      	pop	{r7, pc}
 c005996:	bf00      	nop
 c005998:	300000c0 	.word	0x300000c0

0c00599c <SPI_EndRxTxTransaction>:
  * @param  Timeout Timeout duration
  * @param  Tickstart tick start value
  * @retval HAL status
  */
static HAL_StatusTypeDef SPI_EndRxTxTransaction(SPI_HandleTypeDef *hspi, uint32_t Timeout, uint32_t Tickstart)
{
 c00599c:	b580      	push	{r7, lr}
 c00599e:	b086      	sub	sp, #24
 c0059a0:	af02      	add	r7, sp, #8
 c0059a2:	60f8      	str	r0, [r7, #12]
 c0059a4:	60b9      	str	r1, [r7, #8]
 c0059a6:	607a      	str	r2, [r7, #4]
  /* Control if the TX fifo is empty */
  if (SPI_WaitFifoStateUntilTimeout(hspi, SPI_FLAG_FTLVL, SPI_FTLVL_EMPTY, Timeout, Tickstart) != HAL_OK)
 c0059a8:	687b      	ldr	r3, [r7, #4]
 c0059aa:	9300      	str	r3, [sp, #0]
 c0059ac:	68bb      	ldr	r3, [r7, #8]
 c0059ae:	2200      	movs	r2, #0
 c0059b0:	f44f 51c0 	mov.w	r1, #6144	; 0x1800
 c0059b4:	68f8      	ldr	r0, [r7, #12]
 c0059b6:	f7ff ff5b 	bl	c005870 <SPI_WaitFifoStateUntilTimeout>
 c0059ba:	4603      	mov	r3, r0
 c0059bc:	2b00      	cmp	r3, #0
 c0059be:	d007      	beq.n	c0059d0 <SPI_EndRxTxTransaction+0x34>
  {
    SET_BIT(hspi->ErrorCode, HAL_SPI_ERROR_FLAG);
 c0059c0:	68fb      	ldr	r3, [r7, #12]
 c0059c2:	6e1b      	ldr	r3, [r3, #96]	; 0x60
 c0059c4:	f043 0220 	orr.w	r2, r3, #32
 c0059c8:	68fb      	ldr	r3, [r7, #12]
 c0059ca:	661a      	str	r2, [r3, #96]	; 0x60
    return HAL_TIMEOUT;
 c0059cc:	2303      	movs	r3, #3
 c0059ce:	e027      	b.n	c005a20 <SPI_EndRxTxTransaction+0x84>
  }

  /* Control the BSY flag */
  if (SPI_WaitFlagStateUntilTimeout(hspi, SPI_FLAG_BSY, RESET, Timeout, Tickstart) != HAL_OK)
 c0059d0:	687b      	ldr	r3, [r7, #4]
 c0059d2:	9300      	str	r3, [sp, #0]
 c0059d4:	68bb      	ldr	r3, [r7, #8]
 c0059d6:	2200      	movs	r2, #0
 c0059d8:	2180      	movs	r1, #128	; 0x80
 c0059da:	68f8      	ldr	r0, [r7, #12]
 c0059dc:	f7ff fec0 	bl	c005760 <SPI_WaitFlagStateUntilTimeout>
 c0059e0:	4603      	mov	r3, r0
 c0059e2:	2b00      	cmp	r3, #0
 c0059e4:	d007      	beq.n	c0059f6 <SPI_EndRxTxTransaction+0x5a>
  {
    SET_BIT(hspi->ErrorCode, HAL_SPI_ERROR_FLAG);
 c0059e6:	68fb      	ldr	r3, [r7, #12]
 c0059e8:	6e1b      	ldr	r3, [r3, #96]	; 0x60
 c0059ea:	f043 0220 	orr.w	r2, r3, #32
 c0059ee:	68fb      	ldr	r3, [r7, #12]
 c0059f0:	661a      	str	r2, [r3, #96]	; 0x60
    return HAL_TIMEOUT;
 c0059f2:	2303      	movs	r3, #3
 c0059f4:	e014      	b.n	c005a20 <SPI_EndRxTxTransaction+0x84>
  }

  /* Control if the RX fifo is empty */
  if (SPI_WaitFifoStateUntilTimeout(hspi, SPI_FLAG_FRLVL, SPI_FRLVL_EMPTY, Timeout, Tickstart) != HAL_OK)
 c0059f6:	687b      	ldr	r3, [r7, #4]
 c0059f8:	9300      	str	r3, [sp, #0]
 c0059fa:	68bb      	ldr	r3, [r7, #8]
 c0059fc:	2200      	movs	r2, #0
 c0059fe:	f44f 61c0 	mov.w	r1, #1536	; 0x600
 c005a02:	68f8      	ldr	r0, [r7, #12]
 c005a04:	f7ff ff34 	bl	c005870 <SPI_WaitFifoStateUntilTimeout>
 c005a08:	4603      	mov	r3, r0
 c005a0a:	2b00      	cmp	r3, #0
 c005a0c:	d007      	beq.n	c005a1e <SPI_EndRxTxTransaction+0x82>
  {
    SET_BIT(hspi->ErrorCode, HAL_SPI_ERROR_FLAG);
 c005a0e:	68fb      	ldr	r3, [r7, #12]
 c005a10:	6e1b      	ldr	r3, [r3, #96]	; 0x60
 c005a12:	f043 0220 	orr.w	r2, r3, #32
 c005a16:	68fb      	ldr	r3, [r7, #12]
 c005a18:	661a      	str	r2, [r3, #96]	; 0x60
    return HAL_TIMEOUT;
 c005a1a:	2303      	movs	r3, #3
 c005a1c:	e000      	b.n	c005a20 <SPI_EndRxTxTransaction+0x84>
  }

  return HAL_OK;
 c005a1e:	2300      	movs	r3, #0
}
 c005a20:	4618      	mov	r0, r3
 c005a22:	3710      	adds	r7, #16
 c005a24:	46bd      	mov	sp, r7
 c005a26:	bd80      	pop	{r7, pc}

0c005a28 <HAL_UART_Init>:
  *        parameters in the UART_InitTypeDef and initialize the associated handle.
  * @param huart UART handle.
  * @retval HAL status
  */
HAL_StatusTypeDef HAL_UART_Init(UART_HandleTypeDef *huart)
{
 c005a28:	b580      	push	{r7, lr}
 c005a2a:	b082      	sub	sp, #8
 c005a2c:	af00      	add	r7, sp, #0
 c005a2e:	6078      	str	r0, [r7, #4]
  /* Check the UART handle allocation */
  if (huart == NULL)
 c005a30:	687b      	ldr	r3, [r7, #4]
 c005a32:	2b00      	cmp	r3, #0
 c005a34:	d101      	bne.n	c005a3a <HAL_UART_Init+0x12>
  {
    return HAL_ERROR;
 c005a36:	2301      	movs	r3, #1
 c005a38:	e042      	b.n	c005ac0 <HAL_UART_Init+0x98>
  {
    /* Check the parameters */
    assert_param((IS_UART_INSTANCE(huart->Instance)) || (IS_LPUART_INSTANCE(huart->Instance)));
  }

  if (huart->gState == HAL_UART_STATE_RESET)
 c005a3a:	687b      	ldr	r3, [r7, #4]
 c005a3c:	f8d3 3088 	ldr.w	r3, [r3, #136]	; 0x88
 c005a40:	2b00      	cmp	r3, #0
 c005a42:	d106      	bne.n	c005a52 <HAL_UART_Init+0x2a>
  {
    /* Allocate lock resource and initialize it */
    huart->Lock = HAL_UNLOCKED;
 c005a44:	687b      	ldr	r3, [r7, #4]
 c005a46:	2200      	movs	r2, #0
 c005a48:	f883 2084 	strb.w	r2, [r3, #132]	; 0x84

    /* Init the low level hardware */
    huart->MspInitCallback(huart);
#else
    /* Init the low level hardware : GPIO, CLOCK */
    HAL_UART_MspInit(huart);
 c005a4c:	6878      	ldr	r0, [r7, #4]
 c005a4e:	f7fb ffc3 	bl	c0019d8 <HAL_UART_MspInit>
#endif /* (USE_HAL_UART_REGISTER_CALLBACKS) */
  }

  huart->gState = HAL_UART_STATE_BUSY;
 c005a52:	687b      	ldr	r3, [r7, #4]
 c005a54:	2224      	movs	r2, #36	; 0x24
 c005a56:	f8c3 2088 	str.w	r2, [r3, #136]	; 0x88

  __HAL_UART_DISABLE(huart);
 c005a5a:	687b      	ldr	r3, [r7, #4]
 c005a5c:	681b      	ldr	r3, [r3, #0]
 c005a5e:	681a      	ldr	r2, [r3, #0]
 c005a60:	687b      	ldr	r3, [r7, #4]
 c005a62:	681b      	ldr	r3, [r3, #0]
 c005a64:	f022 0201 	bic.w	r2, r2, #1
 c005a68:	601a      	str	r2, [r3, #0]

  /* Set the UART Communication parameters */
  if (UART_SetConfig(huart) == HAL_ERROR)
 c005a6a:	6878      	ldr	r0, [r7, #4]
 c005a6c:	f000 f8ba 	bl	c005be4 <UART_SetConfig>
 c005a70:	4603      	mov	r3, r0
 c005a72:	2b01      	cmp	r3, #1
 c005a74:	d101      	bne.n	c005a7a <HAL_UART_Init+0x52>
  {
    return HAL_ERROR;
 c005a76:	2301      	movs	r3, #1
 c005a78:	e022      	b.n	c005ac0 <HAL_UART_Init+0x98>
  }

  if (huart->AdvancedInit.AdvFeatureInit != UART_ADVFEATURE_NO_INIT)
 c005a7a:	687b      	ldr	r3, [r7, #4]
 c005a7c:	6a9b      	ldr	r3, [r3, #40]	; 0x28
 c005a7e:	2b00      	cmp	r3, #0
 c005a80:	d002      	beq.n	c005a88 <HAL_UART_Init+0x60>
  {
    UART_AdvFeatureConfig(huart);
 c005a82:	6878      	ldr	r0, [r7, #4]
 c005a84:	f000 fbac 	bl	c0061e0 <UART_AdvFeatureConfig>
  }

  /* In asynchronous mode, the following bits must be kept cleared:
  - LINEN and CLKEN bits in the USART_CR2 register,
  - SCEN, HDSEL and IREN  bits in the USART_CR3 register.*/
  CLEAR_BIT(huart->Instance->CR2, (USART_CR2_LINEN | USART_CR2_CLKEN));
 c005a88:	687b      	ldr	r3, [r7, #4]
 c005a8a:	681b      	ldr	r3, [r3, #0]
 c005a8c:	685a      	ldr	r2, [r3, #4]
 c005a8e:	687b      	ldr	r3, [r7, #4]
 c005a90:	681b      	ldr	r3, [r3, #0]
 c005a92:	f422 4290 	bic.w	r2, r2, #18432	; 0x4800
 c005a96:	605a      	str	r2, [r3, #4]
  CLEAR_BIT(huart->Instance->CR3, (USART_CR3_SCEN | USART_CR3_HDSEL | USART_CR3_IREN));
 c005a98:	687b      	ldr	r3, [r7, #4]
 c005a9a:	681b      	ldr	r3, [r3, #0]
 c005a9c:	689a      	ldr	r2, [r3, #8]
 c005a9e:	687b      	ldr	r3, [r7, #4]
 c005aa0:	681b      	ldr	r3, [r3, #0]
 c005aa2:	f022 022a 	bic.w	r2, r2, #42	; 0x2a
 c005aa6:	609a      	str	r2, [r3, #8]

  __HAL_UART_ENABLE(huart);
 c005aa8:	687b      	ldr	r3, [r7, #4]
 c005aaa:	681b      	ldr	r3, [r3, #0]
 c005aac:	681a      	ldr	r2, [r3, #0]
 c005aae:	687b      	ldr	r3, [r7, #4]
 c005ab0:	681b      	ldr	r3, [r3, #0]
 c005ab2:	f042 0201 	orr.w	r2, r2, #1
 c005ab6:	601a      	str	r2, [r3, #0]

  /* TEACK and/or REACK to check before moving huart->gState and huart->RxState to Ready */
  return (UART_CheckIdleState(huart));
 c005ab8:	6878      	ldr	r0, [r7, #4]
 c005aba:	f000 fc33 	bl	c006324 <UART_CheckIdleState>
 c005abe:	4603      	mov	r3, r0
}
 c005ac0:	4618      	mov	r0, r3
 c005ac2:	3708      	adds	r7, #8
 c005ac4:	46bd      	mov	sp, r7
 c005ac6:	bd80      	pop	{r7, pc}

0c005ac8 <HAL_UART_Transmit>:
  * @param Size    Amount of data elements (u8 or u16) to be sent.
  * @param Timeout Timeout duration.
  * @retval HAL status
  */
HAL_StatusTypeDef HAL_UART_Transmit(UART_HandleTypeDef *huart, const uint8_t *pData, uint16_t Size, uint32_t Timeout)
{
 c005ac8:	b580      	push	{r7, lr}
 c005aca:	b08a      	sub	sp, #40	; 0x28
 c005acc:	af02      	add	r7, sp, #8
 c005ace:	60f8      	str	r0, [r7, #12]
 c005ad0:	60b9      	str	r1, [r7, #8]
 c005ad2:	603b      	str	r3, [r7, #0]
 c005ad4:	4613      	mov	r3, r2
 c005ad6:	80fb      	strh	r3, [r7, #6]
  const uint8_t  *pdata8bits;
  const uint16_t *pdata16bits;
  uint32_t tickstart;

  /* Check that a Tx process is not already ongoing */
  if (huart->gState == HAL_UART_STATE_READY)
 c005ad8:	68fb      	ldr	r3, [r7, #12]
 c005ada:	f8d3 3088 	ldr.w	r3, [r3, #136]	; 0x88
 c005ade:	2b20      	cmp	r3, #32
 c005ae0:	d17b      	bne.n	c005bda <HAL_UART_Transmit+0x112>
  {
    if ((pData == NULL) || (Size == 0U))
 c005ae2:	68bb      	ldr	r3, [r7, #8]
 c005ae4:	2b00      	cmp	r3, #0
 c005ae6:	d002      	beq.n	c005aee <HAL_UART_Transmit+0x26>
 c005ae8:	88fb      	ldrh	r3, [r7, #6]
 c005aea:	2b00      	cmp	r3, #0
 c005aec:	d101      	bne.n	c005af2 <HAL_UART_Transmit+0x2a>
    {
      return  HAL_ERROR;
 c005aee:	2301      	movs	r3, #1
 c005af0:	e074      	b.n	c005bdc <HAL_UART_Transmit+0x114>
    }

    huart->ErrorCode = HAL_UART_ERROR_NONE;
 c005af2:	68fb      	ldr	r3, [r7, #12]
 c005af4:	2200      	movs	r2, #0
 c005af6:	f8c3 2090 	str.w	r2, [r3, #144]	; 0x90
    huart->gState = HAL_UART_STATE_BUSY_TX;
 c005afa:	68fb      	ldr	r3, [r7, #12]
 c005afc:	2221      	movs	r2, #33	; 0x21
 c005afe:	f8c3 2088 	str.w	r2, [r3, #136]	; 0x88

    /* Init tickstart for timeout management */
    tickstart = HAL_GetTick();
 c005b02:	f7fc fadd 	bl	c0020c0 <HAL_GetTick>
 c005b06:	6178      	str	r0, [r7, #20]

    huart->TxXferSize  = Size;
 c005b08:	68fb      	ldr	r3, [r7, #12]
 c005b0a:	88fa      	ldrh	r2, [r7, #6]
 c005b0c:	f8a3 2054 	strh.w	r2, [r3, #84]	; 0x54
    huart->TxXferCount = Size;
 c005b10:	68fb      	ldr	r3, [r7, #12]
 c005b12:	88fa      	ldrh	r2, [r7, #6]
 c005b14:	f8a3 2056 	strh.w	r2, [r3, #86]	; 0x56

    /* In case of 9bits/No Parity transfer, pData needs to be handled as a uint16_t pointer */
    if ((huart->Init.WordLength == UART_WORDLENGTH_9B) && (huart->Init.Parity == UART_PARITY_NONE))
 c005b18:	68fb      	ldr	r3, [r7, #12]
 c005b1a:	689b      	ldr	r3, [r3, #8]
 c005b1c:	f5b3 5f80 	cmp.w	r3, #4096	; 0x1000
 c005b20:	d108      	bne.n	c005b34 <HAL_UART_Transmit+0x6c>
 c005b22:	68fb      	ldr	r3, [r7, #12]
 c005b24:	691b      	ldr	r3, [r3, #16]
 c005b26:	2b00      	cmp	r3, #0
 c005b28:	d104      	bne.n	c005b34 <HAL_UART_Transmit+0x6c>
    {
      pdata8bits  = NULL;
 c005b2a:	2300      	movs	r3, #0
 c005b2c:	61fb      	str	r3, [r7, #28]
      pdata16bits = (const uint16_t *) pData;
 c005b2e:	68bb      	ldr	r3, [r7, #8]
 c005b30:	61bb      	str	r3, [r7, #24]
 c005b32:	e003      	b.n	c005b3c <HAL_UART_Transmit+0x74>
    }
    else
    {
      pdata8bits  = pData;
 c005b34:	68bb      	ldr	r3, [r7, #8]
 c005b36:	61fb      	str	r3, [r7, #28]
      pdata16bits = NULL;
 c005b38:	2300      	movs	r3, #0
 c005b3a:	61bb      	str	r3, [r7, #24]
    }

    while (huart->TxXferCount > 0U)
 c005b3c:	e030      	b.n	c005ba0 <HAL_UART_Transmit+0xd8>
    {
      if (UART_WaitOnFlagUntilTimeout(huart, UART_FLAG_TXE, RESET, tickstart, Timeout) != HAL_OK)
 c005b3e:	683b      	ldr	r3, [r7, #0]
 c005b40:	9300      	str	r3, [sp, #0]
 c005b42:	697b      	ldr	r3, [r7, #20]
 c005b44:	2200      	movs	r2, #0
 c005b46:	2180      	movs	r1, #128	; 0x80
 c005b48:	68f8      	ldr	r0, [r7, #12]
 c005b4a:	f000 fc95 	bl	c006478 <UART_WaitOnFlagUntilTimeout>
 c005b4e:	4603      	mov	r3, r0
 c005b50:	2b00      	cmp	r3, #0
 c005b52:	d005      	beq.n	c005b60 <HAL_UART_Transmit+0x98>
      {

        huart->gState = HAL_UART_STATE_READY;
 c005b54:	68fb      	ldr	r3, [r7, #12]
 c005b56:	2220      	movs	r2, #32
 c005b58:	f8c3 2088 	str.w	r2, [r3, #136]	; 0x88

        return HAL_TIMEOUT;
 c005b5c:	2303      	movs	r3, #3
 c005b5e:	e03d      	b.n	c005bdc <HAL_UART_Transmit+0x114>
      }
      if (pdata8bits == NULL)
 c005b60:	69fb      	ldr	r3, [r7, #28]
 c005b62:	2b00      	cmp	r3, #0
 c005b64:	d10b      	bne.n	c005b7e <HAL_UART_Transmit+0xb6>
      {
        huart->Instance->TDR = (uint16_t)(*pdata16bits & 0x01FFU);
 c005b66:	69bb      	ldr	r3, [r7, #24]
 c005b68:	881b      	ldrh	r3, [r3, #0]
 c005b6a:	461a      	mov	r2, r3
 c005b6c:	68fb      	ldr	r3, [r7, #12]
 c005b6e:	681b      	ldr	r3, [r3, #0]
 c005b70:	f3c2 0208 	ubfx	r2, r2, #0, #9
 c005b74:	629a      	str	r2, [r3, #40]	; 0x28
        pdata16bits++;
 c005b76:	69bb      	ldr	r3, [r7, #24]
 c005b78:	3302      	adds	r3, #2
 c005b7a:	61bb      	str	r3, [r7, #24]
 c005b7c:	e007      	b.n	c005b8e <HAL_UART_Transmit+0xc6>
      }
      else
      {
        huart->Instance->TDR = (uint8_t)(*pdata8bits & 0xFFU);
 c005b7e:	69fb      	ldr	r3, [r7, #28]
 c005b80:	781a      	ldrb	r2, [r3, #0]
 c005b82:	68fb      	ldr	r3, [r7, #12]
 c005b84:	681b      	ldr	r3, [r3, #0]
 c005b86:	629a      	str	r2, [r3, #40]	; 0x28
        pdata8bits++;
 c005b88:	69fb      	ldr	r3, [r7, #28]
 c005b8a:	3301      	adds	r3, #1
 c005b8c:	61fb      	str	r3, [r7, #28]
      }
      huart->TxXferCount--;
 c005b8e:	68fb      	ldr	r3, [r7, #12]
 c005b90:	f8b3 3056 	ldrh.w	r3, [r3, #86]	; 0x56
 c005b94:	b29b      	uxth	r3, r3
 c005b96:	3b01      	subs	r3, #1
 c005b98:	b29a      	uxth	r2, r3
 c005b9a:	68fb      	ldr	r3, [r7, #12]
 c005b9c:	f8a3 2056 	strh.w	r2, [r3, #86]	; 0x56
    while (huart->TxXferCount > 0U)
 c005ba0:	68fb      	ldr	r3, [r7, #12]
 c005ba2:	f8b3 3056 	ldrh.w	r3, [r3, #86]	; 0x56
 c005ba6:	b29b      	uxth	r3, r3
 c005ba8:	2b00      	cmp	r3, #0
 c005baa:	d1c8      	bne.n	c005b3e <HAL_UART_Transmit+0x76>
    }

    if (UART_WaitOnFlagUntilTimeout(huart, UART_FLAG_TC, RESET, tickstart, Timeout) != HAL_OK)
 c005bac:	683b      	ldr	r3, [r7, #0]
 c005bae:	9300      	str	r3, [sp, #0]
 c005bb0:	697b      	ldr	r3, [r7, #20]
 c005bb2:	2200      	movs	r2, #0
 c005bb4:	2140      	movs	r1, #64	; 0x40
 c005bb6:	68f8      	ldr	r0, [r7, #12]
 c005bb8:	f000 fc5e 	bl	c006478 <UART_WaitOnFlagUntilTimeout>
 c005bbc:	4603      	mov	r3, r0
 c005bbe:	2b00      	cmp	r3, #0
 c005bc0:	d005      	beq.n	c005bce <HAL_UART_Transmit+0x106>
    {
      huart->gState = HAL_UART_STATE_READY;
 c005bc2:	68fb      	ldr	r3, [r7, #12]
 c005bc4:	2220      	movs	r2, #32
 c005bc6:	f8c3 2088 	str.w	r2, [r3, #136]	; 0x88

      return HAL_TIMEOUT;
 c005bca:	2303      	movs	r3, #3
 c005bcc:	e006      	b.n	c005bdc <HAL_UART_Transmit+0x114>
    }

    /* At end of Tx process, restore huart->gState to Ready */
    huart->gState = HAL_UART_STATE_READY;
 c005bce:	68fb      	ldr	r3, [r7, #12]
 c005bd0:	2220      	movs	r2, #32
 c005bd2:	f8c3 2088 	str.w	r2, [r3, #136]	; 0x88

    return HAL_OK;
 c005bd6:	2300      	movs	r3, #0
 c005bd8:	e000      	b.n	c005bdc <HAL_UART_Transmit+0x114>
  }
  else
  {
    return HAL_BUSY;
 c005bda:	2302      	movs	r3, #2
  }
}
 c005bdc:	4618      	mov	r0, r3
 c005bde:	3720      	adds	r7, #32
 c005be0:	46bd      	mov	sp, r7
 c005be2:	bd80      	pop	{r7, pc}

0c005be4 <UART_SetConfig>:
  * @brief Configure the UART peripheral.
  * @param huart UART handle.
  * @retval HAL status
  */
HAL_StatusTypeDef UART_SetConfig(UART_HandleTypeDef *huart)
{
 c005be4:	e92d 4fb0 	stmdb	sp!, {r4, r5, r7, r8, r9, sl, fp, lr}
 c005be8:	b08c      	sub	sp, #48	; 0x30
 c005bea:	af00      	add	r7, sp, #0
 c005bec:	6178      	str	r0, [r7, #20]
  uint32_t tmpreg;
  uint16_t brrtemp;
  UART_ClockSourceTypeDef clocksource;
  uint32_t usartdiv;
  HAL_StatusTypeDef ret               = HAL_OK;
 c005bee:	2300      	movs	r3, #0
 c005bf0:	f887 302a 	strb.w	r3, [r7, #42]	; 0x2a
  *  the UART Word Length, Parity, Mode and oversampling:
  *  set the M bits according to huart->Init.WordLength value
  *  set PCE and PS bits according to huart->Init.Parity value
  *  set TE and RE bits according to huart->Init.Mode value
  *  set OVER8 bit according to huart->Init.OverSampling value */
  tmpreg = (uint32_t)huart->Init.WordLength | huart->Init.Parity | huart->Init.Mode | huart->Init.OverSampling ;
 c005bf4:	697b      	ldr	r3, [r7, #20]
 c005bf6:	689a      	ldr	r2, [r3, #8]
 c005bf8:	697b      	ldr	r3, [r7, #20]
 c005bfa:	691b      	ldr	r3, [r3, #16]
 c005bfc:	431a      	orrs	r2, r3
 c005bfe:	697b      	ldr	r3, [r7, #20]
 c005c00:	695b      	ldr	r3, [r3, #20]
 c005c02:	431a      	orrs	r2, r3
 c005c04:	697b      	ldr	r3, [r7, #20]
 c005c06:	69db      	ldr	r3, [r3, #28]
 c005c08:	4313      	orrs	r3, r2
 c005c0a:	62fb      	str	r3, [r7, #44]	; 0x2c
  MODIFY_REG(huart->Instance->CR1, USART_CR1_FIELDS, tmpreg);
 c005c0c:	697b      	ldr	r3, [r7, #20]
 c005c0e:	681b      	ldr	r3, [r3, #0]
 c005c10:	681a      	ldr	r2, [r3, #0]
 c005c12:	4baa      	ldr	r3, [pc, #680]	; (c005ebc <UART_SetConfig+0x2d8>)
 c005c14:	4013      	ands	r3, r2
 c005c16:	697a      	ldr	r2, [r7, #20]
 c005c18:	6812      	ldr	r2, [r2, #0]
 c005c1a:	6af9      	ldr	r1, [r7, #44]	; 0x2c
 c005c1c:	430b      	orrs	r3, r1
 c005c1e:	6013      	str	r3, [r2, #0]

  /*-------------------------- USART CR2 Configuration -----------------------*/
  /* Configure the UART Stop Bits: Set STOP[13:12] bits according
  * to huart->Init.StopBits value */
  MODIFY_REG(huart->Instance->CR2, USART_CR2_STOP, huart->Init.StopBits);
 c005c20:	697b      	ldr	r3, [r7, #20]
 c005c22:	681b      	ldr	r3, [r3, #0]
 c005c24:	685b      	ldr	r3, [r3, #4]
 c005c26:	f423 5140 	bic.w	r1, r3, #12288	; 0x3000
 c005c2a:	697b      	ldr	r3, [r7, #20]
 c005c2c:	68da      	ldr	r2, [r3, #12]
 c005c2e:	697b      	ldr	r3, [r7, #20]
 c005c30:	681b      	ldr	r3, [r3, #0]
 c005c32:	430a      	orrs	r2, r1
 c005c34:	605a      	str	r2, [r3, #4]
  /* Configure
  * - UART HardWare Flow Control: set CTSE and RTSE bits according
  *   to huart->Init.HwFlowCtl value
  * - one-bit sampling method versus three samples' majority rule according
  *   to huart->Init.OneBitSampling (not applicable to LPUART) */
  tmpreg = (uint32_t)huart->Init.HwFlowCtl;
 c005c36:	697b      	ldr	r3, [r7, #20]
 c005c38:	699b      	ldr	r3, [r3, #24]
 c005c3a:	62fb      	str	r3, [r7, #44]	; 0x2c

  if (!(UART_INSTANCE_LOWPOWER(huart)))
 c005c3c:	697b      	ldr	r3, [r7, #20]
 c005c3e:	681b      	ldr	r3, [r3, #0]
 c005c40:	4a9f      	ldr	r2, [pc, #636]	; (c005ec0 <UART_SetConfig+0x2dc>)
 c005c42:	4293      	cmp	r3, r2
 c005c44:	d004      	beq.n	c005c50 <UART_SetConfig+0x6c>
  {
    tmpreg |= huart->Init.OneBitSampling;
 c005c46:	697b      	ldr	r3, [r7, #20]
 c005c48:	6a1b      	ldr	r3, [r3, #32]
 c005c4a:	6afa      	ldr	r2, [r7, #44]	; 0x2c
 c005c4c:	4313      	orrs	r3, r2
 c005c4e:	62fb      	str	r3, [r7, #44]	; 0x2c
  }
  MODIFY_REG(huart->Instance->CR3, USART_CR3_FIELDS, tmpreg);
 c005c50:	697b      	ldr	r3, [r7, #20]
 c005c52:	681b      	ldr	r3, [r3, #0]
 c005c54:	689b      	ldr	r3, [r3, #8]
 c005c56:	f023 436e 	bic.w	r3, r3, #3992977408	; 0xee000000
 c005c5a:	f423 6330 	bic.w	r3, r3, #2816	; 0xb00
 c005c5e:	697a      	ldr	r2, [r7, #20]
 c005c60:	6812      	ldr	r2, [r2, #0]
 c005c62:	6af9      	ldr	r1, [r7, #44]	; 0x2c
 c005c64:	430b      	orrs	r3, r1
 c005c66:	6093      	str	r3, [r2, #8]

  /*-------------------------- USART PRESC Configuration -----------------------*/
  /* Configure
  * - UART Clock Prescaler : set PRESCALER according to huart->Init.ClockPrescaler value */
  MODIFY_REG(huart->Instance->PRESC, USART_PRESC_PRESCALER, huart->Init.ClockPrescaler);
 c005c68:	697b      	ldr	r3, [r7, #20]
 c005c6a:	681b      	ldr	r3, [r3, #0]
 c005c6c:	6adb      	ldr	r3, [r3, #44]	; 0x2c
 c005c6e:	f023 010f 	bic.w	r1, r3, #15
 c005c72:	697b      	ldr	r3, [r7, #20]
 c005c74:	6a5a      	ldr	r2, [r3, #36]	; 0x24
 c005c76:	697b      	ldr	r3, [r7, #20]
 c005c78:	681b      	ldr	r3, [r3, #0]
 c005c7a:	430a      	orrs	r2, r1
 c005c7c:	62da      	str	r2, [r3, #44]	; 0x2c

  /*-------------------------- USART BRR Configuration -----------------------*/
  UART_GETCLOCKSOURCE(huart, clocksource);
 c005c7e:	697b      	ldr	r3, [r7, #20]
 c005c80:	681b      	ldr	r3, [r3, #0]
 c005c82:	4a90      	ldr	r2, [pc, #576]	; (c005ec4 <UART_SetConfig+0x2e0>)
 c005c84:	4293      	cmp	r3, r2
 c005c86:	d125      	bne.n	c005cd4 <UART_SetConfig+0xf0>
 c005c88:	4b8f      	ldr	r3, [pc, #572]	; (c005ec8 <UART_SetConfig+0x2e4>)
 c005c8a:	f8d3 3088 	ldr.w	r3, [r3, #136]	; 0x88
 c005c8e:	f003 0303 	and.w	r3, r3, #3
 c005c92:	2b03      	cmp	r3, #3
 c005c94:	d81a      	bhi.n	c005ccc <UART_SetConfig+0xe8>
 c005c96:	a201      	add	r2, pc, #4	; (adr r2, c005c9c <UART_SetConfig+0xb8>)
 c005c98:	f852 f023 	ldr.w	pc, [r2, r3, lsl #2]
 c005c9c:	0c005cad 	.word	0x0c005cad
 c005ca0:	0c005cbd 	.word	0x0c005cbd
 c005ca4:	0c005cb5 	.word	0x0c005cb5
 c005ca8:	0c005cc5 	.word	0x0c005cc5
 c005cac:	2301      	movs	r3, #1
 c005cae:	f887 302b 	strb.w	r3, [r7, #43]	; 0x2b
 c005cb2:	e114      	b.n	c005ede <UART_SetConfig+0x2fa>
 c005cb4:	2302      	movs	r3, #2
 c005cb6:	f887 302b 	strb.w	r3, [r7, #43]	; 0x2b
 c005cba:	e110      	b.n	c005ede <UART_SetConfig+0x2fa>
 c005cbc:	2304      	movs	r3, #4
 c005cbe:	f887 302b 	strb.w	r3, [r7, #43]	; 0x2b
 c005cc2:	e10c      	b.n	c005ede <UART_SetConfig+0x2fa>
 c005cc4:	2308      	movs	r3, #8
 c005cc6:	f887 302b 	strb.w	r3, [r7, #43]	; 0x2b
 c005cca:	e108      	b.n	c005ede <UART_SetConfig+0x2fa>
 c005ccc:	2310      	movs	r3, #16
 c005cce:	f887 302b 	strb.w	r3, [r7, #43]	; 0x2b
 c005cd2:	e104      	b.n	c005ede <UART_SetConfig+0x2fa>
 c005cd4:	697b      	ldr	r3, [r7, #20]
 c005cd6:	681b      	ldr	r3, [r3, #0]
 c005cd8:	4a7c      	ldr	r2, [pc, #496]	; (c005ecc <UART_SetConfig+0x2e8>)
 c005cda:	4293      	cmp	r3, r2
 c005cdc:	d138      	bne.n	c005d50 <UART_SetConfig+0x16c>
 c005cde:	4b7a      	ldr	r3, [pc, #488]	; (c005ec8 <UART_SetConfig+0x2e4>)
 c005ce0:	f8d3 3088 	ldr.w	r3, [r3, #136]	; 0x88
 c005ce4:	f003 030c 	and.w	r3, r3, #12
 c005ce8:	2b0c      	cmp	r3, #12
 c005cea:	d82d      	bhi.n	c005d48 <UART_SetConfig+0x164>
 c005cec:	a201      	add	r2, pc, #4	; (adr r2, c005cf4 <UART_SetConfig+0x110>)
 c005cee:	f852 f023 	ldr.w	pc, [r2, r3, lsl #2]
 c005cf2:	bf00      	nop
 c005cf4:	0c005d29 	.word	0x0c005d29
 c005cf8:	0c005d49 	.word	0x0c005d49
 c005cfc:	0c005d49 	.word	0x0c005d49
 c005d00:	0c005d49 	.word	0x0c005d49
 c005d04:	0c005d39 	.word	0x0c005d39
 c005d08:	0c005d49 	.word	0x0c005d49
 c005d0c:	0c005d49 	.word	0x0c005d49
 c005d10:	0c005d49 	.word	0x0c005d49
 c005d14:	0c005d31 	.word	0x0c005d31
 c005d18:	0c005d49 	.word	0x0c005d49
 c005d1c:	0c005d49 	.word	0x0c005d49
 c005d20:	0c005d49 	.word	0x0c005d49
 c005d24:	0c005d41 	.word	0x0c005d41
 c005d28:	2300      	movs	r3, #0
 c005d2a:	f887 302b 	strb.w	r3, [r7, #43]	; 0x2b
 c005d2e:	e0d6      	b.n	c005ede <UART_SetConfig+0x2fa>
 c005d30:	2302      	movs	r3, #2
 c005d32:	f887 302b 	strb.w	r3, [r7, #43]	; 0x2b
 c005d36:	e0d2      	b.n	c005ede <UART_SetConfig+0x2fa>
 c005d38:	2304      	movs	r3, #4
 c005d3a:	f887 302b 	strb.w	r3, [r7, #43]	; 0x2b
 c005d3e:	e0ce      	b.n	c005ede <UART_SetConfig+0x2fa>
 c005d40:	2308      	movs	r3, #8
 c005d42:	f887 302b 	strb.w	r3, [r7, #43]	; 0x2b
 c005d46:	e0ca      	b.n	c005ede <UART_SetConfig+0x2fa>
 c005d48:	2310      	movs	r3, #16
 c005d4a:	f887 302b 	strb.w	r3, [r7, #43]	; 0x2b
 c005d4e:	e0c6      	b.n	c005ede <UART_SetConfig+0x2fa>
 c005d50:	697b      	ldr	r3, [r7, #20]
 c005d52:	681b      	ldr	r3, [r3, #0]
 c005d54:	4a5e      	ldr	r2, [pc, #376]	; (c005ed0 <UART_SetConfig+0x2ec>)
 c005d56:	4293      	cmp	r3, r2
 c005d58:	d125      	bne.n	c005da6 <UART_SetConfig+0x1c2>
 c005d5a:	4b5b      	ldr	r3, [pc, #364]	; (c005ec8 <UART_SetConfig+0x2e4>)
 c005d5c:	f8d3 3088 	ldr.w	r3, [r3, #136]	; 0x88
 c005d60:	f003 0330 	and.w	r3, r3, #48	; 0x30
 c005d64:	2b30      	cmp	r3, #48	; 0x30
 c005d66:	d016      	beq.n	c005d96 <UART_SetConfig+0x1b2>
 c005d68:	2b30      	cmp	r3, #48	; 0x30
 c005d6a:	d818      	bhi.n	c005d9e <UART_SetConfig+0x1ba>
 c005d6c:	2b20      	cmp	r3, #32
 c005d6e:	d00a      	beq.n	c005d86 <UART_SetConfig+0x1a2>
 c005d70:	2b20      	cmp	r3, #32
 c005d72:	d814      	bhi.n	c005d9e <UART_SetConfig+0x1ba>
 c005d74:	2b00      	cmp	r3, #0
 c005d76:	d002      	beq.n	c005d7e <UART_SetConfig+0x19a>
 c005d78:	2b10      	cmp	r3, #16
 c005d7a:	d008      	beq.n	c005d8e <UART_SetConfig+0x1aa>
 c005d7c:	e00f      	b.n	c005d9e <UART_SetConfig+0x1ba>
 c005d7e:	2300      	movs	r3, #0
 c005d80:	f887 302b 	strb.w	r3, [r7, #43]	; 0x2b
 c005d84:	e0ab      	b.n	c005ede <UART_SetConfig+0x2fa>
 c005d86:	2302      	movs	r3, #2
 c005d88:	f887 302b 	strb.w	r3, [r7, #43]	; 0x2b
 c005d8c:	e0a7      	b.n	c005ede <UART_SetConfig+0x2fa>
 c005d8e:	2304      	movs	r3, #4
 c005d90:	f887 302b 	strb.w	r3, [r7, #43]	; 0x2b
 c005d94:	e0a3      	b.n	c005ede <UART_SetConfig+0x2fa>
 c005d96:	2308      	movs	r3, #8
 c005d98:	f887 302b 	strb.w	r3, [r7, #43]	; 0x2b
 c005d9c:	e09f      	b.n	c005ede <UART_SetConfig+0x2fa>
 c005d9e:	2310      	movs	r3, #16
 c005da0:	f887 302b 	strb.w	r3, [r7, #43]	; 0x2b
 c005da4:	e09b      	b.n	c005ede <UART_SetConfig+0x2fa>
 c005da6:	697b      	ldr	r3, [r7, #20]
 c005da8:	681b      	ldr	r3, [r3, #0]
 c005daa:	4a4a      	ldr	r2, [pc, #296]	; (c005ed4 <UART_SetConfig+0x2f0>)
 c005dac:	4293      	cmp	r3, r2
 c005dae:	d125      	bne.n	c005dfc <UART_SetConfig+0x218>
 c005db0:	4b45      	ldr	r3, [pc, #276]	; (c005ec8 <UART_SetConfig+0x2e4>)
 c005db2:	f8d3 3088 	ldr.w	r3, [r3, #136]	; 0x88
 c005db6:	f003 03c0 	and.w	r3, r3, #192	; 0xc0
 c005dba:	2bc0      	cmp	r3, #192	; 0xc0
 c005dbc:	d016      	beq.n	c005dec <UART_SetConfig+0x208>
 c005dbe:	2bc0      	cmp	r3, #192	; 0xc0
 c005dc0:	d818      	bhi.n	c005df4 <UART_SetConfig+0x210>
 c005dc2:	2b80      	cmp	r3, #128	; 0x80
 c005dc4:	d00a      	beq.n	c005ddc <UART_SetConfig+0x1f8>
 c005dc6:	2b80      	cmp	r3, #128	; 0x80
 c005dc8:	d814      	bhi.n	c005df4 <UART_SetConfig+0x210>
 c005dca:	2b00      	cmp	r3, #0
 c005dcc:	d002      	beq.n	c005dd4 <UART_SetConfig+0x1f0>
 c005dce:	2b40      	cmp	r3, #64	; 0x40
 c005dd0:	d008      	beq.n	c005de4 <UART_SetConfig+0x200>
 c005dd2:	e00f      	b.n	c005df4 <UART_SetConfig+0x210>
 c005dd4:	2300      	movs	r3, #0
 c005dd6:	f887 302b 	strb.w	r3, [r7, #43]	; 0x2b
 c005dda:	e080      	b.n	c005ede <UART_SetConfig+0x2fa>
 c005ddc:	2302      	movs	r3, #2
 c005dde:	f887 302b 	strb.w	r3, [r7, #43]	; 0x2b
 c005de2:	e07c      	b.n	c005ede <UART_SetConfig+0x2fa>
 c005de4:	2304      	movs	r3, #4
 c005de6:	f887 302b 	strb.w	r3, [r7, #43]	; 0x2b
 c005dea:	e078      	b.n	c005ede <UART_SetConfig+0x2fa>
 c005dec:	2308      	movs	r3, #8
 c005dee:	f887 302b 	strb.w	r3, [r7, #43]	; 0x2b
 c005df2:	e074      	b.n	c005ede <UART_SetConfig+0x2fa>
 c005df4:	2310      	movs	r3, #16
 c005df6:	f887 302b 	strb.w	r3, [r7, #43]	; 0x2b
 c005dfa:	e070      	b.n	c005ede <UART_SetConfig+0x2fa>
 c005dfc:	697b      	ldr	r3, [r7, #20]
 c005dfe:	681b      	ldr	r3, [r3, #0]
 c005e00:	f1b3 2f50 	cmp.w	r3, #1342197760	; 0x50005000
 c005e04:	d12a      	bne.n	c005e5c <UART_SetConfig+0x278>
 c005e06:	4b30      	ldr	r3, [pc, #192]	; (c005ec8 <UART_SetConfig+0x2e4>)
 c005e08:	f8d3 3088 	ldr.w	r3, [r3, #136]	; 0x88
 c005e0c:	f403 7340 	and.w	r3, r3, #768	; 0x300
 c005e10:	f5b3 7f40 	cmp.w	r3, #768	; 0x300
 c005e14:	d01a      	beq.n	c005e4c <UART_SetConfig+0x268>
 c005e16:	f5b3 7f40 	cmp.w	r3, #768	; 0x300
 c005e1a:	d81b      	bhi.n	c005e54 <UART_SetConfig+0x270>
 c005e1c:	f5b3 7f00 	cmp.w	r3, #512	; 0x200
 c005e20:	d00c      	beq.n	c005e3c <UART_SetConfig+0x258>
 c005e22:	f5b3 7f00 	cmp.w	r3, #512	; 0x200
 c005e26:	d815      	bhi.n	c005e54 <UART_SetConfig+0x270>
 c005e28:	2b00      	cmp	r3, #0
 c005e2a:	d003      	beq.n	c005e34 <UART_SetConfig+0x250>
 c005e2c:	f5b3 7f80 	cmp.w	r3, #256	; 0x100
 c005e30:	d008      	beq.n	c005e44 <UART_SetConfig+0x260>
 c005e32:	e00f      	b.n	c005e54 <UART_SetConfig+0x270>
 c005e34:	2300      	movs	r3, #0
 c005e36:	f887 302b 	strb.w	r3, [r7, #43]	; 0x2b
 c005e3a:	e050      	b.n	c005ede <UART_SetConfig+0x2fa>
 c005e3c:	2302      	movs	r3, #2
 c005e3e:	f887 302b 	strb.w	r3, [r7, #43]	; 0x2b
 c005e42:	e04c      	b.n	c005ede <UART_SetConfig+0x2fa>
 c005e44:	2304      	movs	r3, #4
 c005e46:	f887 302b 	strb.w	r3, [r7, #43]	; 0x2b
 c005e4a:	e048      	b.n	c005ede <UART_SetConfig+0x2fa>
 c005e4c:	2308      	movs	r3, #8
 c005e4e:	f887 302b 	strb.w	r3, [r7, #43]	; 0x2b
 c005e52:	e044      	b.n	c005ede <UART_SetConfig+0x2fa>
 c005e54:	2310      	movs	r3, #16
 c005e56:	f887 302b 	strb.w	r3, [r7, #43]	; 0x2b
 c005e5a:	e040      	b.n	c005ede <UART_SetConfig+0x2fa>
 c005e5c:	697b      	ldr	r3, [r7, #20]
 c005e5e:	681b      	ldr	r3, [r3, #0]
 c005e60:	4a17      	ldr	r2, [pc, #92]	; (c005ec0 <UART_SetConfig+0x2dc>)
 c005e62:	4293      	cmp	r3, r2
 c005e64:	d138      	bne.n	c005ed8 <UART_SetConfig+0x2f4>
 c005e66:	4b18      	ldr	r3, [pc, #96]	; (c005ec8 <UART_SetConfig+0x2e4>)
 c005e68:	f8d3 3088 	ldr.w	r3, [r3, #136]	; 0x88
 c005e6c:	f403 6340 	and.w	r3, r3, #3072	; 0xc00
 c005e70:	f5b3 6f40 	cmp.w	r3, #3072	; 0xc00
 c005e74:	d01a      	beq.n	c005eac <UART_SetConfig+0x2c8>
 c005e76:	f5b3 6f40 	cmp.w	r3, #3072	; 0xc00
 c005e7a:	d81b      	bhi.n	c005eb4 <UART_SetConfig+0x2d0>
 c005e7c:	f5b3 6f00 	cmp.w	r3, #2048	; 0x800
 c005e80:	d00c      	beq.n	c005e9c <UART_SetConfig+0x2b8>
 c005e82:	f5b3 6f00 	cmp.w	r3, #2048	; 0x800
 c005e86:	d815      	bhi.n	c005eb4 <UART_SetConfig+0x2d0>
 c005e88:	2b00      	cmp	r3, #0
 c005e8a:	d003      	beq.n	c005e94 <UART_SetConfig+0x2b0>
 c005e8c:	f5b3 6f80 	cmp.w	r3, #1024	; 0x400
 c005e90:	d008      	beq.n	c005ea4 <UART_SetConfig+0x2c0>
 c005e92:	e00f      	b.n	c005eb4 <UART_SetConfig+0x2d0>
 c005e94:	2300      	movs	r3, #0
 c005e96:	f887 302b 	strb.w	r3, [r7, #43]	; 0x2b
 c005e9a:	e020      	b.n	c005ede <UART_SetConfig+0x2fa>
 c005e9c:	2302      	movs	r3, #2
 c005e9e:	f887 302b 	strb.w	r3, [r7, #43]	; 0x2b
 c005ea2:	e01c      	b.n	c005ede <UART_SetConfig+0x2fa>
 c005ea4:	2304      	movs	r3, #4
 c005ea6:	f887 302b 	strb.w	r3, [r7, #43]	; 0x2b
 c005eaa:	e018      	b.n	c005ede <UART_SetConfig+0x2fa>
 c005eac:	2308      	movs	r3, #8
 c005eae:	f887 302b 	strb.w	r3, [r7, #43]	; 0x2b
 c005eb2:	e014      	b.n	c005ede <UART_SetConfig+0x2fa>
 c005eb4:	2310      	movs	r3, #16
 c005eb6:	f887 302b 	strb.w	r3, [r7, #43]	; 0x2b
 c005eba:	e010      	b.n	c005ede <UART_SetConfig+0x2fa>
 c005ebc:	cfff69f3 	.word	0xcfff69f3
 c005ec0:	50008000 	.word	0x50008000
 c005ec4:	50013800 	.word	0x50013800
 c005ec8:	50021000 	.word	0x50021000
 c005ecc:	50004400 	.word	0x50004400
 c005ed0:	50004800 	.word	0x50004800
 c005ed4:	50004c00 	.word	0x50004c00
 c005ed8:	2310      	movs	r3, #16
 c005eda:	f887 302b 	strb.w	r3, [r7, #43]	; 0x2b

  /* Check LPUART instance */
  if (UART_INSTANCE_LOWPOWER(huart))
 c005ede:	697b      	ldr	r3, [r7, #20]
 c005ee0:	681b      	ldr	r3, [r3, #0]
 c005ee2:	4ab0      	ldr	r2, [pc, #704]	; (c0061a4 <UART_SetConfig+0x5c0>)
 c005ee4:	4293      	cmp	r3, r2
 c005ee6:	f040 809b 	bne.w	c006020 <UART_SetConfig+0x43c>
  {
    /* Retrieve frequency clock */
    switch (clocksource)
 c005eea:	f897 302b 	ldrb.w	r3, [r7, #43]	; 0x2b
 c005eee:	2b08      	cmp	r3, #8
 c005ef0:	d827      	bhi.n	c005f42 <UART_SetConfig+0x35e>
 c005ef2:	a201      	add	r2, pc, #4	; (adr r2, c005ef8 <UART_SetConfig+0x314>)
 c005ef4:	f852 f023 	ldr.w	pc, [r2, r3, lsl #2]
 c005ef8:	0c005f1d 	.word	0x0c005f1d
 c005efc:	0c005f25 	.word	0x0c005f25
 c005f00:	0c005f2d 	.word	0x0c005f2d
 c005f04:	0c005f43 	.word	0x0c005f43
 c005f08:	0c005f33 	.word	0x0c005f33
 c005f0c:	0c005f43 	.word	0x0c005f43
 c005f10:	0c005f43 	.word	0x0c005f43
 c005f14:	0c005f43 	.word	0x0c005f43
 c005f18:	0c005f3b 	.word	0x0c005f3b
    {
      case UART_CLOCKSOURCE_PCLK1:
        pclk = HAL_RCC_GetPCLK1Freq();
 c005f1c:	f7fe fbe2 	bl	c0046e4 <HAL_RCC_GetPCLK1Freq>
 c005f20:	6278      	str	r0, [r7, #36]	; 0x24
        break;
 c005f22:	e014      	b.n	c005f4e <UART_SetConfig+0x36a>
      case UART_CLOCKSOURCE_PCLK2:
        pclk = HAL_RCC_GetPCLK2Freq();
 c005f24:	f7fe fbf2 	bl	c00470c <HAL_RCC_GetPCLK2Freq>
 c005f28:	6278      	str	r0, [r7, #36]	; 0x24
        break;
 c005f2a:	e010      	b.n	c005f4e <UART_SetConfig+0x36a>
      case UART_CLOCKSOURCE_HSI:
        pclk = (uint32_t) HSI_VALUE;
 c005f2c:	4b9e      	ldr	r3, [pc, #632]	; (c0061a8 <UART_SetConfig+0x5c4>)
 c005f2e:	627b      	str	r3, [r7, #36]	; 0x24
        break;
 c005f30:	e00d      	b.n	c005f4e <UART_SetConfig+0x36a>
      case UART_CLOCKSOURCE_SYSCLK:
        pclk = HAL_RCC_GetSysClockFreq();
 c005f32:	f7fe fb25 	bl	c004580 <HAL_RCC_GetSysClockFreq>
 c005f36:	6278      	str	r0, [r7, #36]	; 0x24
        break;
 c005f38:	e009      	b.n	c005f4e <UART_SetConfig+0x36a>
      case UART_CLOCKSOURCE_LSE:
        pclk = (uint32_t) LSE_VALUE;
 c005f3a:	f44f 4300 	mov.w	r3, #32768	; 0x8000
 c005f3e:	627b      	str	r3, [r7, #36]	; 0x24
        break;
 c005f40:	e005      	b.n	c005f4e <UART_SetConfig+0x36a>
      default:
        pclk = 0U;
 c005f42:	2300      	movs	r3, #0
 c005f44:	627b      	str	r3, [r7, #36]	; 0x24
        ret = HAL_ERROR;
 c005f46:	2301      	movs	r3, #1
 c005f48:	f887 302a 	strb.w	r3, [r7, #42]	; 0x2a
        break;
 c005f4c:	bf00      	nop
    }

    /* If proper clock source reported */
    if (pclk != 0U)
 c005f4e:	6a7b      	ldr	r3, [r7, #36]	; 0x24
 c005f50:	2b00      	cmp	r3, #0
 c005f52:	f000 8130 	beq.w	c0061b6 <UART_SetConfig+0x5d2>
    {
      /* Compute clock after Prescaler */
      lpuart_ker_ck_pres = (pclk / UARTPrescTable[huart->Init.ClockPrescaler]);
 c005f56:	697b      	ldr	r3, [r7, #20]
 c005f58:	6a5b      	ldr	r3, [r3, #36]	; 0x24
 c005f5a:	4a94      	ldr	r2, [pc, #592]	; (c0061ac <UART_SetConfig+0x5c8>)
 c005f5c:	f832 3013 	ldrh.w	r3, [r2, r3, lsl #1]
 c005f60:	461a      	mov	r2, r3
 c005f62:	6a7b      	ldr	r3, [r7, #36]	; 0x24
 c005f64:	fbb3 f3f2 	udiv	r3, r3, r2
 c005f68:	61bb      	str	r3, [r7, #24]

      /* Ensure that Frequency clock is in the range [3 * baudrate, 4096 * baudrate] */
      if ((lpuart_ker_ck_pres < (3U * huart->Init.BaudRate)) ||
 c005f6a:	697b      	ldr	r3, [r7, #20]
 c005f6c:	685a      	ldr	r2, [r3, #4]
 c005f6e:	4613      	mov	r3, r2
 c005f70:	005b      	lsls	r3, r3, #1
 c005f72:	4413      	add	r3, r2
 c005f74:	69ba      	ldr	r2, [r7, #24]
 c005f76:	429a      	cmp	r2, r3
 c005f78:	d305      	bcc.n	c005f86 <UART_SetConfig+0x3a2>
          (lpuart_ker_ck_pres > (4096U * huart->Init.BaudRate)))
 c005f7a:	697b      	ldr	r3, [r7, #20]
 c005f7c:	685b      	ldr	r3, [r3, #4]
 c005f7e:	031b      	lsls	r3, r3, #12
      if ((lpuart_ker_ck_pres < (3U * huart->Init.BaudRate)) ||
 c005f80:	69ba      	ldr	r2, [r7, #24]
 c005f82:	429a      	cmp	r2, r3
 c005f84:	d903      	bls.n	c005f8e <UART_SetConfig+0x3aa>
      {
        ret = HAL_ERROR;
 c005f86:	2301      	movs	r3, #1
 c005f88:	f887 302a 	strb.w	r3, [r7, #42]	; 0x2a
 c005f8c:	e113      	b.n	c0061b6 <UART_SetConfig+0x5d2>
      }
      else
      {
        /* Check computed UsartDiv value is in allocated range
           (it is forbidden to write values lower than 0x300 in the LPUART_BRR register) */
        usartdiv = (uint32_t)(UART_DIV_LPUART(pclk, huart->Init.BaudRate, huart->Init.ClockPrescaler));
 c005f8e:	6a7b      	ldr	r3, [r7, #36]	; 0x24
 c005f90:	2200      	movs	r2, #0
 c005f92:	60bb      	str	r3, [r7, #8]
 c005f94:	60fa      	str	r2, [r7, #12]
 c005f96:	697b      	ldr	r3, [r7, #20]
 c005f98:	6a5b      	ldr	r3, [r3, #36]	; 0x24
 c005f9a:	4a84      	ldr	r2, [pc, #528]	; (c0061ac <UART_SetConfig+0x5c8>)
 c005f9c:	f832 3013 	ldrh.w	r3, [r2, r3, lsl #1]
 c005fa0:	b29b      	uxth	r3, r3
 c005fa2:	2200      	movs	r2, #0
 c005fa4:	603b      	str	r3, [r7, #0]
 c005fa6:	607a      	str	r2, [r7, #4]
 c005fa8:	e9d7 2300 	ldrd	r2, r3, [r7]
 c005fac:	e9d7 0102 	ldrd	r0, r1, [r7, #8]
 c005fb0:	f7fa f9e2 	bl	c000378 <__aeabi_uldivmod>
 c005fb4:	4602      	mov	r2, r0
 c005fb6:	460b      	mov	r3, r1
 c005fb8:	4610      	mov	r0, r2
 c005fba:	4619      	mov	r1, r3
 c005fbc:	f04f 0200 	mov.w	r2, #0
 c005fc0:	f04f 0300 	mov.w	r3, #0
 c005fc4:	020b      	lsls	r3, r1, #8
 c005fc6:	ea43 6310 	orr.w	r3, r3, r0, lsr #24
 c005fca:	0202      	lsls	r2, r0, #8
 c005fcc:	6979      	ldr	r1, [r7, #20]
 c005fce:	6849      	ldr	r1, [r1, #4]
 c005fd0:	0849      	lsrs	r1, r1, #1
 c005fd2:	2000      	movs	r0, #0
 c005fd4:	460c      	mov	r4, r1
 c005fd6:	4605      	mov	r5, r0
 c005fd8:	eb12 0804 	adds.w	r8, r2, r4
 c005fdc:	eb43 0905 	adc.w	r9, r3, r5
 c005fe0:	697b      	ldr	r3, [r7, #20]
 c005fe2:	685b      	ldr	r3, [r3, #4]
 c005fe4:	2200      	movs	r2, #0
 c005fe6:	469a      	mov	sl, r3
 c005fe8:	4693      	mov	fp, r2
 c005fea:	4652      	mov	r2, sl
 c005fec:	465b      	mov	r3, fp
 c005fee:	4640      	mov	r0, r8
 c005ff0:	4649      	mov	r1, r9
 c005ff2:	f7fa f9c1 	bl	c000378 <__aeabi_uldivmod>
 c005ff6:	4602      	mov	r2, r0
 c005ff8:	460b      	mov	r3, r1
 c005ffa:	4613      	mov	r3, r2
 c005ffc:	623b      	str	r3, [r7, #32]
        if ((usartdiv >= LPUART_BRR_MIN) && (usartdiv <= LPUART_BRR_MAX))
 c005ffe:	6a3b      	ldr	r3, [r7, #32]
 c006000:	f5b3 7f40 	cmp.w	r3, #768	; 0x300
 c006004:	d308      	bcc.n	c006018 <UART_SetConfig+0x434>
 c006006:	6a3b      	ldr	r3, [r7, #32]
 c006008:	f5b3 1f80 	cmp.w	r3, #1048576	; 0x100000
 c00600c:	d204      	bcs.n	c006018 <UART_SetConfig+0x434>
        {
          huart->Instance->BRR = usartdiv;
 c00600e:	697b      	ldr	r3, [r7, #20]
 c006010:	681b      	ldr	r3, [r3, #0]
 c006012:	6a3a      	ldr	r2, [r7, #32]
 c006014:	60da      	str	r2, [r3, #12]
 c006016:	e0ce      	b.n	c0061b6 <UART_SetConfig+0x5d2>
        }
        else
        {
          ret = HAL_ERROR;
 c006018:	2301      	movs	r3, #1
 c00601a:	f887 302a 	strb.w	r3, [r7, #42]	; 0x2a
 c00601e:	e0ca      	b.n	c0061b6 <UART_SetConfig+0x5d2>
      } /* if ( (lpuart_ker_ck_pres < (3 * huart->Init.BaudRate) ) ||
                (lpuart_ker_ck_pres > (4096 * huart->Init.BaudRate) )) */
    } /* if (pclk != 0) */
  }
  /* Check UART Over Sampling to set Baud Rate Register */
  else if (huart->Init.OverSampling == UART_OVERSAMPLING_8)
 c006020:	697b      	ldr	r3, [r7, #20]
 c006022:	69db      	ldr	r3, [r3, #28]
 c006024:	f5b3 4f00 	cmp.w	r3, #32768	; 0x8000
 c006028:	d166      	bne.n	c0060f8 <UART_SetConfig+0x514>
  {
    switch (clocksource)
 c00602a:	f897 302b 	ldrb.w	r3, [r7, #43]	; 0x2b
 c00602e:	2b08      	cmp	r3, #8
 c006030:	d827      	bhi.n	c006082 <UART_SetConfig+0x49e>
 c006032:	a201      	add	r2, pc, #4	; (adr r2, c006038 <UART_SetConfig+0x454>)
 c006034:	f852 f023 	ldr.w	pc, [r2, r3, lsl #2]
 c006038:	0c00605d 	.word	0x0c00605d
 c00603c:	0c006065 	.word	0x0c006065
 c006040:	0c00606d 	.word	0x0c00606d
 c006044:	0c006083 	.word	0x0c006083
 c006048:	0c006073 	.word	0x0c006073
 c00604c:	0c006083 	.word	0x0c006083
 c006050:	0c006083 	.word	0x0c006083
 c006054:	0c006083 	.word	0x0c006083
 c006058:	0c00607b 	.word	0x0c00607b
    {
      case UART_CLOCKSOURCE_PCLK1:
        pclk = HAL_RCC_GetPCLK1Freq();
 c00605c:	f7fe fb42 	bl	c0046e4 <HAL_RCC_GetPCLK1Freq>
 c006060:	6278      	str	r0, [r7, #36]	; 0x24
        break;
 c006062:	e014      	b.n	c00608e <UART_SetConfig+0x4aa>
      case UART_CLOCKSOURCE_PCLK2:
        pclk = HAL_RCC_GetPCLK2Freq();
 c006064:	f7fe fb52 	bl	c00470c <HAL_RCC_GetPCLK2Freq>
 c006068:	6278      	str	r0, [r7, #36]	; 0x24
        break;
 c00606a:	e010      	b.n	c00608e <UART_SetConfig+0x4aa>
      case UART_CLOCKSOURCE_HSI:
        pclk = (uint32_t) HSI_VALUE;
 c00606c:	4b4e      	ldr	r3, [pc, #312]	; (c0061a8 <UART_SetConfig+0x5c4>)
 c00606e:	627b      	str	r3, [r7, #36]	; 0x24
        break;
 c006070:	e00d      	b.n	c00608e <UART_SetConfig+0x4aa>
      case UART_CLOCKSOURCE_SYSCLK:
        pclk = HAL_RCC_GetSysClockFreq();
 c006072:	f7fe fa85 	bl	c004580 <HAL_RCC_GetSysClockFreq>
 c006076:	6278      	str	r0, [r7, #36]	; 0x24
        break;
 c006078:	e009      	b.n	c00608e <UART_SetConfig+0x4aa>
      case UART_CLOCKSOURCE_LSE:
        pclk = (uint32_t) LSE_VALUE;
 c00607a:	f44f 4300 	mov.w	r3, #32768	; 0x8000
 c00607e:	627b      	str	r3, [r7, #36]	; 0x24
        break;
 c006080:	e005      	b.n	c00608e <UART_SetConfig+0x4aa>
      default:
        pclk = 0U;
 c006082:	2300      	movs	r3, #0
 c006084:	627b      	str	r3, [r7, #36]	; 0x24
        ret = HAL_ERROR;
 c006086:	2301      	movs	r3, #1
 c006088:	f887 302a 	strb.w	r3, [r7, #42]	; 0x2a
        break;
 c00608c:	bf00      	nop
    }

    /* USARTDIV must be greater than or equal to 0d16 */
    if (pclk != 0U)
 c00608e:	6a7b      	ldr	r3, [r7, #36]	; 0x24
 c006090:	2b00      	cmp	r3, #0
 c006092:	f000 8090 	beq.w	c0061b6 <UART_SetConfig+0x5d2>
    {
      usartdiv = (uint32_t)(UART_DIV_SAMPLING8(pclk, huart->Init.BaudRate, huart->Init.ClockPrescaler));
 c006096:	697b      	ldr	r3, [r7, #20]
 c006098:	6a5b      	ldr	r3, [r3, #36]	; 0x24
 c00609a:	4a44      	ldr	r2, [pc, #272]	; (c0061ac <UART_SetConfig+0x5c8>)
 c00609c:	f832 3013 	ldrh.w	r3, [r2, r3, lsl #1]
 c0060a0:	461a      	mov	r2, r3
 c0060a2:	6a7b      	ldr	r3, [r7, #36]	; 0x24
 c0060a4:	fbb3 f3f2 	udiv	r3, r3, r2
 c0060a8:	005a      	lsls	r2, r3, #1
 c0060aa:	697b      	ldr	r3, [r7, #20]
 c0060ac:	685b      	ldr	r3, [r3, #4]
 c0060ae:	085b      	lsrs	r3, r3, #1
 c0060b0:	441a      	add	r2, r3
 c0060b2:	697b      	ldr	r3, [r7, #20]
 c0060b4:	685b      	ldr	r3, [r3, #4]
 c0060b6:	fbb2 f3f3 	udiv	r3, r2, r3
 c0060ba:	623b      	str	r3, [r7, #32]
      if ((usartdiv >= UART_BRR_MIN) && (usartdiv <= UART_BRR_MAX))
 c0060bc:	6a3b      	ldr	r3, [r7, #32]
 c0060be:	2b0f      	cmp	r3, #15
 c0060c0:	d916      	bls.n	c0060f0 <UART_SetConfig+0x50c>
 c0060c2:	6a3b      	ldr	r3, [r7, #32]
 c0060c4:	f5b3 3f80 	cmp.w	r3, #65536	; 0x10000
 c0060c8:	d212      	bcs.n	c0060f0 <UART_SetConfig+0x50c>
      {
        brrtemp = (uint16_t)(usartdiv & 0xFFF0U);
 c0060ca:	6a3b      	ldr	r3, [r7, #32]
 c0060cc:	b29b      	uxth	r3, r3
 c0060ce:	f023 030f 	bic.w	r3, r3, #15
 c0060d2:	83fb      	strh	r3, [r7, #30]
        brrtemp |= (uint16_t)((usartdiv & (uint16_t)0x000FU) >> 1U);
 c0060d4:	6a3b      	ldr	r3, [r7, #32]
 c0060d6:	085b      	lsrs	r3, r3, #1
 c0060d8:	b29b      	uxth	r3, r3
 c0060da:	f003 0307 	and.w	r3, r3, #7
 c0060de:	b29a      	uxth	r2, r3
 c0060e0:	8bfb      	ldrh	r3, [r7, #30]
 c0060e2:	4313      	orrs	r3, r2
 c0060e4:	83fb      	strh	r3, [r7, #30]
        huart->Instance->BRR = brrtemp;
 c0060e6:	697b      	ldr	r3, [r7, #20]
 c0060e8:	681b      	ldr	r3, [r3, #0]
 c0060ea:	8bfa      	ldrh	r2, [r7, #30]
 c0060ec:	60da      	str	r2, [r3, #12]
 c0060ee:	e062      	b.n	c0061b6 <UART_SetConfig+0x5d2>
      }
      else
      {
        ret = HAL_ERROR;
 c0060f0:	2301      	movs	r3, #1
 c0060f2:	f887 302a 	strb.w	r3, [r7, #42]	; 0x2a
 c0060f6:	e05e      	b.n	c0061b6 <UART_SetConfig+0x5d2>
      }
    }
  }
  else
  {
    switch (clocksource)
 c0060f8:	f897 302b 	ldrb.w	r3, [r7, #43]	; 0x2b
 c0060fc:	2b08      	cmp	r3, #8
 c0060fe:	d828      	bhi.n	c006152 <UART_SetConfig+0x56e>
 c006100:	a201      	add	r2, pc, #4	; (adr r2, c006108 <UART_SetConfig+0x524>)
 c006102:	f852 f023 	ldr.w	pc, [r2, r3, lsl #2]
 c006106:	bf00      	nop
 c006108:	0c00612d 	.word	0x0c00612d
 c00610c:	0c006135 	.word	0x0c006135
 c006110:	0c00613d 	.word	0x0c00613d
 c006114:	0c006153 	.word	0x0c006153
 c006118:	0c006143 	.word	0x0c006143
 c00611c:	0c006153 	.word	0x0c006153
 c006120:	0c006153 	.word	0x0c006153
 c006124:	0c006153 	.word	0x0c006153
 c006128:	0c00614b 	.word	0x0c00614b
    {
      case UART_CLOCKSOURCE_PCLK1:
        pclk = HAL_RCC_GetPCLK1Freq();
 c00612c:	f7fe fada 	bl	c0046e4 <HAL_RCC_GetPCLK1Freq>
 c006130:	6278      	str	r0, [r7, #36]	; 0x24
        break;
 c006132:	e014      	b.n	c00615e <UART_SetConfig+0x57a>
      case UART_CLOCKSOURCE_PCLK2:
        pclk = HAL_RCC_GetPCLK2Freq();
 c006134:	f7fe faea 	bl	c00470c <HAL_RCC_GetPCLK2Freq>
 c006138:	6278      	str	r0, [r7, #36]	; 0x24
        break;
 c00613a:	e010      	b.n	c00615e <UART_SetConfig+0x57a>
      case UART_CLOCKSOURCE_HSI:
        pclk = (uint32_t) HSI_VALUE;
 c00613c:	4b1a      	ldr	r3, [pc, #104]	; (c0061a8 <UART_SetConfig+0x5c4>)
 c00613e:	627b      	str	r3, [r7, #36]	; 0x24
        break;
 c006140:	e00d      	b.n	c00615e <UART_SetConfig+0x57a>
      case UART_CLOCKSOURCE_SYSCLK:
        pclk = HAL_RCC_GetSysClockFreq();
 c006142:	f7fe fa1d 	bl	c004580 <HAL_RCC_GetSysClockFreq>
 c006146:	6278      	str	r0, [r7, #36]	; 0x24
        break;
 c006148:	e009      	b.n	c00615e <UART_SetConfig+0x57a>
      case UART_CLOCKSOURCE_LSE:
        pclk = (uint32_t) LSE_VALUE;
 c00614a:	f44f 4300 	mov.w	r3, #32768	; 0x8000
 c00614e:	627b      	str	r3, [r7, #36]	; 0x24
        break;
 c006150:	e005      	b.n	c00615e <UART_SetConfig+0x57a>
      default:
        pclk = 0U;
 c006152:	2300      	movs	r3, #0
 c006154:	627b      	str	r3, [r7, #36]	; 0x24
        ret = HAL_ERROR;
 c006156:	2301      	movs	r3, #1
 c006158:	f887 302a 	strb.w	r3, [r7, #42]	; 0x2a
        break;
 c00615c:	bf00      	nop
    }

    if (pclk != 0U)
 c00615e:	6a7b      	ldr	r3, [r7, #36]	; 0x24
 c006160:	2b00      	cmp	r3, #0
 c006162:	d028      	beq.n	c0061b6 <UART_SetConfig+0x5d2>
    {
      /* USARTDIV must be greater than or equal to 0d16 */
      usartdiv = (uint32_t)(UART_DIV_SAMPLING16(pclk, huart->Init.BaudRate, huart->Init.ClockPrescaler));
 c006164:	697b      	ldr	r3, [r7, #20]
 c006166:	6a5b      	ldr	r3, [r3, #36]	; 0x24
 c006168:	4a10      	ldr	r2, [pc, #64]	; (c0061ac <UART_SetConfig+0x5c8>)
 c00616a:	f832 3013 	ldrh.w	r3, [r2, r3, lsl #1]
 c00616e:	461a      	mov	r2, r3
 c006170:	6a7b      	ldr	r3, [r7, #36]	; 0x24
 c006172:	fbb3 f2f2 	udiv	r2, r3, r2
 c006176:	697b      	ldr	r3, [r7, #20]
 c006178:	685b      	ldr	r3, [r3, #4]
 c00617a:	085b      	lsrs	r3, r3, #1
 c00617c:	441a      	add	r2, r3
 c00617e:	697b      	ldr	r3, [r7, #20]
 c006180:	685b      	ldr	r3, [r3, #4]
 c006182:	fbb2 f3f3 	udiv	r3, r2, r3
 c006186:	623b      	str	r3, [r7, #32]
      if ((usartdiv >= UART_BRR_MIN) && (usartdiv <= UART_BRR_MAX))
 c006188:	6a3b      	ldr	r3, [r7, #32]
 c00618a:	2b0f      	cmp	r3, #15
 c00618c:	d910      	bls.n	c0061b0 <UART_SetConfig+0x5cc>
 c00618e:	6a3b      	ldr	r3, [r7, #32]
 c006190:	f5b3 3f80 	cmp.w	r3, #65536	; 0x10000
 c006194:	d20c      	bcs.n	c0061b0 <UART_SetConfig+0x5cc>
      {
        huart->Instance->BRR = (uint16_t)usartdiv;
 c006196:	6a3b      	ldr	r3, [r7, #32]
 c006198:	b29a      	uxth	r2, r3
 c00619a:	697b      	ldr	r3, [r7, #20]
 c00619c:	681b      	ldr	r3, [r3, #0]
 c00619e:	60da      	str	r2, [r3, #12]
 c0061a0:	e009      	b.n	c0061b6 <UART_SetConfig+0x5d2>
 c0061a2:	bf00      	nop
 c0061a4:	50008000 	.word	0x50008000
 c0061a8:	00f42400 	.word	0x00f42400
 c0061ac:	0c008048 	.word	0x0c008048
      }
      else
      {
        ret = HAL_ERROR;
 c0061b0:	2301      	movs	r3, #1
 c0061b2:	f887 302a 	strb.w	r3, [r7, #42]	; 0x2a
      }
    }
  }

  /* Initialize the number of data to process during RX/TX ISR execution */
  huart->NbTxDataToProcess = 1;
 c0061b6:	697b      	ldr	r3, [r7, #20]
 c0061b8:	2201      	movs	r2, #1
 c0061ba:	f8a3 206a 	strh.w	r2, [r3, #106]	; 0x6a
  huart->NbRxDataToProcess = 1;
 c0061be:	697b      	ldr	r3, [r7, #20]
 c0061c0:	2201      	movs	r2, #1
 c0061c2:	f8a3 2068 	strh.w	r2, [r3, #104]	; 0x68

  /* Clear ISR function pointers */
  huart->RxISR = NULL;
 c0061c6:	697b      	ldr	r3, [r7, #20]
 c0061c8:	2200      	movs	r2, #0
 c0061ca:	675a      	str	r2, [r3, #116]	; 0x74
  huart->TxISR = NULL;
 c0061cc:	697b      	ldr	r3, [r7, #20]
 c0061ce:	2200      	movs	r2, #0
 c0061d0:	679a      	str	r2, [r3, #120]	; 0x78

  return ret;
 c0061d2:	f897 302a 	ldrb.w	r3, [r7, #42]	; 0x2a
}
 c0061d6:	4618      	mov	r0, r3
 c0061d8:	3730      	adds	r7, #48	; 0x30
 c0061da:	46bd      	mov	sp, r7
 c0061dc:	e8bd 8fb0 	ldmia.w	sp!, {r4, r5, r7, r8, r9, sl, fp, pc}

0c0061e0 <UART_AdvFeatureConfig>:
  * @brief Configure the UART peripheral advanced features.
  * @param huart UART handle.
  * @retval None
  */
void UART_AdvFeatureConfig(UART_HandleTypeDef *huart)
{
 c0061e0:	b480      	push	{r7}
 c0061e2:	b083      	sub	sp, #12
 c0061e4:	af00      	add	r7, sp, #0
 c0061e6:	6078      	str	r0, [r7, #4]
  /* Check whether the set of advanced features to configure is properly set */
  assert_param(IS_UART_ADVFEATURE_INIT(huart->AdvancedInit.AdvFeatureInit));

  /* if required, configure TX pin active level inversion */
  if (HAL_IS_BIT_SET(huart->AdvancedInit.AdvFeatureInit, UART_ADVFEATURE_TXINVERT_INIT))
 c0061e8:	687b      	ldr	r3, [r7, #4]
 c0061ea:	6a9b      	ldr	r3, [r3, #40]	; 0x28
 c0061ec:	f003 0301 	and.w	r3, r3, #1
 c0061f0:	2b00      	cmp	r3, #0
 c0061f2:	d00a      	beq.n	c00620a <UART_AdvFeatureConfig+0x2a>
  {
    assert_param(IS_UART_ADVFEATURE_TXINV(huart->AdvancedInit.TxPinLevelInvert));
    MODIFY_REG(huart->Instance->CR2, USART_CR2_TXINV, huart->AdvancedInit.TxPinLevelInvert);
 c0061f4:	687b      	ldr	r3, [r7, #4]
 c0061f6:	681b      	ldr	r3, [r3, #0]
 c0061f8:	685b      	ldr	r3, [r3, #4]
 c0061fa:	f423 3100 	bic.w	r1, r3, #131072	; 0x20000
 c0061fe:	687b      	ldr	r3, [r7, #4]
 c006200:	6ada      	ldr	r2, [r3, #44]	; 0x2c
 c006202:	687b      	ldr	r3, [r7, #4]
 c006204:	681b      	ldr	r3, [r3, #0]
 c006206:	430a      	orrs	r2, r1
 c006208:	605a      	str	r2, [r3, #4]
  }

  /* if required, configure RX pin active level inversion */
  if (HAL_IS_BIT_SET(huart->AdvancedInit.AdvFeatureInit, UART_ADVFEATURE_RXINVERT_INIT))
 c00620a:	687b      	ldr	r3, [r7, #4]
 c00620c:	6a9b      	ldr	r3, [r3, #40]	; 0x28
 c00620e:	f003 0302 	and.w	r3, r3, #2
 c006212:	2b00      	cmp	r3, #0
 c006214:	d00a      	beq.n	c00622c <UART_AdvFeatureConfig+0x4c>
  {
    assert_param(IS_UART_ADVFEATURE_RXINV(huart->AdvancedInit.RxPinLevelInvert));
    MODIFY_REG(huart->Instance->CR2, USART_CR2_RXINV, huart->AdvancedInit.RxPinLevelInvert);
 c006216:	687b      	ldr	r3, [r7, #4]
 c006218:	681b      	ldr	r3, [r3, #0]
 c00621a:	685b      	ldr	r3, [r3, #4]
 c00621c:	f423 3180 	bic.w	r1, r3, #65536	; 0x10000
 c006220:	687b      	ldr	r3, [r7, #4]
 c006222:	6b1a      	ldr	r2, [r3, #48]	; 0x30
 c006224:	687b      	ldr	r3, [r7, #4]
 c006226:	681b      	ldr	r3, [r3, #0]
 c006228:	430a      	orrs	r2, r1
 c00622a:	605a      	str	r2, [r3, #4]
  }

  /* if required, configure data inversion */
  if (HAL_IS_BIT_SET(huart->AdvancedInit.AdvFeatureInit, UART_ADVFEATURE_DATAINVERT_INIT))
 c00622c:	687b      	ldr	r3, [r7, #4]
 c00622e:	6a9b      	ldr	r3, [r3, #40]	; 0x28
 c006230:	f003 0304 	and.w	r3, r3, #4
 c006234:	2b00      	cmp	r3, #0
 c006236:	d00a      	beq.n	c00624e <UART_AdvFeatureConfig+0x6e>
  {
    assert_param(IS_UART_ADVFEATURE_DATAINV(huart->AdvancedInit.DataInvert));
    MODIFY_REG(huart->Instance->CR2, USART_CR2_DATAINV, huart->AdvancedInit.DataInvert);
 c006238:	687b      	ldr	r3, [r7, #4]
 c00623a:	681b      	ldr	r3, [r3, #0]
 c00623c:	685b      	ldr	r3, [r3, #4]
 c00623e:	f423 2180 	bic.w	r1, r3, #262144	; 0x40000
 c006242:	687b      	ldr	r3, [r7, #4]
 c006244:	6b5a      	ldr	r2, [r3, #52]	; 0x34
 c006246:	687b      	ldr	r3, [r7, #4]
 c006248:	681b      	ldr	r3, [r3, #0]
 c00624a:	430a      	orrs	r2, r1
 c00624c:	605a      	str	r2, [r3, #4]
  }

  /* if required, configure RX/TX pins swap */
  if (HAL_IS_BIT_SET(huart->AdvancedInit.AdvFeatureInit, UART_ADVFEATURE_SWAP_INIT))
 c00624e:	687b      	ldr	r3, [r7, #4]
 c006250:	6a9b      	ldr	r3, [r3, #40]	; 0x28
 c006252:	f003 0308 	and.w	r3, r3, #8
 c006256:	2b00      	cmp	r3, #0
 c006258:	d00a      	beq.n	c006270 <UART_AdvFeatureConfig+0x90>
  {
    assert_param(IS_UART_ADVFEATURE_SWAP(huart->AdvancedInit.Swap));
    MODIFY_REG(huart->Instance->CR2, USART_CR2_SWAP, huart->AdvancedInit.Swap);
 c00625a:	687b      	ldr	r3, [r7, #4]
 c00625c:	681b      	ldr	r3, [r3, #0]
 c00625e:	685b      	ldr	r3, [r3, #4]
 c006260:	f423 4100 	bic.w	r1, r3, #32768	; 0x8000
 c006264:	687b      	ldr	r3, [r7, #4]
 c006266:	6b9a      	ldr	r2, [r3, #56]	; 0x38
 c006268:	687b      	ldr	r3, [r7, #4]
 c00626a:	681b      	ldr	r3, [r3, #0]
 c00626c:	430a      	orrs	r2, r1
 c00626e:	605a      	str	r2, [r3, #4]
  }

  /* if required, configure RX overrun detection disabling */
  if (HAL_IS_BIT_SET(huart->AdvancedInit.AdvFeatureInit, UART_ADVFEATURE_RXOVERRUNDISABLE_INIT))
 c006270:	687b      	ldr	r3, [r7, #4]
 c006272:	6a9b      	ldr	r3, [r3, #40]	; 0x28
 c006274:	f003 0310 	and.w	r3, r3, #16
 c006278:	2b00      	cmp	r3, #0
 c00627a:	d00a      	beq.n	c006292 <UART_AdvFeatureConfig+0xb2>
  {
    assert_param(IS_UART_OVERRUN(huart->AdvancedInit.OverrunDisable));
    MODIFY_REG(huart->Instance->CR3, USART_CR3_OVRDIS, huart->AdvancedInit.OverrunDisable);
 c00627c:	687b      	ldr	r3, [r7, #4]
 c00627e:	681b      	ldr	r3, [r3, #0]
 c006280:	689b      	ldr	r3, [r3, #8]
 c006282:	f423 5180 	bic.w	r1, r3, #4096	; 0x1000
 c006286:	687b      	ldr	r3, [r7, #4]
 c006288:	6bda      	ldr	r2, [r3, #60]	; 0x3c
 c00628a:	687b      	ldr	r3, [r7, #4]
 c00628c:	681b      	ldr	r3, [r3, #0]
 c00628e:	430a      	orrs	r2, r1
 c006290:	609a      	str	r2, [r3, #8]
  }

  /* if required, configure DMA disabling on reception error */
  if (HAL_IS_BIT_SET(huart->AdvancedInit.AdvFeatureInit, UART_ADVFEATURE_DMADISABLEONERROR_INIT))
 c006292:	687b      	ldr	r3, [r7, #4]
 c006294:	6a9b      	ldr	r3, [r3, #40]	; 0x28
 c006296:	f003 0320 	and.w	r3, r3, #32
 c00629a:	2b00      	cmp	r3, #0
 c00629c:	d00a      	beq.n	c0062b4 <UART_AdvFeatureConfig+0xd4>
  {
    assert_param(IS_UART_ADVFEATURE_DMAONRXERROR(huart->AdvancedInit.DMADisableonRxError));
    MODIFY_REG(huart->Instance->CR3, USART_CR3_DDRE, huart->AdvancedInit.DMADisableonRxError);
 c00629e:	687b      	ldr	r3, [r7, #4]
 c0062a0:	681b      	ldr	r3, [r3, #0]
 c0062a2:	689b      	ldr	r3, [r3, #8]
 c0062a4:	f423 5100 	bic.w	r1, r3, #8192	; 0x2000
 c0062a8:	687b      	ldr	r3, [r7, #4]
 c0062aa:	6c1a      	ldr	r2, [r3, #64]	; 0x40
 c0062ac:	687b      	ldr	r3, [r7, #4]
 c0062ae:	681b      	ldr	r3, [r3, #0]
 c0062b0:	430a      	orrs	r2, r1
 c0062b2:	609a      	str	r2, [r3, #8]
  }

  /* if required, configure auto Baud rate detection scheme */
  if (HAL_IS_BIT_SET(huart->AdvancedInit.AdvFeatureInit, UART_ADVFEATURE_AUTOBAUDRATE_INIT))
 c0062b4:	687b      	ldr	r3, [r7, #4]
 c0062b6:	6a9b      	ldr	r3, [r3, #40]	; 0x28
 c0062b8:	f003 0340 	and.w	r3, r3, #64	; 0x40
 c0062bc:	2b00      	cmp	r3, #0
 c0062be:	d01a      	beq.n	c0062f6 <UART_AdvFeatureConfig+0x116>
  {
    assert_param(IS_USART_AUTOBAUDRATE_DETECTION_INSTANCE(huart->Instance));
    assert_param(IS_UART_ADVFEATURE_AUTOBAUDRATE(huart->AdvancedInit.AutoBaudRateEnable));
    MODIFY_REG(huart->Instance->CR2, USART_CR2_ABREN, huart->AdvancedInit.AutoBaudRateEnable);
 c0062c0:	687b      	ldr	r3, [r7, #4]
 c0062c2:	681b      	ldr	r3, [r3, #0]
 c0062c4:	685b      	ldr	r3, [r3, #4]
 c0062c6:	f423 1180 	bic.w	r1, r3, #1048576	; 0x100000
 c0062ca:	687b      	ldr	r3, [r7, #4]
 c0062cc:	6c5a      	ldr	r2, [r3, #68]	; 0x44
 c0062ce:	687b      	ldr	r3, [r7, #4]
 c0062d0:	681b      	ldr	r3, [r3, #0]
 c0062d2:	430a      	orrs	r2, r1
 c0062d4:	605a      	str	r2, [r3, #4]
    /* set auto Baudrate detection parameters if detection is enabled */
    if (huart->AdvancedInit.AutoBaudRateEnable == UART_ADVFEATURE_AUTOBAUDRATE_ENABLE)
 c0062d6:	687b      	ldr	r3, [r7, #4]
 c0062d8:	6c5b      	ldr	r3, [r3, #68]	; 0x44
 c0062da:	f5b3 1f80 	cmp.w	r3, #1048576	; 0x100000
 c0062de:	d10a      	bne.n	c0062f6 <UART_AdvFeatureConfig+0x116>
    {
      assert_param(IS_UART_ADVFEATURE_AUTOBAUDRATEMODE(huart->AdvancedInit.AutoBaudRateMode));
      MODIFY_REG(huart->Instance->CR2, USART_CR2_ABRMODE, huart->AdvancedInit.AutoBaudRateMode);
 c0062e0:	687b      	ldr	r3, [r7, #4]
 c0062e2:	681b      	ldr	r3, [r3, #0]
 c0062e4:	685b      	ldr	r3, [r3, #4]
 c0062e6:	f423 01c0 	bic.w	r1, r3, #6291456	; 0x600000
 c0062ea:	687b      	ldr	r3, [r7, #4]
 c0062ec:	6c9a      	ldr	r2, [r3, #72]	; 0x48
 c0062ee:	687b      	ldr	r3, [r7, #4]
 c0062f0:	681b      	ldr	r3, [r3, #0]
 c0062f2:	430a      	orrs	r2, r1
 c0062f4:	605a      	str	r2, [r3, #4]
    }
  }

  /* if required, configure MSB first on communication line */
  if (HAL_IS_BIT_SET(huart->AdvancedInit.AdvFeatureInit, UART_ADVFEATURE_MSBFIRST_INIT))
 c0062f6:	687b      	ldr	r3, [r7, #4]
 c0062f8:	6a9b      	ldr	r3, [r3, #40]	; 0x28
 c0062fa:	f003 0380 	and.w	r3, r3, #128	; 0x80
 c0062fe:	2b00      	cmp	r3, #0
 c006300:	d00a      	beq.n	c006318 <UART_AdvFeatureConfig+0x138>
  {
    assert_param(IS_UART_ADVFEATURE_MSBFIRST(huart->AdvancedInit.MSBFirst));
    MODIFY_REG(huart->Instance->CR2, USART_CR2_MSBFIRST, huart->AdvancedInit.MSBFirst);
 c006302:	687b      	ldr	r3, [r7, #4]
 c006304:	681b      	ldr	r3, [r3, #0]
 c006306:	685b      	ldr	r3, [r3, #4]
 c006308:	f423 2100 	bic.w	r1, r3, #524288	; 0x80000
 c00630c:	687b      	ldr	r3, [r7, #4]
 c00630e:	6cda      	ldr	r2, [r3, #76]	; 0x4c
 c006310:	687b      	ldr	r3, [r7, #4]
 c006312:	681b      	ldr	r3, [r3, #0]
 c006314:	430a      	orrs	r2, r1
 c006316:	605a      	str	r2, [r3, #4]
  }
}
 c006318:	bf00      	nop
 c00631a:	370c      	adds	r7, #12
 c00631c:	46bd      	mov	sp, r7
 c00631e:	f85d 7b04 	ldr.w	r7, [sp], #4
 c006322:	4770      	bx	lr

0c006324 <UART_CheckIdleState>:
  * @brief Check the UART Idle State.
  * @param huart UART handle.
  * @retval HAL status
  */
HAL_StatusTypeDef UART_CheckIdleState(UART_HandleTypeDef *huart)
{
 c006324:	b580      	push	{r7, lr}
 c006326:	b098      	sub	sp, #96	; 0x60
 c006328:	af02      	add	r7, sp, #8
 c00632a:	6078      	str	r0, [r7, #4]
  uint32_t tickstart;

  /* Initialize the UART ErrorCode */
  huart->ErrorCode = HAL_UART_ERROR_NONE;
 c00632c:	687b      	ldr	r3, [r7, #4]
 c00632e:	2200      	movs	r2, #0
 c006330:	f8c3 2090 	str.w	r2, [r3, #144]	; 0x90

  /* Init tickstart for timeout management */
  tickstart = HAL_GetTick();
 c006334:	f7fb fec4 	bl	c0020c0 <HAL_GetTick>
 c006338:	6578      	str	r0, [r7, #84]	; 0x54

  /* Check if the Transmitter is enabled */
  if ((huart->Instance->CR1 & USART_CR1_TE) == USART_CR1_TE)
 c00633a:	687b      	ldr	r3, [r7, #4]
 c00633c:	681b      	ldr	r3, [r3, #0]
 c00633e:	681b      	ldr	r3, [r3, #0]
 c006340:	f003 0308 	and.w	r3, r3, #8
 c006344:	2b08      	cmp	r3, #8
 c006346:	d12f      	bne.n	c0063a8 <UART_CheckIdleState+0x84>
  {
    /* Wait until TEACK flag is set */
    if (UART_WaitOnFlagUntilTimeout(huart, USART_ISR_TEACK, RESET, tickstart, HAL_UART_TIMEOUT_VALUE) != HAL_OK)
 c006348:	f06f 437e 	mvn.w	r3, #4261412864	; 0xfe000000
 c00634c:	9300      	str	r3, [sp, #0]
 c00634e:	6d7b      	ldr	r3, [r7, #84]	; 0x54
 c006350:	2200      	movs	r2, #0
 c006352:	f44f 1100 	mov.w	r1, #2097152	; 0x200000
 c006356:	6878      	ldr	r0, [r7, #4]
 c006358:	f000 f88e 	bl	c006478 <UART_WaitOnFlagUntilTimeout>
 c00635c:	4603      	mov	r3, r0
 c00635e:	2b00      	cmp	r3, #0
 c006360:	d022      	beq.n	c0063a8 <UART_CheckIdleState+0x84>
    {
      /* Disable TXE interrupt for the interrupt process */
      ATOMIC_CLEAR_BIT(huart->Instance->CR1, (USART_CR1_TXEIE_TXFNFIE));
 c006362:	687b      	ldr	r3, [r7, #4]
 c006364:	681b      	ldr	r3, [r3, #0]
 c006366:	63bb      	str	r3, [r7, #56]	; 0x38
 */
__STATIC_FORCEINLINE uint32_t __LDREXW(volatile uint32_t *addr)
{
    uint32_t result;

   __ASM volatile ("ldrex %0, %1" : "=r" (result) : "Q" (*addr) );
 c006368:	6bbb      	ldr	r3, [r7, #56]	; 0x38
 c00636a:	e853 3f00 	ldrex	r3, [r3]
 c00636e:	637b      	str	r3, [r7, #52]	; 0x34
   return(result);
 c006370:	6b7b      	ldr	r3, [r7, #52]	; 0x34
 c006372:	f023 0380 	bic.w	r3, r3, #128	; 0x80
 c006376:	653b      	str	r3, [r7, #80]	; 0x50
 c006378:	687b      	ldr	r3, [r7, #4]
 c00637a:	681b      	ldr	r3, [r3, #0]
 c00637c:	461a      	mov	r2, r3
 c00637e:	6d3b      	ldr	r3, [r7, #80]	; 0x50
 c006380:	647b      	str	r3, [r7, #68]	; 0x44
 c006382:	643a      	str	r2, [r7, #64]	; 0x40
 */
__STATIC_FORCEINLINE uint32_t __STREXW(uint32_t value, volatile uint32_t *addr)
{
   uint32_t result;

   __ASM volatile ("strex %0, %2, %1" : "=&r" (result), "=Q" (*addr) : "r" (value) );
 c006384:	6c39      	ldr	r1, [r7, #64]	; 0x40
 c006386:	6c7a      	ldr	r2, [r7, #68]	; 0x44
 c006388:	e841 2300 	strex	r3, r2, [r1]
 c00638c:	63fb      	str	r3, [r7, #60]	; 0x3c
   return(result);
 c00638e:	6bfb      	ldr	r3, [r7, #60]	; 0x3c
 c006390:	2b00      	cmp	r3, #0
 c006392:	d1e6      	bne.n	c006362 <UART_CheckIdleState+0x3e>

      huart->gState = HAL_UART_STATE_READY;
 c006394:	687b      	ldr	r3, [r7, #4]
 c006396:	2220      	movs	r2, #32
 c006398:	f8c3 2088 	str.w	r2, [r3, #136]	; 0x88

      __HAL_UNLOCK(huart);
 c00639c:	687b      	ldr	r3, [r7, #4]
 c00639e:	2200      	movs	r2, #0
 c0063a0:	f883 2084 	strb.w	r2, [r3, #132]	; 0x84

      /* Timeout occurred */
      return HAL_TIMEOUT;
 c0063a4:	2303      	movs	r3, #3
 c0063a6:	e063      	b.n	c006470 <UART_CheckIdleState+0x14c>
    }
  }

  /* Check if the Receiver is enabled */
  if ((huart->Instance->CR1 & USART_CR1_RE) == USART_CR1_RE)
 c0063a8:	687b      	ldr	r3, [r7, #4]
 c0063aa:	681b      	ldr	r3, [r3, #0]
 c0063ac:	681b      	ldr	r3, [r3, #0]
 c0063ae:	f003 0304 	and.w	r3, r3, #4
 c0063b2:	2b04      	cmp	r3, #4
 c0063b4:	d149      	bne.n	c00644a <UART_CheckIdleState+0x126>
  {
    /* Wait until REACK flag is set */
    if (UART_WaitOnFlagUntilTimeout(huart, USART_ISR_REACK, RESET, tickstart, HAL_UART_TIMEOUT_VALUE) != HAL_OK)
 c0063b6:	f06f 437e 	mvn.w	r3, #4261412864	; 0xfe000000
 c0063ba:	9300      	str	r3, [sp, #0]
 c0063bc:	6d7b      	ldr	r3, [r7, #84]	; 0x54
 c0063be:	2200      	movs	r2, #0
 c0063c0:	f44f 0180 	mov.w	r1, #4194304	; 0x400000
 c0063c4:	6878      	ldr	r0, [r7, #4]
 c0063c6:	f000 f857 	bl	c006478 <UART_WaitOnFlagUntilTimeout>
 c0063ca:	4603      	mov	r3, r0
 c0063cc:	2b00      	cmp	r3, #0
 c0063ce:	d03c      	beq.n	c00644a <UART_CheckIdleState+0x126>
    {
      /* Disable RXNE, PE and ERR (Frame error, noise error, overrun error)
      interrupts for the interrupt process */
      ATOMIC_CLEAR_BIT(huart->Instance->CR1, (USART_CR1_RXNEIE_RXFNEIE | USART_CR1_PEIE));
 c0063d0:	687b      	ldr	r3, [r7, #4]
 c0063d2:	681b      	ldr	r3, [r3, #0]
 c0063d4:	627b      	str	r3, [r7, #36]	; 0x24
   __ASM volatile ("ldrex %0, %1" : "=r" (result) : "Q" (*addr) );
 c0063d6:	6a7b      	ldr	r3, [r7, #36]	; 0x24
 c0063d8:	e853 3f00 	ldrex	r3, [r3]
 c0063dc:	623b      	str	r3, [r7, #32]
   return(result);
 c0063de:	6a3b      	ldr	r3, [r7, #32]
 c0063e0:	f423 7390 	bic.w	r3, r3, #288	; 0x120
 c0063e4:	64fb      	str	r3, [r7, #76]	; 0x4c
 c0063e6:	687b      	ldr	r3, [r7, #4]
 c0063e8:	681b      	ldr	r3, [r3, #0]
 c0063ea:	461a      	mov	r2, r3
 c0063ec:	6cfb      	ldr	r3, [r7, #76]	; 0x4c
 c0063ee:	633b      	str	r3, [r7, #48]	; 0x30
 c0063f0:	62fa      	str	r2, [r7, #44]	; 0x2c
   __ASM volatile ("strex %0, %2, %1" : "=&r" (result), "=Q" (*addr) : "r" (value) );
 c0063f2:	6af9      	ldr	r1, [r7, #44]	; 0x2c
 c0063f4:	6b3a      	ldr	r2, [r7, #48]	; 0x30
 c0063f6:	e841 2300 	strex	r3, r2, [r1]
 c0063fa:	62bb      	str	r3, [r7, #40]	; 0x28
   return(result);
 c0063fc:	6abb      	ldr	r3, [r7, #40]	; 0x28
 c0063fe:	2b00      	cmp	r3, #0
 c006400:	d1e6      	bne.n	c0063d0 <UART_CheckIdleState+0xac>
      ATOMIC_CLEAR_BIT(huart->Instance->CR3, USART_CR3_EIE);
 c006402:	687b      	ldr	r3, [r7, #4]
 c006404:	681b      	ldr	r3, [r3, #0]
 c006406:	3308      	adds	r3, #8
 c006408:	613b      	str	r3, [r7, #16]
   __ASM volatile ("ldrex %0, %1" : "=r" (result) : "Q" (*addr) );
 c00640a:	693b      	ldr	r3, [r7, #16]
 c00640c:	e853 3f00 	ldrex	r3, [r3]
 c006410:	60fb      	str	r3, [r7, #12]
   return(result);
 c006412:	68fb      	ldr	r3, [r7, #12]
 c006414:	f023 0301 	bic.w	r3, r3, #1
 c006418:	64bb      	str	r3, [r7, #72]	; 0x48
 c00641a:	687b      	ldr	r3, [r7, #4]
 c00641c:	681b      	ldr	r3, [r3, #0]
 c00641e:	3308      	adds	r3, #8
 c006420:	6cba      	ldr	r2, [r7, #72]	; 0x48
 c006422:	61fa      	str	r2, [r7, #28]
 c006424:	61bb      	str	r3, [r7, #24]
   __ASM volatile ("strex %0, %2, %1" : "=&r" (result), "=Q" (*addr) : "r" (value) );
 c006426:	69b9      	ldr	r1, [r7, #24]
 c006428:	69fa      	ldr	r2, [r7, #28]
 c00642a:	e841 2300 	strex	r3, r2, [r1]
 c00642e:	617b      	str	r3, [r7, #20]
   return(result);
 c006430:	697b      	ldr	r3, [r7, #20]
 c006432:	2b00      	cmp	r3, #0
 c006434:	d1e5      	bne.n	c006402 <UART_CheckIdleState+0xde>

      huart->RxState = HAL_UART_STATE_READY;
 c006436:	687b      	ldr	r3, [r7, #4]
 c006438:	2220      	movs	r2, #32
 c00643a:	f8c3 208c 	str.w	r2, [r3, #140]	; 0x8c

      __HAL_UNLOCK(huart);
 c00643e:	687b      	ldr	r3, [r7, #4]
 c006440:	2200      	movs	r2, #0
 c006442:	f883 2084 	strb.w	r2, [r3, #132]	; 0x84

      /* Timeout occurred */
      return HAL_TIMEOUT;
 c006446:	2303      	movs	r3, #3
 c006448:	e012      	b.n	c006470 <UART_CheckIdleState+0x14c>
    }
  }

  /* Initialize the UART State */
  huart->gState = HAL_UART_STATE_READY;
 c00644a:	687b      	ldr	r3, [r7, #4]
 c00644c:	2220      	movs	r2, #32
 c00644e:	f8c3 2088 	str.w	r2, [r3, #136]	; 0x88
  huart->RxState = HAL_UART_STATE_READY;
 c006452:	687b      	ldr	r3, [r7, #4]
 c006454:	2220      	movs	r2, #32
 c006456:	f8c3 208c 	str.w	r2, [r3, #140]	; 0x8c
  huart->ReceptionType = HAL_UART_RECEPTION_STANDARD;
 c00645a:	687b      	ldr	r3, [r7, #4]
 c00645c:	2200      	movs	r2, #0
 c00645e:	66da      	str	r2, [r3, #108]	; 0x6c
  huart->RxEventType = HAL_UART_RXEVENT_TC;
 c006460:	687b      	ldr	r3, [r7, #4]
 c006462:	2200      	movs	r2, #0
 c006464:	671a      	str	r2, [r3, #112]	; 0x70

  __HAL_UNLOCK(huart);
 c006466:	687b      	ldr	r3, [r7, #4]
 c006468:	2200      	movs	r2, #0
 c00646a:	f883 2084 	strb.w	r2, [r3, #132]	; 0x84

  return HAL_OK;
 c00646e:	2300      	movs	r3, #0
}
 c006470:	4618      	mov	r0, r3
 c006472:	3758      	adds	r7, #88	; 0x58
 c006474:	46bd      	mov	sp, r7
 c006476:	bd80      	pop	{r7, pc}

0c006478 <UART_WaitOnFlagUntilTimeout>:
  * @param Timeout   Timeout duration
  * @retval HAL status
  */
HAL_StatusTypeDef UART_WaitOnFlagUntilTimeout(UART_HandleTypeDef *huart, uint32_t Flag, FlagStatus Status,
                                              uint32_t Tickstart, uint32_t Timeout)
{
 c006478:	b580      	push	{r7, lr}
 c00647a:	b084      	sub	sp, #16
 c00647c:	af00      	add	r7, sp, #0
 c00647e:	60f8      	str	r0, [r7, #12]
 c006480:	60b9      	str	r1, [r7, #8]
 c006482:	603b      	str	r3, [r7, #0]
 c006484:	4613      	mov	r3, r2
 c006486:	71fb      	strb	r3, [r7, #7]
  /* Wait until flag is set */
  while ((__HAL_UART_GET_FLAG(huart, Flag) ? SET : RESET) == Status)
 c006488:	e049      	b.n	c00651e <UART_WaitOnFlagUntilTimeout+0xa6>
  {
    /* Check for the Timeout */
    if (Timeout != HAL_MAX_DELAY)
 c00648a:	69bb      	ldr	r3, [r7, #24]
 c00648c:	f1b3 3fff 	cmp.w	r3, #4294967295
 c006490:	d045      	beq.n	c00651e <UART_WaitOnFlagUntilTimeout+0xa6>
    {
      if (((HAL_GetTick() - Tickstart) > Timeout) || (Timeout == 0U))
 c006492:	f7fb fe15 	bl	c0020c0 <HAL_GetTick>
 c006496:	4602      	mov	r2, r0
 c006498:	683b      	ldr	r3, [r7, #0]
 c00649a:	1ad3      	subs	r3, r2, r3
 c00649c:	69ba      	ldr	r2, [r7, #24]
 c00649e:	429a      	cmp	r2, r3
 c0064a0:	d302      	bcc.n	c0064a8 <UART_WaitOnFlagUntilTimeout+0x30>
 c0064a2:	69bb      	ldr	r3, [r7, #24]
 c0064a4:	2b00      	cmp	r3, #0
 c0064a6:	d101      	bne.n	c0064ac <UART_WaitOnFlagUntilTimeout+0x34>
      {

        return HAL_TIMEOUT;
 c0064a8:	2303      	movs	r3, #3
 c0064aa:	e048      	b.n	c00653e <UART_WaitOnFlagUntilTimeout+0xc6>
      }

      if (READ_BIT(huart->Instance->CR1, USART_CR1_RE) != 0U)
 c0064ac:	68fb      	ldr	r3, [r7, #12]
 c0064ae:	681b      	ldr	r3, [r3, #0]
 c0064b0:	681b      	ldr	r3, [r3, #0]
 c0064b2:	f003 0304 	and.w	r3, r3, #4
 c0064b6:	2b00      	cmp	r3, #0
 c0064b8:	d031      	beq.n	c00651e <UART_WaitOnFlagUntilTimeout+0xa6>
      {
        if (__HAL_UART_GET_FLAG(huart, UART_FLAG_ORE) == SET)
 c0064ba:	68fb      	ldr	r3, [r7, #12]
 c0064bc:	681b      	ldr	r3, [r3, #0]
 c0064be:	69db      	ldr	r3, [r3, #28]
 c0064c0:	f003 0308 	and.w	r3, r3, #8
 c0064c4:	2b08      	cmp	r3, #8
 c0064c6:	d110      	bne.n	c0064ea <UART_WaitOnFlagUntilTimeout+0x72>
        {
           /* Clear Overrun Error flag*/
           __HAL_UART_CLEAR_FLAG(huart, UART_CLEAR_OREF);
 c0064c8:	68fb      	ldr	r3, [r7, #12]
 c0064ca:	681b      	ldr	r3, [r3, #0]
 c0064cc:	2208      	movs	r2, #8
 c0064ce:	621a      	str	r2, [r3, #32]

           /* Blocking error : transfer is aborted
           Set the UART state ready to be able to start again the process,
           Disable Rx Interrupts if ongoing */
           UART_EndRxTransfer(huart);
 c0064d0:	68f8      	ldr	r0, [r7, #12]
 c0064d2:	f000 f838 	bl	c006546 <UART_EndRxTransfer>

           huart->ErrorCode = HAL_UART_ERROR_ORE;
 c0064d6:	68fb      	ldr	r3, [r7, #12]
 c0064d8:	2208      	movs	r2, #8
 c0064da:	f8c3 2090 	str.w	r2, [r3, #144]	; 0x90

           /* Process Unlocked */
           __HAL_UNLOCK(huart);
 c0064de:	68fb      	ldr	r3, [r7, #12]
 c0064e0:	2200      	movs	r2, #0
 c0064e2:	f883 2084 	strb.w	r2, [r3, #132]	; 0x84

           return HAL_ERROR;
 c0064e6:	2301      	movs	r3, #1
 c0064e8:	e029      	b.n	c00653e <UART_WaitOnFlagUntilTimeout+0xc6>
        }
        if (__HAL_UART_GET_FLAG(huart, UART_FLAG_RTOF) == SET)
 c0064ea:	68fb      	ldr	r3, [r7, #12]
 c0064ec:	681b      	ldr	r3, [r3, #0]
 c0064ee:	69db      	ldr	r3, [r3, #28]
 c0064f0:	f403 6300 	and.w	r3, r3, #2048	; 0x800
 c0064f4:	f5b3 6f00 	cmp.w	r3, #2048	; 0x800
 c0064f8:	d111      	bne.n	c00651e <UART_WaitOnFlagUntilTimeout+0xa6>
        {
          /* Clear Receiver Timeout flag*/
          __HAL_UART_CLEAR_FLAG(huart, UART_CLEAR_RTOF);
 c0064fa:	68fb      	ldr	r3, [r7, #12]
 c0064fc:	681b      	ldr	r3, [r3, #0]
 c0064fe:	f44f 6200 	mov.w	r2, #2048	; 0x800
 c006502:	621a      	str	r2, [r3, #32]

          /* Blocking error : transfer is aborted
          Set the UART state ready to be able to start again the process,
          Disable Rx Interrupts if ongoing */
          UART_EndRxTransfer(huart);
 c006504:	68f8      	ldr	r0, [r7, #12]
 c006506:	f000 f81e 	bl	c006546 <UART_EndRxTransfer>

          huart->ErrorCode = HAL_UART_ERROR_RTO;
 c00650a:	68fb      	ldr	r3, [r7, #12]
 c00650c:	2220      	movs	r2, #32
 c00650e:	f8c3 2090 	str.w	r2, [r3, #144]	; 0x90

          /* Process Unlocked */
          __HAL_UNLOCK(huart);
 c006512:	68fb      	ldr	r3, [r7, #12]
 c006514:	2200      	movs	r2, #0
 c006516:	f883 2084 	strb.w	r2, [r3, #132]	; 0x84

          return HAL_TIMEOUT;
 c00651a:	2303      	movs	r3, #3
 c00651c:	e00f      	b.n	c00653e <UART_WaitOnFlagUntilTimeout+0xc6>
  while ((__HAL_UART_GET_FLAG(huart, Flag) ? SET : RESET) == Status)
 c00651e:	68fb      	ldr	r3, [r7, #12]
 c006520:	681b      	ldr	r3, [r3, #0]
 c006522:	69da      	ldr	r2, [r3, #28]
 c006524:	68bb      	ldr	r3, [r7, #8]
 c006526:	4013      	ands	r3, r2
 c006528:	68ba      	ldr	r2, [r7, #8]
 c00652a:	429a      	cmp	r2, r3
 c00652c:	bf0c      	ite	eq
 c00652e:	2301      	moveq	r3, #1
 c006530:	2300      	movne	r3, #0
 c006532:	b2db      	uxtb	r3, r3
 c006534:	461a      	mov	r2, r3
 c006536:	79fb      	ldrb	r3, [r7, #7]
 c006538:	429a      	cmp	r2, r3
 c00653a:	d0a6      	beq.n	c00648a <UART_WaitOnFlagUntilTimeout+0x12>
        }
      }
    }
  }
  return HAL_OK;
 c00653c:	2300      	movs	r3, #0
}
 c00653e:	4618      	mov	r0, r3
 c006540:	3710      	adds	r7, #16
 c006542:	46bd      	mov	sp, r7
 c006544:	bd80      	pop	{r7, pc}

0c006546 <UART_EndRxTransfer>:
  * @brief  End ongoing Rx transfer on UART peripheral (following error detection or Reception completion).
  * @param  huart UART handle.
  * @retval None
  */
static void UART_EndRxTransfer(UART_HandleTypeDef *huart)
{
 c006546:	b480      	push	{r7}
 c006548:	b095      	sub	sp, #84	; 0x54
 c00654a:	af00      	add	r7, sp, #0
 c00654c:	6078      	str	r0, [r7, #4]
  /* Disable RXNE, PE and ERR (Frame error, noise error, overrun error) interrupts */
  ATOMIC_CLEAR_BIT(huart->Instance->CR1, (USART_CR1_RXNEIE_RXFNEIE | USART_CR1_PEIE));
 c00654e:	687b      	ldr	r3, [r7, #4]
 c006550:	681b      	ldr	r3, [r3, #0]
 c006552:	637b      	str	r3, [r7, #52]	; 0x34
   __ASM volatile ("ldrex %0, %1" : "=r" (result) : "Q" (*addr) );
 c006554:	6b7b      	ldr	r3, [r7, #52]	; 0x34
 c006556:	e853 3f00 	ldrex	r3, [r3]
 c00655a:	633b      	str	r3, [r7, #48]	; 0x30
   return(result);
 c00655c:	6b3b      	ldr	r3, [r7, #48]	; 0x30
 c00655e:	f423 7390 	bic.w	r3, r3, #288	; 0x120
 c006562:	64fb      	str	r3, [r7, #76]	; 0x4c
 c006564:	687b      	ldr	r3, [r7, #4]
 c006566:	681b      	ldr	r3, [r3, #0]
 c006568:	461a      	mov	r2, r3
 c00656a:	6cfb      	ldr	r3, [r7, #76]	; 0x4c
 c00656c:	643b      	str	r3, [r7, #64]	; 0x40
 c00656e:	63fa      	str	r2, [r7, #60]	; 0x3c
   __ASM volatile ("strex %0, %2, %1" : "=&r" (result), "=Q" (*addr) : "r" (value) );
 c006570:	6bf9      	ldr	r1, [r7, #60]	; 0x3c
 c006572:	6c3a      	ldr	r2, [r7, #64]	; 0x40
 c006574:	e841 2300 	strex	r3, r2, [r1]
 c006578:	63bb      	str	r3, [r7, #56]	; 0x38
   return(result);
 c00657a:	6bbb      	ldr	r3, [r7, #56]	; 0x38
 c00657c:	2b00      	cmp	r3, #0
 c00657e:	d1e6      	bne.n	c00654e <UART_EndRxTransfer+0x8>
  ATOMIC_CLEAR_BIT(huart->Instance->CR3, (USART_CR3_EIE | USART_CR3_RXFTIE));
 c006580:	687b      	ldr	r3, [r7, #4]
 c006582:	681b      	ldr	r3, [r3, #0]
 c006584:	3308      	adds	r3, #8
 c006586:	623b      	str	r3, [r7, #32]
   __ASM volatile ("ldrex %0, %1" : "=r" (result) : "Q" (*addr) );
 c006588:	6a3b      	ldr	r3, [r7, #32]
 c00658a:	e853 3f00 	ldrex	r3, [r3]
 c00658e:	61fb      	str	r3, [r7, #28]
   return(result);
 c006590:	69fb      	ldr	r3, [r7, #28]
 c006592:	f023 5380 	bic.w	r3, r3, #268435456	; 0x10000000
 c006596:	f023 0301 	bic.w	r3, r3, #1
 c00659a:	64bb      	str	r3, [r7, #72]	; 0x48
 c00659c:	687b      	ldr	r3, [r7, #4]
 c00659e:	681b      	ldr	r3, [r3, #0]
 c0065a0:	3308      	adds	r3, #8
 c0065a2:	6cba      	ldr	r2, [r7, #72]	; 0x48
 c0065a4:	62fa      	str	r2, [r7, #44]	; 0x2c
 c0065a6:	62bb      	str	r3, [r7, #40]	; 0x28
   __ASM volatile ("strex %0, %2, %1" : "=&r" (result), "=Q" (*addr) : "r" (value) );
 c0065a8:	6ab9      	ldr	r1, [r7, #40]	; 0x28
 c0065aa:	6afa      	ldr	r2, [r7, #44]	; 0x2c
 c0065ac:	e841 2300 	strex	r3, r2, [r1]
 c0065b0:	627b      	str	r3, [r7, #36]	; 0x24
   return(result);
 c0065b2:	6a7b      	ldr	r3, [r7, #36]	; 0x24
 c0065b4:	2b00      	cmp	r3, #0
 c0065b6:	d1e3      	bne.n	c006580 <UART_EndRxTransfer+0x3a>

  /* In case of reception waiting for IDLE event, disable also the IDLE IE interrupt source */
  if (huart->ReceptionType == HAL_UART_RECEPTION_TOIDLE)
 c0065b8:	687b      	ldr	r3, [r7, #4]
 c0065ba:	6edb      	ldr	r3, [r3, #108]	; 0x6c
 c0065bc:	2b01      	cmp	r3, #1
 c0065be:	d118      	bne.n	c0065f2 <UART_EndRxTransfer+0xac>
  {
    ATOMIC_CLEAR_BIT(huart->Instance->CR1, USART_CR1_IDLEIE);
 c0065c0:	687b      	ldr	r3, [r7, #4]
 c0065c2:	681b      	ldr	r3, [r3, #0]
 c0065c4:	60fb      	str	r3, [r7, #12]
   __ASM volatile ("ldrex %0, %1" : "=r" (result) : "Q" (*addr) );
 c0065c6:	68fb      	ldr	r3, [r7, #12]
 c0065c8:	e853 3f00 	ldrex	r3, [r3]
 c0065cc:	60bb      	str	r3, [r7, #8]
   return(result);
 c0065ce:	68bb      	ldr	r3, [r7, #8]
 c0065d0:	f023 0310 	bic.w	r3, r3, #16
 c0065d4:	647b      	str	r3, [r7, #68]	; 0x44
 c0065d6:	687b      	ldr	r3, [r7, #4]
 c0065d8:	681b      	ldr	r3, [r3, #0]
 c0065da:	461a      	mov	r2, r3
 c0065dc:	6c7b      	ldr	r3, [r7, #68]	; 0x44
 c0065de:	61bb      	str	r3, [r7, #24]
 c0065e0:	617a      	str	r2, [r7, #20]
   __ASM volatile ("strex %0, %2, %1" : "=&r" (result), "=Q" (*addr) : "r" (value) );
 c0065e2:	6979      	ldr	r1, [r7, #20]
 c0065e4:	69ba      	ldr	r2, [r7, #24]
 c0065e6:	e841 2300 	strex	r3, r2, [r1]
 c0065ea:	613b      	str	r3, [r7, #16]
   return(result);
 c0065ec:	693b      	ldr	r3, [r7, #16]
 c0065ee:	2b00      	cmp	r3, #0
 c0065f0:	d1e6      	bne.n	c0065c0 <UART_EndRxTransfer+0x7a>
  }

  /* At end of Rx process, restore huart->RxState to Ready */
  huart->RxState = HAL_UART_STATE_READY;
 c0065f2:	687b      	ldr	r3, [r7, #4]
 c0065f4:	2220      	movs	r2, #32
 c0065f6:	f8c3 208c 	str.w	r2, [r3, #140]	; 0x8c
  huart->ReceptionType = HAL_UART_RECEPTION_STANDARD;
 c0065fa:	687b      	ldr	r3, [r7, #4]
 c0065fc:	2200      	movs	r2, #0
 c0065fe:	66da      	str	r2, [r3, #108]	; 0x6c

  /* Reset RxIsr function pointer */
  huart->RxISR = NULL;
 c006600:	687b      	ldr	r3, [r7, #4]
 c006602:	2200      	movs	r2, #0
 c006604:	675a      	str	r2, [r3, #116]	; 0x74
}
 c006606:	bf00      	nop
 c006608:	3754      	adds	r7, #84	; 0x54
 c00660a:	46bd      	mov	sp, r7
 c00660c:	f85d 7b04 	ldr.w	r7, [sp], #4
 c006610:	4770      	bx	lr

0c006612 <HAL_UARTEx_DisableFifoMode>:
  * @brief  Disable the FIFO mode.
  * @param huart      UART handle.
  * @retval HAL status
  */
HAL_StatusTypeDef HAL_UARTEx_DisableFifoMode(UART_HandleTypeDef *huart)
{
 c006612:	b480      	push	{r7}
 c006614:	b085      	sub	sp, #20
 c006616:	af00      	add	r7, sp, #0
 c006618:	6078      	str	r0, [r7, #4]

  /* Check parameters */
  assert_param(IS_UART_FIFO_INSTANCE(huart->Instance));

  /* Process Locked */
  __HAL_LOCK(huart);
 c00661a:	687b      	ldr	r3, [r7, #4]
 c00661c:	f893 3084 	ldrb.w	r3, [r3, #132]	; 0x84
 c006620:	2b01      	cmp	r3, #1
 c006622:	d101      	bne.n	c006628 <HAL_UARTEx_DisableFifoMode+0x16>
 c006624:	2302      	movs	r3, #2
 c006626:	e027      	b.n	c006678 <HAL_UARTEx_DisableFifoMode+0x66>
 c006628:	687b      	ldr	r3, [r7, #4]
 c00662a:	2201      	movs	r2, #1
 c00662c:	f883 2084 	strb.w	r2, [r3, #132]	; 0x84

  huart->gState = HAL_UART_STATE_BUSY;
 c006630:	687b      	ldr	r3, [r7, #4]
 c006632:	2224      	movs	r2, #36	; 0x24
 c006634:	f8c3 2088 	str.w	r2, [r3, #136]	; 0x88

  /* Save actual UART configuration */
  tmpcr1 = READ_REG(huart->Instance->CR1);
 c006638:	687b      	ldr	r3, [r7, #4]
 c00663a:	681b      	ldr	r3, [r3, #0]
 c00663c:	681b      	ldr	r3, [r3, #0]
 c00663e:	60fb      	str	r3, [r7, #12]

  /* Disable UART */
  __HAL_UART_DISABLE(huart);
 c006640:	687b      	ldr	r3, [r7, #4]
 c006642:	681b      	ldr	r3, [r3, #0]
 c006644:	681a      	ldr	r2, [r3, #0]
 c006646:	687b      	ldr	r3, [r7, #4]
 c006648:	681b      	ldr	r3, [r3, #0]
 c00664a:	f022 0201 	bic.w	r2, r2, #1
 c00664e:	601a      	str	r2, [r3, #0]

  /* Enable FIFO mode */
  CLEAR_BIT(tmpcr1, USART_CR1_FIFOEN);
 c006650:	68fb      	ldr	r3, [r7, #12]
 c006652:	f023 5300 	bic.w	r3, r3, #536870912	; 0x20000000
 c006656:	60fb      	str	r3, [r7, #12]
  huart->FifoMode = UART_FIFOMODE_DISABLE;
 c006658:	687b      	ldr	r3, [r7, #4]
 c00665a:	2200      	movs	r2, #0
 c00665c:	665a      	str	r2, [r3, #100]	; 0x64

  /* Restore UART configuration */
  WRITE_REG(huart->Instance->CR1, tmpcr1);
 c00665e:	687b      	ldr	r3, [r7, #4]
 c006660:	681b      	ldr	r3, [r3, #0]
 c006662:	68fa      	ldr	r2, [r7, #12]
 c006664:	601a      	str	r2, [r3, #0]

  huart->gState = HAL_UART_STATE_READY;
 c006666:	687b      	ldr	r3, [r7, #4]
 c006668:	2220      	movs	r2, #32
 c00666a:	f8c3 2088 	str.w	r2, [r3, #136]	; 0x88

  /* Process Unlocked */
  __HAL_UNLOCK(huart);
 c00666e:	687b      	ldr	r3, [r7, #4]
 c006670:	2200      	movs	r2, #0
 c006672:	f883 2084 	strb.w	r2, [r3, #132]	; 0x84

  return HAL_OK;
 c006676:	2300      	movs	r3, #0
}
 c006678:	4618      	mov	r0, r3
 c00667a:	3714      	adds	r7, #20
 c00667c:	46bd      	mov	sp, r7
 c00667e:	f85d 7b04 	ldr.w	r7, [sp], #4
 c006682:	4770      	bx	lr

0c006684 <HAL_UARTEx_SetTxFifoThreshold>:
  *            @arg @ref UART_TXFIFO_THRESHOLD_7_8
  *            @arg @ref UART_TXFIFO_THRESHOLD_8_8
  * @retval HAL status
  */
HAL_StatusTypeDef HAL_UARTEx_SetTxFifoThreshold(UART_HandleTypeDef *huart, uint32_t Threshold)
{
 c006684:	b580      	push	{r7, lr}
 c006686:	b084      	sub	sp, #16
 c006688:	af00      	add	r7, sp, #0
 c00668a:	6078      	str	r0, [r7, #4]
 c00668c:	6039      	str	r1, [r7, #0]
  /* Check parameters */
  assert_param(IS_UART_FIFO_INSTANCE(huart->Instance));
  assert_param(IS_UART_TXFIFO_THRESHOLD(Threshold));

  /* Process Locked */
  __HAL_LOCK(huart);
 c00668e:	687b      	ldr	r3, [r7, #4]
 c006690:	f893 3084 	ldrb.w	r3, [r3, #132]	; 0x84
 c006694:	2b01      	cmp	r3, #1
 c006696:	d101      	bne.n	c00669c <HAL_UARTEx_SetTxFifoThreshold+0x18>
 c006698:	2302      	movs	r3, #2
 c00669a:	e02d      	b.n	c0066f8 <HAL_UARTEx_SetTxFifoThreshold+0x74>
 c00669c:	687b      	ldr	r3, [r7, #4]
 c00669e:	2201      	movs	r2, #1
 c0066a0:	f883 2084 	strb.w	r2, [r3, #132]	; 0x84

  huart->gState = HAL_UART_STATE_BUSY;
 c0066a4:	687b      	ldr	r3, [r7, #4]
 c0066a6:	2224      	movs	r2, #36	; 0x24
 c0066a8:	f8c3 2088 	str.w	r2, [r3, #136]	; 0x88

  /* Save actual UART configuration */
  tmpcr1 = READ_REG(huart->Instance->CR1);
 c0066ac:	687b      	ldr	r3, [r7, #4]
 c0066ae:	681b      	ldr	r3, [r3, #0]
 c0066b0:	681b      	ldr	r3, [r3, #0]
 c0066b2:	60fb      	str	r3, [r7, #12]

  /* Disable UART */
  __HAL_UART_DISABLE(huart);
 c0066b4:	687b      	ldr	r3, [r7, #4]
 c0066b6:	681b      	ldr	r3, [r3, #0]
 c0066b8:	681a      	ldr	r2, [r3, #0]
 c0066ba:	687b      	ldr	r3, [r7, #4]
 c0066bc:	681b      	ldr	r3, [r3, #0]
 c0066be:	f022 0201 	bic.w	r2, r2, #1
 c0066c2:	601a      	str	r2, [r3, #0]

  /* Update TX threshold configuration */
  MODIFY_REG(huart->Instance->CR3, USART_CR3_TXFTCFG, Threshold);
 c0066c4:	687b      	ldr	r3, [r7, #4]
 c0066c6:	681b      	ldr	r3, [r3, #0]
 c0066c8:	689b      	ldr	r3, [r3, #8]
 c0066ca:	f023 4160 	bic.w	r1, r3, #3758096384	; 0xe0000000
 c0066ce:	687b      	ldr	r3, [r7, #4]
 c0066d0:	681b      	ldr	r3, [r3, #0]
 c0066d2:	683a      	ldr	r2, [r7, #0]
 c0066d4:	430a      	orrs	r2, r1
 c0066d6:	609a      	str	r2, [r3, #8]

  /* Determine the number of data to process during RX/TX ISR execution */
  UARTEx_SetNbDataToProcess(huart);
 c0066d8:	6878      	ldr	r0, [r7, #4]
 c0066da:	f000 f84f 	bl	c00677c <UARTEx_SetNbDataToProcess>

  /* Restore UART configuration */
  WRITE_REG(huart->Instance->CR1, tmpcr1);
 c0066de:	687b      	ldr	r3, [r7, #4]
 c0066e0:	681b      	ldr	r3, [r3, #0]
 c0066e2:	68fa      	ldr	r2, [r7, #12]
 c0066e4:	601a      	str	r2, [r3, #0]

  huart->gState = HAL_UART_STATE_READY;
 c0066e6:	687b      	ldr	r3, [r7, #4]
 c0066e8:	2220      	movs	r2, #32
 c0066ea:	f8c3 2088 	str.w	r2, [r3, #136]	; 0x88

  /* Process Unlocked */
  __HAL_UNLOCK(huart);
 c0066ee:	687b      	ldr	r3, [r7, #4]
 c0066f0:	2200      	movs	r2, #0
 c0066f2:	f883 2084 	strb.w	r2, [r3, #132]	; 0x84

  return HAL_OK;
 c0066f6:	2300      	movs	r3, #0
}
 c0066f8:	4618      	mov	r0, r3
 c0066fa:	3710      	adds	r7, #16
 c0066fc:	46bd      	mov	sp, r7
 c0066fe:	bd80      	pop	{r7, pc}

0c006700 <HAL_UARTEx_SetRxFifoThreshold>:
  *            @arg @ref UART_RXFIFO_THRESHOLD_7_8
  *            @arg @ref UART_RXFIFO_THRESHOLD_8_8
  * @retval HAL status
  */
HAL_StatusTypeDef HAL_UARTEx_SetRxFifoThreshold(UART_HandleTypeDef *huart, uint32_t Threshold)
{
 c006700:	b580      	push	{r7, lr}
 c006702:	b084      	sub	sp, #16
 c006704:	af00      	add	r7, sp, #0
 c006706:	6078      	str	r0, [r7, #4]
 c006708:	6039      	str	r1, [r7, #0]
  /* Check the parameters */
  assert_param(IS_UART_FIFO_INSTANCE(huart->Instance));
  assert_param(IS_UART_RXFIFO_THRESHOLD(Threshold));

  /* Process Locked */
  __HAL_LOCK(huart);
 c00670a:	687b      	ldr	r3, [r7, #4]
 c00670c:	f893 3084 	ldrb.w	r3, [r3, #132]	; 0x84
 c006710:	2b01      	cmp	r3, #1
 c006712:	d101      	bne.n	c006718 <HAL_UARTEx_SetRxFifoThreshold+0x18>
 c006714:	2302      	movs	r3, #2
 c006716:	e02d      	b.n	c006774 <HAL_UARTEx_SetRxFifoThreshold+0x74>
 c006718:	687b      	ldr	r3, [r7, #4]
 c00671a:	2201      	movs	r2, #1
 c00671c:	f883 2084 	strb.w	r2, [r3, #132]	; 0x84

  huart->gState = HAL_UART_STATE_BUSY;
 c006720:	687b      	ldr	r3, [r7, #4]
 c006722:	2224      	movs	r2, #36	; 0x24
 c006724:	f8c3 2088 	str.w	r2, [r3, #136]	; 0x88

  /* Save actual UART configuration */
  tmpcr1 = READ_REG(huart->Instance->CR1);
 c006728:	687b      	ldr	r3, [r7, #4]
 c00672a:	681b      	ldr	r3, [r3, #0]
 c00672c:	681b      	ldr	r3, [r3, #0]
 c00672e:	60fb      	str	r3, [r7, #12]

  /* Disable UART */
  __HAL_UART_DISABLE(huart);
 c006730:	687b      	ldr	r3, [r7, #4]
 c006732:	681b      	ldr	r3, [r3, #0]
 c006734:	681a      	ldr	r2, [r3, #0]
 c006736:	687b      	ldr	r3, [r7, #4]
 c006738:	681b      	ldr	r3, [r3, #0]
 c00673a:	f022 0201 	bic.w	r2, r2, #1
 c00673e:	601a      	str	r2, [r3, #0]

  /* Update RX threshold configuration */
  MODIFY_REG(huart->Instance->CR3, USART_CR3_RXFTCFG, Threshold);
 c006740:	687b      	ldr	r3, [r7, #4]
 c006742:	681b      	ldr	r3, [r3, #0]
 c006744:	689b      	ldr	r3, [r3, #8]
 c006746:	f023 6160 	bic.w	r1, r3, #234881024	; 0xe000000
 c00674a:	687b      	ldr	r3, [r7, #4]
 c00674c:	681b      	ldr	r3, [r3, #0]
 c00674e:	683a      	ldr	r2, [r7, #0]
 c006750:	430a      	orrs	r2, r1
 c006752:	609a      	str	r2, [r3, #8]

  /* Determine the number of data to process during RX/TX ISR execution */
  UARTEx_SetNbDataToProcess(huart);
 c006754:	6878      	ldr	r0, [r7, #4]
 c006756:	f000 f811 	bl	c00677c <UARTEx_SetNbDataToProcess>

  /* Restore UART configuration */
  WRITE_REG(huart->Instance->CR1, tmpcr1);
 c00675a:	687b      	ldr	r3, [r7, #4]
 c00675c:	681b      	ldr	r3, [r3, #0]
 c00675e:	68fa      	ldr	r2, [r7, #12]
 c006760:	601a      	str	r2, [r3, #0]

  huart->gState = HAL_UART_STATE_READY;
 c006762:	687b      	ldr	r3, [r7, #4]
 c006764:	2220      	movs	r2, #32
 c006766:	f8c3 2088 	str.w	r2, [r3, #136]	; 0x88

  /* Process Unlocked */
  __HAL_UNLOCK(huart);
 c00676a:	687b      	ldr	r3, [r7, #4]
 c00676c:	2200      	movs	r2, #0
 c00676e:	f883 2084 	strb.w	r2, [r3, #132]	; 0x84

  return HAL_OK;
 c006772:	2300      	movs	r3, #0
}
 c006774:	4618      	mov	r0, r3
 c006776:	3710      	adds	r7, #16
 c006778:	46bd      	mov	sp, r7
 c00677a:	bd80      	pop	{r7, pc}

0c00677c <UARTEx_SetNbDataToProcess>:
  *       the UART configuration registers.
  * @param huart UART handle.
  * @retval None
  */
static void UARTEx_SetNbDataToProcess(UART_HandleTypeDef *huart)
{
 c00677c:	b480      	push	{r7}
 c00677e:	b085      	sub	sp, #20
 c006780:	af00      	add	r7, sp, #0
 c006782:	6078      	str	r0, [r7, #4]
  uint8_t rx_fifo_threshold;
  uint8_t tx_fifo_threshold;
  static const uint8_t numerator[] = {1U, 1U, 1U, 3U, 7U, 1U, 0U, 0U};
  static const uint8_t denominator[] = {8U, 4U, 2U, 4U, 8U, 1U, 1U, 1U};

  if (huart->FifoMode == UART_FIFOMODE_DISABLE)
 c006784:	687b      	ldr	r3, [r7, #4]
 c006786:	6e5b      	ldr	r3, [r3, #100]	; 0x64
 c006788:	2b00      	cmp	r3, #0
 c00678a:	d108      	bne.n	c00679e <UARTEx_SetNbDataToProcess+0x22>
  {
    huart->NbTxDataToProcess = 1U;
 c00678c:	687b      	ldr	r3, [r7, #4]
 c00678e:	2201      	movs	r2, #1
 c006790:	f8a3 206a 	strh.w	r2, [r3, #106]	; 0x6a
    huart->NbRxDataToProcess = 1U;
 c006794:	687b      	ldr	r3, [r7, #4]
 c006796:	2201      	movs	r2, #1
 c006798:	f8a3 2068 	strh.w	r2, [r3, #104]	; 0x68
    huart->NbTxDataToProcess = ((uint16_t)tx_fifo_depth * numerator[tx_fifo_threshold]) /
                               (uint16_t)denominator[tx_fifo_threshold];
    huart->NbRxDataToProcess = ((uint16_t)rx_fifo_depth * numerator[rx_fifo_threshold]) /
                               (uint16_t)denominator[rx_fifo_threshold];
  }
}
 c00679c:	e031      	b.n	c006802 <UARTEx_SetNbDataToProcess+0x86>
    rx_fifo_depth = RX_FIFO_DEPTH;
 c00679e:	2308      	movs	r3, #8
 c0067a0:	73fb      	strb	r3, [r7, #15]
    tx_fifo_depth = TX_FIFO_DEPTH;
 c0067a2:	2308      	movs	r3, #8
 c0067a4:	73bb      	strb	r3, [r7, #14]
    rx_fifo_threshold = (uint8_t)(READ_BIT(huart->Instance->CR3, USART_CR3_RXFTCFG) >> USART_CR3_RXFTCFG_Pos);
 c0067a6:	687b      	ldr	r3, [r7, #4]
 c0067a8:	681b      	ldr	r3, [r3, #0]
 c0067aa:	689b      	ldr	r3, [r3, #8]
 c0067ac:	0e5b      	lsrs	r3, r3, #25
 c0067ae:	b2db      	uxtb	r3, r3
 c0067b0:	f003 0307 	and.w	r3, r3, #7
 c0067b4:	737b      	strb	r3, [r7, #13]
    tx_fifo_threshold = (uint8_t)(READ_BIT(huart->Instance->CR3, USART_CR3_TXFTCFG) >> USART_CR3_TXFTCFG_Pos);
 c0067b6:	687b      	ldr	r3, [r7, #4]
 c0067b8:	681b      	ldr	r3, [r3, #0]
 c0067ba:	689b      	ldr	r3, [r3, #8]
 c0067bc:	0f5b      	lsrs	r3, r3, #29
 c0067be:	b2db      	uxtb	r3, r3
 c0067c0:	f003 0307 	and.w	r3, r3, #7
 c0067c4:	733b      	strb	r3, [r7, #12]
    huart->NbTxDataToProcess = ((uint16_t)tx_fifo_depth * numerator[tx_fifo_threshold]) /
 c0067c6:	7bbb      	ldrb	r3, [r7, #14]
 c0067c8:	7b3a      	ldrb	r2, [r7, #12]
 c0067ca:	4911      	ldr	r1, [pc, #68]	; (c006810 <UARTEx_SetNbDataToProcess+0x94>)
 c0067cc:	5c8a      	ldrb	r2, [r1, r2]
 c0067ce:	fb02 f303 	mul.w	r3, r2, r3
                               (uint16_t)denominator[tx_fifo_threshold];
 c0067d2:	7b3a      	ldrb	r2, [r7, #12]
 c0067d4:	490f      	ldr	r1, [pc, #60]	; (c006814 <UARTEx_SetNbDataToProcess+0x98>)
 c0067d6:	5c8a      	ldrb	r2, [r1, r2]
    huart->NbTxDataToProcess = ((uint16_t)tx_fifo_depth * numerator[tx_fifo_threshold]) /
 c0067d8:	fb93 f3f2 	sdiv	r3, r3, r2
 c0067dc:	b29a      	uxth	r2, r3
 c0067de:	687b      	ldr	r3, [r7, #4]
 c0067e0:	f8a3 206a 	strh.w	r2, [r3, #106]	; 0x6a
    huart->NbRxDataToProcess = ((uint16_t)rx_fifo_depth * numerator[rx_fifo_threshold]) /
 c0067e4:	7bfb      	ldrb	r3, [r7, #15]
 c0067e6:	7b7a      	ldrb	r2, [r7, #13]
 c0067e8:	4909      	ldr	r1, [pc, #36]	; (c006810 <UARTEx_SetNbDataToProcess+0x94>)
 c0067ea:	5c8a      	ldrb	r2, [r1, r2]
 c0067ec:	fb02 f303 	mul.w	r3, r2, r3
                               (uint16_t)denominator[rx_fifo_threshold];
 c0067f0:	7b7a      	ldrb	r2, [r7, #13]
 c0067f2:	4908      	ldr	r1, [pc, #32]	; (c006814 <UARTEx_SetNbDataToProcess+0x98>)
 c0067f4:	5c8a      	ldrb	r2, [r1, r2]
    huart->NbRxDataToProcess = ((uint16_t)rx_fifo_depth * numerator[rx_fifo_threshold]) /
 c0067f6:	fb93 f3f2 	sdiv	r3, r3, r2
 c0067fa:	b29a      	uxth	r2, r3
 c0067fc:	687b      	ldr	r3, [r7, #4]
 c0067fe:	f8a3 2068 	strh.w	r2, [r3, #104]	; 0x68
}
 c006802:	bf00      	nop
 c006804:	3714      	adds	r7, #20
 c006806:	46bd      	mov	sp, r7
 c006808:	f85d 7b04 	ldr.w	r7, [sp], #4
 c00680c:	4770      	bx	lr
 c00680e:	bf00      	nop
 c006810:	0c008060 	.word	0x0c008060
 c006814:	0c008068 	.word	0x0c008068

0c006818 <__errno>:
 c006818:	4b01      	ldr	r3, [pc, #4]	; (c006820 <__errno+0x8>)
 c00681a:	6818      	ldr	r0, [r3, #0]
 c00681c:	4770      	bx	lr
 c00681e:	bf00      	nop
 c006820:	300000cc 	.word	0x300000cc

0c006824 <__libc_init_array>:
 c006824:	b570      	push	{r4, r5, r6, lr}
 c006826:	4d0d      	ldr	r5, [pc, #52]	; (c00685c <__libc_init_array+0x38>)
 c006828:	2600      	movs	r6, #0
 c00682a:	4c0d      	ldr	r4, [pc, #52]	; (c006860 <__libc_init_array+0x3c>)
 c00682c:	1b64      	subs	r4, r4, r5
 c00682e:	10a4      	asrs	r4, r4, #2
 c006830:	42a6      	cmp	r6, r4
 c006832:	d109      	bne.n	c006848 <__libc_init_array+0x24>
 c006834:	4d0b      	ldr	r5, [pc, #44]	; (c006864 <__libc_init_array+0x40>)
 c006836:	2600      	movs	r6, #0
 c006838:	4c0b      	ldr	r4, [pc, #44]	; (c006868 <__libc_init_array+0x44>)
 c00683a:	f001 f9ab 	bl	c007b94 <_init>
 c00683e:	1b64      	subs	r4, r4, r5
 c006840:	10a4      	asrs	r4, r4, #2
 c006842:	42a6      	cmp	r6, r4
 c006844:	d105      	bne.n	c006852 <__libc_init_array+0x2e>
 c006846:	bd70      	pop	{r4, r5, r6, pc}
 c006848:	f855 3b04 	ldr.w	r3, [r5], #4
 c00684c:	3601      	adds	r6, #1
 c00684e:	4798      	blx	r3
 c006850:	e7ee      	b.n	c006830 <__libc_init_array+0xc>
 c006852:	f855 3b04 	ldr.w	r3, [r5], #4
 c006856:	3601      	adds	r6, #1
 c006858:	4798      	blx	r3
 c00685a:	e7f2      	b.n	c006842 <__libc_init_array+0x1e>
 c00685c:	0c008110 	.word	0x0c008110
 c006860:	0c008110 	.word	0x0c008110
 c006864:	0c008110 	.word	0x0c008110
 c006868:	0c008114 	.word	0x0c008114

0c00686c <memset>:
 c00686c:	4402      	add	r2, r0
 c00686e:	4603      	mov	r3, r0
 c006870:	4293      	cmp	r3, r2
 c006872:	d100      	bne.n	c006876 <memset+0xa>
 c006874:	4770      	bx	lr
 c006876:	f803 1b01 	strb.w	r1, [r3], #1
 c00687a:	e7f9      	b.n	c006870 <memset+0x4>

0c00687c <iprintf>:
 c00687c:	b40f      	push	{r0, r1, r2, r3}
 c00687e:	4b0a      	ldr	r3, [pc, #40]	; (c0068a8 <iprintf+0x2c>)
 c006880:	b513      	push	{r0, r1, r4, lr}
 c006882:	681c      	ldr	r4, [r3, #0]
 c006884:	b124      	cbz	r4, c006890 <iprintf+0x14>
 c006886:	69a3      	ldr	r3, [r4, #24]
 c006888:	b913      	cbnz	r3, c006890 <iprintf+0x14>
 c00688a:	4620      	mov	r0, r4
 c00688c:	f000 f89a 	bl	c0069c4 <__sinit>
 c006890:	ab05      	add	r3, sp, #20
 c006892:	9a04      	ldr	r2, [sp, #16]
 c006894:	68a1      	ldr	r1, [r4, #8]
 c006896:	4620      	mov	r0, r4
 c006898:	9301      	str	r3, [sp, #4]
 c00689a:	f000 fb4d 	bl	c006f38 <_vfiprintf_r>
 c00689e:	b002      	add	sp, #8
 c0068a0:	e8bd 4010 	ldmia.w	sp!, {r4, lr}
 c0068a4:	b004      	add	sp, #16
 c0068a6:	4770      	bx	lr
 c0068a8:	300000cc 	.word	0x300000cc

0c0068ac <sniprintf>:
 c0068ac:	b40c      	push	{r2, r3}
 c0068ae:	4b18      	ldr	r3, [pc, #96]	; (c006910 <sniprintf+0x64>)
 c0068b0:	b530      	push	{r4, r5, lr}
 c0068b2:	1e0c      	subs	r4, r1, #0
 c0068b4:	b09d      	sub	sp, #116	; 0x74
 c0068b6:	681d      	ldr	r5, [r3, #0]
 c0068b8:	da08      	bge.n	c0068cc <sniprintf+0x20>
 c0068ba:	238b      	movs	r3, #139	; 0x8b
 c0068bc:	f04f 30ff 	mov.w	r0, #4294967295
 c0068c0:	602b      	str	r3, [r5, #0]
 c0068c2:	b01d      	add	sp, #116	; 0x74
 c0068c4:	e8bd 4030 	ldmia.w	sp!, {r4, r5, lr}
 c0068c8:	b002      	add	sp, #8
 c0068ca:	4770      	bx	lr
 c0068cc:	f44f 7302 	mov.w	r3, #520	; 0x208
 c0068d0:	9002      	str	r0, [sp, #8]
 c0068d2:	9006      	str	r0, [sp, #24]
 c0068d4:	a902      	add	r1, sp, #8
 c0068d6:	f8ad 3014 	strh.w	r3, [sp, #20]
 c0068da:	bf14      	ite	ne
 c0068dc:	f104 33ff 	addne.w	r3, r4, #4294967295
 c0068e0:	4623      	moveq	r3, r4
 c0068e2:	9a20      	ldr	r2, [sp, #128]	; 0x80
 c0068e4:	4628      	mov	r0, r5
 c0068e6:	9304      	str	r3, [sp, #16]
 c0068e8:	9307      	str	r3, [sp, #28]
 c0068ea:	f64f 73ff 	movw	r3, #65535	; 0xffff
 c0068ee:	f8ad 3016 	strh.w	r3, [sp, #22]
 c0068f2:	ab21      	add	r3, sp, #132	; 0x84
 c0068f4:	9301      	str	r3, [sp, #4]
 c0068f6:	f000 f9f5 	bl	c006ce4 <_svfiprintf_r>
 c0068fa:	1c43      	adds	r3, r0, #1
 c0068fc:	bfbc      	itt	lt
 c0068fe:	238b      	movlt	r3, #139	; 0x8b
 c006900:	602b      	strlt	r3, [r5, #0]
 c006902:	2c00      	cmp	r4, #0
 c006904:	d0dd      	beq.n	c0068c2 <sniprintf+0x16>
 c006906:	9b02      	ldr	r3, [sp, #8]
 c006908:	2200      	movs	r2, #0
 c00690a:	701a      	strb	r2, [r3, #0]
 c00690c:	e7d9      	b.n	c0068c2 <sniprintf+0x16>
 c00690e:	bf00      	nop
 c006910:	300000cc 	.word	0x300000cc

0c006914 <std>:
 c006914:	2300      	movs	r3, #0
 c006916:	b510      	push	{r4, lr}
 c006918:	4604      	mov	r4, r0
 c00691a:	6083      	str	r3, [r0, #8]
 c00691c:	8181      	strh	r1, [r0, #12]
 c00691e:	4619      	mov	r1, r3
 c006920:	6643      	str	r3, [r0, #100]	; 0x64
 c006922:	81c2      	strh	r2, [r0, #14]
 c006924:	2208      	movs	r2, #8
 c006926:	6183      	str	r3, [r0, #24]
 c006928:	e9c0 3300 	strd	r3, r3, [r0]
 c00692c:	e9c0 3304 	strd	r3, r3, [r0, #16]
 c006930:	305c      	adds	r0, #92	; 0x5c
 c006932:	f7ff ff9b 	bl	c00686c <memset>
 c006936:	4b05      	ldr	r3, [pc, #20]	; (c00694c <std+0x38>)
 c006938:	6224      	str	r4, [r4, #32]
 c00693a:	6263      	str	r3, [r4, #36]	; 0x24
 c00693c:	4b04      	ldr	r3, [pc, #16]	; (c006950 <std+0x3c>)
 c00693e:	62a3      	str	r3, [r4, #40]	; 0x28
 c006940:	4b04      	ldr	r3, [pc, #16]	; (c006954 <std+0x40>)
 c006942:	62e3      	str	r3, [r4, #44]	; 0x2c
 c006944:	4b04      	ldr	r3, [pc, #16]	; (c006958 <std+0x44>)
 c006946:	6323      	str	r3, [r4, #48]	; 0x30
 c006948:	bd10      	pop	{r4, pc}
 c00694a:	bf00      	nop
 c00694c:	0c0074e5 	.word	0x0c0074e5
 c006950:	0c007507 	.word	0x0c007507
 c006954:	0c00753f 	.word	0x0c00753f
 c006958:	0c007563 	.word	0x0c007563

0c00695c <_cleanup_r>:
 c00695c:	4901      	ldr	r1, [pc, #4]	; (c006964 <_cleanup_r+0x8>)
 c00695e:	f000 b8af 	b.w	c006ac0 <_fwalk_reent>
 c006962:	bf00      	nop
 c006964:	0c007839 	.word	0x0c007839

0c006968 <__sfmoreglue>:
 c006968:	b570      	push	{r4, r5, r6, lr}
 c00696a:	2268      	movs	r2, #104	; 0x68
 c00696c:	1e4d      	subs	r5, r1, #1
 c00696e:	460e      	mov	r6, r1
 c006970:	4355      	muls	r5, r2
 c006972:	f105 0174 	add.w	r1, r5, #116	; 0x74
 c006976:	f000 f8e5 	bl	c006b44 <_malloc_r>
 c00697a:	4604      	mov	r4, r0
 c00697c:	b140      	cbz	r0, c006990 <__sfmoreglue+0x28>
 c00697e:	2100      	movs	r1, #0
 c006980:	f105 0268 	add.w	r2, r5, #104	; 0x68
 c006984:	e9c0 1600 	strd	r1, r6, [r0]
 c006988:	300c      	adds	r0, #12
 c00698a:	60a0      	str	r0, [r4, #8]
 c00698c:	f7ff ff6e 	bl	c00686c <memset>
 c006990:	4620      	mov	r0, r4
 c006992:	bd70      	pop	{r4, r5, r6, pc}

0c006994 <__sfp_lock_acquire>:
 c006994:	4801      	ldr	r0, [pc, #4]	; (c00699c <__sfp_lock_acquire+0x8>)
 c006996:	f000 b8b3 	b.w	c006b00 <__retarget_lock_acquire_recursive>
 c00699a:	bf00      	nop
 c00699c:	30001861 	.word	0x30001861

0c0069a0 <__sfp_lock_release>:
 c0069a0:	4801      	ldr	r0, [pc, #4]	; (c0069a8 <__sfp_lock_release+0x8>)
 c0069a2:	f000 b8ae 	b.w	c006b02 <__retarget_lock_release_recursive>
 c0069a6:	bf00      	nop
 c0069a8:	30001861 	.word	0x30001861

0c0069ac <__sinit_lock_acquire>:
 c0069ac:	4801      	ldr	r0, [pc, #4]	; (c0069b4 <__sinit_lock_acquire+0x8>)
 c0069ae:	f000 b8a7 	b.w	c006b00 <__retarget_lock_acquire_recursive>
 c0069b2:	bf00      	nop
 c0069b4:	30001862 	.word	0x30001862

0c0069b8 <__sinit_lock_release>:
 c0069b8:	4801      	ldr	r0, [pc, #4]	; (c0069c0 <__sinit_lock_release+0x8>)
 c0069ba:	f000 b8a2 	b.w	c006b02 <__retarget_lock_release_recursive>
 c0069be:	bf00      	nop
 c0069c0:	30001862 	.word	0x30001862

0c0069c4 <__sinit>:
 c0069c4:	b510      	push	{r4, lr}
 c0069c6:	4604      	mov	r4, r0
 c0069c8:	f7ff fff0 	bl	c0069ac <__sinit_lock_acquire>
 c0069cc:	69a3      	ldr	r3, [r4, #24]
 c0069ce:	b11b      	cbz	r3, c0069d8 <__sinit+0x14>
 c0069d0:	e8bd 4010 	ldmia.w	sp!, {r4, lr}
 c0069d4:	f7ff bff0 	b.w	c0069b8 <__sinit_lock_release>
 c0069d8:	e9c4 3312 	strd	r3, r3, [r4, #72]	; 0x48
 c0069dc:	6523      	str	r3, [r4, #80]	; 0x50
 c0069de:	4620      	mov	r0, r4
 c0069e0:	4b12      	ldr	r3, [pc, #72]	; (c006a2c <__sinit+0x68>)
 c0069e2:	4a13      	ldr	r2, [pc, #76]	; (c006a30 <__sinit+0x6c>)
 c0069e4:	681b      	ldr	r3, [r3, #0]
 c0069e6:	62a2      	str	r2, [r4, #40]	; 0x28
 c0069e8:	42a3      	cmp	r3, r4
 c0069ea:	bf04      	itt	eq
 c0069ec:	2301      	moveq	r3, #1
 c0069ee:	61a3      	streq	r3, [r4, #24]
 c0069f0:	f000 f820 	bl	c006a34 <__sfp>
 c0069f4:	6060      	str	r0, [r4, #4]
 c0069f6:	4620      	mov	r0, r4
 c0069f8:	f000 f81c 	bl	c006a34 <__sfp>
 c0069fc:	60a0      	str	r0, [r4, #8]
 c0069fe:	4620      	mov	r0, r4
 c006a00:	f000 f818 	bl	c006a34 <__sfp>
 c006a04:	2200      	movs	r2, #0
 c006a06:	2104      	movs	r1, #4
 c006a08:	60e0      	str	r0, [r4, #12]
 c006a0a:	6860      	ldr	r0, [r4, #4]
 c006a0c:	f7ff ff82 	bl	c006914 <std>
 c006a10:	2201      	movs	r2, #1
 c006a12:	2109      	movs	r1, #9
 c006a14:	68a0      	ldr	r0, [r4, #8]
 c006a16:	f7ff ff7d 	bl	c006914 <std>
 c006a1a:	2202      	movs	r2, #2
 c006a1c:	2112      	movs	r1, #18
 c006a1e:	68e0      	ldr	r0, [r4, #12]
 c006a20:	f7ff ff78 	bl	c006914 <std>
 c006a24:	2301      	movs	r3, #1
 c006a26:	61a3      	str	r3, [r4, #24]
 c006a28:	e7d2      	b.n	c0069d0 <__sinit+0xc>
 c006a2a:	bf00      	nop
 c006a2c:	0c008070 	.word	0x0c008070
 c006a30:	0c00695d 	.word	0x0c00695d

0c006a34 <__sfp>:
 c006a34:	b5f8      	push	{r3, r4, r5, r6, r7, lr}
 c006a36:	4607      	mov	r7, r0
 c006a38:	f7ff ffac 	bl	c006994 <__sfp_lock_acquire>
 c006a3c:	4b1e      	ldr	r3, [pc, #120]	; (c006ab8 <__sfp+0x84>)
 c006a3e:	681e      	ldr	r6, [r3, #0]
 c006a40:	69b3      	ldr	r3, [r6, #24]
 c006a42:	b913      	cbnz	r3, c006a4a <__sfp+0x16>
 c006a44:	4630      	mov	r0, r6
 c006a46:	f7ff ffbd 	bl	c0069c4 <__sinit>
 c006a4a:	3648      	adds	r6, #72	; 0x48
 c006a4c:	e9d6 3401 	ldrd	r3, r4, [r6, #4]
 c006a50:	3b01      	subs	r3, #1
 c006a52:	d503      	bpl.n	c006a5c <__sfp+0x28>
 c006a54:	6833      	ldr	r3, [r6, #0]
 c006a56:	b30b      	cbz	r3, c006a9c <__sfp+0x68>
 c006a58:	6836      	ldr	r6, [r6, #0]
 c006a5a:	e7f7      	b.n	c006a4c <__sfp+0x18>
 c006a5c:	f9b4 500c 	ldrsh.w	r5, [r4, #12]
 c006a60:	b9d5      	cbnz	r5, c006a98 <__sfp+0x64>
 c006a62:	4b16      	ldr	r3, [pc, #88]	; (c006abc <__sfp+0x88>)
 c006a64:	f104 0058 	add.w	r0, r4, #88	; 0x58
 c006a68:	6665      	str	r5, [r4, #100]	; 0x64
 c006a6a:	60e3      	str	r3, [r4, #12]
 c006a6c:	f000 f847 	bl	c006afe <__retarget_lock_init_recursive>
 c006a70:	f7ff ff96 	bl	c0069a0 <__sfp_lock_release>
 c006a74:	2208      	movs	r2, #8
 c006a76:	4629      	mov	r1, r5
 c006a78:	f104 005c 	add.w	r0, r4, #92	; 0x5c
 c006a7c:	6025      	str	r5, [r4, #0]
 c006a7e:	61a5      	str	r5, [r4, #24]
 c006a80:	e9c4 5501 	strd	r5, r5, [r4, #4]
 c006a84:	e9c4 5504 	strd	r5, r5, [r4, #16]
 c006a88:	f7ff fef0 	bl	c00686c <memset>
 c006a8c:	e9c4 550d 	strd	r5, r5, [r4, #52]	; 0x34
 c006a90:	e9c4 5512 	strd	r5, r5, [r4, #72]	; 0x48
 c006a94:	4620      	mov	r0, r4
 c006a96:	bdf8      	pop	{r3, r4, r5, r6, r7, pc}
 c006a98:	3468      	adds	r4, #104	; 0x68
 c006a9a:	e7d9      	b.n	c006a50 <__sfp+0x1c>
 c006a9c:	2104      	movs	r1, #4
 c006a9e:	4638      	mov	r0, r7
 c006aa0:	f7ff ff62 	bl	c006968 <__sfmoreglue>
 c006aa4:	4604      	mov	r4, r0
 c006aa6:	6030      	str	r0, [r6, #0]
 c006aa8:	2800      	cmp	r0, #0
 c006aaa:	d1d5      	bne.n	c006a58 <__sfp+0x24>
 c006aac:	f7ff ff78 	bl	c0069a0 <__sfp_lock_release>
 c006ab0:	230c      	movs	r3, #12
 c006ab2:	603b      	str	r3, [r7, #0]
 c006ab4:	e7ee      	b.n	c006a94 <__sfp+0x60>
 c006ab6:	bf00      	nop
 c006ab8:	0c008070 	.word	0x0c008070
 c006abc:	ffff0001 	.word	0xffff0001

0c006ac0 <_fwalk_reent>:
 c006ac0:	e92d 43f8 	stmdb	sp!, {r3, r4, r5, r6, r7, r8, r9, lr}
 c006ac4:	4606      	mov	r6, r0
 c006ac6:	4688      	mov	r8, r1
 c006ac8:	f100 0448 	add.w	r4, r0, #72	; 0x48
 c006acc:	2700      	movs	r7, #0
 c006ace:	e9d4 9501 	ldrd	r9, r5, [r4, #4]
 c006ad2:	f1b9 0901 	subs.w	r9, r9, #1
 c006ad6:	d505      	bpl.n	c006ae4 <_fwalk_reent+0x24>
 c006ad8:	6824      	ldr	r4, [r4, #0]
 c006ada:	2c00      	cmp	r4, #0
 c006adc:	d1f7      	bne.n	c006ace <_fwalk_reent+0xe>
 c006ade:	4638      	mov	r0, r7
 c006ae0:	e8bd 83f8 	ldmia.w	sp!, {r3, r4, r5, r6, r7, r8, r9, pc}
 c006ae4:	89ab      	ldrh	r3, [r5, #12]
 c006ae6:	2b01      	cmp	r3, #1
 c006ae8:	d907      	bls.n	c006afa <_fwalk_reent+0x3a>
 c006aea:	f9b5 300e 	ldrsh.w	r3, [r5, #14]
 c006aee:	3301      	adds	r3, #1
 c006af0:	d003      	beq.n	c006afa <_fwalk_reent+0x3a>
 c006af2:	4629      	mov	r1, r5
 c006af4:	4630      	mov	r0, r6
 c006af6:	47c0      	blx	r8
 c006af8:	4307      	orrs	r7, r0
 c006afa:	3568      	adds	r5, #104	; 0x68
 c006afc:	e7e9      	b.n	c006ad2 <_fwalk_reent+0x12>

0c006afe <__retarget_lock_init_recursive>:
 c006afe:	4770      	bx	lr

0c006b00 <__retarget_lock_acquire_recursive>:
 c006b00:	4770      	bx	lr

0c006b02 <__retarget_lock_release_recursive>:
 c006b02:	4770      	bx	lr

0c006b04 <sbrk_aligned>:
 c006b04:	b570      	push	{r4, r5, r6, lr}
 c006b06:	4e0e      	ldr	r6, [pc, #56]	; (c006b40 <sbrk_aligned+0x3c>)
 c006b08:	460c      	mov	r4, r1
 c006b0a:	4605      	mov	r5, r0
 c006b0c:	6831      	ldr	r1, [r6, #0]
 c006b0e:	b911      	cbnz	r1, c006b16 <sbrk_aligned+0x12>
 c006b10:	f000 fcd8 	bl	c0074c4 <_sbrk_r>
 c006b14:	6030      	str	r0, [r6, #0]
 c006b16:	4621      	mov	r1, r4
 c006b18:	4628      	mov	r0, r5
 c006b1a:	f000 fcd3 	bl	c0074c4 <_sbrk_r>
 c006b1e:	1c43      	adds	r3, r0, #1
 c006b20:	d00a      	beq.n	c006b38 <sbrk_aligned+0x34>
 c006b22:	1cc4      	adds	r4, r0, #3
 c006b24:	f024 0403 	bic.w	r4, r4, #3
 c006b28:	42a0      	cmp	r0, r4
 c006b2a:	d007      	beq.n	c006b3c <sbrk_aligned+0x38>
 c006b2c:	1a21      	subs	r1, r4, r0
 c006b2e:	4628      	mov	r0, r5
 c006b30:	f000 fcc8 	bl	c0074c4 <_sbrk_r>
 c006b34:	3001      	adds	r0, #1
 c006b36:	d101      	bne.n	c006b3c <sbrk_aligned+0x38>
 c006b38:	f04f 34ff 	mov.w	r4, #4294967295
 c006b3c:	4620      	mov	r0, r4
 c006b3e:	bd70      	pop	{r4, r5, r6, pc}
 c006b40:	30001868 	.word	0x30001868

0c006b44 <_malloc_r>:
 c006b44:	e92d 41f0 	stmdb	sp!, {r4, r5, r6, r7, r8, lr}
 c006b48:	1ccd      	adds	r5, r1, #3
 c006b4a:	4607      	mov	r7, r0
 c006b4c:	f025 0503 	bic.w	r5, r5, #3
 c006b50:	3508      	adds	r5, #8
 c006b52:	2d0c      	cmp	r5, #12
 c006b54:	bf38      	it	cc
 c006b56:	250c      	movcc	r5, #12
 c006b58:	2d00      	cmp	r5, #0
 c006b5a:	db01      	blt.n	c006b60 <_malloc_r+0x1c>
 c006b5c:	42a9      	cmp	r1, r5
 c006b5e:	d905      	bls.n	c006b6c <_malloc_r+0x28>
 c006b60:	230c      	movs	r3, #12
 c006b62:	2600      	movs	r6, #0
 c006b64:	603b      	str	r3, [r7, #0]
 c006b66:	4630      	mov	r0, r6
 c006b68:	e8bd 81f0 	ldmia.w	sp!, {r4, r5, r6, r7, r8, pc}
 c006b6c:	4e2e      	ldr	r6, [pc, #184]	; (c006c28 <_malloc_r+0xe4>)
 c006b6e:	f000 ff4d 	bl	c007a0c <__malloc_lock>
 c006b72:	6833      	ldr	r3, [r6, #0]
 c006b74:	461c      	mov	r4, r3
 c006b76:	bb34      	cbnz	r4, c006bc6 <_malloc_r+0x82>
 c006b78:	4629      	mov	r1, r5
 c006b7a:	4638      	mov	r0, r7
 c006b7c:	f7ff ffc2 	bl	c006b04 <sbrk_aligned>
 c006b80:	1c43      	adds	r3, r0, #1
 c006b82:	4604      	mov	r4, r0
 c006b84:	d14d      	bne.n	c006c22 <_malloc_r+0xde>
 c006b86:	6834      	ldr	r4, [r6, #0]
 c006b88:	4626      	mov	r6, r4
 c006b8a:	2e00      	cmp	r6, #0
 c006b8c:	d140      	bne.n	c006c10 <_malloc_r+0xcc>
 c006b8e:	6823      	ldr	r3, [r4, #0]
 c006b90:	4631      	mov	r1, r6
 c006b92:	4638      	mov	r0, r7
 c006b94:	eb04 0803 	add.w	r8, r4, r3
 c006b98:	f000 fc94 	bl	c0074c4 <_sbrk_r>
 c006b9c:	4580      	cmp	r8, r0
 c006b9e:	d13a      	bne.n	c006c16 <_malloc_r+0xd2>
 c006ba0:	6821      	ldr	r1, [r4, #0]
 c006ba2:	3503      	adds	r5, #3
 c006ba4:	4638      	mov	r0, r7
 c006ba6:	1a6d      	subs	r5, r5, r1
 c006ba8:	f025 0503 	bic.w	r5, r5, #3
 c006bac:	3508      	adds	r5, #8
 c006bae:	2d0c      	cmp	r5, #12
 c006bb0:	bf38      	it	cc
 c006bb2:	250c      	movcc	r5, #12
 c006bb4:	4629      	mov	r1, r5
 c006bb6:	f7ff ffa5 	bl	c006b04 <sbrk_aligned>
 c006bba:	3001      	adds	r0, #1
 c006bbc:	d02b      	beq.n	c006c16 <_malloc_r+0xd2>
 c006bbe:	6823      	ldr	r3, [r4, #0]
 c006bc0:	442b      	add	r3, r5
 c006bc2:	6023      	str	r3, [r4, #0]
 c006bc4:	e00e      	b.n	c006be4 <_malloc_r+0xa0>
 c006bc6:	6822      	ldr	r2, [r4, #0]
 c006bc8:	1b52      	subs	r2, r2, r5
 c006bca:	d41e      	bmi.n	c006c0a <_malloc_r+0xc6>
 c006bcc:	2a0b      	cmp	r2, #11
 c006bce:	d916      	bls.n	c006bfe <_malloc_r+0xba>
 c006bd0:	1961      	adds	r1, r4, r5
 c006bd2:	42a3      	cmp	r3, r4
 c006bd4:	6025      	str	r5, [r4, #0]
 c006bd6:	bf18      	it	ne
 c006bd8:	6059      	strne	r1, [r3, #4]
 c006bda:	6863      	ldr	r3, [r4, #4]
 c006bdc:	bf08      	it	eq
 c006bde:	6031      	streq	r1, [r6, #0]
 c006be0:	5162      	str	r2, [r4, r5]
 c006be2:	604b      	str	r3, [r1, #4]
 c006be4:	f104 060b 	add.w	r6, r4, #11
 c006be8:	4638      	mov	r0, r7
 c006bea:	f000 ff15 	bl	c007a18 <__malloc_unlock>
 c006bee:	1d23      	adds	r3, r4, #4
 c006bf0:	f026 0607 	bic.w	r6, r6, #7
 c006bf4:	1af2      	subs	r2, r6, r3
 c006bf6:	d0b6      	beq.n	c006b66 <_malloc_r+0x22>
 c006bf8:	1b9b      	subs	r3, r3, r6
 c006bfa:	50a3      	str	r3, [r4, r2]
 c006bfc:	e7b3      	b.n	c006b66 <_malloc_r+0x22>
 c006bfe:	6862      	ldr	r2, [r4, #4]
 c006c00:	42a3      	cmp	r3, r4
 c006c02:	bf0c      	ite	eq
 c006c04:	6032      	streq	r2, [r6, #0]
 c006c06:	605a      	strne	r2, [r3, #4]
 c006c08:	e7ec      	b.n	c006be4 <_malloc_r+0xa0>
 c006c0a:	4623      	mov	r3, r4
 c006c0c:	6864      	ldr	r4, [r4, #4]
 c006c0e:	e7b2      	b.n	c006b76 <_malloc_r+0x32>
 c006c10:	4634      	mov	r4, r6
 c006c12:	6876      	ldr	r6, [r6, #4]
 c006c14:	e7b9      	b.n	c006b8a <_malloc_r+0x46>
 c006c16:	230c      	movs	r3, #12
 c006c18:	4638      	mov	r0, r7
 c006c1a:	603b      	str	r3, [r7, #0]
 c006c1c:	f000 fefc 	bl	c007a18 <__malloc_unlock>
 c006c20:	e7a1      	b.n	c006b66 <_malloc_r+0x22>
 c006c22:	6025      	str	r5, [r4, #0]
 c006c24:	e7de      	b.n	c006be4 <_malloc_r+0xa0>
 c006c26:	bf00      	nop
 c006c28:	30001864 	.word	0x30001864

0c006c2c <__ssputs_r>:
 c006c2c:	e92d 47f0 	stmdb	sp!, {r4, r5, r6, r7, r8, r9, sl, lr}
 c006c30:	688e      	ldr	r6, [r1, #8]
 c006c32:	4682      	mov	sl, r0
 c006c34:	460c      	mov	r4, r1
 c006c36:	4690      	mov	r8, r2
 c006c38:	429e      	cmp	r6, r3
 c006c3a:	461f      	mov	r7, r3
 c006c3c:	d838      	bhi.n	c006cb0 <__ssputs_r+0x84>
 c006c3e:	898a      	ldrh	r2, [r1, #12]
 c006c40:	f412 6f90 	tst.w	r2, #1152	; 0x480
 c006c44:	d032      	beq.n	c006cac <__ssputs_r+0x80>
 c006c46:	6825      	ldr	r5, [r4, #0]
 c006c48:	3301      	adds	r3, #1
 c006c4a:	6909      	ldr	r1, [r1, #16]
 c006c4c:	eba5 0901 	sub.w	r9, r5, r1
 c006c50:	6965      	ldr	r5, [r4, #20]
 c006c52:	eb05 0545 	add.w	r5, r5, r5, lsl #1
 c006c56:	444b      	add	r3, r9
 c006c58:	eb05 75d5 	add.w	r5, r5, r5, lsr #31
 c006c5c:	106d      	asrs	r5, r5, #1
 c006c5e:	429d      	cmp	r5, r3
 c006c60:	bf38      	it	cc
 c006c62:	461d      	movcc	r5, r3
 c006c64:	0553      	lsls	r3, r2, #21
 c006c66:	d531      	bpl.n	c006ccc <__ssputs_r+0xa0>
 c006c68:	4629      	mov	r1, r5
 c006c6a:	f7ff ff6b 	bl	c006b44 <_malloc_r>
 c006c6e:	4606      	mov	r6, r0
 c006c70:	b950      	cbnz	r0, c006c88 <__ssputs_r+0x5c>
 c006c72:	230c      	movs	r3, #12
 c006c74:	f04f 30ff 	mov.w	r0, #4294967295
 c006c78:	f8ca 3000 	str.w	r3, [sl]
 c006c7c:	89a3      	ldrh	r3, [r4, #12]
 c006c7e:	f043 0340 	orr.w	r3, r3, #64	; 0x40
 c006c82:	81a3      	strh	r3, [r4, #12]
 c006c84:	e8bd 87f0 	ldmia.w	sp!, {r4, r5, r6, r7, r8, r9, sl, pc}
 c006c88:	464a      	mov	r2, r9
 c006c8a:	6921      	ldr	r1, [r4, #16]
 c006c8c:	f000 fe96 	bl	c0079bc <memcpy>
 c006c90:	89a3      	ldrh	r3, [r4, #12]
 c006c92:	f423 6390 	bic.w	r3, r3, #1152	; 0x480
 c006c96:	f043 0380 	orr.w	r3, r3, #128	; 0x80
 c006c9a:	81a3      	strh	r3, [r4, #12]
 c006c9c:	6126      	str	r6, [r4, #16]
 c006c9e:	444e      	add	r6, r9
 c006ca0:	6165      	str	r5, [r4, #20]
 c006ca2:	eba5 0509 	sub.w	r5, r5, r9
 c006ca6:	6026      	str	r6, [r4, #0]
 c006ca8:	463e      	mov	r6, r7
 c006caa:	60a5      	str	r5, [r4, #8]
 c006cac:	42be      	cmp	r6, r7
 c006cae:	d900      	bls.n	c006cb2 <__ssputs_r+0x86>
 c006cb0:	463e      	mov	r6, r7
 c006cb2:	4632      	mov	r2, r6
 c006cb4:	4641      	mov	r1, r8
 c006cb6:	6820      	ldr	r0, [r4, #0]
 c006cb8:	f000 fe8d 	bl	c0079d6 <memmove>
 c006cbc:	68a3      	ldr	r3, [r4, #8]
 c006cbe:	2000      	movs	r0, #0
 c006cc0:	1b9b      	subs	r3, r3, r6
 c006cc2:	60a3      	str	r3, [r4, #8]
 c006cc4:	6823      	ldr	r3, [r4, #0]
 c006cc6:	4433      	add	r3, r6
 c006cc8:	6023      	str	r3, [r4, #0]
 c006cca:	e7db      	b.n	c006c84 <__ssputs_r+0x58>
 c006ccc:	462a      	mov	r2, r5
 c006cce:	f000 fef5 	bl	c007abc <_realloc_r>
 c006cd2:	4606      	mov	r6, r0
 c006cd4:	2800      	cmp	r0, #0
 c006cd6:	d1e1      	bne.n	c006c9c <__ssputs_r+0x70>
 c006cd8:	6921      	ldr	r1, [r4, #16]
 c006cda:	4650      	mov	r0, sl
 c006cdc:	f000 fea2 	bl	c007a24 <_free_r>
 c006ce0:	e7c7      	b.n	c006c72 <__ssputs_r+0x46>
	...

0c006ce4 <_svfiprintf_r>:
 c006ce4:	e92d 4ff0 	stmdb	sp!, {r4, r5, r6, r7, r8, r9, sl, fp, lr}
 c006ce8:	4698      	mov	r8, r3
 c006cea:	898b      	ldrh	r3, [r1, #12]
 c006cec:	b09d      	sub	sp, #116	; 0x74
 c006cee:	4607      	mov	r7, r0
 c006cf0:	061b      	lsls	r3, r3, #24
 c006cf2:	460d      	mov	r5, r1
 c006cf4:	4614      	mov	r4, r2
 c006cf6:	d50e      	bpl.n	c006d16 <_svfiprintf_r+0x32>
 c006cf8:	690b      	ldr	r3, [r1, #16]
 c006cfa:	b963      	cbnz	r3, c006d16 <_svfiprintf_r+0x32>
 c006cfc:	2140      	movs	r1, #64	; 0x40
 c006cfe:	f7ff ff21 	bl	c006b44 <_malloc_r>
 c006d02:	6028      	str	r0, [r5, #0]
 c006d04:	6128      	str	r0, [r5, #16]
 c006d06:	b920      	cbnz	r0, c006d12 <_svfiprintf_r+0x2e>
 c006d08:	230c      	movs	r3, #12
 c006d0a:	603b      	str	r3, [r7, #0]
 c006d0c:	f04f 30ff 	mov.w	r0, #4294967295
 c006d10:	e0d1      	b.n	c006eb6 <_svfiprintf_r+0x1d2>
 c006d12:	2340      	movs	r3, #64	; 0x40
 c006d14:	616b      	str	r3, [r5, #20]
 c006d16:	2300      	movs	r3, #0
 c006d18:	f8cd 800c 	str.w	r8, [sp, #12]
 c006d1c:	f04f 0901 	mov.w	r9, #1
 c006d20:	f8df 81ac 	ldr.w	r8, [pc, #428]	; c006ed0 <_svfiprintf_r+0x1ec>
 c006d24:	9309      	str	r3, [sp, #36]	; 0x24
 c006d26:	2320      	movs	r3, #32
 c006d28:	f88d 3029 	strb.w	r3, [sp, #41]	; 0x29
 c006d2c:	2330      	movs	r3, #48	; 0x30
 c006d2e:	f88d 302a 	strb.w	r3, [sp, #42]	; 0x2a
 c006d32:	4623      	mov	r3, r4
 c006d34:	469a      	mov	sl, r3
 c006d36:	f813 2b01 	ldrb.w	r2, [r3], #1
 c006d3a:	b10a      	cbz	r2, c006d40 <_svfiprintf_r+0x5c>
 c006d3c:	2a25      	cmp	r2, #37	; 0x25
 c006d3e:	d1f9      	bne.n	c006d34 <_svfiprintf_r+0x50>
 c006d40:	ebba 0b04 	subs.w	fp, sl, r4
 c006d44:	d00b      	beq.n	c006d5e <_svfiprintf_r+0x7a>
 c006d46:	465b      	mov	r3, fp
 c006d48:	4622      	mov	r2, r4
 c006d4a:	4629      	mov	r1, r5
 c006d4c:	4638      	mov	r0, r7
 c006d4e:	f7ff ff6d 	bl	c006c2c <__ssputs_r>
 c006d52:	3001      	adds	r0, #1
 c006d54:	f000 80aa 	beq.w	c006eac <_svfiprintf_r+0x1c8>
 c006d58:	9a09      	ldr	r2, [sp, #36]	; 0x24
 c006d5a:	445a      	add	r2, fp
 c006d5c:	9209      	str	r2, [sp, #36]	; 0x24
 c006d5e:	f89a 3000 	ldrb.w	r3, [sl]
 c006d62:	2b00      	cmp	r3, #0
 c006d64:	f000 80a2 	beq.w	c006eac <_svfiprintf_r+0x1c8>
 c006d68:	2300      	movs	r3, #0
 c006d6a:	f04f 32ff 	mov.w	r2, #4294967295
 c006d6e:	f10a 0a01 	add.w	sl, sl, #1
 c006d72:	9304      	str	r3, [sp, #16]
 c006d74:	9307      	str	r3, [sp, #28]
 c006d76:	f88d 3053 	strb.w	r3, [sp, #83]	; 0x53
 c006d7a:	931a      	str	r3, [sp, #104]	; 0x68
 c006d7c:	e9cd 2305 	strd	r2, r3, [sp, #20]
 c006d80:	4654      	mov	r4, sl
 c006d82:	2205      	movs	r2, #5
 c006d84:	4852      	ldr	r0, [pc, #328]	; (c006ed0 <_svfiprintf_r+0x1ec>)
 c006d86:	f814 1b01 	ldrb.w	r1, [r4], #1
 c006d8a:	f000 fe09 	bl	c0079a0 <memchr>
 c006d8e:	9a04      	ldr	r2, [sp, #16]
 c006d90:	b9d8      	cbnz	r0, c006dca <_svfiprintf_r+0xe6>
 c006d92:	06d0      	lsls	r0, r2, #27
 c006d94:	bf44      	itt	mi
 c006d96:	2320      	movmi	r3, #32
 c006d98:	f88d 3053 	strbmi.w	r3, [sp, #83]	; 0x53
 c006d9c:	0711      	lsls	r1, r2, #28
 c006d9e:	bf44      	itt	mi
 c006da0:	232b      	movmi	r3, #43	; 0x2b
 c006da2:	f88d 3053 	strbmi.w	r3, [sp, #83]	; 0x53
 c006da6:	f89a 3000 	ldrb.w	r3, [sl]
 c006daa:	2b2a      	cmp	r3, #42	; 0x2a
 c006dac:	d015      	beq.n	c006dda <_svfiprintf_r+0xf6>
 c006dae:	9a07      	ldr	r2, [sp, #28]
 c006db0:	4654      	mov	r4, sl
 c006db2:	2000      	movs	r0, #0
 c006db4:	f04f 0c0a 	mov.w	ip, #10
 c006db8:	4621      	mov	r1, r4
 c006dba:	f811 3b01 	ldrb.w	r3, [r1], #1
 c006dbe:	3b30      	subs	r3, #48	; 0x30
 c006dc0:	2b09      	cmp	r3, #9
 c006dc2:	d94e      	bls.n	c006e62 <_svfiprintf_r+0x17e>
 c006dc4:	b1b0      	cbz	r0, c006df4 <_svfiprintf_r+0x110>
 c006dc6:	9207      	str	r2, [sp, #28]
 c006dc8:	e014      	b.n	c006df4 <_svfiprintf_r+0x110>
 c006dca:	eba0 0308 	sub.w	r3, r0, r8
 c006dce:	46a2      	mov	sl, r4
 c006dd0:	fa09 f303 	lsl.w	r3, r9, r3
 c006dd4:	4313      	orrs	r3, r2
 c006dd6:	9304      	str	r3, [sp, #16]
 c006dd8:	e7d2      	b.n	c006d80 <_svfiprintf_r+0x9c>
 c006dda:	9b03      	ldr	r3, [sp, #12]
 c006ddc:	1d19      	adds	r1, r3, #4
 c006dde:	681b      	ldr	r3, [r3, #0]
 c006de0:	2b00      	cmp	r3, #0
 c006de2:	9103      	str	r1, [sp, #12]
 c006de4:	bfbb      	ittet	lt
 c006de6:	425b      	neglt	r3, r3
 c006de8:	f042 0202 	orrlt.w	r2, r2, #2
 c006dec:	9307      	strge	r3, [sp, #28]
 c006dee:	9307      	strlt	r3, [sp, #28]
 c006df0:	bfb8      	it	lt
 c006df2:	9204      	strlt	r2, [sp, #16]
 c006df4:	7823      	ldrb	r3, [r4, #0]
 c006df6:	2b2e      	cmp	r3, #46	; 0x2e
 c006df8:	d10c      	bne.n	c006e14 <_svfiprintf_r+0x130>
 c006dfa:	7863      	ldrb	r3, [r4, #1]
 c006dfc:	2b2a      	cmp	r3, #42	; 0x2a
 c006dfe:	d135      	bne.n	c006e6c <_svfiprintf_r+0x188>
 c006e00:	9b03      	ldr	r3, [sp, #12]
 c006e02:	3402      	adds	r4, #2
 c006e04:	1d1a      	adds	r2, r3, #4
 c006e06:	681b      	ldr	r3, [r3, #0]
 c006e08:	2b00      	cmp	r3, #0
 c006e0a:	9203      	str	r2, [sp, #12]
 c006e0c:	bfb8      	it	lt
 c006e0e:	f04f 33ff 	movlt.w	r3, #4294967295
 c006e12:	9305      	str	r3, [sp, #20]
 c006e14:	f8df a0c8 	ldr.w	sl, [pc, #200]	; c006ee0 <_svfiprintf_r+0x1fc>
 c006e18:	2203      	movs	r2, #3
 c006e1a:	7821      	ldrb	r1, [r4, #0]
 c006e1c:	4650      	mov	r0, sl
 c006e1e:	f000 fdbf 	bl	c0079a0 <memchr>
 c006e22:	b140      	cbz	r0, c006e36 <_svfiprintf_r+0x152>
 c006e24:	2340      	movs	r3, #64	; 0x40
 c006e26:	eba0 000a 	sub.w	r0, r0, sl
 c006e2a:	3401      	adds	r4, #1
 c006e2c:	fa03 f000 	lsl.w	r0, r3, r0
 c006e30:	9b04      	ldr	r3, [sp, #16]
 c006e32:	4303      	orrs	r3, r0
 c006e34:	9304      	str	r3, [sp, #16]
 c006e36:	f814 1b01 	ldrb.w	r1, [r4], #1
 c006e3a:	2206      	movs	r2, #6
 c006e3c:	4825      	ldr	r0, [pc, #148]	; (c006ed4 <_svfiprintf_r+0x1f0>)
 c006e3e:	f88d 1028 	strb.w	r1, [sp, #40]	; 0x28
 c006e42:	f000 fdad 	bl	c0079a0 <memchr>
 c006e46:	2800      	cmp	r0, #0
 c006e48:	d038      	beq.n	c006ebc <_svfiprintf_r+0x1d8>
 c006e4a:	4b23      	ldr	r3, [pc, #140]	; (c006ed8 <_svfiprintf_r+0x1f4>)
 c006e4c:	bb1b      	cbnz	r3, c006e96 <_svfiprintf_r+0x1b2>
 c006e4e:	9b03      	ldr	r3, [sp, #12]
 c006e50:	3307      	adds	r3, #7
 c006e52:	f023 0307 	bic.w	r3, r3, #7
 c006e56:	3308      	adds	r3, #8
 c006e58:	9303      	str	r3, [sp, #12]
 c006e5a:	9b09      	ldr	r3, [sp, #36]	; 0x24
 c006e5c:	4433      	add	r3, r6
 c006e5e:	9309      	str	r3, [sp, #36]	; 0x24
 c006e60:	e767      	b.n	c006d32 <_svfiprintf_r+0x4e>
 c006e62:	fb0c 3202 	mla	r2, ip, r2, r3
 c006e66:	460c      	mov	r4, r1
 c006e68:	2001      	movs	r0, #1
 c006e6a:	e7a5      	b.n	c006db8 <_svfiprintf_r+0xd4>
 c006e6c:	2300      	movs	r3, #0
 c006e6e:	3401      	adds	r4, #1
 c006e70:	f04f 0c0a 	mov.w	ip, #10
 c006e74:	4619      	mov	r1, r3
 c006e76:	9305      	str	r3, [sp, #20]
 c006e78:	4620      	mov	r0, r4
 c006e7a:	f810 2b01 	ldrb.w	r2, [r0], #1
 c006e7e:	3a30      	subs	r2, #48	; 0x30
 c006e80:	2a09      	cmp	r2, #9
 c006e82:	d903      	bls.n	c006e8c <_svfiprintf_r+0x1a8>
 c006e84:	2b00      	cmp	r3, #0
 c006e86:	d0c5      	beq.n	c006e14 <_svfiprintf_r+0x130>
 c006e88:	9105      	str	r1, [sp, #20]
 c006e8a:	e7c3      	b.n	c006e14 <_svfiprintf_r+0x130>
 c006e8c:	fb0c 2101 	mla	r1, ip, r1, r2
 c006e90:	4604      	mov	r4, r0
 c006e92:	2301      	movs	r3, #1
 c006e94:	e7f0      	b.n	c006e78 <_svfiprintf_r+0x194>
 c006e96:	ab03      	add	r3, sp, #12
 c006e98:	462a      	mov	r2, r5
 c006e9a:	a904      	add	r1, sp, #16
 c006e9c:	4638      	mov	r0, r7
 c006e9e:	9300      	str	r3, [sp, #0]
 c006ea0:	4b0e      	ldr	r3, [pc, #56]	; (c006edc <_svfiprintf_r+0x1f8>)
 c006ea2:	e000      	b.n	c006ea6 <_svfiprintf_r+0x1c2>
 c006ea4:	bf00      	nop
 c006ea6:	1c42      	adds	r2, r0, #1
 c006ea8:	4606      	mov	r6, r0
 c006eaa:	d1d6      	bne.n	c006e5a <_svfiprintf_r+0x176>
 c006eac:	89ab      	ldrh	r3, [r5, #12]
 c006eae:	065b      	lsls	r3, r3, #25
 c006eb0:	f53f af2c 	bmi.w	c006d0c <_svfiprintf_r+0x28>
 c006eb4:	9809      	ldr	r0, [sp, #36]	; 0x24
 c006eb6:	b01d      	add	sp, #116	; 0x74
 c006eb8:	e8bd 8ff0 	ldmia.w	sp!, {r4, r5, r6, r7, r8, r9, sl, fp, pc}
 c006ebc:	ab03      	add	r3, sp, #12
 c006ebe:	462a      	mov	r2, r5
 c006ec0:	a904      	add	r1, sp, #16
 c006ec2:	4638      	mov	r0, r7
 c006ec4:	9300      	str	r3, [sp, #0]
 c006ec6:	4b05      	ldr	r3, [pc, #20]	; (c006edc <_svfiprintf_r+0x1f8>)
 c006ec8:	f000 f9d6 	bl	c007278 <_printf_i>
 c006ecc:	e7eb      	b.n	c006ea6 <_svfiprintf_r+0x1c2>
 c006ece:	bf00      	nop
 c006ed0:	0c0080d4 	.word	0x0c0080d4
 c006ed4:	0c0080de 	.word	0x0c0080de
 c006ed8:	00000000 	.word	0x00000000
 c006edc:	0c006c2d 	.word	0x0c006c2d
 c006ee0:	0c0080da 	.word	0x0c0080da

0c006ee4 <__sfputc_r>:
 c006ee4:	6893      	ldr	r3, [r2, #8]
 c006ee6:	3b01      	subs	r3, #1
 c006ee8:	2b00      	cmp	r3, #0
 c006eea:	6093      	str	r3, [r2, #8]
 c006eec:	b410      	push	{r4}
 c006eee:	da08      	bge.n	c006f02 <__sfputc_r+0x1e>
 c006ef0:	6994      	ldr	r4, [r2, #24]
 c006ef2:	42a3      	cmp	r3, r4
 c006ef4:	db01      	blt.n	c006efa <__sfputc_r+0x16>
 c006ef6:	290a      	cmp	r1, #10
 c006ef8:	d103      	bne.n	c006f02 <__sfputc_r+0x1e>
 c006efa:	f85d 4b04 	ldr.w	r4, [sp], #4
 c006efe:	f000 bb35 	b.w	c00756c <__swbuf_r>
 c006f02:	6813      	ldr	r3, [r2, #0]
 c006f04:	1c58      	adds	r0, r3, #1
 c006f06:	6010      	str	r0, [r2, #0]
 c006f08:	4608      	mov	r0, r1
 c006f0a:	7019      	strb	r1, [r3, #0]
 c006f0c:	f85d 4b04 	ldr.w	r4, [sp], #4
 c006f10:	4770      	bx	lr

0c006f12 <__sfputs_r>:
 c006f12:	b5f8      	push	{r3, r4, r5, r6, r7, lr}
 c006f14:	4606      	mov	r6, r0
 c006f16:	460f      	mov	r7, r1
 c006f18:	4614      	mov	r4, r2
 c006f1a:	18d5      	adds	r5, r2, r3
 c006f1c:	42ac      	cmp	r4, r5
 c006f1e:	d101      	bne.n	c006f24 <__sfputs_r+0x12>
 c006f20:	2000      	movs	r0, #0
 c006f22:	e007      	b.n	c006f34 <__sfputs_r+0x22>
 c006f24:	463a      	mov	r2, r7
 c006f26:	f814 1b01 	ldrb.w	r1, [r4], #1
 c006f2a:	4630      	mov	r0, r6
 c006f2c:	f7ff ffda 	bl	c006ee4 <__sfputc_r>
 c006f30:	1c43      	adds	r3, r0, #1
 c006f32:	d1f3      	bne.n	c006f1c <__sfputs_r+0xa>
 c006f34:	bdf8      	pop	{r3, r4, r5, r6, r7, pc}
	...

0c006f38 <_vfiprintf_r>:
 c006f38:	e92d 4ff0 	stmdb	sp!, {r4, r5, r6, r7, r8, r9, sl, fp, lr}
 c006f3c:	460d      	mov	r5, r1
 c006f3e:	b09d      	sub	sp, #116	; 0x74
 c006f40:	4614      	mov	r4, r2
 c006f42:	4698      	mov	r8, r3
 c006f44:	4606      	mov	r6, r0
 c006f46:	b118      	cbz	r0, c006f50 <_vfiprintf_r+0x18>
 c006f48:	6983      	ldr	r3, [r0, #24]
 c006f4a:	b90b      	cbnz	r3, c006f50 <_vfiprintf_r+0x18>
 c006f4c:	f7ff fd3a 	bl	c0069c4 <__sinit>
 c006f50:	4b89      	ldr	r3, [pc, #548]	; (c007178 <_vfiprintf_r+0x240>)
 c006f52:	429d      	cmp	r5, r3
 c006f54:	d11b      	bne.n	c006f8e <_vfiprintf_r+0x56>
 c006f56:	6875      	ldr	r5, [r6, #4]
 c006f58:	6e6b      	ldr	r3, [r5, #100]	; 0x64
 c006f5a:	07d9      	lsls	r1, r3, #31
 c006f5c:	d405      	bmi.n	c006f6a <_vfiprintf_r+0x32>
 c006f5e:	89ab      	ldrh	r3, [r5, #12]
 c006f60:	059a      	lsls	r2, r3, #22
 c006f62:	d402      	bmi.n	c006f6a <_vfiprintf_r+0x32>
 c006f64:	6da8      	ldr	r0, [r5, #88]	; 0x58
 c006f66:	f7ff fdcb 	bl	c006b00 <__retarget_lock_acquire_recursive>
 c006f6a:	89ab      	ldrh	r3, [r5, #12]
 c006f6c:	071b      	lsls	r3, r3, #28
 c006f6e:	d501      	bpl.n	c006f74 <_vfiprintf_r+0x3c>
 c006f70:	692b      	ldr	r3, [r5, #16]
 c006f72:	b9eb      	cbnz	r3, c006fb0 <_vfiprintf_r+0x78>
 c006f74:	4629      	mov	r1, r5
 c006f76:	4630      	mov	r0, r6
 c006f78:	f000 fb5c 	bl	c007634 <__swsetup_r>
 c006f7c:	b1c0      	cbz	r0, c006fb0 <_vfiprintf_r+0x78>
 c006f7e:	6e6b      	ldr	r3, [r5, #100]	; 0x64
 c006f80:	07dc      	lsls	r4, r3, #31
 c006f82:	d50e      	bpl.n	c006fa2 <_vfiprintf_r+0x6a>
 c006f84:	f04f 30ff 	mov.w	r0, #4294967295
 c006f88:	b01d      	add	sp, #116	; 0x74
 c006f8a:	e8bd 8ff0 	ldmia.w	sp!, {r4, r5, r6, r7, r8, r9, sl, fp, pc}
 c006f8e:	4b7b      	ldr	r3, [pc, #492]	; (c00717c <_vfiprintf_r+0x244>)
 c006f90:	429d      	cmp	r5, r3
 c006f92:	d101      	bne.n	c006f98 <_vfiprintf_r+0x60>
 c006f94:	68b5      	ldr	r5, [r6, #8]
 c006f96:	e7df      	b.n	c006f58 <_vfiprintf_r+0x20>
 c006f98:	4b79      	ldr	r3, [pc, #484]	; (c007180 <_vfiprintf_r+0x248>)
 c006f9a:	429d      	cmp	r5, r3
 c006f9c:	bf08      	it	eq
 c006f9e:	68f5      	ldreq	r5, [r6, #12]
 c006fa0:	e7da      	b.n	c006f58 <_vfiprintf_r+0x20>
 c006fa2:	89ab      	ldrh	r3, [r5, #12]
 c006fa4:	0598      	lsls	r0, r3, #22
 c006fa6:	d4ed      	bmi.n	c006f84 <_vfiprintf_r+0x4c>
 c006fa8:	6da8      	ldr	r0, [r5, #88]	; 0x58
 c006faa:	f7ff fdaa 	bl	c006b02 <__retarget_lock_release_recursive>
 c006fae:	e7e9      	b.n	c006f84 <_vfiprintf_r+0x4c>
 c006fb0:	2300      	movs	r3, #0
 c006fb2:	f8cd 800c 	str.w	r8, [sp, #12]
 c006fb6:	f04f 0901 	mov.w	r9, #1
 c006fba:	f8df 81c8 	ldr.w	r8, [pc, #456]	; c007184 <_vfiprintf_r+0x24c>
 c006fbe:	9309      	str	r3, [sp, #36]	; 0x24
 c006fc0:	2320      	movs	r3, #32
 c006fc2:	f88d 3029 	strb.w	r3, [sp, #41]	; 0x29
 c006fc6:	2330      	movs	r3, #48	; 0x30
 c006fc8:	f88d 302a 	strb.w	r3, [sp, #42]	; 0x2a
 c006fcc:	4623      	mov	r3, r4
 c006fce:	469a      	mov	sl, r3
 c006fd0:	f813 2b01 	ldrb.w	r2, [r3], #1
 c006fd4:	b10a      	cbz	r2, c006fda <_vfiprintf_r+0xa2>
 c006fd6:	2a25      	cmp	r2, #37	; 0x25
 c006fd8:	d1f9      	bne.n	c006fce <_vfiprintf_r+0x96>
 c006fda:	ebba 0b04 	subs.w	fp, sl, r4
 c006fde:	d00b      	beq.n	c006ff8 <_vfiprintf_r+0xc0>
 c006fe0:	465b      	mov	r3, fp
 c006fe2:	4622      	mov	r2, r4
 c006fe4:	4629      	mov	r1, r5
 c006fe6:	4630      	mov	r0, r6
 c006fe8:	f7ff ff93 	bl	c006f12 <__sfputs_r>
 c006fec:	3001      	adds	r0, #1
 c006fee:	f000 80aa 	beq.w	c007146 <_vfiprintf_r+0x20e>
 c006ff2:	9a09      	ldr	r2, [sp, #36]	; 0x24
 c006ff4:	445a      	add	r2, fp
 c006ff6:	9209      	str	r2, [sp, #36]	; 0x24
 c006ff8:	f89a 3000 	ldrb.w	r3, [sl]
 c006ffc:	2b00      	cmp	r3, #0
 c006ffe:	f000 80a2 	beq.w	c007146 <_vfiprintf_r+0x20e>
 c007002:	2300      	movs	r3, #0
 c007004:	f04f 32ff 	mov.w	r2, #4294967295
 c007008:	f10a 0a01 	add.w	sl, sl, #1
 c00700c:	9304      	str	r3, [sp, #16]
 c00700e:	9307      	str	r3, [sp, #28]
 c007010:	f88d 3053 	strb.w	r3, [sp, #83]	; 0x53
 c007014:	931a      	str	r3, [sp, #104]	; 0x68
 c007016:	e9cd 2305 	strd	r2, r3, [sp, #20]
 c00701a:	4654      	mov	r4, sl
 c00701c:	2205      	movs	r2, #5
 c00701e:	4859      	ldr	r0, [pc, #356]	; (c007184 <_vfiprintf_r+0x24c>)
 c007020:	f814 1b01 	ldrb.w	r1, [r4], #1
 c007024:	f000 fcbc 	bl	c0079a0 <memchr>
 c007028:	9a04      	ldr	r2, [sp, #16]
 c00702a:	b9d8      	cbnz	r0, c007064 <_vfiprintf_r+0x12c>
 c00702c:	06d1      	lsls	r1, r2, #27
 c00702e:	bf44      	itt	mi
 c007030:	2320      	movmi	r3, #32
 c007032:	f88d 3053 	strbmi.w	r3, [sp, #83]	; 0x53
 c007036:	0713      	lsls	r3, r2, #28
 c007038:	bf44      	itt	mi
 c00703a:	232b      	movmi	r3, #43	; 0x2b
 c00703c:	f88d 3053 	strbmi.w	r3, [sp, #83]	; 0x53
 c007040:	f89a 3000 	ldrb.w	r3, [sl]
 c007044:	2b2a      	cmp	r3, #42	; 0x2a
 c007046:	d015      	beq.n	c007074 <_vfiprintf_r+0x13c>
 c007048:	9a07      	ldr	r2, [sp, #28]
 c00704a:	4654      	mov	r4, sl
 c00704c:	2000      	movs	r0, #0
 c00704e:	f04f 0c0a 	mov.w	ip, #10
 c007052:	4621      	mov	r1, r4
 c007054:	f811 3b01 	ldrb.w	r3, [r1], #1
 c007058:	3b30      	subs	r3, #48	; 0x30
 c00705a:	2b09      	cmp	r3, #9
 c00705c:	d94e      	bls.n	c0070fc <_vfiprintf_r+0x1c4>
 c00705e:	b1b0      	cbz	r0, c00708e <_vfiprintf_r+0x156>
 c007060:	9207      	str	r2, [sp, #28]
 c007062:	e014      	b.n	c00708e <_vfiprintf_r+0x156>
 c007064:	eba0 0308 	sub.w	r3, r0, r8
 c007068:	46a2      	mov	sl, r4
 c00706a:	fa09 f303 	lsl.w	r3, r9, r3
 c00706e:	4313      	orrs	r3, r2
 c007070:	9304      	str	r3, [sp, #16]
 c007072:	e7d2      	b.n	c00701a <_vfiprintf_r+0xe2>
 c007074:	9b03      	ldr	r3, [sp, #12]
 c007076:	1d19      	adds	r1, r3, #4
 c007078:	681b      	ldr	r3, [r3, #0]
 c00707a:	2b00      	cmp	r3, #0
 c00707c:	9103      	str	r1, [sp, #12]
 c00707e:	bfbb      	ittet	lt
 c007080:	425b      	neglt	r3, r3
 c007082:	f042 0202 	orrlt.w	r2, r2, #2
 c007086:	9307      	strge	r3, [sp, #28]
 c007088:	9307      	strlt	r3, [sp, #28]
 c00708a:	bfb8      	it	lt
 c00708c:	9204      	strlt	r2, [sp, #16]
 c00708e:	7823      	ldrb	r3, [r4, #0]
 c007090:	2b2e      	cmp	r3, #46	; 0x2e
 c007092:	d10c      	bne.n	c0070ae <_vfiprintf_r+0x176>
 c007094:	7863      	ldrb	r3, [r4, #1]
 c007096:	2b2a      	cmp	r3, #42	; 0x2a
 c007098:	d135      	bne.n	c007106 <_vfiprintf_r+0x1ce>
 c00709a:	9b03      	ldr	r3, [sp, #12]
 c00709c:	3402      	adds	r4, #2
 c00709e:	1d1a      	adds	r2, r3, #4
 c0070a0:	681b      	ldr	r3, [r3, #0]
 c0070a2:	2b00      	cmp	r3, #0
 c0070a4:	9203      	str	r2, [sp, #12]
 c0070a6:	bfb8      	it	lt
 c0070a8:	f04f 33ff 	movlt.w	r3, #4294967295
 c0070ac:	9305      	str	r3, [sp, #20]
 c0070ae:	f8df a0e4 	ldr.w	sl, [pc, #228]	; c007194 <_vfiprintf_r+0x25c>
 c0070b2:	2203      	movs	r2, #3
 c0070b4:	7821      	ldrb	r1, [r4, #0]
 c0070b6:	4650      	mov	r0, sl
 c0070b8:	f000 fc72 	bl	c0079a0 <memchr>
 c0070bc:	b140      	cbz	r0, c0070d0 <_vfiprintf_r+0x198>
 c0070be:	2340      	movs	r3, #64	; 0x40
 c0070c0:	eba0 000a 	sub.w	r0, r0, sl
 c0070c4:	3401      	adds	r4, #1
 c0070c6:	fa03 f000 	lsl.w	r0, r3, r0
 c0070ca:	9b04      	ldr	r3, [sp, #16]
 c0070cc:	4303      	orrs	r3, r0
 c0070ce:	9304      	str	r3, [sp, #16]
 c0070d0:	f814 1b01 	ldrb.w	r1, [r4], #1
 c0070d4:	2206      	movs	r2, #6
 c0070d6:	482c      	ldr	r0, [pc, #176]	; (c007188 <_vfiprintf_r+0x250>)
 c0070d8:	f88d 1028 	strb.w	r1, [sp, #40]	; 0x28
 c0070dc:	f000 fc60 	bl	c0079a0 <memchr>
 c0070e0:	2800      	cmp	r0, #0
 c0070e2:	d03f      	beq.n	c007164 <_vfiprintf_r+0x22c>
 c0070e4:	4b29      	ldr	r3, [pc, #164]	; (c00718c <_vfiprintf_r+0x254>)
 c0070e6:	bb1b      	cbnz	r3, c007130 <_vfiprintf_r+0x1f8>
 c0070e8:	9b03      	ldr	r3, [sp, #12]
 c0070ea:	3307      	adds	r3, #7
 c0070ec:	f023 0307 	bic.w	r3, r3, #7
 c0070f0:	3308      	adds	r3, #8
 c0070f2:	9303      	str	r3, [sp, #12]
 c0070f4:	9b09      	ldr	r3, [sp, #36]	; 0x24
 c0070f6:	443b      	add	r3, r7
 c0070f8:	9309      	str	r3, [sp, #36]	; 0x24
 c0070fa:	e767      	b.n	c006fcc <_vfiprintf_r+0x94>
 c0070fc:	fb0c 3202 	mla	r2, ip, r2, r3
 c007100:	460c      	mov	r4, r1
 c007102:	2001      	movs	r0, #1
 c007104:	e7a5      	b.n	c007052 <_vfiprintf_r+0x11a>
 c007106:	2300      	movs	r3, #0
 c007108:	3401      	adds	r4, #1
 c00710a:	f04f 0c0a 	mov.w	ip, #10
 c00710e:	4619      	mov	r1, r3
 c007110:	9305      	str	r3, [sp, #20]
 c007112:	4620      	mov	r0, r4
 c007114:	f810 2b01 	ldrb.w	r2, [r0], #1
 c007118:	3a30      	subs	r2, #48	; 0x30
 c00711a:	2a09      	cmp	r2, #9
 c00711c:	d903      	bls.n	c007126 <_vfiprintf_r+0x1ee>
 c00711e:	2b00      	cmp	r3, #0
 c007120:	d0c5      	beq.n	c0070ae <_vfiprintf_r+0x176>
 c007122:	9105      	str	r1, [sp, #20]
 c007124:	e7c3      	b.n	c0070ae <_vfiprintf_r+0x176>
 c007126:	fb0c 2101 	mla	r1, ip, r1, r2
 c00712a:	4604      	mov	r4, r0
 c00712c:	2301      	movs	r3, #1
 c00712e:	e7f0      	b.n	c007112 <_vfiprintf_r+0x1da>
 c007130:	ab03      	add	r3, sp, #12
 c007132:	462a      	mov	r2, r5
 c007134:	a904      	add	r1, sp, #16
 c007136:	4630      	mov	r0, r6
 c007138:	9300      	str	r3, [sp, #0]
 c00713a:	4b15      	ldr	r3, [pc, #84]	; (c007190 <_vfiprintf_r+0x258>)
 c00713c:	e000      	b.n	c007140 <_vfiprintf_r+0x208>
 c00713e:	bf00      	nop
 c007140:	4607      	mov	r7, r0
 c007142:	1c78      	adds	r0, r7, #1
 c007144:	d1d6      	bne.n	c0070f4 <_vfiprintf_r+0x1bc>
 c007146:	6e6b      	ldr	r3, [r5, #100]	; 0x64
 c007148:	07d9      	lsls	r1, r3, #31
 c00714a:	d405      	bmi.n	c007158 <_vfiprintf_r+0x220>
 c00714c:	89ab      	ldrh	r3, [r5, #12]
 c00714e:	059a      	lsls	r2, r3, #22
 c007150:	d402      	bmi.n	c007158 <_vfiprintf_r+0x220>
 c007152:	6da8      	ldr	r0, [r5, #88]	; 0x58
 c007154:	f7ff fcd5 	bl	c006b02 <__retarget_lock_release_recursive>
 c007158:	89ab      	ldrh	r3, [r5, #12]
 c00715a:	065b      	lsls	r3, r3, #25
 c00715c:	f53f af12 	bmi.w	c006f84 <_vfiprintf_r+0x4c>
 c007160:	9809      	ldr	r0, [sp, #36]	; 0x24
 c007162:	e711      	b.n	c006f88 <_vfiprintf_r+0x50>
 c007164:	ab03      	add	r3, sp, #12
 c007166:	462a      	mov	r2, r5
 c007168:	a904      	add	r1, sp, #16
 c00716a:	4630      	mov	r0, r6
 c00716c:	9300      	str	r3, [sp, #0]
 c00716e:	4b08      	ldr	r3, [pc, #32]	; (c007190 <_vfiprintf_r+0x258>)
 c007170:	f000 f882 	bl	c007278 <_printf_i>
 c007174:	e7e4      	b.n	c007140 <_vfiprintf_r+0x208>
 c007176:	bf00      	nop
 c007178:	0c008094 	.word	0x0c008094
 c00717c:	0c0080b4 	.word	0x0c0080b4
 c007180:	0c008074 	.word	0x0c008074
 c007184:	0c0080d4 	.word	0x0c0080d4
 c007188:	0c0080de 	.word	0x0c0080de
 c00718c:	00000000 	.word	0x00000000
 c007190:	0c006f13 	.word	0x0c006f13
 c007194:	0c0080da 	.word	0x0c0080da

0c007198 <_printf_common>:
 c007198:	e92d 47f0 	stmdb	sp!, {r4, r5, r6, r7, r8, r9, sl, lr}
 c00719c:	4616      	mov	r6, r2
 c00719e:	4699      	mov	r9, r3
 c0071a0:	688a      	ldr	r2, [r1, #8]
 c0071a2:	4607      	mov	r7, r0
 c0071a4:	690b      	ldr	r3, [r1, #16]
 c0071a6:	460c      	mov	r4, r1
 c0071a8:	f8dd 8020 	ldr.w	r8, [sp, #32]
 c0071ac:	4293      	cmp	r3, r2
 c0071ae:	bfb8      	it	lt
 c0071b0:	4613      	movlt	r3, r2
 c0071b2:	6033      	str	r3, [r6, #0]
 c0071b4:	f891 2043 	ldrb.w	r2, [r1, #67]	; 0x43
 c0071b8:	b10a      	cbz	r2, c0071be <_printf_common+0x26>
 c0071ba:	3301      	adds	r3, #1
 c0071bc:	6033      	str	r3, [r6, #0]
 c0071be:	6823      	ldr	r3, [r4, #0]
 c0071c0:	0699      	lsls	r1, r3, #26
 c0071c2:	bf42      	ittt	mi
 c0071c4:	6833      	ldrmi	r3, [r6, #0]
 c0071c6:	3302      	addmi	r3, #2
 c0071c8:	6033      	strmi	r3, [r6, #0]
 c0071ca:	6825      	ldr	r5, [r4, #0]
 c0071cc:	f015 0506 	ands.w	r5, r5, #6
 c0071d0:	d106      	bne.n	c0071e0 <_printf_common+0x48>
 c0071d2:	f104 0a19 	add.w	sl, r4, #25
 c0071d6:	68e3      	ldr	r3, [r4, #12]
 c0071d8:	6832      	ldr	r2, [r6, #0]
 c0071da:	1a9b      	subs	r3, r3, r2
 c0071dc:	42ab      	cmp	r3, r5
 c0071de:	dc29      	bgt.n	c007234 <_printf_common+0x9c>
 c0071e0:	f894 2043 	ldrb.w	r2, [r4, #67]	; 0x43
 c0071e4:	1e13      	subs	r3, r2, #0
 c0071e6:	6822      	ldr	r2, [r4, #0]
 c0071e8:	bf18      	it	ne
 c0071ea:	2301      	movne	r3, #1
 c0071ec:	0692      	lsls	r2, r2, #26
 c0071ee:	d42e      	bmi.n	c00724e <_printf_common+0xb6>
 c0071f0:	f104 0243 	add.w	r2, r4, #67	; 0x43
 c0071f4:	4649      	mov	r1, r9
 c0071f6:	4638      	mov	r0, r7
 c0071f8:	47c0      	blx	r8
 c0071fa:	3001      	adds	r0, #1
 c0071fc:	d021      	beq.n	c007242 <_printf_common+0xaa>
 c0071fe:	6823      	ldr	r3, [r4, #0]
 c007200:	341a      	adds	r4, #26
 c007202:	f854 5c0e 	ldr.w	r5, [r4, #-14]
 c007206:	f003 0306 	and.w	r3, r3, #6
 c00720a:	6832      	ldr	r2, [r6, #0]
 c00720c:	2600      	movs	r6, #0
 c00720e:	2b04      	cmp	r3, #4
 c007210:	f854 3c12 	ldr.w	r3, [r4, #-18]
 c007214:	bf08      	it	eq
 c007216:	1aad      	subeq	r5, r5, r2
 c007218:	f854 2c0a 	ldr.w	r2, [r4, #-10]
 c00721c:	bf14      	ite	ne
 c00721e:	2500      	movne	r5, #0
 c007220:	ea25 75e5 	biceq.w	r5, r5, r5, asr #31
 c007224:	4293      	cmp	r3, r2
 c007226:	bfc4      	itt	gt
 c007228:	1a9b      	subgt	r3, r3, r2
 c00722a:	18ed      	addgt	r5, r5, r3
 c00722c:	42b5      	cmp	r5, r6
 c00722e:	d11a      	bne.n	c007266 <_printf_common+0xce>
 c007230:	2000      	movs	r0, #0
 c007232:	e008      	b.n	c007246 <_printf_common+0xae>
 c007234:	2301      	movs	r3, #1
 c007236:	4652      	mov	r2, sl
 c007238:	4649      	mov	r1, r9
 c00723a:	4638      	mov	r0, r7
 c00723c:	47c0      	blx	r8
 c00723e:	3001      	adds	r0, #1
 c007240:	d103      	bne.n	c00724a <_printf_common+0xb2>
 c007242:	f04f 30ff 	mov.w	r0, #4294967295
 c007246:	e8bd 87f0 	ldmia.w	sp!, {r4, r5, r6, r7, r8, r9, sl, pc}
 c00724a:	3501      	adds	r5, #1
 c00724c:	e7c3      	b.n	c0071d6 <_printf_common+0x3e>
 c00724e:	18e1      	adds	r1, r4, r3
 c007250:	1c5a      	adds	r2, r3, #1
 c007252:	2030      	movs	r0, #48	; 0x30
 c007254:	3302      	adds	r3, #2
 c007256:	4422      	add	r2, r4
 c007258:	f881 0043 	strb.w	r0, [r1, #67]	; 0x43
 c00725c:	f894 1045 	ldrb.w	r1, [r4, #69]	; 0x45
 c007260:	f882 1043 	strb.w	r1, [r2, #67]	; 0x43
 c007264:	e7c4      	b.n	c0071f0 <_printf_common+0x58>
 c007266:	2301      	movs	r3, #1
 c007268:	4622      	mov	r2, r4
 c00726a:	4649      	mov	r1, r9
 c00726c:	4638      	mov	r0, r7
 c00726e:	47c0      	blx	r8
 c007270:	3001      	adds	r0, #1
 c007272:	d0e6      	beq.n	c007242 <_printf_common+0xaa>
 c007274:	3601      	adds	r6, #1
 c007276:	e7d9      	b.n	c00722c <_printf_common+0x94>

0c007278 <_printf_i>:
 c007278:	e92d 47ff 	stmdb	sp!, {r0, r1, r2, r3, r4, r5, r6, r7, r8, r9, sl, lr}
 c00727c:	7e0f      	ldrb	r7, [r1, #24]
 c00727e:	4691      	mov	r9, r2
 c007280:	4680      	mov	r8, r0
 c007282:	460c      	mov	r4, r1
 c007284:	2f78      	cmp	r7, #120	; 0x78
 c007286:	469a      	mov	sl, r3
 c007288:	9d0c      	ldr	r5, [sp, #48]	; 0x30
 c00728a:	f101 0243 	add.w	r2, r1, #67	; 0x43
 c00728e:	d807      	bhi.n	c0072a0 <_printf_i+0x28>
 c007290:	2f62      	cmp	r7, #98	; 0x62
 c007292:	d80a      	bhi.n	c0072aa <_printf_i+0x32>
 c007294:	2f00      	cmp	r7, #0
 c007296:	f000 80d8 	beq.w	c00744a <_printf_i+0x1d2>
 c00729a:	2f58      	cmp	r7, #88	; 0x58
 c00729c:	f000 80a3 	beq.w	c0073e6 <_printf_i+0x16e>
 c0072a0:	f104 0542 	add.w	r5, r4, #66	; 0x42
 c0072a4:	f884 7042 	strb.w	r7, [r4, #66]	; 0x42
 c0072a8:	e03a      	b.n	c007320 <_printf_i+0xa8>
 c0072aa:	f1a7 0363 	sub.w	r3, r7, #99	; 0x63
 c0072ae:	2b15      	cmp	r3, #21
 c0072b0:	d8f6      	bhi.n	c0072a0 <_printf_i+0x28>
 c0072b2:	a101      	add	r1, pc, #4	; (adr r1, c0072b8 <_printf_i+0x40>)
 c0072b4:	f851 f023 	ldr.w	pc, [r1, r3, lsl #2]
 c0072b8:	0c007311 	.word	0x0c007311
 c0072bc:	0c007325 	.word	0x0c007325
 c0072c0:	0c0072a1 	.word	0x0c0072a1
 c0072c4:	0c0072a1 	.word	0x0c0072a1
 c0072c8:	0c0072a1 	.word	0x0c0072a1
 c0072cc:	0c0072a1 	.word	0x0c0072a1
 c0072d0:	0c007325 	.word	0x0c007325
 c0072d4:	0c0072a1 	.word	0x0c0072a1
 c0072d8:	0c0072a1 	.word	0x0c0072a1
 c0072dc:	0c0072a1 	.word	0x0c0072a1
 c0072e0:	0c0072a1 	.word	0x0c0072a1
 c0072e4:	0c007431 	.word	0x0c007431
 c0072e8:	0c007355 	.word	0x0c007355
 c0072ec:	0c007413 	.word	0x0c007413
 c0072f0:	0c0072a1 	.word	0x0c0072a1
 c0072f4:	0c0072a1 	.word	0x0c0072a1
 c0072f8:	0c007453 	.word	0x0c007453
 c0072fc:	0c0072a1 	.word	0x0c0072a1
 c007300:	0c007355 	.word	0x0c007355
 c007304:	0c0072a1 	.word	0x0c0072a1
 c007308:	0c0072a1 	.word	0x0c0072a1
 c00730c:	0c00741b 	.word	0x0c00741b
 c007310:	682b      	ldr	r3, [r5, #0]
 c007312:	1d1a      	adds	r2, r3, #4
 c007314:	681b      	ldr	r3, [r3, #0]
 c007316:	602a      	str	r2, [r5, #0]
 c007318:	f104 0542 	add.w	r5, r4, #66	; 0x42
 c00731c:	f884 3042 	strb.w	r3, [r4, #66]	; 0x42
 c007320:	2301      	movs	r3, #1
 c007322:	e0a3      	b.n	c00746c <_printf_i+0x1f4>
 c007324:	6820      	ldr	r0, [r4, #0]
 c007326:	6829      	ldr	r1, [r5, #0]
 c007328:	0606      	lsls	r6, r0, #24
 c00732a:	f101 0304 	add.w	r3, r1, #4
 c00732e:	d50a      	bpl.n	c007346 <_printf_i+0xce>
 c007330:	680e      	ldr	r6, [r1, #0]
 c007332:	602b      	str	r3, [r5, #0]
 c007334:	2e00      	cmp	r6, #0
 c007336:	da03      	bge.n	c007340 <_printf_i+0xc8>
 c007338:	232d      	movs	r3, #45	; 0x2d
 c00733a:	4276      	negs	r6, r6
 c00733c:	f884 3043 	strb.w	r3, [r4, #67]	; 0x43
 c007340:	485e      	ldr	r0, [pc, #376]	; (c0074bc <_printf_i+0x244>)
 c007342:	230a      	movs	r3, #10
 c007344:	e019      	b.n	c00737a <_printf_i+0x102>
 c007346:	680e      	ldr	r6, [r1, #0]
 c007348:	f010 0f40 	tst.w	r0, #64	; 0x40
 c00734c:	602b      	str	r3, [r5, #0]
 c00734e:	bf18      	it	ne
 c007350:	b236      	sxthne	r6, r6
 c007352:	e7ef      	b.n	c007334 <_printf_i+0xbc>
 c007354:	682b      	ldr	r3, [r5, #0]
 c007356:	6820      	ldr	r0, [r4, #0]
 c007358:	1d19      	adds	r1, r3, #4
 c00735a:	6029      	str	r1, [r5, #0]
 c00735c:	0601      	lsls	r1, r0, #24
 c00735e:	d501      	bpl.n	c007364 <_printf_i+0xec>
 c007360:	681e      	ldr	r6, [r3, #0]
 c007362:	e002      	b.n	c00736a <_printf_i+0xf2>
 c007364:	0646      	lsls	r6, r0, #25
 c007366:	d5fb      	bpl.n	c007360 <_printf_i+0xe8>
 c007368:	881e      	ldrh	r6, [r3, #0]
 c00736a:	2f6f      	cmp	r7, #111	; 0x6f
 c00736c:	4853      	ldr	r0, [pc, #332]	; (c0074bc <_printf_i+0x244>)
 c00736e:	bf0c      	ite	eq
 c007370:	2308      	moveq	r3, #8
 c007372:	230a      	movne	r3, #10
 c007374:	2100      	movs	r1, #0
 c007376:	f884 1043 	strb.w	r1, [r4, #67]	; 0x43
 c00737a:	6865      	ldr	r5, [r4, #4]
 c00737c:	2d00      	cmp	r5, #0
 c00737e:	60a5      	str	r5, [r4, #8]
 c007380:	bfa2      	ittt	ge
 c007382:	6821      	ldrge	r1, [r4, #0]
 c007384:	f021 0104 	bicge.w	r1, r1, #4
 c007388:	6021      	strge	r1, [r4, #0]
 c00738a:	b90e      	cbnz	r6, c007390 <_printf_i+0x118>
 c00738c:	2d00      	cmp	r5, #0
 c00738e:	d04d      	beq.n	c00742c <_printf_i+0x1b4>
 c007390:	4615      	mov	r5, r2
 c007392:	fbb6 f1f3 	udiv	r1, r6, r3
 c007396:	fb03 6711 	mls	r7, r3, r1, r6
 c00739a:	5dc7      	ldrb	r7, [r0, r7]
 c00739c:	f805 7d01 	strb.w	r7, [r5, #-1]!
 c0073a0:	4637      	mov	r7, r6
 c0073a2:	460e      	mov	r6, r1
 c0073a4:	42bb      	cmp	r3, r7
 c0073a6:	d9f4      	bls.n	c007392 <_printf_i+0x11a>
 c0073a8:	2b08      	cmp	r3, #8
 c0073aa:	d10b      	bne.n	c0073c4 <_printf_i+0x14c>
 c0073ac:	6823      	ldr	r3, [r4, #0]
 c0073ae:	07de      	lsls	r6, r3, #31
 c0073b0:	d508      	bpl.n	c0073c4 <_printf_i+0x14c>
 c0073b2:	6923      	ldr	r3, [r4, #16]
 c0073b4:	6861      	ldr	r1, [r4, #4]
 c0073b6:	4299      	cmp	r1, r3
 c0073b8:	bfde      	ittt	le
 c0073ba:	2330      	movle	r3, #48	; 0x30
 c0073bc:	f805 3c01 	strble.w	r3, [r5, #-1]
 c0073c0:	f105 35ff 	addle.w	r5, r5, #4294967295
 c0073c4:	1b52      	subs	r2, r2, r5
 c0073c6:	6122      	str	r2, [r4, #16]
 c0073c8:	464b      	mov	r3, r9
 c0073ca:	aa03      	add	r2, sp, #12
 c0073cc:	4621      	mov	r1, r4
 c0073ce:	4640      	mov	r0, r8
 c0073d0:	f8cd a000 	str.w	sl, [sp]
 c0073d4:	f7ff fee0 	bl	c007198 <_printf_common>
 c0073d8:	3001      	adds	r0, #1
 c0073da:	d14c      	bne.n	c007476 <_printf_i+0x1fe>
 c0073dc:	f04f 30ff 	mov.w	r0, #4294967295
 c0073e0:	b004      	add	sp, #16
 c0073e2:	e8bd 87f0 	ldmia.w	sp!, {r4, r5, r6, r7, r8, r9, sl, pc}
 c0073e6:	4835      	ldr	r0, [pc, #212]	; (c0074bc <_printf_i+0x244>)
 c0073e8:	f881 7045 	strb.w	r7, [r1, #69]	; 0x45
 c0073ec:	6829      	ldr	r1, [r5, #0]
 c0073ee:	6823      	ldr	r3, [r4, #0]
 c0073f0:	f851 6b04 	ldr.w	r6, [r1], #4
 c0073f4:	6029      	str	r1, [r5, #0]
 c0073f6:	061d      	lsls	r5, r3, #24
 c0073f8:	d514      	bpl.n	c007424 <_printf_i+0x1ac>
 c0073fa:	07df      	lsls	r7, r3, #31
 c0073fc:	bf44      	itt	mi
 c0073fe:	f043 0320 	orrmi.w	r3, r3, #32
 c007402:	6023      	strmi	r3, [r4, #0]
 c007404:	b91e      	cbnz	r6, c00740e <_printf_i+0x196>
 c007406:	6823      	ldr	r3, [r4, #0]
 c007408:	f023 0320 	bic.w	r3, r3, #32
 c00740c:	6023      	str	r3, [r4, #0]
 c00740e:	2310      	movs	r3, #16
 c007410:	e7b0      	b.n	c007374 <_printf_i+0xfc>
 c007412:	6823      	ldr	r3, [r4, #0]
 c007414:	f043 0320 	orr.w	r3, r3, #32
 c007418:	6023      	str	r3, [r4, #0]
 c00741a:	2378      	movs	r3, #120	; 0x78
 c00741c:	4828      	ldr	r0, [pc, #160]	; (c0074c0 <_printf_i+0x248>)
 c00741e:	f884 3045 	strb.w	r3, [r4, #69]	; 0x45
 c007422:	e7e3      	b.n	c0073ec <_printf_i+0x174>
 c007424:	0659      	lsls	r1, r3, #25
 c007426:	bf48      	it	mi
 c007428:	b2b6      	uxthmi	r6, r6
 c00742a:	e7e6      	b.n	c0073fa <_printf_i+0x182>
 c00742c:	4615      	mov	r5, r2
 c00742e:	e7bb      	b.n	c0073a8 <_printf_i+0x130>
 c007430:	682b      	ldr	r3, [r5, #0]
 c007432:	6826      	ldr	r6, [r4, #0]
 c007434:	1d18      	adds	r0, r3, #4
 c007436:	6961      	ldr	r1, [r4, #20]
 c007438:	6028      	str	r0, [r5, #0]
 c00743a:	0635      	lsls	r5, r6, #24
 c00743c:	681b      	ldr	r3, [r3, #0]
 c00743e:	d501      	bpl.n	c007444 <_printf_i+0x1cc>
 c007440:	6019      	str	r1, [r3, #0]
 c007442:	e002      	b.n	c00744a <_printf_i+0x1d2>
 c007444:	0670      	lsls	r0, r6, #25
 c007446:	d5fb      	bpl.n	c007440 <_printf_i+0x1c8>
 c007448:	8019      	strh	r1, [r3, #0]
 c00744a:	2300      	movs	r3, #0
 c00744c:	4615      	mov	r5, r2
 c00744e:	6123      	str	r3, [r4, #16]
 c007450:	e7ba      	b.n	c0073c8 <_printf_i+0x150>
 c007452:	682b      	ldr	r3, [r5, #0]
 c007454:	2100      	movs	r1, #0
 c007456:	1d1a      	adds	r2, r3, #4
 c007458:	602a      	str	r2, [r5, #0]
 c00745a:	681d      	ldr	r5, [r3, #0]
 c00745c:	6862      	ldr	r2, [r4, #4]
 c00745e:	4628      	mov	r0, r5
 c007460:	f000 fa9e 	bl	c0079a0 <memchr>
 c007464:	b108      	cbz	r0, c00746a <_printf_i+0x1f2>
 c007466:	1b40      	subs	r0, r0, r5
 c007468:	6060      	str	r0, [r4, #4]
 c00746a:	6863      	ldr	r3, [r4, #4]
 c00746c:	6123      	str	r3, [r4, #16]
 c00746e:	2300      	movs	r3, #0
 c007470:	f884 3043 	strb.w	r3, [r4, #67]	; 0x43
 c007474:	e7a8      	b.n	c0073c8 <_printf_i+0x150>
 c007476:	6923      	ldr	r3, [r4, #16]
 c007478:	462a      	mov	r2, r5
 c00747a:	4649      	mov	r1, r9
 c00747c:	4640      	mov	r0, r8
 c00747e:	47d0      	blx	sl
 c007480:	3001      	adds	r0, #1
 c007482:	d0ab      	beq.n	c0073dc <_printf_i+0x164>
 c007484:	6823      	ldr	r3, [r4, #0]
 c007486:	079b      	lsls	r3, r3, #30
 c007488:	d413      	bmi.n	c0074b2 <_printf_i+0x23a>
 c00748a:	68e0      	ldr	r0, [r4, #12]
 c00748c:	9b03      	ldr	r3, [sp, #12]
 c00748e:	4298      	cmp	r0, r3
 c007490:	bfb8      	it	lt
 c007492:	4618      	movlt	r0, r3
 c007494:	e7a4      	b.n	c0073e0 <_printf_i+0x168>
 c007496:	2301      	movs	r3, #1
 c007498:	4632      	mov	r2, r6
 c00749a:	4649      	mov	r1, r9
 c00749c:	4640      	mov	r0, r8
 c00749e:	47d0      	blx	sl
 c0074a0:	3001      	adds	r0, #1
 c0074a2:	d09b      	beq.n	c0073dc <_printf_i+0x164>
 c0074a4:	3501      	adds	r5, #1
 c0074a6:	68e3      	ldr	r3, [r4, #12]
 c0074a8:	9903      	ldr	r1, [sp, #12]
 c0074aa:	1a5b      	subs	r3, r3, r1
 c0074ac:	42ab      	cmp	r3, r5
 c0074ae:	dcf2      	bgt.n	c007496 <_printf_i+0x21e>
 c0074b0:	e7eb      	b.n	c00748a <_printf_i+0x212>
 c0074b2:	2500      	movs	r5, #0
 c0074b4:	f104 0619 	add.w	r6, r4, #25
 c0074b8:	e7f5      	b.n	c0074a6 <_printf_i+0x22e>
 c0074ba:	bf00      	nop
 c0074bc:	0c0080e5 	.word	0x0c0080e5
 c0074c0:	0c0080f6 	.word	0x0c0080f6

0c0074c4 <_sbrk_r>:
 c0074c4:	b538      	push	{r3, r4, r5, lr}
 c0074c6:	2300      	movs	r3, #0
 c0074c8:	4d05      	ldr	r5, [pc, #20]	; (c0074e0 <_sbrk_r+0x1c>)
 c0074ca:	4604      	mov	r4, r0
 c0074cc:	4608      	mov	r0, r1
 c0074ce:	602b      	str	r3, [r5, #0]
 c0074d0:	f7fa fba4 	bl	c001c1c <_sbrk>
 c0074d4:	1c43      	adds	r3, r0, #1
 c0074d6:	d102      	bne.n	c0074de <_sbrk_r+0x1a>
 c0074d8:	682b      	ldr	r3, [r5, #0]
 c0074da:	b103      	cbz	r3, c0074de <_sbrk_r+0x1a>
 c0074dc:	6023      	str	r3, [r4, #0]
 c0074de:	bd38      	pop	{r3, r4, r5, pc}
 c0074e0:	3000186c 	.word	0x3000186c

0c0074e4 <__sread>:
 c0074e4:	b510      	push	{r4, lr}
 c0074e6:	460c      	mov	r4, r1
 c0074e8:	f9b1 100e 	ldrsh.w	r1, [r1, #14]
 c0074ec:	f000 fb16 	bl	c007b1c <_read_r>
 c0074f0:	2800      	cmp	r0, #0
 c0074f2:	bfab      	itete	ge
 c0074f4:	6d63      	ldrge	r3, [r4, #84]	; 0x54
 c0074f6:	89a3      	ldrhlt	r3, [r4, #12]
 c0074f8:	181b      	addge	r3, r3, r0
 c0074fa:	f423 5380 	biclt.w	r3, r3, #4096	; 0x1000
 c0074fe:	bfac      	ite	ge
 c007500:	6563      	strge	r3, [r4, #84]	; 0x54
 c007502:	81a3      	strhlt	r3, [r4, #12]
 c007504:	bd10      	pop	{r4, pc}

0c007506 <__swrite>:
 c007506:	e92d 41f0 	stmdb	sp!, {r4, r5, r6, r7, r8, lr}
 c00750a:	461f      	mov	r7, r3
 c00750c:	898b      	ldrh	r3, [r1, #12]
 c00750e:	4605      	mov	r5, r0
 c007510:	460c      	mov	r4, r1
 c007512:	05db      	lsls	r3, r3, #23
 c007514:	4616      	mov	r6, r2
 c007516:	d505      	bpl.n	c007524 <__swrite+0x1e>
 c007518:	2302      	movs	r3, #2
 c00751a:	2200      	movs	r2, #0
 c00751c:	f9b1 100e 	ldrsh.w	r1, [r1, #14]
 c007520:	f000 f9c6 	bl	c0078b0 <_lseek_r>
 c007524:	89a3      	ldrh	r3, [r4, #12]
 c007526:	4632      	mov	r2, r6
 c007528:	f9b4 100e 	ldrsh.w	r1, [r4, #14]
 c00752c:	4628      	mov	r0, r5
 c00752e:	f423 5380 	bic.w	r3, r3, #4096	; 0x1000
 c007532:	81a3      	strh	r3, [r4, #12]
 c007534:	463b      	mov	r3, r7
 c007536:	e8bd 41f0 	ldmia.w	sp!, {r4, r5, r6, r7, r8, lr}
 c00753a:	f000 b869 	b.w	c007610 <_write_r>

0c00753e <__sseek>:
 c00753e:	b510      	push	{r4, lr}
 c007540:	460c      	mov	r4, r1
 c007542:	f9b1 100e 	ldrsh.w	r1, [r1, #14]
 c007546:	f000 f9b3 	bl	c0078b0 <_lseek_r>
 c00754a:	1c43      	adds	r3, r0, #1
 c00754c:	89a3      	ldrh	r3, [r4, #12]
 c00754e:	bf15      	itete	ne
 c007550:	6560      	strne	r0, [r4, #84]	; 0x54
 c007552:	f423 5380 	biceq.w	r3, r3, #4096	; 0x1000
 c007556:	f443 5380 	orrne.w	r3, r3, #4096	; 0x1000
 c00755a:	81a3      	strheq	r3, [r4, #12]
 c00755c:	bf18      	it	ne
 c00755e:	81a3      	strhne	r3, [r4, #12]
 c007560:	bd10      	pop	{r4, pc}

0c007562 <__sclose>:
 c007562:	f9b1 100e 	ldrsh.w	r1, [r1, #14]
 c007566:	f000 b8d3 	b.w	c007710 <_close_r>
	...

0c00756c <__swbuf_r>:
 c00756c:	b5f8      	push	{r3, r4, r5, r6, r7, lr}
 c00756e:	460e      	mov	r6, r1
 c007570:	4614      	mov	r4, r2
 c007572:	4605      	mov	r5, r0
 c007574:	b118      	cbz	r0, c00757e <__swbuf_r+0x12>
 c007576:	6983      	ldr	r3, [r0, #24]
 c007578:	b90b      	cbnz	r3, c00757e <__swbuf_r+0x12>
 c00757a:	f7ff fa23 	bl	c0069c4 <__sinit>
 c00757e:	4b21      	ldr	r3, [pc, #132]	; (c007604 <__swbuf_r+0x98>)
 c007580:	429c      	cmp	r4, r3
 c007582:	d12b      	bne.n	c0075dc <__swbuf_r+0x70>
 c007584:	686c      	ldr	r4, [r5, #4]
 c007586:	69a3      	ldr	r3, [r4, #24]
 c007588:	60a3      	str	r3, [r4, #8]
 c00758a:	89a3      	ldrh	r3, [r4, #12]
 c00758c:	071a      	lsls	r2, r3, #28
 c00758e:	d52f      	bpl.n	c0075f0 <__swbuf_r+0x84>
 c007590:	6923      	ldr	r3, [r4, #16]
 c007592:	b36b      	cbz	r3, c0075f0 <__swbuf_r+0x84>
 c007594:	6923      	ldr	r3, [r4, #16]
 c007596:	b2f6      	uxtb	r6, r6
 c007598:	6820      	ldr	r0, [r4, #0]
 c00759a:	4637      	mov	r7, r6
 c00759c:	1ac0      	subs	r0, r0, r3
 c00759e:	6963      	ldr	r3, [r4, #20]
 c0075a0:	4283      	cmp	r3, r0
 c0075a2:	dc04      	bgt.n	c0075ae <__swbuf_r+0x42>
 c0075a4:	4621      	mov	r1, r4
 c0075a6:	4628      	mov	r0, r5
 c0075a8:	f000 f946 	bl	c007838 <_fflush_r>
 c0075ac:	bb30      	cbnz	r0, c0075fc <__swbuf_r+0x90>
 c0075ae:	68a3      	ldr	r3, [r4, #8]
 c0075b0:	3001      	adds	r0, #1
 c0075b2:	3b01      	subs	r3, #1
 c0075b4:	60a3      	str	r3, [r4, #8]
 c0075b6:	6823      	ldr	r3, [r4, #0]
 c0075b8:	1c5a      	adds	r2, r3, #1
 c0075ba:	6022      	str	r2, [r4, #0]
 c0075bc:	701e      	strb	r6, [r3, #0]
 c0075be:	6963      	ldr	r3, [r4, #20]
 c0075c0:	4283      	cmp	r3, r0
 c0075c2:	d004      	beq.n	c0075ce <__swbuf_r+0x62>
 c0075c4:	89a3      	ldrh	r3, [r4, #12]
 c0075c6:	07db      	lsls	r3, r3, #31
 c0075c8:	d506      	bpl.n	c0075d8 <__swbuf_r+0x6c>
 c0075ca:	2e0a      	cmp	r6, #10
 c0075cc:	d104      	bne.n	c0075d8 <__swbuf_r+0x6c>
 c0075ce:	4621      	mov	r1, r4
 c0075d0:	4628      	mov	r0, r5
 c0075d2:	f000 f931 	bl	c007838 <_fflush_r>
 c0075d6:	b988      	cbnz	r0, c0075fc <__swbuf_r+0x90>
 c0075d8:	4638      	mov	r0, r7
 c0075da:	bdf8      	pop	{r3, r4, r5, r6, r7, pc}
 c0075dc:	4b0a      	ldr	r3, [pc, #40]	; (c007608 <__swbuf_r+0x9c>)
 c0075de:	429c      	cmp	r4, r3
 c0075e0:	d101      	bne.n	c0075e6 <__swbuf_r+0x7a>
 c0075e2:	68ac      	ldr	r4, [r5, #8]
 c0075e4:	e7cf      	b.n	c007586 <__swbuf_r+0x1a>
 c0075e6:	4b09      	ldr	r3, [pc, #36]	; (c00760c <__swbuf_r+0xa0>)
 c0075e8:	429c      	cmp	r4, r3
 c0075ea:	bf08      	it	eq
 c0075ec:	68ec      	ldreq	r4, [r5, #12]
 c0075ee:	e7ca      	b.n	c007586 <__swbuf_r+0x1a>
 c0075f0:	4621      	mov	r1, r4
 c0075f2:	4628      	mov	r0, r5
 c0075f4:	f000 f81e 	bl	c007634 <__swsetup_r>
 c0075f8:	2800      	cmp	r0, #0
 c0075fa:	d0cb      	beq.n	c007594 <__swbuf_r+0x28>
 c0075fc:	f04f 37ff 	mov.w	r7, #4294967295
 c007600:	e7ea      	b.n	c0075d8 <__swbuf_r+0x6c>
 c007602:	bf00      	nop
 c007604:	0c008094 	.word	0x0c008094
 c007608:	0c0080b4 	.word	0x0c0080b4
 c00760c:	0c008074 	.word	0x0c008074

0c007610 <_write_r>:
 c007610:	b538      	push	{r3, r4, r5, lr}
 c007612:	4604      	mov	r4, r0
 c007614:	4d06      	ldr	r5, [pc, #24]	; (c007630 <_write_r+0x20>)
 c007616:	4608      	mov	r0, r1
 c007618:	4611      	mov	r1, r2
 c00761a:	2200      	movs	r2, #0
 c00761c:	602a      	str	r2, [r5, #0]
 c00761e:	461a      	mov	r2, r3
 c007620:	f7fa faab 	bl	c001b7a <_write>
 c007624:	1c43      	adds	r3, r0, #1
 c007626:	d102      	bne.n	c00762e <_write_r+0x1e>
 c007628:	682b      	ldr	r3, [r5, #0]
 c00762a:	b103      	cbz	r3, c00762e <_write_r+0x1e>
 c00762c:	6023      	str	r3, [r4, #0]
 c00762e:	bd38      	pop	{r3, r4, r5, pc}
 c007630:	3000186c 	.word	0x3000186c

0c007634 <__swsetup_r>:
 c007634:	4b32      	ldr	r3, [pc, #200]	; (c007700 <__swsetup_r+0xcc>)
 c007636:	b570      	push	{r4, r5, r6, lr}
 c007638:	681d      	ldr	r5, [r3, #0]
 c00763a:	4606      	mov	r6, r0
 c00763c:	460c      	mov	r4, r1
 c00763e:	b125      	cbz	r5, c00764a <__swsetup_r+0x16>
 c007640:	69ab      	ldr	r3, [r5, #24]
 c007642:	b913      	cbnz	r3, c00764a <__swsetup_r+0x16>
 c007644:	4628      	mov	r0, r5
 c007646:	f7ff f9bd 	bl	c0069c4 <__sinit>
 c00764a:	4b2e      	ldr	r3, [pc, #184]	; (c007704 <__swsetup_r+0xd0>)
 c00764c:	429c      	cmp	r4, r3
 c00764e:	d10f      	bne.n	c007670 <__swsetup_r+0x3c>
 c007650:	686c      	ldr	r4, [r5, #4]
 c007652:	89a3      	ldrh	r3, [r4, #12]
 c007654:	f9b4 200c 	ldrsh.w	r2, [r4, #12]
 c007658:	0719      	lsls	r1, r3, #28
 c00765a:	d42c      	bmi.n	c0076b6 <__swsetup_r+0x82>
 c00765c:	06dd      	lsls	r5, r3, #27
 c00765e:	d411      	bmi.n	c007684 <__swsetup_r+0x50>
 c007660:	2309      	movs	r3, #9
 c007662:	6033      	str	r3, [r6, #0]
 c007664:	f042 0340 	orr.w	r3, r2, #64	; 0x40
 c007668:	f04f 30ff 	mov.w	r0, #4294967295
 c00766c:	81a3      	strh	r3, [r4, #12]
 c00766e:	e03e      	b.n	c0076ee <__swsetup_r+0xba>
 c007670:	4b25      	ldr	r3, [pc, #148]	; (c007708 <__swsetup_r+0xd4>)
 c007672:	429c      	cmp	r4, r3
 c007674:	d101      	bne.n	c00767a <__swsetup_r+0x46>
 c007676:	68ac      	ldr	r4, [r5, #8]
 c007678:	e7eb      	b.n	c007652 <__swsetup_r+0x1e>
 c00767a:	4b24      	ldr	r3, [pc, #144]	; (c00770c <__swsetup_r+0xd8>)
 c00767c:	429c      	cmp	r4, r3
 c00767e:	bf08      	it	eq
 c007680:	68ec      	ldreq	r4, [r5, #12]
 c007682:	e7e6      	b.n	c007652 <__swsetup_r+0x1e>
 c007684:	0758      	lsls	r0, r3, #29
 c007686:	d512      	bpl.n	c0076ae <__swsetup_r+0x7a>
 c007688:	6b61      	ldr	r1, [r4, #52]	; 0x34
 c00768a:	b141      	cbz	r1, c00769e <__swsetup_r+0x6a>
 c00768c:	f104 0344 	add.w	r3, r4, #68	; 0x44
 c007690:	4299      	cmp	r1, r3
 c007692:	d002      	beq.n	c00769a <__swsetup_r+0x66>
 c007694:	4630      	mov	r0, r6
 c007696:	f000 f9c5 	bl	c007a24 <_free_r>
 c00769a:	2300      	movs	r3, #0
 c00769c:	6363      	str	r3, [r4, #52]	; 0x34
 c00769e:	89a3      	ldrh	r3, [r4, #12]
 c0076a0:	f023 0324 	bic.w	r3, r3, #36	; 0x24
 c0076a4:	81a3      	strh	r3, [r4, #12]
 c0076a6:	2300      	movs	r3, #0
 c0076a8:	6063      	str	r3, [r4, #4]
 c0076aa:	6923      	ldr	r3, [r4, #16]
 c0076ac:	6023      	str	r3, [r4, #0]
 c0076ae:	89a3      	ldrh	r3, [r4, #12]
 c0076b0:	f043 0308 	orr.w	r3, r3, #8
 c0076b4:	81a3      	strh	r3, [r4, #12]
 c0076b6:	6923      	ldr	r3, [r4, #16]
 c0076b8:	b94b      	cbnz	r3, c0076ce <__swsetup_r+0x9a>
 c0076ba:	89a3      	ldrh	r3, [r4, #12]
 c0076bc:	f403 7320 	and.w	r3, r3, #640	; 0x280
 c0076c0:	f5b3 7f00 	cmp.w	r3, #512	; 0x200
 c0076c4:	d003      	beq.n	c0076ce <__swsetup_r+0x9a>
 c0076c6:	4621      	mov	r1, r4
 c0076c8:	4630      	mov	r0, r6
 c0076ca:	f000 f929 	bl	c007920 <__smakebuf_r>
 c0076ce:	89a0      	ldrh	r0, [r4, #12]
 c0076d0:	f9b4 200c 	ldrsh.w	r2, [r4, #12]
 c0076d4:	f010 0301 	ands.w	r3, r0, #1
 c0076d8:	d00a      	beq.n	c0076f0 <__swsetup_r+0xbc>
 c0076da:	2300      	movs	r3, #0
 c0076dc:	60a3      	str	r3, [r4, #8]
 c0076de:	6963      	ldr	r3, [r4, #20]
 c0076e0:	425b      	negs	r3, r3
 c0076e2:	61a3      	str	r3, [r4, #24]
 c0076e4:	6923      	ldr	r3, [r4, #16]
 c0076e6:	b943      	cbnz	r3, c0076fa <__swsetup_r+0xc6>
 c0076e8:	f010 0080 	ands.w	r0, r0, #128	; 0x80
 c0076ec:	d1ba      	bne.n	c007664 <__swsetup_r+0x30>
 c0076ee:	bd70      	pop	{r4, r5, r6, pc}
 c0076f0:	0781      	lsls	r1, r0, #30
 c0076f2:	bf58      	it	pl
 c0076f4:	6963      	ldrpl	r3, [r4, #20]
 c0076f6:	60a3      	str	r3, [r4, #8]
 c0076f8:	e7f4      	b.n	c0076e4 <__swsetup_r+0xb0>
 c0076fa:	2000      	movs	r0, #0
 c0076fc:	e7f7      	b.n	c0076ee <__swsetup_r+0xba>
 c0076fe:	bf00      	nop
 c007700:	300000cc 	.word	0x300000cc
 c007704:	0c008094 	.word	0x0c008094
 c007708:	0c0080b4 	.word	0x0c0080b4
 c00770c:	0c008074 	.word	0x0c008074

0c007710 <_close_r>:
 c007710:	b538      	push	{r3, r4, r5, lr}
 c007712:	2300      	movs	r3, #0
 c007714:	4d05      	ldr	r5, [pc, #20]	; (c00772c <_close_r+0x1c>)
 c007716:	4604      	mov	r4, r0
 c007718:	4608      	mov	r0, r1
 c00771a:	602b      	str	r3, [r5, #0]
 c00771c:	f7fa fa49 	bl	c001bb2 <_close>
 c007720:	1c43      	adds	r3, r0, #1
 c007722:	d102      	bne.n	c00772a <_close_r+0x1a>
 c007724:	682b      	ldr	r3, [r5, #0]
 c007726:	b103      	cbz	r3, c00772a <_close_r+0x1a>
 c007728:	6023      	str	r3, [r4, #0]
 c00772a:	bd38      	pop	{r3, r4, r5, pc}
 c00772c:	3000186c 	.word	0x3000186c

0c007730 <__sflush_r>:
 c007730:	898a      	ldrh	r2, [r1, #12]
 c007732:	e92d 41f0 	stmdb	sp!, {r4, r5, r6, r7, r8, lr}
 c007736:	4605      	mov	r5, r0
 c007738:	0710      	lsls	r0, r2, #28
 c00773a:	460c      	mov	r4, r1
 c00773c:	d458      	bmi.n	c0077f0 <__sflush_r+0xc0>
 c00773e:	684b      	ldr	r3, [r1, #4]
 c007740:	2b00      	cmp	r3, #0
 c007742:	dc05      	bgt.n	c007750 <__sflush_r+0x20>
 c007744:	6c0b      	ldr	r3, [r1, #64]	; 0x40
 c007746:	2b00      	cmp	r3, #0
 c007748:	dc02      	bgt.n	c007750 <__sflush_r+0x20>
 c00774a:	2000      	movs	r0, #0
 c00774c:	e8bd 81f0 	ldmia.w	sp!, {r4, r5, r6, r7, r8, pc}
 c007750:	6ae6      	ldr	r6, [r4, #44]	; 0x2c
 c007752:	2e00      	cmp	r6, #0
 c007754:	d0f9      	beq.n	c00774a <__sflush_r+0x1a>
 c007756:	2300      	movs	r3, #0
 c007758:	f412 5280 	ands.w	r2, r2, #4096	; 0x1000
 c00775c:	682f      	ldr	r7, [r5, #0]
 c00775e:	602b      	str	r3, [r5, #0]
 c007760:	d032      	beq.n	c0077c8 <__sflush_r+0x98>
 c007762:	6d60      	ldr	r0, [r4, #84]	; 0x54
 c007764:	89a3      	ldrh	r3, [r4, #12]
 c007766:	075a      	lsls	r2, r3, #29
 c007768:	d505      	bpl.n	c007776 <__sflush_r+0x46>
 c00776a:	6863      	ldr	r3, [r4, #4]
 c00776c:	1ac0      	subs	r0, r0, r3
 c00776e:	6b63      	ldr	r3, [r4, #52]	; 0x34
 c007770:	b10b      	cbz	r3, c007776 <__sflush_r+0x46>
 c007772:	6c23      	ldr	r3, [r4, #64]	; 0x40
 c007774:	1ac0      	subs	r0, r0, r3
 c007776:	2300      	movs	r3, #0
 c007778:	4602      	mov	r2, r0
 c00777a:	6ae6      	ldr	r6, [r4, #44]	; 0x2c
 c00777c:	4628      	mov	r0, r5
 c00777e:	6a21      	ldr	r1, [r4, #32]
 c007780:	47b0      	blx	r6
 c007782:	1c43      	adds	r3, r0, #1
 c007784:	89a3      	ldrh	r3, [r4, #12]
 c007786:	d106      	bne.n	c007796 <__sflush_r+0x66>
 c007788:	6829      	ldr	r1, [r5, #0]
 c00778a:	291d      	cmp	r1, #29
 c00778c:	d82c      	bhi.n	c0077e8 <__sflush_r+0xb8>
 c00778e:	4a29      	ldr	r2, [pc, #164]	; (c007834 <__sflush_r+0x104>)
 c007790:	40ca      	lsrs	r2, r1
 c007792:	07d6      	lsls	r6, r2, #31
 c007794:	d528      	bpl.n	c0077e8 <__sflush_r+0xb8>
 c007796:	2200      	movs	r2, #0
 c007798:	04d9      	lsls	r1, r3, #19
 c00779a:	6062      	str	r2, [r4, #4]
 c00779c:	6922      	ldr	r2, [r4, #16]
 c00779e:	6022      	str	r2, [r4, #0]
 c0077a0:	d504      	bpl.n	c0077ac <__sflush_r+0x7c>
 c0077a2:	1c42      	adds	r2, r0, #1
 c0077a4:	d101      	bne.n	c0077aa <__sflush_r+0x7a>
 c0077a6:	682b      	ldr	r3, [r5, #0]
 c0077a8:	b903      	cbnz	r3, c0077ac <__sflush_r+0x7c>
 c0077aa:	6560      	str	r0, [r4, #84]	; 0x54
 c0077ac:	6b61      	ldr	r1, [r4, #52]	; 0x34
 c0077ae:	602f      	str	r7, [r5, #0]
 c0077b0:	2900      	cmp	r1, #0
 c0077b2:	d0ca      	beq.n	c00774a <__sflush_r+0x1a>
 c0077b4:	f104 0344 	add.w	r3, r4, #68	; 0x44
 c0077b8:	4299      	cmp	r1, r3
 c0077ba:	d002      	beq.n	c0077c2 <__sflush_r+0x92>
 c0077bc:	4628      	mov	r0, r5
 c0077be:	f000 f931 	bl	c007a24 <_free_r>
 c0077c2:	2000      	movs	r0, #0
 c0077c4:	6360      	str	r0, [r4, #52]	; 0x34
 c0077c6:	e7c1      	b.n	c00774c <__sflush_r+0x1c>
 c0077c8:	6a21      	ldr	r1, [r4, #32]
 c0077ca:	2301      	movs	r3, #1
 c0077cc:	4628      	mov	r0, r5
 c0077ce:	47b0      	blx	r6
 c0077d0:	1c41      	adds	r1, r0, #1
 c0077d2:	d1c7      	bne.n	c007764 <__sflush_r+0x34>
 c0077d4:	682b      	ldr	r3, [r5, #0]
 c0077d6:	2b00      	cmp	r3, #0
 c0077d8:	d0c4      	beq.n	c007764 <__sflush_r+0x34>
 c0077da:	2b1d      	cmp	r3, #29
 c0077dc:	d001      	beq.n	c0077e2 <__sflush_r+0xb2>
 c0077de:	2b16      	cmp	r3, #22
 c0077e0:	d101      	bne.n	c0077e6 <__sflush_r+0xb6>
 c0077e2:	602f      	str	r7, [r5, #0]
 c0077e4:	e7b1      	b.n	c00774a <__sflush_r+0x1a>
 c0077e6:	89a3      	ldrh	r3, [r4, #12]
 c0077e8:	f043 0340 	orr.w	r3, r3, #64	; 0x40
 c0077ec:	81a3      	strh	r3, [r4, #12]
 c0077ee:	e7ad      	b.n	c00774c <__sflush_r+0x1c>
 c0077f0:	690f      	ldr	r7, [r1, #16]
 c0077f2:	2f00      	cmp	r7, #0
 c0077f4:	d0a9      	beq.n	c00774a <__sflush_r+0x1a>
 c0077f6:	0793      	lsls	r3, r2, #30
 c0077f8:	680e      	ldr	r6, [r1, #0]
 c0077fa:	600f      	str	r7, [r1, #0]
 c0077fc:	bf0c      	ite	eq
 c0077fe:	694b      	ldreq	r3, [r1, #20]
 c007800:	2300      	movne	r3, #0
 c007802:	eba6 0807 	sub.w	r8, r6, r7
 c007806:	608b      	str	r3, [r1, #8]
 c007808:	f1b8 0f00 	cmp.w	r8, #0
 c00780c:	dd9d      	ble.n	c00774a <__sflush_r+0x1a>
 c00780e:	4643      	mov	r3, r8
 c007810:	463a      	mov	r2, r7
 c007812:	6a21      	ldr	r1, [r4, #32]
 c007814:	4628      	mov	r0, r5
 c007816:	6aa6      	ldr	r6, [r4, #40]	; 0x28
 c007818:	47b0      	blx	r6
 c00781a:	2800      	cmp	r0, #0
 c00781c:	dc06      	bgt.n	c00782c <__sflush_r+0xfc>
 c00781e:	89a3      	ldrh	r3, [r4, #12]
 c007820:	f04f 30ff 	mov.w	r0, #4294967295
 c007824:	f043 0340 	orr.w	r3, r3, #64	; 0x40
 c007828:	81a3      	strh	r3, [r4, #12]
 c00782a:	e78f      	b.n	c00774c <__sflush_r+0x1c>
 c00782c:	4407      	add	r7, r0
 c00782e:	eba8 0800 	sub.w	r8, r8, r0
 c007832:	e7e9      	b.n	c007808 <__sflush_r+0xd8>
 c007834:	20400001 	.word	0x20400001

0c007838 <_fflush_r>:
 c007838:	b538      	push	{r3, r4, r5, lr}
 c00783a:	690b      	ldr	r3, [r1, #16]
 c00783c:	4605      	mov	r5, r0
 c00783e:	460c      	mov	r4, r1
 c007840:	b913      	cbnz	r3, c007848 <_fflush_r+0x10>
 c007842:	2500      	movs	r5, #0
 c007844:	4628      	mov	r0, r5
 c007846:	bd38      	pop	{r3, r4, r5, pc}
 c007848:	b118      	cbz	r0, c007852 <_fflush_r+0x1a>
 c00784a:	6983      	ldr	r3, [r0, #24]
 c00784c:	b90b      	cbnz	r3, c007852 <_fflush_r+0x1a>
 c00784e:	f7ff f8b9 	bl	c0069c4 <__sinit>
 c007852:	4b14      	ldr	r3, [pc, #80]	; (c0078a4 <_fflush_r+0x6c>)
 c007854:	429c      	cmp	r4, r3
 c007856:	d11b      	bne.n	c007890 <_fflush_r+0x58>
 c007858:	686c      	ldr	r4, [r5, #4]
 c00785a:	f9b4 300c 	ldrsh.w	r3, [r4, #12]
 c00785e:	2b00      	cmp	r3, #0
 c007860:	d0ef      	beq.n	c007842 <_fflush_r+0xa>
 c007862:	6e62      	ldr	r2, [r4, #100]	; 0x64
 c007864:	07d0      	lsls	r0, r2, #31
 c007866:	d404      	bmi.n	c007872 <_fflush_r+0x3a>
 c007868:	0599      	lsls	r1, r3, #22
 c00786a:	d402      	bmi.n	c007872 <_fflush_r+0x3a>
 c00786c:	6da0      	ldr	r0, [r4, #88]	; 0x58
 c00786e:	f7ff f947 	bl	c006b00 <__retarget_lock_acquire_recursive>
 c007872:	4628      	mov	r0, r5
 c007874:	4621      	mov	r1, r4
 c007876:	f7ff ff5b 	bl	c007730 <__sflush_r>
 c00787a:	6e63      	ldr	r3, [r4, #100]	; 0x64
 c00787c:	4605      	mov	r5, r0
 c00787e:	07da      	lsls	r2, r3, #31
 c007880:	d4e0      	bmi.n	c007844 <_fflush_r+0xc>
 c007882:	89a3      	ldrh	r3, [r4, #12]
 c007884:	059b      	lsls	r3, r3, #22
 c007886:	d4dd      	bmi.n	c007844 <_fflush_r+0xc>
 c007888:	6da0      	ldr	r0, [r4, #88]	; 0x58
 c00788a:	f7ff f93a 	bl	c006b02 <__retarget_lock_release_recursive>
 c00788e:	e7d9      	b.n	c007844 <_fflush_r+0xc>
 c007890:	4b05      	ldr	r3, [pc, #20]	; (c0078a8 <_fflush_r+0x70>)
 c007892:	429c      	cmp	r4, r3
 c007894:	d101      	bne.n	c00789a <_fflush_r+0x62>
 c007896:	68ac      	ldr	r4, [r5, #8]
 c007898:	e7df      	b.n	c00785a <_fflush_r+0x22>
 c00789a:	4b04      	ldr	r3, [pc, #16]	; (c0078ac <_fflush_r+0x74>)
 c00789c:	429c      	cmp	r4, r3
 c00789e:	bf08      	it	eq
 c0078a0:	68ec      	ldreq	r4, [r5, #12]
 c0078a2:	e7da      	b.n	c00785a <_fflush_r+0x22>
 c0078a4:	0c008094 	.word	0x0c008094
 c0078a8:	0c0080b4 	.word	0x0c0080b4
 c0078ac:	0c008074 	.word	0x0c008074

0c0078b0 <_lseek_r>:
 c0078b0:	b538      	push	{r3, r4, r5, lr}
 c0078b2:	4604      	mov	r4, r0
 c0078b4:	4d06      	ldr	r5, [pc, #24]	; (c0078d0 <_lseek_r+0x20>)
 c0078b6:	4608      	mov	r0, r1
 c0078b8:	4611      	mov	r1, r2
 c0078ba:	2200      	movs	r2, #0
 c0078bc:	602a      	str	r2, [r5, #0]
 c0078be:	461a      	mov	r2, r3
 c0078c0:	f7fa f99e 	bl	c001c00 <_lseek>
 c0078c4:	1c43      	adds	r3, r0, #1
 c0078c6:	d102      	bne.n	c0078ce <_lseek_r+0x1e>
 c0078c8:	682b      	ldr	r3, [r5, #0]
 c0078ca:	b103      	cbz	r3, c0078ce <_lseek_r+0x1e>
 c0078cc:	6023      	str	r3, [r4, #0]
 c0078ce:	bd38      	pop	{r3, r4, r5, pc}
 c0078d0:	3000186c 	.word	0x3000186c

0c0078d4 <__swhatbuf_r>:
 c0078d4:	b570      	push	{r4, r5, r6, lr}
 c0078d6:	460e      	mov	r6, r1
 c0078d8:	f9b1 100e 	ldrsh.w	r1, [r1, #14]
 c0078dc:	b096      	sub	sp, #88	; 0x58
 c0078de:	4614      	mov	r4, r2
 c0078e0:	2900      	cmp	r1, #0
 c0078e2:	461d      	mov	r5, r3
 c0078e4:	da08      	bge.n	c0078f8 <__swhatbuf_r+0x24>
 c0078e6:	f9b6 300c 	ldrsh.w	r3, [r6, #12]
 c0078ea:	2200      	movs	r2, #0
 c0078ec:	602a      	str	r2, [r5, #0]
 c0078ee:	061a      	lsls	r2, r3, #24
 c0078f0:	d410      	bmi.n	c007914 <__swhatbuf_r+0x40>
 c0078f2:	f44f 6380 	mov.w	r3, #1024	; 0x400
 c0078f6:	e00e      	b.n	c007916 <__swhatbuf_r+0x42>
 c0078f8:	466a      	mov	r2, sp
 c0078fa:	f000 f921 	bl	c007b40 <_fstat_r>
 c0078fe:	2800      	cmp	r0, #0
 c007900:	dbf1      	blt.n	c0078e6 <__swhatbuf_r+0x12>
 c007902:	9a01      	ldr	r2, [sp, #4]
 c007904:	f402 4270 	and.w	r2, r2, #61440	; 0xf000
 c007908:	f5a2 5300 	sub.w	r3, r2, #8192	; 0x2000
 c00790c:	425a      	negs	r2, r3
 c00790e:	415a      	adcs	r2, r3
 c007910:	602a      	str	r2, [r5, #0]
 c007912:	e7ee      	b.n	c0078f2 <__swhatbuf_r+0x1e>
 c007914:	2340      	movs	r3, #64	; 0x40
 c007916:	2000      	movs	r0, #0
 c007918:	6023      	str	r3, [r4, #0]
 c00791a:	b016      	add	sp, #88	; 0x58
 c00791c:	bd70      	pop	{r4, r5, r6, pc}
	...

0c007920 <__smakebuf_r>:
 c007920:	898b      	ldrh	r3, [r1, #12]
 c007922:	b573      	push	{r0, r1, r4, r5, r6, lr}
 c007924:	079d      	lsls	r5, r3, #30
 c007926:	4606      	mov	r6, r0
 c007928:	460c      	mov	r4, r1
 c00792a:	d507      	bpl.n	c00793c <__smakebuf_r+0x1c>
 c00792c:	f104 0347 	add.w	r3, r4, #71	; 0x47
 c007930:	6023      	str	r3, [r4, #0]
 c007932:	6123      	str	r3, [r4, #16]
 c007934:	2301      	movs	r3, #1
 c007936:	6163      	str	r3, [r4, #20]
 c007938:	b002      	add	sp, #8
 c00793a:	bd70      	pop	{r4, r5, r6, pc}
 c00793c:	ab01      	add	r3, sp, #4
 c00793e:	466a      	mov	r2, sp
 c007940:	f7ff ffc8 	bl	c0078d4 <__swhatbuf_r>
 c007944:	9900      	ldr	r1, [sp, #0]
 c007946:	4605      	mov	r5, r0
 c007948:	4630      	mov	r0, r6
 c00794a:	f7ff f8fb 	bl	c006b44 <_malloc_r>
 c00794e:	b948      	cbnz	r0, c007964 <__smakebuf_r+0x44>
 c007950:	f9b4 300c 	ldrsh.w	r3, [r4, #12]
 c007954:	059a      	lsls	r2, r3, #22
 c007956:	d4ef      	bmi.n	c007938 <__smakebuf_r+0x18>
 c007958:	f023 0303 	bic.w	r3, r3, #3
 c00795c:	f043 0302 	orr.w	r3, r3, #2
 c007960:	81a3      	strh	r3, [r4, #12]
 c007962:	e7e3      	b.n	c00792c <__smakebuf_r+0xc>
 c007964:	4b0d      	ldr	r3, [pc, #52]	; (c00799c <__smakebuf_r+0x7c>)
 c007966:	62b3      	str	r3, [r6, #40]	; 0x28
 c007968:	89a3      	ldrh	r3, [r4, #12]
 c00796a:	6020      	str	r0, [r4, #0]
 c00796c:	f043 0380 	orr.w	r3, r3, #128	; 0x80
 c007970:	6120      	str	r0, [r4, #16]
 c007972:	81a3      	strh	r3, [r4, #12]
 c007974:	9b00      	ldr	r3, [sp, #0]
 c007976:	6163      	str	r3, [r4, #20]
 c007978:	9b01      	ldr	r3, [sp, #4]
 c00797a:	b15b      	cbz	r3, c007994 <__smakebuf_r+0x74>
 c00797c:	f9b4 100e 	ldrsh.w	r1, [r4, #14]
 c007980:	4630      	mov	r0, r6
 c007982:	f000 f8ef 	bl	c007b64 <_isatty_r>
 c007986:	b128      	cbz	r0, c007994 <__smakebuf_r+0x74>
 c007988:	89a3      	ldrh	r3, [r4, #12]
 c00798a:	f023 0303 	bic.w	r3, r3, #3
 c00798e:	f043 0301 	orr.w	r3, r3, #1
 c007992:	81a3      	strh	r3, [r4, #12]
 c007994:	89a0      	ldrh	r0, [r4, #12]
 c007996:	4305      	orrs	r5, r0
 c007998:	81a5      	strh	r5, [r4, #12]
 c00799a:	e7cd      	b.n	c007938 <__smakebuf_r+0x18>
 c00799c:	0c00695d 	.word	0x0c00695d

0c0079a0 <memchr>:
 c0079a0:	b2c9      	uxtb	r1, r1
 c0079a2:	4402      	add	r2, r0
 c0079a4:	b510      	push	{r4, lr}
 c0079a6:	4290      	cmp	r0, r2
 c0079a8:	4603      	mov	r3, r0
 c0079aa:	d101      	bne.n	c0079b0 <memchr+0x10>
 c0079ac:	2300      	movs	r3, #0
 c0079ae:	e003      	b.n	c0079b8 <memchr+0x18>
 c0079b0:	781c      	ldrb	r4, [r3, #0]
 c0079b2:	3001      	adds	r0, #1
 c0079b4:	428c      	cmp	r4, r1
 c0079b6:	d1f6      	bne.n	c0079a6 <memchr+0x6>
 c0079b8:	4618      	mov	r0, r3
 c0079ba:	bd10      	pop	{r4, pc}

0c0079bc <memcpy>:
 c0079bc:	440a      	add	r2, r1
 c0079be:	1e43      	subs	r3, r0, #1
 c0079c0:	4291      	cmp	r1, r2
 c0079c2:	d100      	bne.n	c0079c6 <memcpy+0xa>
 c0079c4:	4770      	bx	lr
 c0079c6:	b510      	push	{r4, lr}
 c0079c8:	f811 4b01 	ldrb.w	r4, [r1], #1
 c0079cc:	4291      	cmp	r1, r2
 c0079ce:	f803 4f01 	strb.w	r4, [r3, #1]!
 c0079d2:	d1f9      	bne.n	c0079c8 <memcpy+0xc>
 c0079d4:	bd10      	pop	{r4, pc}

0c0079d6 <memmove>:
 c0079d6:	4288      	cmp	r0, r1
 c0079d8:	b510      	push	{r4, lr}
 c0079da:	eb01 0402 	add.w	r4, r1, r2
 c0079de:	d902      	bls.n	c0079e6 <memmove+0x10>
 c0079e0:	4284      	cmp	r4, r0
 c0079e2:	4623      	mov	r3, r4
 c0079e4:	d807      	bhi.n	c0079f6 <memmove+0x20>
 c0079e6:	1e43      	subs	r3, r0, #1
 c0079e8:	42a1      	cmp	r1, r4
 c0079ea:	d008      	beq.n	c0079fe <memmove+0x28>
 c0079ec:	f811 2b01 	ldrb.w	r2, [r1], #1
 c0079f0:	f803 2f01 	strb.w	r2, [r3, #1]!
 c0079f4:	e7f8      	b.n	c0079e8 <memmove+0x12>
 c0079f6:	4402      	add	r2, r0
 c0079f8:	4601      	mov	r1, r0
 c0079fa:	428a      	cmp	r2, r1
 c0079fc:	d100      	bne.n	c007a00 <memmove+0x2a>
 c0079fe:	bd10      	pop	{r4, pc}
 c007a00:	f813 4d01 	ldrb.w	r4, [r3, #-1]!
 c007a04:	f802 4d01 	strb.w	r4, [r2, #-1]!
 c007a08:	e7f7      	b.n	c0079fa <memmove+0x24>
	...

0c007a0c <__malloc_lock>:
 c007a0c:	4801      	ldr	r0, [pc, #4]	; (c007a14 <__malloc_lock+0x8>)
 c007a0e:	f7ff b877 	b.w	c006b00 <__retarget_lock_acquire_recursive>
 c007a12:	bf00      	nop
 c007a14:	30001860 	.word	0x30001860

0c007a18 <__malloc_unlock>:
 c007a18:	4801      	ldr	r0, [pc, #4]	; (c007a20 <__malloc_unlock+0x8>)
 c007a1a:	f7ff b872 	b.w	c006b02 <__retarget_lock_release_recursive>
 c007a1e:	bf00      	nop
 c007a20:	30001860 	.word	0x30001860

0c007a24 <_free_r>:
 c007a24:	b537      	push	{r0, r1, r2, r4, r5, lr}
 c007a26:	2900      	cmp	r1, #0
 c007a28:	d043      	beq.n	c007ab2 <_free_r+0x8e>
 c007a2a:	f851 3c04 	ldr.w	r3, [r1, #-4]
 c007a2e:	1f0c      	subs	r4, r1, #4
 c007a30:	9001      	str	r0, [sp, #4]
 c007a32:	2b00      	cmp	r3, #0
 c007a34:	bfb8      	it	lt
 c007a36:	18e4      	addlt	r4, r4, r3
 c007a38:	f7ff ffe8 	bl	c007a0c <__malloc_lock>
 c007a3c:	4a1e      	ldr	r2, [pc, #120]	; (c007ab8 <_free_r+0x94>)
 c007a3e:	9801      	ldr	r0, [sp, #4]
 c007a40:	6813      	ldr	r3, [r2, #0]
 c007a42:	b933      	cbnz	r3, c007a52 <_free_r+0x2e>
 c007a44:	6063      	str	r3, [r4, #4]
 c007a46:	6014      	str	r4, [r2, #0]
 c007a48:	b003      	add	sp, #12
 c007a4a:	e8bd 4030 	ldmia.w	sp!, {r4, r5, lr}
 c007a4e:	f7ff bfe3 	b.w	c007a18 <__malloc_unlock>
 c007a52:	42a3      	cmp	r3, r4
 c007a54:	d908      	bls.n	c007a68 <_free_r+0x44>
 c007a56:	6825      	ldr	r5, [r4, #0]
 c007a58:	1961      	adds	r1, r4, r5
 c007a5a:	428b      	cmp	r3, r1
 c007a5c:	bf01      	itttt	eq
 c007a5e:	6819      	ldreq	r1, [r3, #0]
 c007a60:	685b      	ldreq	r3, [r3, #4]
 c007a62:	1949      	addeq	r1, r1, r5
 c007a64:	6021      	streq	r1, [r4, #0]
 c007a66:	e7ed      	b.n	c007a44 <_free_r+0x20>
 c007a68:	461a      	mov	r2, r3
 c007a6a:	685b      	ldr	r3, [r3, #4]
 c007a6c:	b10b      	cbz	r3, c007a72 <_free_r+0x4e>
 c007a6e:	42a3      	cmp	r3, r4
 c007a70:	d9fa      	bls.n	c007a68 <_free_r+0x44>
 c007a72:	6811      	ldr	r1, [r2, #0]
 c007a74:	1855      	adds	r5, r2, r1
 c007a76:	42a5      	cmp	r5, r4
 c007a78:	d10b      	bne.n	c007a92 <_free_r+0x6e>
 c007a7a:	6824      	ldr	r4, [r4, #0]
 c007a7c:	4421      	add	r1, r4
 c007a7e:	1854      	adds	r4, r2, r1
 c007a80:	6011      	str	r1, [r2, #0]
 c007a82:	42a3      	cmp	r3, r4
 c007a84:	d1e0      	bne.n	c007a48 <_free_r+0x24>
 c007a86:	681c      	ldr	r4, [r3, #0]
 c007a88:	685b      	ldr	r3, [r3, #4]
 c007a8a:	4421      	add	r1, r4
 c007a8c:	6053      	str	r3, [r2, #4]
 c007a8e:	6011      	str	r1, [r2, #0]
 c007a90:	e7da      	b.n	c007a48 <_free_r+0x24>
 c007a92:	d902      	bls.n	c007a9a <_free_r+0x76>
 c007a94:	230c      	movs	r3, #12
 c007a96:	6003      	str	r3, [r0, #0]
 c007a98:	e7d6      	b.n	c007a48 <_free_r+0x24>
 c007a9a:	6825      	ldr	r5, [r4, #0]
 c007a9c:	1961      	adds	r1, r4, r5
 c007a9e:	428b      	cmp	r3, r1
 c007aa0:	bf02      	ittt	eq
 c007aa2:	6819      	ldreq	r1, [r3, #0]
 c007aa4:	685b      	ldreq	r3, [r3, #4]
 c007aa6:	1949      	addeq	r1, r1, r5
 c007aa8:	6063      	str	r3, [r4, #4]
 c007aaa:	bf08      	it	eq
 c007aac:	6021      	streq	r1, [r4, #0]
 c007aae:	6054      	str	r4, [r2, #4]
 c007ab0:	e7ca      	b.n	c007a48 <_free_r+0x24>
 c007ab2:	b003      	add	sp, #12
 c007ab4:	bd30      	pop	{r4, r5, pc}
 c007ab6:	bf00      	nop
 c007ab8:	30001864 	.word	0x30001864

0c007abc <_realloc_r>:
 c007abc:	e92d 41f0 	stmdb	sp!, {r4, r5, r6, r7, r8, lr}
 c007ac0:	4680      	mov	r8, r0
 c007ac2:	4614      	mov	r4, r2
 c007ac4:	460e      	mov	r6, r1
 c007ac6:	b921      	cbnz	r1, c007ad2 <_realloc_r+0x16>
 c007ac8:	4611      	mov	r1, r2
 c007aca:	e8bd 41f0 	ldmia.w	sp!, {r4, r5, r6, r7, r8, lr}
 c007ace:	f7ff b839 	b.w	c006b44 <_malloc_r>
 c007ad2:	b92a      	cbnz	r2, c007ae0 <_realloc_r+0x24>
 c007ad4:	4625      	mov	r5, r4
 c007ad6:	f7ff ffa5 	bl	c007a24 <_free_r>
 c007ada:	4628      	mov	r0, r5
 c007adc:	e8bd 81f0 	ldmia.w	sp!, {r4, r5, r6, r7, r8, pc}
 c007ae0:	f000 f850 	bl	c007b84 <_malloc_usable_size_r>
 c007ae4:	4284      	cmp	r4, r0
 c007ae6:	4607      	mov	r7, r0
 c007ae8:	d802      	bhi.n	c007af0 <_realloc_r+0x34>
 c007aea:	ebb4 0f50 	cmp.w	r4, r0, lsr #1
 c007aee:	d812      	bhi.n	c007b16 <_realloc_r+0x5a>
 c007af0:	4621      	mov	r1, r4
 c007af2:	4640      	mov	r0, r8
 c007af4:	f7ff f826 	bl	c006b44 <_malloc_r>
 c007af8:	4605      	mov	r5, r0
 c007afa:	2800      	cmp	r0, #0
 c007afc:	d0ed      	beq.n	c007ada <_realloc_r+0x1e>
 c007afe:	42bc      	cmp	r4, r7
 c007b00:	4622      	mov	r2, r4
 c007b02:	4631      	mov	r1, r6
 c007b04:	bf28      	it	cs
 c007b06:	463a      	movcs	r2, r7
 c007b08:	f7ff ff58 	bl	c0079bc <memcpy>
 c007b0c:	4631      	mov	r1, r6
 c007b0e:	4640      	mov	r0, r8
 c007b10:	f7ff ff88 	bl	c007a24 <_free_r>
 c007b14:	e7e1      	b.n	c007ada <_realloc_r+0x1e>
 c007b16:	4635      	mov	r5, r6
 c007b18:	e7df      	b.n	c007ada <_realloc_r+0x1e>
	...

0c007b1c <_read_r>:
 c007b1c:	b538      	push	{r3, r4, r5, lr}
 c007b1e:	4604      	mov	r4, r0
 c007b20:	4d06      	ldr	r5, [pc, #24]	; (c007b3c <_read_r+0x20>)
 c007b22:	4608      	mov	r0, r1
 c007b24:	4611      	mov	r1, r2
 c007b26:	2200      	movs	r2, #0
 c007b28:	602a      	str	r2, [r5, #0]
 c007b2a:	461a      	mov	r2, r3
 c007b2c:	f7fa f808 	bl	c001b40 <_read>
 c007b30:	1c43      	adds	r3, r0, #1
 c007b32:	d102      	bne.n	c007b3a <_read_r+0x1e>
 c007b34:	682b      	ldr	r3, [r5, #0]
 c007b36:	b103      	cbz	r3, c007b3a <_read_r+0x1e>
 c007b38:	6023      	str	r3, [r4, #0]
 c007b3a:	bd38      	pop	{r3, r4, r5, pc}
 c007b3c:	3000186c 	.word	0x3000186c

0c007b40 <_fstat_r>:
 c007b40:	b538      	push	{r3, r4, r5, lr}
 c007b42:	2300      	movs	r3, #0
 c007b44:	4d06      	ldr	r5, [pc, #24]	; (c007b60 <_fstat_r+0x20>)
 c007b46:	4604      	mov	r4, r0
 c007b48:	4608      	mov	r0, r1
 c007b4a:	4611      	mov	r1, r2
 c007b4c:	602b      	str	r3, [r5, #0]
 c007b4e:	f7fa f83c 	bl	c001bca <_fstat>
 c007b52:	1c43      	adds	r3, r0, #1
 c007b54:	d102      	bne.n	c007b5c <_fstat_r+0x1c>
 c007b56:	682b      	ldr	r3, [r5, #0]
 c007b58:	b103      	cbz	r3, c007b5c <_fstat_r+0x1c>
 c007b5a:	6023      	str	r3, [r4, #0]
 c007b5c:	bd38      	pop	{r3, r4, r5, pc}
 c007b5e:	bf00      	nop
 c007b60:	3000186c 	.word	0x3000186c

0c007b64 <_isatty_r>:
 c007b64:	b538      	push	{r3, r4, r5, lr}
 c007b66:	2300      	movs	r3, #0
 c007b68:	4d05      	ldr	r5, [pc, #20]	; (c007b80 <_isatty_r+0x1c>)
 c007b6a:	4604      	mov	r4, r0
 c007b6c:	4608      	mov	r0, r1
 c007b6e:	602b      	str	r3, [r5, #0]
 c007b70:	f7fa f83b 	bl	c001bea <_isatty>
 c007b74:	1c43      	adds	r3, r0, #1
 c007b76:	d102      	bne.n	c007b7e <_isatty_r+0x1a>
 c007b78:	682b      	ldr	r3, [r5, #0]
 c007b7a:	b103      	cbz	r3, c007b7e <_isatty_r+0x1a>
 c007b7c:	6023      	str	r3, [r4, #0]
 c007b7e:	bd38      	pop	{r3, r4, r5, pc}
 c007b80:	3000186c 	.word	0x3000186c

0c007b84 <_malloc_usable_size_r>:
 c007b84:	f851 3c04 	ldr.w	r3, [r1, #-4]
 c007b88:	1f18      	subs	r0, r3, #4
 c007b8a:	2b00      	cmp	r3, #0
 c007b8c:	bfbc      	itt	lt
 c007b8e:	580b      	ldrlt	r3, [r1, r0]
 c007b90:	18c0      	addlt	r0, r0, r3
 c007b92:	4770      	bx	lr

0c007b94 <_init>:
 c007b94:	b5f8      	push	{r3, r4, r5, r6, r7, lr}
 c007b96:	bf00      	nop
 c007b98:	bcf8      	pop	{r3, r4, r5, r6, r7}
 c007b9a:	bc08      	pop	{r3}
 c007b9c:	469e      	mov	lr, r3
 c007b9e:	4770      	bx	lr

0c007ba0 <_fini>:
 c007ba0:	b5f8      	push	{r3, r4, r5, r6, r7, lr}
 c007ba2:	bf00      	nop
 c007ba4:	bcf8      	pop	{r3, r4, r5, r6, r7}
 c007ba6:	bc08      	pop	{r3}
 c007ba8:	469e      	mov	lr, r3
 c007baa:	4770      	bx	lr

Disassembly of section .gnu.sgstubs:

0c03e000 <SECURE_print_Num>:
 c03e000:	e97f e97f 	sg
 c03e004:	f7c2 bfdc 	b.w	c000fc0 <__acle_se_SECURE_print_Num>

0c03e008 <SECURE_SystemCoreClockUpdate>:
 c03e008:	e97f e97f 	sg
 c03e00c:	f7c3 bf84 	b.w	c001f18 <__acle_se_SECURE_SystemCoreClockUpdate>

0c03e010 <SECURE_RegisterCallback>:
 c03e010:	e97f e97f 	sg
 c03e014:	f7c3 bb34 	b.w	c001680 <__acle_se_SECURE_RegisterCallback>

0c03e018 <SECURE_Send_Mem>:
 c03e018:	e97f e97f 	sg
 c03e01c:	f7c3 b816 	b.w	c00104c <__acle_se_SECURE_Send_Mem>

0c03e020 <SECURE_print_Log>:
 c03e020:	e97f e97f 	sg
 c03e024:	f7c2 bf8b 	b.w	c000f3e <__acle_se_SECURE_print_Log>
	...
