
Nonblocking_Memory_Forensics_Secure.elf:     file format elf32-littlearm

Sections:
Idx Name          Size      VMA       LMA       File off  Algn
  0 .isr_vector   000001f4  0c000000  0c000000  00010000  2**0
                  CONTENTS, ALLOC, LOAD, READONLY, DATA
  1 .text         00008624  0c0001f4  0c0001f4  000101f4  2**2
                  CONTENTS, ALLOC, LOAD, READONLY, CODE
  2 .rodata       00000608  0c008818  0c008818  00018818  2**2
                  CONTENTS, ALLOC, LOAD, READONLY, DATA
  3 .ARM.extab    00000000  0c008e20  0c008e20  0002e040  2**0
                  CONTENTS
  4 .ARM          00000008  0c008e20  0c008e20  00018e20  2**2
                  CONTENTS, ALLOC, LOAD, READONLY, DATA
  5 .preinit_array 00000000  0c008e28  0c008e28  0002e040  2**0
                  CONTENTS, ALLOC, LOAD, DATA
  6 .init_array   00000004  0c008e28  0c008e28  00018e28  2**2
                  CONTENTS, ALLOC, LOAD, DATA
  7 .fini_array   00000004  0c008e2c  0c008e2c  00018e2c  2**2
                  CONTENTS, ALLOC, LOAD, DATA
  8 .data         00000168  30000000  0c008e30  00020000  2**2
                  CONTENTS, ALLOC, LOAD, DATA
  9 .gnu.sgstubs  00000040  0c03e000  0c03e000  0002e000  2**5
                  CONTENTS, ALLOC, LOAD, READONLY, CODE
 10 .bss          00001b50  30000168  30000168  00030168  2**2
                  ALLOC
 11 ._user_heap_stack 00000600  30001cb8  30001cb8  00030168  2**0
                  ALLOC
 12 .ARM.attributes 00000036  00000000  00000000  0002e040  2**0
                  CONTENTS, READONLY
 13 .debug_info   00017052  00000000  00000000  0002e076  2**0
                  CONTENTS, READONLY, DEBUGGING, OCTETS
 14 .debug_abbrev 00003086  00000000  00000000  000450c8  2**0
                  CONTENTS, READONLY, DEBUGGING, OCTETS
 15 .debug_aranges 00001270  00000000  00000000  00048150  2**3
                  CONTENTS, READONLY, DEBUGGING, OCTETS
 16 .debug_ranges 00001160  00000000  00000000  000493c0  2**3
                  CONTENTS, READONLY, DEBUGGING, OCTETS
 17 .debug_macro  0002bde5  00000000  00000000  0004a520  2**0
                  CONTENTS, READONLY, DEBUGGING, OCTETS
 18 .debug_line   00017012  00000000  00000000  00076305  2**0
                  CONTENTS, READONLY, DEBUGGING, OCTETS
 19 .debug_str    0010e58f  00000000  00000000  0008d317  2**0
                  CONTENTS, READONLY, DEBUGGING, OCTETS
 20 .comment      00000050  00000000  00000000  0019b8a6  2**0
                  CONTENTS, READONLY
 21 .debug_frame  000054a4  00000000  00000000  0019b8f8  2**2
                  CONTENTS, READONLY, DEBUGGING, OCTETS

Disassembly of section .text:

0c0001f4 <__do_global_dtors_aux>:
 c0001f4:	b510      	push	{r4, lr}
 c0001f6:	4c05      	ldr	r4, [pc, #20]	; (c00020c <__do_global_dtors_aux+0x18>)
 c0001f8:	7823      	ldrb	r3, [r4, #0]
 c0001fa:	b933      	cbnz	r3, c00020a <__do_global_dtors_aux+0x16>
 c0001fc:	4b04      	ldr	r3, [pc, #16]	; (c000210 <__do_global_dtors_aux+0x1c>)
 c0001fe:	b113      	cbz	r3, c000206 <__do_global_dtors_aux+0x12>
 c000200:	4804      	ldr	r0, [pc, #16]	; (c000214 <__do_global_dtors_aux+0x20>)
 c000202:	e000      	b.n	c000206 <__do_global_dtors_aux+0x12>
 c000204:	bf00      	nop
 c000206:	2301      	movs	r3, #1
 c000208:	7023      	strb	r3, [r4, #0]
 c00020a:	bd10      	pop	{r4, pc}
 c00020c:	30000168 	.word	0x30000168
 c000210:	00000000 	.word	0x00000000
 c000214:	0c008800 	.word	0x0c008800

0c000218 <frame_dummy>:
 c000218:	b508      	push	{r3, lr}
 c00021a:	4b03      	ldr	r3, [pc, #12]	; (c000228 <frame_dummy+0x10>)
 c00021c:	b11b      	cbz	r3, c000226 <frame_dummy+0xe>
 c00021e:	4903      	ldr	r1, [pc, #12]	; (c00022c <frame_dummy+0x14>)
 c000220:	4803      	ldr	r0, [pc, #12]	; (c000230 <frame_dummy+0x18>)
 c000222:	e000      	b.n	c000226 <frame_dummy+0xe>
 c000224:	bf00      	nop
 c000226:	bd08      	pop	{r3, pc}
 c000228:	00000000 	.word	0x00000000
 c00022c:	3000016c 	.word	0x3000016c
 c000230:	0c008800 	.word	0x0c008800

0c000234 <cmse_check_address_range>:
 c000234:	43c3      	mvns	r3, r0
 c000236:	428b      	cmp	r3, r1
 c000238:	d36d      	bcc.n	c000316 <cmse_check_address_range+0xe2>
 c00023a:	f032 031f 	bics.w	r3, r2, #31
 c00023e:	d16a      	bne.n	c000316 <cmse_check_address_range+0xe2>
 c000240:	3901      	subs	r1, #1
 c000242:	f002 0314 	and.w	r3, r2, #20
 c000246:	4401      	add	r1, r0
 c000248:	b500      	push	{lr}
 c00024a:	ea81 0c00 	eor.w	ip, r1, r0
 c00024e:	2b14      	cmp	r3, #20
 c000250:	d80e      	bhi.n	c000270 <cmse_check_address_range+0x3c>
 c000252:	e8df f003 	tbb	[pc, r3]
 c000256:	0d3f      	.short	0x0d3f
 c000258:	0d480d0d 	.word	0x0d480d0d
 c00025c:	0d0d0d0d 	.word	0x0d0d0d0d
 c000260:	0d0d0d0d 	.word	0x0d0d0d0d
 c000264:	0d510d0d 	.word	0x0d510d0d
 c000268:	0d0d      	.short	0x0d0d
 c00026a:	10          	.byte	0x10
 c00026b:	00          	.byte	0x00
 c00026c:	02db      	lsls	r3, r3, #11
 c00026e:	d400      	bmi.n	c000272 <cmse_check_address_range+0x3e>
 c000270:	2000      	movs	r0, #0
 c000272:	f85d fb04 	ldr.w	pc, [sp], #4
 c000276:	f1bc 0f1f 	cmp.w	ip, #31
 c00027a:	e840 f3c0 	ttat	r3, r0
 c00027e:	d904      	bls.n	c00028a <cmse_check_address_range+0x56>
 c000280:	469c      	mov	ip, r3
 c000282:	e841 f3c0 	ttat	r3, r1
 c000286:	459c      	cmp	ip, r3
 c000288:	d1f2      	bne.n	c000270 <cmse_check_address_range+0x3c>
 c00028a:	f022 0214 	bic.w	r2, r2, #20
 c00028e:	3a01      	subs	r2, #1
 c000290:	2a0a      	cmp	r2, #10
 c000292:	d8ed      	bhi.n	c000270 <cmse_check_address_range+0x3c>
 c000294:	a101      	add	r1, pc, #4	; (adr r1, c00029c <cmse_check_address_range+0x68>)
 c000296:	f851 f022 	ldr.w	pc, [r1, r2, lsl #2]
 c00029a:	bf00      	nop
 c00029c:	0c0002cf 	.word	0x0c0002cf
 c0002a0:	0c000311 	.word	0x0c000311
 c0002a4:	0c0002c9 	.word	0x0c0002c9
 c0002a8:	0c000271 	.word	0x0c000271
 c0002ac:	0c000271 	.word	0x0c000271
 c0002b0:	0c000271 	.word	0x0c000271
 c0002b4:	0c000271 	.word	0x0c000271
 c0002b8:	0c00030b 	.word	0x0c00030b
 c0002bc:	0c0002cf 	.word	0x0c0002cf
 c0002c0:	0c00026d 	.word	0x0c00026d
 c0002c4:	0c0002c9 	.word	0x0c0002c9
 c0002c8:	029a      	lsls	r2, r3, #10
 c0002ca:	d4d2      	bmi.n	c000272 <cmse_check_address_range+0x3e>
 c0002cc:	e7d0      	b.n	c000270 <cmse_check_address_range+0x3c>
 c0002ce:	031a      	lsls	r2, r3, #12
 c0002d0:	d4cf      	bmi.n	c000272 <cmse_check_address_range+0x3e>
 c0002d2:	e7cd      	b.n	c000270 <cmse_check_address_range+0x3c>
 c0002d4:	f1bc 0f1f 	cmp.w	ip, #31
 c0002d8:	e840 f300 	tt	r3, r0
 c0002dc:	d9d5      	bls.n	c00028a <cmse_check_address_range+0x56>
 c0002de:	469c      	mov	ip, r3
 c0002e0:	e841 f300 	tt	r3, r1
 c0002e4:	e7cf      	b.n	c000286 <cmse_check_address_range+0x52>
 c0002e6:	f1bc 0f1f 	cmp.w	ip, #31
 c0002ea:	e840 f340 	ttt	r3, r0
 c0002ee:	d9cc      	bls.n	c00028a <cmse_check_address_range+0x56>
 c0002f0:	469c      	mov	ip, r3
 c0002f2:	e841 f340 	ttt	r3, r1
 c0002f6:	e7c6      	b.n	c000286 <cmse_check_address_range+0x52>
 c0002f8:	f1bc 0f1f 	cmp.w	ip, #31
 c0002fc:	e840 f380 	tta	r3, r0
 c000300:	d9c3      	bls.n	c00028a <cmse_check_address_range+0x56>
 c000302:	469c      	mov	ip, r3
 c000304:	e841 f380 	tta	r3, r1
 c000308:	e7bd      	b.n	c000286 <cmse_check_address_range+0x52>
 c00030a:	035b      	lsls	r3, r3, #13
 c00030c:	d5b0      	bpl.n	c000270 <cmse_check_address_range+0x3c>
 c00030e:	e7b0      	b.n	c000272 <cmse_check_address_range+0x3e>
 c000310:	0259      	lsls	r1, r3, #9
 c000312:	d5ae      	bpl.n	c000272 <cmse_check_address_range+0x3e>
 c000314:	e7ac      	b.n	c000270 <cmse_check_address_range+0x3c>
 c000316:	2000      	movs	r0, #0
 c000318:	4770      	bx	lr
 c00031a:	bf00      	nop

0c00031c <__aeabi_uldivmod>:
 c00031c:	b953      	cbnz	r3, c000334 <__aeabi_uldivmod+0x18>
 c00031e:	b94a      	cbnz	r2, c000334 <__aeabi_uldivmod+0x18>
 c000320:	2900      	cmp	r1, #0
 c000322:	bf08      	it	eq
 c000324:	2800      	cmpeq	r0, #0
 c000326:	bf1c      	itt	ne
 c000328:	f04f 31ff 	movne.w	r1, #4294967295
 c00032c:	f04f 30ff 	movne.w	r0, #4294967295
 c000330:	f000 b982 	b.w	c000638 <__aeabi_idiv0>
 c000334:	f1ad 0c08 	sub.w	ip, sp, #8
 c000338:	e96d ce04 	strd	ip, lr, [sp, #-16]!
 c00033c:	f000 f806 	bl	c00034c <__udivmoddi4>
 c000340:	f8dd e004 	ldr.w	lr, [sp, #4]
 c000344:	e9dd 2302 	ldrd	r2, r3, [sp, #8]
 c000348:	b004      	add	sp, #16
 c00034a:	4770      	bx	lr

0c00034c <__udivmoddi4>:
 c00034c:	e92d 4ff0 	stmdb	sp!, {r4, r5, r6, r7, r8, r9, sl, fp, lr}
 c000350:	9d09      	ldr	r5, [sp, #36]	; 0x24
 c000352:	4604      	mov	r4, r0
 c000354:	460f      	mov	r7, r1
 c000356:	2b00      	cmp	r3, #0
 c000358:	d148      	bne.n	c0003ec <__udivmoddi4+0xa0>
 c00035a:	428a      	cmp	r2, r1
 c00035c:	4694      	mov	ip, r2
 c00035e:	d961      	bls.n	c000424 <__udivmoddi4+0xd8>
 c000360:	fab2 f382 	clz	r3, r2
 c000364:	b143      	cbz	r3, c000378 <__udivmoddi4+0x2c>
 c000366:	f1c3 0120 	rsb	r1, r3, #32
 c00036a:	409f      	lsls	r7, r3
 c00036c:	fa02 fc03 	lsl.w	ip, r2, r3
 c000370:	409c      	lsls	r4, r3
 c000372:	fa20 f101 	lsr.w	r1, r0, r1
 c000376:	430f      	orrs	r7, r1
 c000378:	ea4f 411c 	mov.w	r1, ip, lsr #16
 c00037c:	fa1f fe8c 	uxth.w	lr, ip
 c000380:	0c22      	lsrs	r2, r4, #16
 c000382:	fbb7 f6f1 	udiv	r6, r7, r1
 c000386:	fb01 7716 	mls	r7, r1, r6, r7
 c00038a:	fb06 f00e 	mul.w	r0, r6, lr
 c00038e:	ea42 4207 	orr.w	r2, r2, r7, lsl #16
 c000392:	4290      	cmp	r0, r2
 c000394:	d908      	bls.n	c0003a8 <__udivmoddi4+0x5c>
 c000396:	eb1c 0202 	adds.w	r2, ip, r2
 c00039a:	f106 37ff 	add.w	r7, r6, #4294967295
 c00039e:	d202      	bcs.n	c0003a6 <__udivmoddi4+0x5a>
 c0003a0:	4290      	cmp	r0, r2
 c0003a2:	f200 8137 	bhi.w	c000614 <__udivmoddi4+0x2c8>
 c0003a6:	463e      	mov	r6, r7
 c0003a8:	1a12      	subs	r2, r2, r0
 c0003aa:	b2a4      	uxth	r4, r4
 c0003ac:	fbb2 f0f1 	udiv	r0, r2, r1
 c0003b0:	fb01 2210 	mls	r2, r1, r0, r2
 c0003b4:	fb00 fe0e 	mul.w	lr, r0, lr
 c0003b8:	ea44 4402 	orr.w	r4, r4, r2, lsl #16
 c0003bc:	45a6      	cmp	lr, r4
 c0003be:	d908      	bls.n	c0003d2 <__udivmoddi4+0x86>
 c0003c0:	eb1c 0404 	adds.w	r4, ip, r4
 c0003c4:	f100 32ff 	add.w	r2, r0, #4294967295
 c0003c8:	d202      	bcs.n	c0003d0 <__udivmoddi4+0x84>
 c0003ca:	45a6      	cmp	lr, r4
 c0003cc:	f200 811c 	bhi.w	c000608 <__udivmoddi4+0x2bc>
 c0003d0:	4610      	mov	r0, r2
 c0003d2:	ea40 4006 	orr.w	r0, r0, r6, lsl #16
 c0003d6:	eba4 040e 	sub.w	r4, r4, lr
 c0003da:	2600      	movs	r6, #0
 c0003dc:	b11d      	cbz	r5, c0003e6 <__udivmoddi4+0x9a>
 c0003de:	40dc      	lsrs	r4, r3
 c0003e0:	2300      	movs	r3, #0
 c0003e2:	e9c5 4300 	strd	r4, r3, [r5]
 c0003e6:	4631      	mov	r1, r6
 c0003e8:	e8bd 8ff0 	ldmia.w	sp!, {r4, r5, r6, r7, r8, r9, sl, fp, pc}
 c0003ec:	428b      	cmp	r3, r1
 c0003ee:	d909      	bls.n	c000404 <__udivmoddi4+0xb8>
 c0003f0:	2d00      	cmp	r5, #0
 c0003f2:	f000 80fd 	beq.w	c0005f0 <__udivmoddi4+0x2a4>
 c0003f6:	2600      	movs	r6, #0
 c0003f8:	e9c5 0100 	strd	r0, r1, [r5]
 c0003fc:	4630      	mov	r0, r6
 c0003fe:	4631      	mov	r1, r6
 c000400:	e8bd 8ff0 	ldmia.w	sp!, {r4, r5, r6, r7, r8, r9, sl, fp, pc}
 c000404:	fab3 f683 	clz	r6, r3
 c000408:	2e00      	cmp	r6, #0
 c00040a:	d14b      	bne.n	c0004a4 <__udivmoddi4+0x158>
 c00040c:	428b      	cmp	r3, r1
 c00040e:	f0c0 80f2 	bcc.w	c0005f6 <__udivmoddi4+0x2aa>
 c000412:	4282      	cmp	r2, r0
 c000414:	f240 80ef 	bls.w	c0005f6 <__udivmoddi4+0x2aa>
 c000418:	4630      	mov	r0, r6
 c00041a:	2d00      	cmp	r5, #0
 c00041c:	d0e3      	beq.n	c0003e6 <__udivmoddi4+0x9a>
 c00041e:	e9c5 4700 	strd	r4, r7, [r5]
 c000422:	e7e0      	b.n	c0003e6 <__udivmoddi4+0x9a>
 c000424:	b902      	cbnz	r2, c000428 <__udivmoddi4+0xdc>
 c000426:	deff      	udf	#255	; 0xff
 c000428:	fab2 f382 	clz	r3, r2
 c00042c:	2b00      	cmp	r3, #0
 c00042e:	f040 809d 	bne.w	c00056c <__udivmoddi4+0x220>
 c000432:	1a89      	subs	r1, r1, r2
 c000434:	ea4f 4e12 	mov.w	lr, r2, lsr #16
 c000438:	b297      	uxth	r7, r2
 c00043a:	2601      	movs	r6, #1
 c00043c:	0c20      	lsrs	r0, r4, #16
 c00043e:	fbb1 f2fe 	udiv	r2, r1, lr
 c000442:	fb0e 1112 	mls	r1, lr, r2, r1
 c000446:	ea40 4101 	orr.w	r1, r0, r1, lsl #16
 c00044a:	fb07 f002 	mul.w	r0, r7, r2
 c00044e:	4288      	cmp	r0, r1
 c000450:	d90f      	bls.n	c000472 <__udivmoddi4+0x126>
 c000452:	eb1c 0101 	adds.w	r1, ip, r1
 c000456:	f102 38ff 	add.w	r8, r2, #4294967295
 c00045a:	bf2c      	ite	cs
 c00045c:	f04f 0901 	movcs.w	r9, #1
 c000460:	f04f 0900 	movcc.w	r9, #0
 c000464:	4288      	cmp	r0, r1
 c000466:	d903      	bls.n	c000470 <__udivmoddi4+0x124>
 c000468:	f1b9 0f00 	cmp.w	r9, #0
 c00046c:	f000 80cf 	beq.w	c00060e <__udivmoddi4+0x2c2>
 c000470:	4642      	mov	r2, r8
 c000472:	1a09      	subs	r1, r1, r0
 c000474:	b2a4      	uxth	r4, r4
 c000476:	fbb1 f0fe 	udiv	r0, r1, lr
 c00047a:	fb0e 1110 	mls	r1, lr, r0, r1
 c00047e:	fb00 f707 	mul.w	r7, r0, r7
 c000482:	ea44 4401 	orr.w	r4, r4, r1, lsl #16
 c000486:	42a7      	cmp	r7, r4
 c000488:	d908      	bls.n	c00049c <__udivmoddi4+0x150>
 c00048a:	eb1c 0404 	adds.w	r4, ip, r4
 c00048e:	f100 31ff 	add.w	r1, r0, #4294967295
 c000492:	d202      	bcs.n	c00049a <__udivmoddi4+0x14e>
 c000494:	42a7      	cmp	r7, r4
 c000496:	f200 80b4 	bhi.w	c000602 <__udivmoddi4+0x2b6>
 c00049a:	4608      	mov	r0, r1
 c00049c:	1be4      	subs	r4, r4, r7
 c00049e:	ea40 4002 	orr.w	r0, r0, r2, lsl #16
 c0004a2:	e79b      	b.n	c0003dc <__udivmoddi4+0x90>
 c0004a4:	f1c6 0720 	rsb	r7, r6, #32
 c0004a8:	40b3      	lsls	r3, r6
 c0004aa:	fa01 f406 	lsl.w	r4, r1, r6
 c0004ae:	fa22 fc07 	lsr.w	ip, r2, r7
 c0004b2:	40f9      	lsrs	r1, r7
 c0004b4:	40b2      	lsls	r2, r6
 c0004b6:	ea4c 0c03 	orr.w	ip, ip, r3
 c0004ba:	fa20 f307 	lsr.w	r3, r0, r7
 c0004be:	ea4f 491c 	mov.w	r9, ip, lsr #16
 c0004c2:	431c      	orrs	r4, r3
 c0004c4:	fa1f fe8c 	uxth.w	lr, ip
 c0004c8:	fa00 f306 	lsl.w	r3, r0, r6
 c0004cc:	0c20      	lsrs	r0, r4, #16
 c0004ce:	fbb1 f8f9 	udiv	r8, r1, r9
 c0004d2:	fb09 1118 	mls	r1, r9, r8, r1
 c0004d6:	ea40 4101 	orr.w	r1, r0, r1, lsl #16
 c0004da:	fb08 f00e 	mul.w	r0, r8, lr
 c0004de:	4288      	cmp	r0, r1
 c0004e0:	d90f      	bls.n	c000502 <__udivmoddi4+0x1b6>
 c0004e2:	eb1c 0101 	adds.w	r1, ip, r1
 c0004e6:	f108 3aff 	add.w	sl, r8, #4294967295
 c0004ea:	bf2c      	ite	cs
 c0004ec:	f04f 0b01 	movcs.w	fp, #1
 c0004f0:	f04f 0b00 	movcc.w	fp, #0
 c0004f4:	4288      	cmp	r0, r1
 c0004f6:	d903      	bls.n	c000500 <__udivmoddi4+0x1b4>
 c0004f8:	f1bb 0f00 	cmp.w	fp, #0
 c0004fc:	f000 808d 	beq.w	c00061a <__udivmoddi4+0x2ce>
 c000500:	46d0      	mov	r8, sl
 c000502:	1a09      	subs	r1, r1, r0
 c000504:	b2a4      	uxth	r4, r4
 c000506:	fbb1 f0f9 	udiv	r0, r1, r9
 c00050a:	fb09 1110 	mls	r1, r9, r0, r1
 c00050e:	fb00 fe0e 	mul.w	lr, r0, lr
 c000512:	ea44 4101 	orr.w	r1, r4, r1, lsl #16
 c000516:	458e      	cmp	lr, r1
 c000518:	d907      	bls.n	c00052a <__udivmoddi4+0x1de>
 c00051a:	eb1c 0101 	adds.w	r1, ip, r1
 c00051e:	f100 34ff 	add.w	r4, r0, #4294967295
 c000522:	d201      	bcs.n	c000528 <__udivmoddi4+0x1dc>
 c000524:	458e      	cmp	lr, r1
 c000526:	d87f      	bhi.n	c000628 <__udivmoddi4+0x2dc>
 c000528:	4620      	mov	r0, r4
 c00052a:	ea40 4008 	orr.w	r0, r0, r8, lsl #16
 c00052e:	eba1 010e 	sub.w	r1, r1, lr
 c000532:	fba0 9802 	umull	r9, r8, r0, r2
 c000536:	4541      	cmp	r1, r8
 c000538:	464c      	mov	r4, r9
 c00053a:	46c6      	mov	lr, r8
 c00053c:	d302      	bcc.n	c000544 <__udivmoddi4+0x1f8>
 c00053e:	d106      	bne.n	c00054e <__udivmoddi4+0x202>
 c000540:	454b      	cmp	r3, r9
 c000542:	d204      	bcs.n	c00054e <__udivmoddi4+0x202>
 c000544:	3801      	subs	r0, #1
 c000546:	ebb9 0402 	subs.w	r4, r9, r2
 c00054a:	eb68 0e0c 	sbc.w	lr, r8, ip
 c00054e:	2d00      	cmp	r5, #0
 c000550:	d070      	beq.n	c000634 <__udivmoddi4+0x2e8>
 c000552:	1b1a      	subs	r2, r3, r4
 c000554:	eb61 010e 	sbc.w	r1, r1, lr
 c000558:	fa22 f306 	lsr.w	r3, r2, r6
 c00055c:	fa01 f707 	lsl.w	r7, r1, r7
 c000560:	40f1      	lsrs	r1, r6
 c000562:	2600      	movs	r6, #0
 c000564:	431f      	orrs	r7, r3
 c000566:	e9c5 7100 	strd	r7, r1, [r5]
 c00056a:	e73c      	b.n	c0003e6 <__udivmoddi4+0x9a>
 c00056c:	fa02 fc03 	lsl.w	ip, r2, r3
 c000570:	f1c3 0020 	rsb	r0, r3, #32
 c000574:	fa01 f203 	lsl.w	r2, r1, r3
 c000578:	fa21 f600 	lsr.w	r6, r1, r0
 c00057c:	ea4f 4e1c 	mov.w	lr, ip, lsr #16
 c000580:	fa24 f100 	lsr.w	r1, r4, r0
 c000584:	fa1f f78c 	uxth.w	r7, ip
 c000588:	409c      	lsls	r4, r3
 c00058a:	4311      	orrs	r1, r2
 c00058c:	fbb6 f0fe 	udiv	r0, r6, lr
 c000590:	0c0a      	lsrs	r2, r1, #16
 c000592:	fb0e 6610 	mls	r6, lr, r0, r6
 c000596:	ea42 4206 	orr.w	r2, r2, r6, lsl #16
 c00059a:	fb00 f607 	mul.w	r6, r0, r7
 c00059e:	4296      	cmp	r6, r2
 c0005a0:	d90e      	bls.n	c0005c0 <__udivmoddi4+0x274>
 c0005a2:	eb1c 0202 	adds.w	r2, ip, r2
 c0005a6:	f100 38ff 	add.w	r8, r0, #4294967295
 c0005aa:	bf2c      	ite	cs
 c0005ac:	f04f 0901 	movcs.w	r9, #1
 c0005b0:	f04f 0900 	movcc.w	r9, #0
 c0005b4:	4296      	cmp	r6, r2
 c0005b6:	d902      	bls.n	c0005be <__udivmoddi4+0x272>
 c0005b8:	f1b9 0f00 	cmp.w	r9, #0
 c0005bc:	d031      	beq.n	c000622 <__udivmoddi4+0x2d6>
 c0005be:	4640      	mov	r0, r8
 c0005c0:	1b92      	subs	r2, r2, r6
 c0005c2:	b289      	uxth	r1, r1
 c0005c4:	fbb2 f6fe 	udiv	r6, r2, lr
 c0005c8:	fb0e 2216 	mls	r2, lr, r6, r2
 c0005cc:	ea41 4102 	orr.w	r1, r1, r2, lsl #16
 c0005d0:	fb06 f207 	mul.w	r2, r6, r7
 c0005d4:	428a      	cmp	r2, r1
 c0005d6:	d907      	bls.n	c0005e8 <__udivmoddi4+0x29c>
 c0005d8:	eb1c 0101 	adds.w	r1, ip, r1
 c0005dc:	f106 38ff 	add.w	r8, r6, #4294967295
 c0005e0:	d201      	bcs.n	c0005e6 <__udivmoddi4+0x29a>
 c0005e2:	428a      	cmp	r2, r1
 c0005e4:	d823      	bhi.n	c00062e <__udivmoddi4+0x2e2>
 c0005e6:	4646      	mov	r6, r8
 c0005e8:	1a89      	subs	r1, r1, r2
 c0005ea:	ea46 4600 	orr.w	r6, r6, r0, lsl #16
 c0005ee:	e725      	b.n	c00043c <__udivmoddi4+0xf0>
 c0005f0:	462e      	mov	r6, r5
 c0005f2:	4628      	mov	r0, r5
 c0005f4:	e6f7      	b.n	c0003e6 <__udivmoddi4+0x9a>
 c0005f6:	1a84      	subs	r4, r0, r2
 c0005f8:	eb61 0303 	sbc.w	r3, r1, r3
 c0005fc:	2001      	movs	r0, #1
 c0005fe:	461f      	mov	r7, r3
 c000600:	e70b      	b.n	c00041a <__udivmoddi4+0xce>
 c000602:	4464      	add	r4, ip
 c000604:	3802      	subs	r0, #2
 c000606:	e749      	b.n	c00049c <__udivmoddi4+0x150>
 c000608:	4464      	add	r4, ip
 c00060a:	3802      	subs	r0, #2
 c00060c:	e6e1      	b.n	c0003d2 <__udivmoddi4+0x86>
 c00060e:	3a02      	subs	r2, #2
 c000610:	4461      	add	r1, ip
 c000612:	e72e      	b.n	c000472 <__udivmoddi4+0x126>
 c000614:	3e02      	subs	r6, #2
 c000616:	4462      	add	r2, ip
 c000618:	e6c6      	b.n	c0003a8 <__udivmoddi4+0x5c>
 c00061a:	f1a8 0802 	sub.w	r8, r8, #2
 c00061e:	4461      	add	r1, ip
 c000620:	e76f      	b.n	c000502 <__udivmoddi4+0x1b6>
 c000622:	3802      	subs	r0, #2
 c000624:	4462      	add	r2, ip
 c000626:	e7cb      	b.n	c0005c0 <__udivmoddi4+0x274>
 c000628:	3802      	subs	r0, #2
 c00062a:	4461      	add	r1, ip
 c00062c:	e77d      	b.n	c00052a <__udivmoddi4+0x1de>
 c00062e:	3e02      	subs	r6, #2
 c000630:	4461      	add	r1, ip
 c000632:	e7d9      	b.n	c0005e8 <__udivmoddi4+0x29c>
 c000634:	462e      	mov	r6, r5
 c000636:	e6d6      	b.n	c0003e6 <__udivmoddi4+0x9a>

0c000638 <__aeabi_idiv0>:
 c000638:	4770      	bx	lr
 c00063a:	bf00      	nop

0c00063c <main>:
/**
  * @brief  The application entry point.
  * @retval int
  */
int main(void)
{
 c00063c:	b580      	push	{r7, lr}
 c00063e:	b086      	sub	sp, #24
 c000640:	af02      	add	r7, sp, #8
  /* USER CODE END 1 */

  /* MCU Configuration--------------------------------------------------------*/

  /* Reset of all peripherals, Initializes the Flash interface and the Systick. */
  HAL_Init();
 c000642:	f001 fec4 	bl	c0023ce <HAL_Init>
  /* USER CODE BEGIN Init */

  /* USER CODE END Init */

  /* Configure the system clock */
  SystemClock_Config();
 c000646:	f000 f8a1 	bl	c00078c <SystemClock_Config>
  /* GTZC initialisation */
  MX_GTZC_S_Init();
 c00064a:	f000 f8f5 	bl	c000838 <MX_GTZC_S_Init>
  /* USER CODE BEGIN SysInit */

  /* USER CODE END SysInit */

  /* Initialize all configured peripherals */
  MX_GPIO_Init();
 c00064e:	f000 fb47 	bl	c000ce0 <MX_GPIO_Init>
  MX_DMA_Init();
 c000652:	f000 fa63 	bl	c000b1c <MX_DMA_Init>
  MX_ICACHE_Init();
 c000656:	f000 f9a5 	bl	c0009a4 <MX_ICACHE_Init>
  MX_SPI3_Init();
 c00065a:	f000 f9d3 	bl	c000a04 <MX_SPI3_Init>
  MX_USART1_UART_Init();
 c00065e:	f000 fa0f 	bl	c000a80 <MX_USART1_UART_Init>
  //start watchdog
  MX_IWDG_Init();
 c000662:	f000 f9b3 	bl	c0009cc <MX_IWDG_Init>
  MX_HASH_Init();
 c000666:	f000 f98b 	bl	c000980 <MX_HASH_Init>

  /* USER CODE BEGIN 2 */
  HAL_DMA_RegisterCallback(&hdma_memtomem_dma1_channel1, HAL_DMA_XFER_CPLT_CB_ID, NonsecureToSecureTransferComplete);
 c00066a:	4a36      	ldr	r2, [pc, #216]	; (c000744 <main+0x108>)
 c00066c:	2100      	movs	r1, #0
 c00066e:	4836      	ldr	r0, [pc, #216]	; (c000748 <main+0x10c>)
 c000670:	f002 fa7c 	bl	c002b6c <HAL_DMA_RegisterCallback>
  HAL_DMA_RegisterCallback(&hdma_memtomem_dma1_channel1, HAL_DMA_XFER_ERROR_CB_ID, NonsecureToSecureTransferError);
 c000674:	4a35      	ldr	r2, [pc, #212]	; (c00074c <main+0x110>)
 c000676:	2104      	movs	r1, #4
 c000678:	4833      	ldr	r0, [pc, #204]	; (c000748 <main+0x10c>)
 c00067a:	f002 fa77 	bl	c002b6c <HAL_DMA_RegisterCallback>
  printf("Watchdog reset...\n\r");
 c00067e:	4834      	ldr	r0, [pc, #208]	; (c000750 <main+0x114>)
 c000680:	f006 ff32 	bl	c0074e8 <iprintf>

  /************* NOT USED *******************/
  /* DMA1 Channel4: Select Callbacks functions called after Transfer complete and Transfer error */ /*NOT USED***********/
  HAL_DMA_RegisterCallback(&hdma_memtomem_dma1_channel4, HAL_DMA_XFER_CPLT_CB_ID, SecureToSecureTransferComplete);
 c000684:	4a33      	ldr	r2, [pc, #204]	; (c000754 <main+0x118>)
 c000686:	2100      	movs	r1, #0
 c000688:	4833      	ldr	r0, [pc, #204]	; (c000758 <main+0x11c>)
 c00068a:	f002 fa6f 	bl	c002b6c <HAL_DMA_RegisterCallback>
  HAL_DMA_RegisterCallback(&hdma_memtomem_dma1_channel4, HAL_DMA_XFER_ERROR_CB_ID, SecureToSecureTransferError);
 c00068e:	4a33      	ldr	r2, [pc, #204]	; (c00075c <main+0x120>)
 c000690:	2104      	movs	r1, #4
 c000692:	4831      	ldr	r0, [pc, #196]	; (c000758 <main+0x11c>)
 c000694:	f002 fa6a 	bl	c002b6c <HAL_DMA_RegisterCallback>


  /******************************* BUILD THE INITIAL MEMORY HASH TABLE *********************************************/
  printf("SECURE START: \n\r");
 c000698:	4831      	ldr	r0, [pc, #196]	; (c000760 <main+0x124>)
 c00069a:	f006 ff25 	bl	c0074e8 <iprintf>
  uint32_t* current_address = (uint32_t*) NSEC_MEM_START;
 c00069e:	4b31      	ldr	r3, [pc, #196]	; (c000764 <main+0x128>)
 c0006a0:	60fb      	str	r3, [r7, #12]
  int count = 0;
 c0006a2:	2300      	movs	r3, #0
 c0006a4:	60bb      	str	r3, [r7, #8]
  while((uint32_t) current_address <= NSEC_MEM_END && (NSEC_MEM_END - (uint32_t)current_address) +1 >= BUFFER_SIZE){
 c0006a6:	e040      	b.n	c00072a <main+0xee>
	  //get the current block
	  if(HAL_DMA_Start_IT(&hdma_memtomem_dma1_channel1, (uint32_t)current_address, (uint32_t)&SEC_Mem_Buffer, BUFFER_SIZE/4) != HAL_OK){
 c0006a8:	68f9      	ldr	r1, [r7, #12]
 c0006aa:	4a2f      	ldr	r2, [pc, #188]	; (c000768 <main+0x12c>)
 c0006ac:	f44f 7380 	mov.w	r3, #256	; 0x100
 c0006b0:	4825      	ldr	r0, [pc, #148]	; (c000748 <main+0x10c>)
 c0006b2:	f002 f8df 	bl	c002874 <HAL_DMA_Start_IT>
 c0006b6:	4603      	mov	r3, r0
 c0006b8:	2b00      	cmp	r3, #0
 c0006ba:	d002      	beq.n	c0006c2 <main+0x86>
	 	  printf("could not start the secure to secure memory transfer.\n\r");
 c0006bc:	482b      	ldr	r0, [pc, #172]	; (c00076c <main+0x130>)
 c0006be:	f006 ff13 	bl	c0074e8 <iprintf>
	   }
	  //wait for completion
	  while ((NonsecureToSecureTransferCompleteDetected == 0) &&
 c0006c2:	bf00      	nop
 c0006c4:	4b2a      	ldr	r3, [pc, #168]	; (c000770 <main+0x134>)
 c0006c6:	681b      	ldr	r3, [r3, #0]
 c0006c8:	2b00      	cmp	r3, #0
 c0006ca:	d103      	bne.n	c0006d4 <main+0x98>
	         (NonsecureToSecureTransferErrorDetected == 0));
 c0006cc:	4b29      	ldr	r3, [pc, #164]	; (c000774 <main+0x138>)
 c0006ce:	681b      	ldr	r3, [r3, #0]
	  while ((NonsecureToSecureTransferCompleteDetected == 0) &&
 c0006d0:	2b00      	cmp	r3, #0
 c0006d2:	d0f7      	beq.n	c0006c4 <main+0x88>

	  //compute the hash
	  if(HAL_HASH_MD5_Start(&hhash, (uint8_t*)SEC_Mem_Buffer, BUFFER_SIZE, SEC_Mem_Digest, 0xff) != HAL_OK){
 c0006d4:	23ff      	movs	r3, #255	; 0xff
 c0006d6:	9300      	str	r3, [sp, #0]
 c0006d8:	4b27      	ldr	r3, [pc, #156]	; (c000778 <main+0x13c>)
 c0006da:	f44f 6280 	mov.w	r2, #1024	; 0x400
 c0006de:	4922      	ldr	r1, [pc, #136]	; (c000768 <main+0x12c>)
 c0006e0:	4826      	ldr	r0, [pc, #152]	; (c00077c <main+0x140>)
 c0006e2:	f002 ff3f 	bl	c003564 <HAL_HASH_MD5_Start>
 c0006e6:	4603      	mov	r3, r0
 c0006e8:	2b00      	cmp	r3, #0
 c0006ea:	d002      	beq.n	c0006f2 <main+0xb6>
		  printf("There's an issue with the hash operation\n\r");
 c0006ec:	4824      	ldr	r0, [pc, #144]	; (c000780 <main+0x144>)
 c0006ee:	f006 fefb 	bl	c0074e8 <iprintf>
	  }

	  //store the hash in the memory hashes buffer
	  for(int i = 0; i < 16; i++){
 c0006f2:	2300      	movs	r3, #0
 c0006f4:	607b      	str	r3, [r7, #4]
 c0006f6:	e00e      	b.n	c000716 <main+0xda>
		  SEC_Mem_Hashes[count][i] = SEC_Mem_Digest[i];
 c0006f8:	4a1f      	ldr	r2, [pc, #124]	; (c000778 <main+0x13c>)
 c0006fa:	687b      	ldr	r3, [r7, #4]
 c0006fc:	4413      	add	r3, r2
 c0006fe:	7819      	ldrb	r1, [r3, #0]
 c000700:	4a20      	ldr	r2, [pc, #128]	; (c000784 <main+0x148>)
 c000702:	68bb      	ldr	r3, [r7, #8]
 c000704:	011b      	lsls	r3, r3, #4
 c000706:	441a      	add	r2, r3
 c000708:	687b      	ldr	r3, [r7, #4]
 c00070a:	4413      	add	r3, r2
 c00070c:	460a      	mov	r2, r1
 c00070e:	701a      	strb	r2, [r3, #0]
	  for(int i = 0; i < 16; i++){
 c000710:	687b      	ldr	r3, [r7, #4]
 c000712:	3301      	adds	r3, #1
 c000714:	607b      	str	r3, [r7, #4]
 c000716:	687b      	ldr	r3, [r7, #4]
 c000718:	2b0f      	cmp	r3, #15
 c00071a:	dded      	ble.n	c0006f8 <main+0xbc>
	  }

	  //increment variables
	  count++;
 c00071c:	68bb      	ldr	r3, [r7, #8]
 c00071e:	3301      	adds	r3, #1
 c000720:	60bb      	str	r3, [r7, #8]
	  current_address += BUFFER_SIZE/4;
 c000722:	68fb      	ldr	r3, [r7, #12]
 c000724:	f503 6380 	add.w	r3, r3, #1024	; 0x400
 c000728:	60fb      	str	r3, [r7, #12]
  while((uint32_t) current_address <= NSEC_MEM_END && (NSEC_MEM_END - (uint32_t)current_address) +1 >= BUFFER_SIZE){
 c00072a:	68fb      	ldr	r3, [r7, #12]
 c00072c:	4a16      	ldr	r2, [pc, #88]	; (c000788 <main+0x14c>)
 c00072e:	4293      	cmp	r3, r2
 c000730:	d807      	bhi.n	c000742 <main+0x106>
 c000732:	68fb      	ldr	r3, [r7, #12]
 c000734:	f1c3 6300 	rsb	r3, r3, #134217728	; 0x8000000
 c000738:	f503 2300 	add.w	r3, r3, #524288	; 0x80000
 c00073c:	f5b3 6f80 	cmp.w	r3, #1024	; 0x400
 c000740:	d2b2      	bcs.n	c0006a8 <main+0x6c>
//  NonSecure_Init();

  /* Non-secure software does not return, this code is not executed */
  /* Infinite loop */
  /* USER CODE BEGIN WHILE */
  while (1)
 c000742:	e7fe      	b.n	c000742 <main+0x106>
 c000744:	0c000ed5 	.word	0x0c000ed5
 c000748:	300003a0 	.word	0x300003a0
 c00074c:	0c000ef5 	.word	0x0c000ef5
 c000750:	0c008818 	.word	0x0c008818
 c000754:	0c000f15 	.word	0x0c000f15
 c000758:	30000408 	.word	0x30000408
 c00075c:	0c000f35 	.word	0x0c000f35
 c000760:	0c00882c 	.word	0x0c00882c
 c000764:	08040000 	.word	0x08040000
 c000768:	30000484 	.word	0x30000484
 c00076c:	0c008840 	.word	0x0c008840
 c000770:	30000474 	.word	0x30000474
 c000774:	30000478 	.word	0x30000478
 c000778:	30000884 	.word	0x30000884
 c00077c:	30000184 	.word	0x30000184
 c000780:	0c008878 	.word	0x0c008878
 c000784:	30000894 	.word	0x30000894
 c000788:	0807ffff 	.word	0x0807ffff

0c00078c <SystemClock_Config>:
/**
  * @brief System Clock Configuration
  * @retval None
  */
void SystemClock_Config(void)
{
 c00078c:	b580      	push	{r7, lr}
 c00078e:	b098      	sub	sp, #96	; 0x60
 c000790:	af00      	add	r7, sp, #0
  RCC_OscInitTypeDef RCC_OscInitStruct = {0};
 c000792:	f107 0318 	add.w	r3, r7, #24
 c000796:	2248      	movs	r2, #72	; 0x48
 c000798:	2100      	movs	r1, #0
 c00079a:	4618      	mov	r0, r3
 c00079c:	f006 fe9c 	bl	c0074d8 <memset>
  RCC_ClkInitTypeDef RCC_ClkInitStruct = {0};
 c0007a0:	1d3b      	adds	r3, r7, #4
 c0007a2:	2200      	movs	r2, #0
 c0007a4:	601a      	str	r2, [r3, #0]
 c0007a6:	605a      	str	r2, [r3, #4]
 c0007a8:	609a      	str	r2, [r3, #8]
 c0007aa:	60da      	str	r2, [r3, #12]
 c0007ac:	611a      	str	r2, [r3, #16]

  /** Configure the main internal regulator output voltage
  */
  if (HAL_PWREx_ControlVoltageScaling(PWR_REGULATOR_VOLTAGE_SCALE0) != HAL_OK)
 c0007ae:	2000      	movs	r0, #0
 c0007b0:	f003 fa8a 	bl	c003cc8 <HAL_PWREx_ControlVoltageScaling>
 c0007b4:	4603      	mov	r3, r0
 c0007b6:	2b00      	cmp	r3, #0
 c0007b8:	d001      	beq.n	c0007be <SystemClock_Config+0x32>
  {
    Error_Handler();
 c0007ba:	f000 fbcb 	bl	c000f54 <Error_Handler>
  }

  /** Initializes the RCC Oscillators according to the specified parameters
  * in the RCC_OscInitTypeDef structure.
  */
  RCC_OscInitStruct.OscillatorType = RCC_OSCILLATORTYPE_LSI|RCC_OSCILLATORTYPE_MSI;
 c0007be:	2318      	movs	r3, #24
 c0007c0:	61bb      	str	r3, [r7, #24]
  RCC_OscInitStruct.LSIDiv = RCC_LSI_DIV1;
 c0007c2:	2300      	movs	r3, #0
 c0007c4:	633b      	str	r3, [r7, #48]	; 0x30
  RCC_OscInitStruct.LSIState = RCC_LSI_ON;
 c0007c6:	2301      	movs	r3, #1
 c0007c8:	62fb      	str	r3, [r7, #44]	; 0x2c
  RCC_OscInitStruct.MSIState = RCC_MSI_ON;
 c0007ca:	2301      	movs	r3, #1
 c0007cc:	637b      	str	r3, [r7, #52]	; 0x34
  RCC_OscInitStruct.MSICalibrationValue = RCC_MSICALIBRATION_DEFAULT;
 c0007ce:	2300      	movs	r3, #0
 c0007d0:	63bb      	str	r3, [r7, #56]	; 0x38
  RCC_OscInitStruct.MSIClockRange = RCC_MSIRANGE_11;
 c0007d2:	23b0      	movs	r3, #176	; 0xb0
 c0007d4:	63fb      	str	r3, [r7, #60]	; 0x3c
  RCC_OscInitStruct.PLL.PLLState = RCC_PLL_ON;
 c0007d6:	2302      	movs	r3, #2
 c0007d8:	647b      	str	r3, [r7, #68]	; 0x44
  RCC_OscInitStruct.PLL.PLLSource = RCC_PLLSOURCE_MSI;
 c0007da:	2301      	movs	r3, #1
 c0007dc:	64bb      	str	r3, [r7, #72]	; 0x48
  RCC_OscInitStruct.PLL.PLLM = 12;
 c0007de:	230c      	movs	r3, #12
 c0007e0:	64fb      	str	r3, [r7, #76]	; 0x4c
  RCC_OscInitStruct.PLL.PLLN = 55;
 c0007e2:	2337      	movs	r3, #55	; 0x37
 c0007e4:	653b      	str	r3, [r7, #80]	; 0x50
  RCC_OscInitStruct.PLL.PLLP = RCC_PLLP_DIV7;
 c0007e6:	2307      	movs	r3, #7
 c0007e8:	657b      	str	r3, [r7, #84]	; 0x54
  RCC_OscInitStruct.PLL.PLLQ = RCC_PLLQ_DIV2;
 c0007ea:	2302      	movs	r3, #2
 c0007ec:	65bb      	str	r3, [r7, #88]	; 0x58
  RCC_OscInitStruct.PLL.PLLR = RCC_PLLR_DIV2;
 c0007ee:	2302      	movs	r3, #2
 c0007f0:	65fb      	str	r3, [r7, #92]	; 0x5c
  if (HAL_RCC_OscConfig(&RCC_OscInitStruct) != HAL_OK)
 c0007f2:	f107 0318 	add.w	r3, r7, #24
 c0007f6:	4618      	mov	r0, r3
 c0007f8:	f003 fb06 	bl	c003e08 <HAL_RCC_OscConfig>
 c0007fc:	4603      	mov	r3, r0
 c0007fe:	2b00      	cmp	r3, #0
 c000800:	d001      	beq.n	c000806 <SystemClock_Config+0x7a>
  {
    Error_Handler();
 c000802:	f000 fba7 	bl	c000f54 <Error_Handler>
  }

  /** Initializes the CPU, AHB and APB buses clocks
  */
  RCC_ClkInitStruct.ClockType = RCC_CLOCKTYPE_HCLK|RCC_CLOCKTYPE_SYSCLK
 c000806:	230f      	movs	r3, #15
 c000808:	607b      	str	r3, [r7, #4]
                              |RCC_CLOCKTYPE_PCLK1|RCC_CLOCKTYPE_PCLK2;
  RCC_ClkInitStruct.SYSCLKSource = RCC_SYSCLKSOURCE_PLLCLK;
 c00080a:	2303      	movs	r3, #3
 c00080c:	60bb      	str	r3, [r7, #8]
  RCC_ClkInitStruct.AHBCLKDivider = RCC_SYSCLK_DIV1;
 c00080e:	2300      	movs	r3, #0
 c000810:	60fb      	str	r3, [r7, #12]
  RCC_ClkInitStruct.APB1CLKDivider = RCC_HCLK_DIV1;
 c000812:	2300      	movs	r3, #0
 c000814:	613b      	str	r3, [r7, #16]
  RCC_ClkInitStruct.APB2CLKDivider = RCC_HCLK_DIV1;
 c000816:	2300      	movs	r3, #0
 c000818:	617b      	str	r3, [r7, #20]

  if (HAL_RCC_ClockConfig(&RCC_ClkInitStruct, FLASH_LATENCY_5) != HAL_OK)
 c00081a:	1d3b      	adds	r3, r7, #4
 c00081c:	2105      	movs	r1, #5
 c00081e:	4618      	mov	r0, r3
 c000820:	f003 ffc8 	bl	c0047b4 <HAL_RCC_ClockConfig>
 c000824:	4603      	mov	r3, r0
 c000826:	2b00      	cmp	r3, #0
 c000828:	d001      	beq.n	c00082e <SystemClock_Config+0xa2>
  {
    Error_Handler();
 c00082a:	f000 fb93 	bl	c000f54 <Error_Handler>
  }
}
 c00082e:	bf00      	nop
 c000830:	3760      	adds	r7, #96	; 0x60
 c000832:	46bd      	mov	sp, r7
 c000834:	bd80      	pop	{r7, pc}
	...

0c000838 <MX_GTZC_S_Init>:
  * @brief GTZC_S Initialization Function
  * @param None
  * @retval None
  */
static void MX_GTZC_S_Init(void)
{
 c000838:	b580      	push	{r7, lr}
 c00083a:	b09c      	sub	sp, #112	; 0x70
 c00083c:	af00      	add	r7, sp, #0

  /* USER CODE BEGIN GTZC_S_Init 0 */

  /* USER CODE END GTZC_S_Init 0 */

  MPCBB_ConfigTypeDef MPCBB_NonSecureArea_Desc = {0};
 c00083e:	1d3b      	adds	r3, r7, #4
 c000840:	226c      	movs	r2, #108	; 0x6c
 c000842:	2100      	movs	r1, #0
 c000844:	4618      	mov	r0, r3
 c000846:	f006 fe47 	bl	c0074d8 <memset>

  /* USER CODE BEGIN GTZC_S_Init 1 */

  /* USER CODE END GTZC_S_Init 1 */
  if (HAL_GTZC_TZSC_ConfigPeriphAttributes(GTZC_PERIPH_IWDG, GTZC_TZSC_PERIPH_SEC|GTZC_TZSC_PERIPH_NPRIV) != HAL_OK)
 c00084a:	f240 3101 	movw	r1, #769	; 0x301
 c00084e:	2007      	movs	r0, #7
 c000850:	f002 fcd8 	bl	c003204 <HAL_GTZC_TZSC_ConfigPeriphAttributes>
 c000854:	4603      	mov	r3, r0
 c000856:	2b00      	cmp	r3, #0
 c000858:	d001      	beq.n	c00085e <MX_GTZC_S_Init+0x26>
  {
    Error_Handler();
 c00085a:	f000 fb7b 	bl	c000f54 <Error_Handler>
  }
  if (HAL_GTZC_TZSC_ConfigPeriphAttributes(GTZC_PERIPH_SPI3, GTZC_TZSC_PERIPH_SEC|GTZC_TZSC_PERIPH_NPRIV) != HAL_OK)
 c00085e:	f240 3101 	movw	r1, #769	; 0x301
 c000862:	2009      	movs	r0, #9
 c000864:	f002 fcce 	bl	c003204 <HAL_GTZC_TZSC_ConfigPeriphAttributes>
 c000868:	4603      	mov	r3, r0
 c00086a:	2b00      	cmp	r3, #0
 c00086c:	d001      	beq.n	c000872 <MX_GTZC_S_Init+0x3a>
  {
    Error_Handler();
 c00086e:	f000 fb71 	bl	c000f54 <Error_Handler>
  }
  if (HAL_GTZC_TZSC_ConfigPeriphAttributes(GTZC_PERIPH_USART1, GTZC_TZSC_PERIPH_SEC|GTZC_TZSC_PERIPH_NPRIV) != HAL_OK)
 c000872:	f240 3101 	movw	r1, #769	; 0x301
 c000876:	483f      	ldr	r0, [pc, #252]	; (c000974 <MX_GTZC_S_Init+0x13c>)
 c000878:	f002 fcc4 	bl	c003204 <HAL_GTZC_TZSC_ConfigPeriphAttributes>
 c00087c:	4603      	mov	r3, r0
 c00087e:	2b00      	cmp	r3, #0
 c000880:	d001      	beq.n	c000886 <MX_GTZC_S_Init+0x4e>
  {
    Error_Handler();
 c000882:	f000 fb67 	bl	c000f54 <Error_Handler>
  }
  if (HAL_GTZC_TZSC_ConfigPeriphAttributes(GTZC_PERIPH_HASH, GTZC_TZSC_PERIPH_SEC|GTZC_TZSC_PERIPH_NPRIV) != HAL_OK)
 c000886:	f240 3101 	movw	r1, #769	; 0x301
 c00088a:	483b      	ldr	r0, [pc, #236]	; (c000978 <MX_GTZC_S_Init+0x140>)
 c00088c:	f002 fcba 	bl	c003204 <HAL_GTZC_TZSC_ConfigPeriphAttributes>
 c000890:	4603      	mov	r3, r0
 c000892:	2b00      	cmp	r3, #0
 c000894:	d001      	beq.n	c00089a <MX_GTZC_S_Init+0x62>
  {
    Error_Handler();
 c000896:	f000 fb5d 	bl	c000f54 <Error_Handler>
  }
  MPCBB_NonSecureArea_Desc.SecureRWIllegalMode = GTZC_MPCBB_SRWILADIS_ENABLE;
 c00089a:	2300      	movs	r3, #0
 c00089c:	607b      	str	r3, [r7, #4]
  MPCBB_NonSecureArea_Desc.InvertSecureState = GTZC_MPCBB_INVSECSTATE_NOT_INVERTED;
 c00089e:	2300      	movs	r3, #0
 c0008a0:	60bb      	str	r3, [r7, #8]
  MPCBB_NonSecureArea_Desc.AttributeConfig.MPCBB_SecConfig_array[0] =   0xFFFFFFFF;
 c0008a2:	f04f 33ff 	mov.w	r3, #4294967295
 c0008a6:	60fb      	str	r3, [r7, #12]
  MPCBB_NonSecureArea_Desc.AttributeConfig.MPCBB_SecConfig_array[1] =   0xFFFFFFFF;
 c0008a8:	f04f 33ff 	mov.w	r3, #4294967295
 c0008ac:	613b      	str	r3, [r7, #16]
  MPCBB_NonSecureArea_Desc.AttributeConfig.MPCBB_SecConfig_array[2] =   0xFFFFFFFF;
 c0008ae:	f04f 33ff 	mov.w	r3, #4294967295
 c0008b2:	617b      	str	r3, [r7, #20]
  MPCBB_NonSecureArea_Desc.AttributeConfig.MPCBB_SecConfig_array[3] =   0xFFFFFFFF;
 c0008b4:	f04f 33ff 	mov.w	r3, #4294967295
 c0008b8:	61bb      	str	r3, [r7, #24]
  MPCBB_NonSecureArea_Desc.AttributeConfig.MPCBB_SecConfig_array[4] =   0xFFFFFFFF;
 c0008ba:	f04f 33ff 	mov.w	r3, #4294967295
 c0008be:	61fb      	str	r3, [r7, #28]
  MPCBB_NonSecureArea_Desc.AttributeConfig.MPCBB_SecConfig_array[5] =   0xFFFFFFFF;
 c0008c0:	f04f 33ff 	mov.w	r3, #4294967295
 c0008c4:	623b      	str	r3, [r7, #32]
  MPCBB_NonSecureArea_Desc.AttributeConfig.MPCBB_SecConfig_array[6] =   0xFFFFFFFF;
 c0008c6:	f04f 33ff 	mov.w	r3, #4294967295
 c0008ca:	627b      	str	r3, [r7, #36]	; 0x24
  MPCBB_NonSecureArea_Desc.AttributeConfig.MPCBB_SecConfig_array[7] =   0xFFFFFFFF;
 c0008cc:	f04f 33ff 	mov.w	r3, #4294967295
 c0008d0:	62bb      	str	r3, [r7, #40]	; 0x28
  MPCBB_NonSecureArea_Desc.AttributeConfig.MPCBB_SecConfig_array[8] =   0xFFFFFFFF;
 c0008d2:	f04f 33ff 	mov.w	r3, #4294967295
 c0008d6:	62fb      	str	r3, [r7, #44]	; 0x2c
  MPCBB_NonSecureArea_Desc.AttributeConfig.MPCBB_SecConfig_array[9] =   0xFFFFFFFF;
 c0008d8:	f04f 33ff 	mov.w	r3, #4294967295
 c0008dc:	633b      	str	r3, [r7, #48]	; 0x30
  MPCBB_NonSecureArea_Desc.AttributeConfig.MPCBB_SecConfig_array[10] =   0xFFFFFFFF;
 c0008de:	f04f 33ff 	mov.w	r3, #4294967295
 c0008e2:	637b      	str	r3, [r7, #52]	; 0x34
  MPCBB_NonSecureArea_Desc.AttributeConfig.MPCBB_SecConfig_array[11] =   0xFFFFFFFF;
 c0008e4:	f04f 33ff 	mov.w	r3, #4294967295
 c0008e8:	63bb      	str	r3, [r7, #56]	; 0x38
  MPCBB_NonSecureArea_Desc.AttributeConfig.MPCBB_SecConfig_array[12] =   0x00000000;
 c0008ea:	2300      	movs	r3, #0
 c0008ec:	63fb      	str	r3, [r7, #60]	; 0x3c
  MPCBB_NonSecureArea_Desc.AttributeConfig.MPCBB_SecConfig_array[13] =   0x00000000;
 c0008ee:	2300      	movs	r3, #0
 c0008f0:	643b      	str	r3, [r7, #64]	; 0x40
  MPCBB_NonSecureArea_Desc.AttributeConfig.MPCBB_SecConfig_array[14] =   0x00000000;
 c0008f2:	2300      	movs	r3, #0
 c0008f4:	647b      	str	r3, [r7, #68]	; 0x44
  MPCBB_NonSecureArea_Desc.AttributeConfig.MPCBB_SecConfig_array[15] =   0x00000000;
 c0008f6:	2300      	movs	r3, #0
 c0008f8:	64bb      	str	r3, [r7, #72]	; 0x48
  MPCBB_NonSecureArea_Desc.AttributeConfig.MPCBB_SecConfig_array[16] =   0x00000000;
 c0008fa:	2300      	movs	r3, #0
 c0008fc:	64fb      	str	r3, [r7, #76]	; 0x4c
  MPCBB_NonSecureArea_Desc.AttributeConfig.MPCBB_SecConfig_array[17] =   0x00000000;
 c0008fe:	2300      	movs	r3, #0
 c000900:	653b      	str	r3, [r7, #80]	; 0x50
  MPCBB_NonSecureArea_Desc.AttributeConfig.MPCBB_SecConfig_array[18] =   0x00000000;
 c000902:	2300      	movs	r3, #0
 c000904:	657b      	str	r3, [r7, #84]	; 0x54
  MPCBB_NonSecureArea_Desc.AttributeConfig.MPCBB_SecConfig_array[19] =   0x00000000;
 c000906:	2300      	movs	r3, #0
 c000908:	65bb      	str	r3, [r7, #88]	; 0x58
  MPCBB_NonSecureArea_Desc.AttributeConfig.MPCBB_SecConfig_array[20] =   0x00000000;
 c00090a:	2300      	movs	r3, #0
 c00090c:	65fb      	str	r3, [r7, #92]	; 0x5c
  MPCBB_NonSecureArea_Desc.AttributeConfig.MPCBB_SecConfig_array[21] =   0x00000000;
 c00090e:	2300      	movs	r3, #0
 c000910:	663b      	str	r3, [r7, #96]	; 0x60
  MPCBB_NonSecureArea_Desc.AttributeConfig.MPCBB_SecConfig_array[22] =   0x00000000;
 c000912:	2300      	movs	r3, #0
 c000914:	667b      	str	r3, [r7, #100]	; 0x64
  MPCBB_NonSecureArea_Desc.AttributeConfig.MPCBB_SecConfig_array[23] =   0x00000000;
 c000916:	2300      	movs	r3, #0
 c000918:	66bb      	str	r3, [r7, #104]	; 0x68
  MPCBB_NonSecureArea_Desc.AttributeConfig.MPCBB_LockConfig_array[0] =   0x00000000;
 c00091a:	2300      	movs	r3, #0
 c00091c:	66fb      	str	r3, [r7, #108]	; 0x6c
  if (HAL_GTZC_MPCBB_ConfigMem(SRAM1_BASE, &MPCBB_NonSecureArea_Desc) != HAL_OK)
 c00091e:	1d3b      	adds	r3, r7, #4
 c000920:	4619      	mov	r1, r3
 c000922:	f04f 5040 	mov.w	r0, #805306368	; 0x30000000
 c000926:	f002 fd45 	bl	c0033b4 <HAL_GTZC_MPCBB_ConfigMem>
 c00092a:	4603      	mov	r3, r0
 c00092c:	2b00      	cmp	r3, #0
 c00092e:	d001      	beq.n	c000934 <MX_GTZC_S_Init+0xfc>
  {
    Error_Handler();
 c000930:	f000 fb10 	bl	c000f54 <Error_Handler>
  }
  MPCBB_NonSecureArea_Desc.AttributeConfig.MPCBB_SecConfig_array[0] =   0x00000000;
 c000934:	2300      	movs	r3, #0
 c000936:	60fb      	str	r3, [r7, #12]
  MPCBB_NonSecureArea_Desc.AttributeConfig.MPCBB_SecConfig_array[1] =   0x00000000;
 c000938:	2300      	movs	r3, #0
 c00093a:	613b      	str	r3, [r7, #16]
  MPCBB_NonSecureArea_Desc.AttributeConfig.MPCBB_SecConfig_array[2] =   0x00000000;
 c00093c:	2300      	movs	r3, #0
 c00093e:	617b      	str	r3, [r7, #20]
  MPCBB_NonSecureArea_Desc.AttributeConfig.MPCBB_SecConfig_array[3] =   0x00000000;
 c000940:	2300      	movs	r3, #0
 c000942:	61bb      	str	r3, [r7, #24]
  MPCBB_NonSecureArea_Desc.AttributeConfig.MPCBB_SecConfig_array[4] =   0x00000000;
 c000944:	2300      	movs	r3, #0
 c000946:	61fb      	str	r3, [r7, #28]
  MPCBB_NonSecureArea_Desc.AttributeConfig.MPCBB_SecConfig_array[5] =   0x00000000;
 c000948:	2300      	movs	r3, #0
 c00094a:	623b      	str	r3, [r7, #32]
  MPCBB_NonSecureArea_Desc.AttributeConfig.MPCBB_SecConfig_array[6] =   0x00000000;
 c00094c:	2300      	movs	r3, #0
 c00094e:	627b      	str	r3, [r7, #36]	; 0x24
  MPCBB_NonSecureArea_Desc.AttributeConfig.MPCBB_SecConfig_array[7] =   0x00000000;
 c000950:	2300      	movs	r3, #0
 c000952:	62bb      	str	r3, [r7, #40]	; 0x28
  MPCBB_NonSecureArea_Desc.AttributeConfig.MPCBB_LockConfig_array[0] =   0x00000000;
 c000954:	2300      	movs	r3, #0
 c000956:	66fb      	str	r3, [r7, #108]	; 0x6c
  if (HAL_GTZC_MPCBB_ConfigMem(SRAM2_BASE, &MPCBB_NonSecureArea_Desc) != HAL_OK)
 c000958:	1d3b      	adds	r3, r7, #4
 c00095a:	4619      	mov	r1, r3
 c00095c:	4807      	ldr	r0, [pc, #28]	; (c00097c <MX_GTZC_S_Init+0x144>)
 c00095e:	f002 fd29 	bl	c0033b4 <HAL_GTZC_MPCBB_ConfigMem>
 c000962:	4603      	mov	r3, r0
 c000964:	2b00      	cmp	r3, #0
 c000966:	d001      	beq.n	c00096c <MX_GTZC_S_Init+0x134>
  {
    Error_Handler();
 c000968:	f000 faf4 	bl	c000f54 <Error_Handler>
  }
  /* USER CODE BEGIN GTZC_S_Init 2 */

  /* USER CODE END GTZC_S_Init 2 */

}
 c00096c:	bf00      	nop
 c00096e:	3770      	adds	r7, #112	; 0x70
 c000970:	46bd      	mov	sp, r7
 c000972:	bd80      	pop	{r7, pc}
 c000974:	10000001 	.word	0x10000001
 c000978:	1000000d 	.word	0x1000000d
 c00097c:	30030000 	.word	0x30030000

0c000980 <MX_HASH_Init>:
  * @brief HASH Initialization Function
  * @param None
  * @retval None
  */
static void MX_HASH_Init(void)
{
 c000980:	b580      	push	{r7, lr}
 c000982:	af00      	add	r7, sp, #0
  /* USER CODE END HASH_Init 0 */

  /* USER CODE BEGIN HASH_Init 1 */

  /* USER CODE END HASH_Init 1 */
  hhash.Init.DataType = HASH_DATATYPE_32B;
 c000984:	4b06      	ldr	r3, [pc, #24]	; (c0009a0 <MX_HASH_Init+0x20>)
 c000986:	2200      	movs	r2, #0
 c000988:	601a      	str	r2, [r3, #0]
  if (HAL_HASH_Init(&hhash) != HAL_OK)
 c00098a:	4805      	ldr	r0, [pc, #20]	; (c0009a0 <MX_HASH_Init+0x20>)
 c00098c:	f002 fd96 	bl	c0034bc <HAL_HASH_Init>
 c000990:	4603      	mov	r3, r0
 c000992:	2b00      	cmp	r3, #0
 c000994:	d001      	beq.n	c00099a <MX_HASH_Init+0x1a>
  {
    Error_Handler();
 c000996:	f000 fadd 	bl	c000f54 <Error_Handler>
  }
  /* USER CODE BEGIN HASH_Init 2 */

  /* USER CODE END HASH_Init 2 */

}
 c00099a:	bf00      	nop
 c00099c:	bd80      	pop	{r7, pc}
 c00099e:	bf00      	nop
 c0009a0:	30000184 	.word	0x30000184

0c0009a4 <MX_ICACHE_Init>:
  * @brief ICACHE Initialization Function
  * @param None
  * @retval None
  */
static void MX_ICACHE_Init(void)
{
 c0009a4:	b580      	push	{r7, lr}
 c0009a6:	af00      	add	r7, sp, #0

  /* USER CODE END ICACHE_Init 1 */

  /** Enable instruction cache in 1-way (direct mapped cache)
  */
  if (HAL_ICACHE_ConfigAssociativityMode(ICACHE_1WAY) != HAL_OK)
 c0009a8:	2000      	movs	r0, #0
 c0009aa:	f003 f8ef 	bl	c003b8c <HAL_ICACHE_ConfigAssociativityMode>
 c0009ae:	4603      	mov	r3, r0
 c0009b0:	2b00      	cmp	r3, #0
 c0009b2:	d001      	beq.n	c0009b8 <MX_ICACHE_Init+0x14>
  {
    Error_Handler();
 c0009b4:	f000 face 	bl	c000f54 <Error_Handler>
  }
  if (HAL_ICACHE_Enable() != HAL_OK)
 c0009b8:	f003 f908 	bl	c003bcc <HAL_ICACHE_Enable>
 c0009bc:	4603      	mov	r3, r0
 c0009be:	2b00      	cmp	r3, #0
 c0009c0:	d001      	beq.n	c0009c6 <MX_ICACHE_Init+0x22>
  {
    Error_Handler();
 c0009c2:	f000 fac7 	bl	c000f54 <Error_Handler>
  }
  /* USER CODE BEGIN ICACHE_Init 2 */

  /* USER CODE END ICACHE_Init 2 */

}
 c0009c6:	bf00      	nop
 c0009c8:	bd80      	pop	{r7, pc}
	...

0c0009cc <MX_IWDG_Init>:
  * @brief IWDG Initialization Function
  * @param None
  * @retval None
  */
static void MX_IWDG_Init(void)
{
 c0009cc:	b580      	push	{r7, lr}
 c0009ce:	af00      	add	r7, sp, #0
  /* USER CODE END IWDG_Init 0 */

  /* USER CODE BEGIN IWDG_Init 1 */
//
  /* USER CODE END IWDG_Init 1 */
  hiwdg.Instance = IWDG;
 c0009d0:	4b0a      	ldr	r3, [pc, #40]	; (c0009fc <MX_IWDG_Init+0x30>)
 c0009d2:	4a0b      	ldr	r2, [pc, #44]	; (c000a00 <MX_IWDG_Init+0x34>)
 c0009d4:	601a      	str	r2, [r3, #0]
  hiwdg.Init.Prescaler = IWDG_PRESCALER_16;
 c0009d6:	4b09      	ldr	r3, [pc, #36]	; (c0009fc <MX_IWDG_Init+0x30>)
 c0009d8:	2202      	movs	r2, #2
 c0009da:	605a      	str	r2, [r3, #4]
  hiwdg.Init.Window = 72;
 c0009dc:	4b07      	ldr	r3, [pc, #28]	; (c0009fc <MX_IWDG_Init+0x30>)
 c0009de:	2248      	movs	r2, #72	; 0x48
 c0009e0:	60da      	str	r2, [r3, #12]
  hiwdg.Init.Reload = 72;
 c0009e2:	4b06      	ldr	r3, [pc, #24]	; (c0009fc <MX_IWDG_Init+0x30>)
 c0009e4:	2248      	movs	r2, #72	; 0x48
 c0009e6:	609a      	str	r2, [r3, #8]
  if (HAL_IWDG_Init(&hiwdg) != HAL_OK)
 c0009e8:	4804      	ldr	r0, [pc, #16]	; (c0009fc <MX_IWDG_Init+0x30>)
 c0009ea:	f003 f8ff 	bl	c003bec <HAL_IWDG_Init>
 c0009ee:	4603      	mov	r3, r0
 c0009f0:	2b00      	cmp	r3, #0
 c0009f2:	d001      	beq.n	c0009f8 <MX_IWDG_Init+0x2c>
  {
    Error_Handler();
 c0009f4:	f000 faae 	bl	c000f54 <Error_Handler>
  }
  /* USER CODE BEGIN IWDG_Init 2 */
//
  /* USER CODE END IWDG_Init 2 */

}
 c0009f8:	bf00      	nop
 c0009fa:	bd80      	pop	{r7, pc}
 c0009fc:	300001c8 	.word	0x300001c8
 c000a00:	50003000 	.word	0x50003000

0c000a04 <MX_SPI3_Init>:
  * @brief SPI3 Initialization Function
  * @param None
  * @retval None
  */
static void MX_SPI3_Init(void)
{
 c000a04:	b580      	push	{r7, lr}
 c000a06:	af00      	add	r7, sp, #0

  /* USER CODE BEGIN SPI3_Init 1 */

  /* USER CODE END SPI3_Init 1 */
  /* SPI3 parameter configuration*/
  hspi3.Instance = SPI3;
 c000a08:	4b1b      	ldr	r3, [pc, #108]	; (c000a78 <MX_SPI3_Init+0x74>)
 c000a0a:	4a1c      	ldr	r2, [pc, #112]	; (c000a7c <MX_SPI3_Init+0x78>)
 c000a0c:	601a      	str	r2, [r3, #0]
  hspi3.Init.Mode = SPI_MODE_MASTER;
 c000a0e:	4b1a      	ldr	r3, [pc, #104]	; (c000a78 <MX_SPI3_Init+0x74>)
 c000a10:	f44f 7282 	mov.w	r2, #260	; 0x104
 c000a14:	605a      	str	r2, [r3, #4]
  hspi3.Init.Direction = SPI_DIRECTION_2LINES;
 c000a16:	4b18      	ldr	r3, [pc, #96]	; (c000a78 <MX_SPI3_Init+0x74>)
 c000a18:	2200      	movs	r2, #0
 c000a1a:	609a      	str	r2, [r3, #8]
  hspi3.Init.DataSize = SPI_DATASIZE_8BIT;
 c000a1c:	4b16      	ldr	r3, [pc, #88]	; (c000a78 <MX_SPI3_Init+0x74>)
 c000a1e:	f44f 62e0 	mov.w	r2, #1792	; 0x700
 c000a22:	60da      	str	r2, [r3, #12]
  hspi3.Init.CLKPolarity = SPI_POLARITY_LOW;
 c000a24:	4b14      	ldr	r3, [pc, #80]	; (c000a78 <MX_SPI3_Init+0x74>)
 c000a26:	2200      	movs	r2, #0
 c000a28:	611a      	str	r2, [r3, #16]
  hspi3.Init.CLKPhase = SPI_PHASE_1EDGE;
 c000a2a:	4b13      	ldr	r3, [pc, #76]	; (c000a78 <MX_SPI3_Init+0x74>)
 c000a2c:	2200      	movs	r2, #0
 c000a2e:	615a      	str	r2, [r3, #20]
  hspi3.Init.NSS = SPI_NSS_SOFT;
 c000a30:	4b11      	ldr	r3, [pc, #68]	; (c000a78 <MX_SPI3_Init+0x74>)
 c000a32:	f44f 7200 	mov.w	r2, #512	; 0x200
 c000a36:	619a      	str	r2, [r3, #24]
  hspi3.Init.BaudRatePrescaler = SPI_BAUDRATEPRESCALER_32;
 c000a38:	4b0f      	ldr	r3, [pc, #60]	; (c000a78 <MX_SPI3_Init+0x74>)
 c000a3a:	2220      	movs	r2, #32
 c000a3c:	61da      	str	r2, [r3, #28]
  hspi3.Init.FirstBit = SPI_FIRSTBIT_MSB;
 c000a3e:	4b0e      	ldr	r3, [pc, #56]	; (c000a78 <MX_SPI3_Init+0x74>)
 c000a40:	2200      	movs	r2, #0
 c000a42:	621a      	str	r2, [r3, #32]
  hspi3.Init.TIMode = SPI_TIMODE_DISABLE;
 c000a44:	4b0c      	ldr	r3, [pc, #48]	; (c000a78 <MX_SPI3_Init+0x74>)
 c000a46:	2200      	movs	r2, #0
 c000a48:	625a      	str	r2, [r3, #36]	; 0x24
  hspi3.Init.CRCCalculation = SPI_CRCCALCULATION_DISABLE;
 c000a4a:	4b0b      	ldr	r3, [pc, #44]	; (c000a78 <MX_SPI3_Init+0x74>)
 c000a4c:	2200      	movs	r2, #0
 c000a4e:	629a      	str	r2, [r3, #40]	; 0x28
  hspi3.Init.CRCPolynomial = 7;
 c000a50:	4b09      	ldr	r3, [pc, #36]	; (c000a78 <MX_SPI3_Init+0x74>)
 c000a52:	2207      	movs	r2, #7
 c000a54:	62da      	str	r2, [r3, #44]	; 0x2c
  hspi3.Init.CRCLength = SPI_CRC_LENGTH_DATASIZE;
 c000a56:	4b08      	ldr	r3, [pc, #32]	; (c000a78 <MX_SPI3_Init+0x74>)
 c000a58:	2200      	movs	r2, #0
 c000a5a:	631a      	str	r2, [r3, #48]	; 0x30
  hspi3.Init.NSSPMode = SPI_NSS_PULSE_ENABLE;
 c000a5c:	4b06      	ldr	r3, [pc, #24]	; (c000a78 <MX_SPI3_Init+0x74>)
 c000a5e:	2208      	movs	r2, #8
 c000a60:	635a      	str	r2, [r3, #52]	; 0x34
  if (HAL_SPI_Init(&hspi3) != HAL_OK)
 c000a62:	4805      	ldr	r0, [pc, #20]	; (c000a78 <MX_SPI3_Init+0x74>)
 c000a64:	f004 fea0 	bl	c0057a8 <HAL_SPI_Init>
 c000a68:	4603      	mov	r3, r0
 c000a6a:	2b00      	cmp	r3, #0
 c000a6c:	d001      	beq.n	c000a72 <MX_SPI3_Init+0x6e>
  {
    Error_Handler();
 c000a6e:	f000 fa71 	bl	c000f54 <Error_Handler>
  }
  /* USER CODE BEGIN SPI3_Init 2 */

  /* USER CODE END SPI3_Init 2 */

}
 c000a72:	bf00      	nop
 c000a74:	bd80      	pop	{r7, pc}
 c000a76:	bf00      	nop
 c000a78:	300001d8 	.word	0x300001d8
 c000a7c:	50003c00 	.word	0x50003c00

0c000a80 <MX_USART1_UART_Init>:
  * @brief USART1 Initialization Function
  * @param None
  * @retval None
  */
static void MX_USART1_UART_Init(void)
{
 c000a80:	b580      	push	{r7, lr}
 c000a82:	af00      	add	r7, sp, #0
  /* USER CODE END USART1_Init 0 */

  /* USER CODE BEGIN USART1_Init 1 */

  /* USER CODE END USART1_Init 1 */
  huart1.Instance = USART1;
 c000a84:	4b23      	ldr	r3, [pc, #140]	; (c000b14 <MX_USART1_UART_Init+0x94>)
 c000a86:	4a24      	ldr	r2, [pc, #144]	; (c000b18 <MX_USART1_UART_Init+0x98>)
 c000a88:	601a      	str	r2, [r3, #0]
  huart1.Init.BaudRate = 115200;
 c000a8a:	4b22      	ldr	r3, [pc, #136]	; (c000b14 <MX_USART1_UART_Init+0x94>)
 c000a8c:	f44f 32e1 	mov.w	r2, #115200	; 0x1c200
 c000a90:	605a      	str	r2, [r3, #4]
  huart1.Init.WordLength = UART_WORDLENGTH_8B;
 c000a92:	4b20      	ldr	r3, [pc, #128]	; (c000b14 <MX_USART1_UART_Init+0x94>)
 c000a94:	2200      	movs	r2, #0
 c000a96:	609a      	str	r2, [r3, #8]
  huart1.Init.StopBits = UART_STOPBITS_1;
 c000a98:	4b1e      	ldr	r3, [pc, #120]	; (c000b14 <MX_USART1_UART_Init+0x94>)
 c000a9a:	2200      	movs	r2, #0
 c000a9c:	60da      	str	r2, [r3, #12]
  huart1.Init.Parity = UART_PARITY_ODD;
 c000a9e:	4b1d      	ldr	r3, [pc, #116]	; (c000b14 <MX_USART1_UART_Init+0x94>)
 c000aa0:	f44f 62c0 	mov.w	r2, #1536	; 0x600
 c000aa4:	611a      	str	r2, [r3, #16]
  huart1.Init.Mode = UART_MODE_TX_RX;
 c000aa6:	4b1b      	ldr	r3, [pc, #108]	; (c000b14 <MX_USART1_UART_Init+0x94>)
 c000aa8:	220c      	movs	r2, #12
 c000aaa:	615a      	str	r2, [r3, #20]
  huart1.Init.HwFlowCtl = UART_HWCONTROL_NONE;
 c000aac:	4b19      	ldr	r3, [pc, #100]	; (c000b14 <MX_USART1_UART_Init+0x94>)
 c000aae:	2200      	movs	r2, #0
 c000ab0:	619a      	str	r2, [r3, #24]
  huart1.Init.OverSampling = UART_OVERSAMPLING_16;
 c000ab2:	4b18      	ldr	r3, [pc, #96]	; (c000b14 <MX_USART1_UART_Init+0x94>)
 c000ab4:	2200      	movs	r2, #0
 c000ab6:	61da      	str	r2, [r3, #28]
  huart1.Init.OneBitSampling = UART_ONE_BIT_SAMPLE_DISABLE;
 c000ab8:	4b16      	ldr	r3, [pc, #88]	; (c000b14 <MX_USART1_UART_Init+0x94>)
 c000aba:	2200      	movs	r2, #0
 c000abc:	621a      	str	r2, [r3, #32]
  huart1.Init.ClockPrescaler = UART_PRESCALER_DIV1;
 c000abe:	4b15      	ldr	r3, [pc, #84]	; (c000b14 <MX_USART1_UART_Init+0x94>)
 c000ac0:	2200      	movs	r2, #0
 c000ac2:	625a      	str	r2, [r3, #36]	; 0x24
  huart1.AdvancedInit.AdvFeatureInit = UART_ADVFEATURE_NO_INIT;
 c000ac4:	4b13      	ldr	r3, [pc, #76]	; (c000b14 <MX_USART1_UART_Init+0x94>)
 c000ac6:	2200      	movs	r2, #0
 c000ac8:	629a      	str	r2, [r3, #40]	; 0x28
  if (HAL_UART_Init(&huart1) != HAL_OK)
 c000aca:	4812      	ldr	r0, [pc, #72]	; (c000b14 <MX_USART1_UART_Init+0x94>)
 c000acc:	f005 fdd2 	bl	c006674 <HAL_UART_Init>
 c000ad0:	4603      	mov	r3, r0
 c000ad2:	2b00      	cmp	r3, #0
 c000ad4:	d001      	beq.n	c000ada <MX_USART1_UART_Init+0x5a>
  {
    Error_Handler();
 c000ad6:	f000 fa3d 	bl	c000f54 <Error_Handler>
  }
  if (HAL_UARTEx_SetTxFifoThreshold(&huart1, UART_TXFIFO_THRESHOLD_1_8) != HAL_OK)
 c000ada:	2100      	movs	r1, #0
 c000adc:	480d      	ldr	r0, [pc, #52]	; (c000b14 <MX_USART1_UART_Init+0x94>)
 c000ade:	f006 fbf7 	bl	c0072d0 <HAL_UARTEx_SetTxFifoThreshold>
 c000ae2:	4603      	mov	r3, r0
 c000ae4:	2b00      	cmp	r3, #0
 c000ae6:	d001      	beq.n	c000aec <MX_USART1_UART_Init+0x6c>
  {
    Error_Handler();
 c000ae8:	f000 fa34 	bl	c000f54 <Error_Handler>
  }
  if (HAL_UARTEx_SetRxFifoThreshold(&huart1, UART_RXFIFO_THRESHOLD_1_8) != HAL_OK)
 c000aec:	2100      	movs	r1, #0
 c000aee:	4809      	ldr	r0, [pc, #36]	; (c000b14 <MX_USART1_UART_Init+0x94>)
 c000af0:	f006 fc2c 	bl	c00734c <HAL_UARTEx_SetRxFifoThreshold>
 c000af4:	4603      	mov	r3, r0
 c000af6:	2b00      	cmp	r3, #0
 c000af8:	d001      	beq.n	c000afe <MX_USART1_UART_Init+0x7e>
  {
    Error_Handler();
 c000afa:	f000 fa2b 	bl	c000f54 <Error_Handler>
  }
  if (HAL_UARTEx_DisableFifoMode(&huart1) != HAL_OK)
 c000afe:	4805      	ldr	r0, [pc, #20]	; (c000b14 <MX_USART1_UART_Init+0x94>)
 c000b00:	f006 fbad 	bl	c00725e <HAL_UARTEx_DisableFifoMode>
 c000b04:	4603      	mov	r3, r0
 c000b06:	2b00      	cmp	r3, #0
 c000b08:	d001      	beq.n	c000b0e <MX_USART1_UART_Init+0x8e>
  {
    Error_Handler();
 c000b0a:	f000 fa23 	bl	c000f54 <Error_Handler>
  }
  /* USER CODE BEGIN USART1_Init 2 */

  /* USER CODE END USART1_Init 2 */

}
 c000b0e:	bf00      	nop
 c000b10:	bd80      	pop	{r7, pc}
 c000b12:	bf00      	nop
 c000b14:	3000030c 	.word	0x3000030c
 c000b18:	50013800 	.word	0x50013800

0c000b1c <MX_DMA_Init>:
  * Configure DMA for memory to memory transfers
  *   hdma_memtomem_dma1_channel1
  *   hdma_memtomem_dma1_channel4
  */
static void MX_DMA_Init(void)
{
 c000b1c:	b580      	push	{r7, lr}
 c000b1e:	b082      	sub	sp, #8
 c000b20:	af00      	add	r7, sp, #0

  /* DMA controller clock enable */
  __HAL_RCC_DMAMUX1_CLK_ENABLE();
 c000b22:	4b6a      	ldr	r3, [pc, #424]	; (c000ccc <MX_DMA_Init+0x1b0>)
 c000b24:	6c9b      	ldr	r3, [r3, #72]	; 0x48
 c000b26:	4a69      	ldr	r2, [pc, #420]	; (c000ccc <MX_DMA_Init+0x1b0>)
 c000b28:	f043 0304 	orr.w	r3, r3, #4
 c000b2c:	6493      	str	r3, [r2, #72]	; 0x48
 c000b2e:	4b67      	ldr	r3, [pc, #412]	; (c000ccc <MX_DMA_Init+0x1b0>)
 c000b30:	6c9b      	ldr	r3, [r3, #72]	; 0x48
 c000b32:	f003 0304 	and.w	r3, r3, #4
 c000b36:	607b      	str	r3, [r7, #4]
 c000b38:	687b      	ldr	r3, [r7, #4]
  __HAL_RCC_DMA1_CLK_ENABLE();
 c000b3a:	4b64      	ldr	r3, [pc, #400]	; (c000ccc <MX_DMA_Init+0x1b0>)
 c000b3c:	6c9b      	ldr	r3, [r3, #72]	; 0x48
 c000b3e:	4a63      	ldr	r2, [pc, #396]	; (c000ccc <MX_DMA_Init+0x1b0>)
 c000b40:	f043 0301 	orr.w	r3, r3, #1
 c000b44:	6493      	str	r3, [r2, #72]	; 0x48
 c000b46:	4b61      	ldr	r3, [pc, #388]	; (c000ccc <MX_DMA_Init+0x1b0>)
 c000b48:	6c9b      	ldr	r3, [r3, #72]	; 0x48
 c000b4a:	f003 0301 	and.w	r3, r3, #1
 c000b4e:	603b      	str	r3, [r7, #0]
 c000b50:	683b      	ldr	r3, [r7, #0]

  /* Configure DMA request hdma_memtomem_dma1_channel1 on DMA1_Channel1 */
  hdma_memtomem_dma1_channel1.Instance = DMA1_Channel1;
 c000b52:	4b5f      	ldr	r3, [pc, #380]	; (c000cd0 <MX_DMA_Init+0x1b4>)
 c000b54:	4a5f      	ldr	r2, [pc, #380]	; (c000cd4 <MX_DMA_Init+0x1b8>)
 c000b56:	601a      	str	r2, [r3, #0]
  hdma_memtomem_dma1_channel1.Init.Request = DMA_REQUEST_MEM2MEM;
 c000b58:	4b5d      	ldr	r3, [pc, #372]	; (c000cd0 <MX_DMA_Init+0x1b4>)
 c000b5a:	2200      	movs	r2, #0
 c000b5c:	605a      	str	r2, [r3, #4]
  hdma_memtomem_dma1_channel1.Init.Direction = DMA_MEMORY_TO_MEMORY;
 c000b5e:	4b5c      	ldr	r3, [pc, #368]	; (c000cd0 <MX_DMA_Init+0x1b4>)
 c000b60:	f44f 4280 	mov.w	r2, #16384	; 0x4000
 c000b64:	609a      	str	r2, [r3, #8]
  hdma_memtomem_dma1_channel1.Init.PeriphInc = DMA_PINC_ENABLE;
 c000b66:	4b5a      	ldr	r3, [pc, #360]	; (c000cd0 <MX_DMA_Init+0x1b4>)
 c000b68:	2240      	movs	r2, #64	; 0x40
 c000b6a:	60da      	str	r2, [r3, #12]
  hdma_memtomem_dma1_channel1.Init.MemInc = DMA_MINC_ENABLE;
 c000b6c:	4b58      	ldr	r3, [pc, #352]	; (c000cd0 <MX_DMA_Init+0x1b4>)
 c000b6e:	2280      	movs	r2, #128	; 0x80
 c000b70:	611a      	str	r2, [r3, #16]
  hdma_memtomem_dma1_channel1.Init.PeriphDataAlignment = DMA_PDATAALIGN_WORD;
 c000b72:	4b57      	ldr	r3, [pc, #348]	; (c000cd0 <MX_DMA_Init+0x1b4>)
 c000b74:	f44f 7200 	mov.w	r2, #512	; 0x200
 c000b78:	615a      	str	r2, [r3, #20]
  hdma_memtomem_dma1_channel1.Init.MemDataAlignment = DMA_MDATAALIGN_WORD;
 c000b7a:	4b55      	ldr	r3, [pc, #340]	; (c000cd0 <MX_DMA_Init+0x1b4>)
 c000b7c:	f44f 6200 	mov.w	r2, #2048	; 0x800
 c000b80:	619a      	str	r2, [r3, #24]
  hdma_memtomem_dma1_channel1.Init.Mode = DMA_NORMAL;
 c000b82:	4b53      	ldr	r3, [pc, #332]	; (c000cd0 <MX_DMA_Init+0x1b4>)
 c000b84:	2200      	movs	r2, #0
 c000b86:	61da      	str	r2, [r3, #28]
  hdma_memtomem_dma1_channel1.Init.Priority = DMA_PRIORITY_LOW;
 c000b88:	4b51      	ldr	r3, [pc, #324]	; (c000cd0 <MX_DMA_Init+0x1b4>)
 c000b8a:	2200      	movs	r2, #0
 c000b8c:	621a      	str	r2, [r3, #32]
  if (HAL_DMA_Init(&hdma_memtomem_dma1_channel1) != HAL_OK)
 c000b8e:	4850      	ldr	r0, [pc, #320]	; (c000cd0 <MX_DMA_Init+0x1b4>)
 c000b90:	f001 fdc8 	bl	c002724 <HAL_DMA_Init>
 c000b94:	4603      	mov	r3, r0
 c000b96:	2b00      	cmp	r3, #0
 c000b98:	d001      	beq.n	c000b9e <MX_DMA_Init+0x82>
  {
    Error_Handler( );
 c000b9a:	f000 f9db 	bl	c000f54 <Error_Handler>
  }

  /*  */
  if (HAL_DMA_ConfigChannelAttributes(&hdma_memtomem_dma1_channel1, DMA_CHANNEL_NPRIV) != HAL_OK)
 c000b9e:	2110      	movs	r1, #16
 c000ba0:	484b      	ldr	r0, [pc, #300]	; (c000cd0 <MX_DMA_Init+0x1b4>)
 c000ba2:	f002 f837 	bl	c002c14 <HAL_DMA_ConfigChannelAttributes>
 c000ba6:	4603      	mov	r3, r0
 c000ba8:	2b00      	cmp	r3, #0
 c000baa:	d001      	beq.n	c000bb0 <MX_DMA_Init+0x94>
  {
    Error_Handler( );
 c000bac:	f000 f9d2 	bl	c000f54 <Error_Handler>
  }

  /*  */
  if (HAL_DMA_ConfigChannelAttributes(&hdma_memtomem_dma1_channel1, DMA_CHANNEL_SEC) != HAL_OK)
 c000bb0:	f04f 1102 	mov.w	r1, #131074	; 0x20002
 c000bb4:	4846      	ldr	r0, [pc, #280]	; (c000cd0 <MX_DMA_Init+0x1b4>)
 c000bb6:	f002 f82d 	bl	c002c14 <HAL_DMA_ConfigChannelAttributes>
 c000bba:	4603      	mov	r3, r0
 c000bbc:	2b00      	cmp	r3, #0
 c000bbe:	d001      	beq.n	c000bc4 <MX_DMA_Init+0xa8>
  {
    Error_Handler( );
 c000bc0:	f000 f9c8 	bl	c000f54 <Error_Handler>
  }

  /*  */
  if (HAL_DMA_ConfigChannelAttributes(&hdma_memtomem_dma1_channel1, DMA_CHANNEL_SRC_NSEC) != HAL_OK)
 c000bc4:	2104      	movs	r1, #4
 c000bc6:	4842      	ldr	r0, [pc, #264]	; (c000cd0 <MX_DMA_Init+0x1b4>)
 c000bc8:	f002 f824 	bl	c002c14 <HAL_DMA_ConfigChannelAttributes>
 c000bcc:	4603      	mov	r3, r0
 c000bce:	2b00      	cmp	r3, #0
 c000bd0:	d001      	beq.n	c000bd6 <MX_DMA_Init+0xba>
  {
    Error_Handler( );
 c000bd2:	f000 f9bf 	bl	c000f54 <Error_Handler>
  }

  /*  */
  if (HAL_DMA_ConfigChannelAttributes(&hdma_memtomem_dma1_channel1, DMA_CHANNEL_DEST_SEC) != HAL_OK)
 c000bd6:	f04f 1108 	mov.w	r1, #524296	; 0x80008
 c000bda:	483d      	ldr	r0, [pc, #244]	; (c000cd0 <MX_DMA_Init+0x1b4>)
 c000bdc:	f002 f81a 	bl	c002c14 <HAL_DMA_ConfigChannelAttributes>
 c000be0:	4603      	mov	r3, r0
 c000be2:	2b00      	cmp	r3, #0
 c000be4:	d001      	beq.n	c000bea <MX_DMA_Init+0xce>
  {
    Error_Handler( );
 c000be6:	f000 f9b5 	bl	c000f54 <Error_Handler>
  }

  /* Configure DMA request hdma_memtomem_dma1_channel4 on DMA1_Channel4 */
  hdma_memtomem_dma1_channel4.Instance = DMA1_Channel4;
 c000bea:	4b3b      	ldr	r3, [pc, #236]	; (c000cd8 <MX_DMA_Init+0x1bc>)
 c000bec:	4a3b      	ldr	r2, [pc, #236]	; (c000cdc <MX_DMA_Init+0x1c0>)
 c000bee:	601a      	str	r2, [r3, #0]
  hdma_memtomem_dma1_channel4.Init.Request = DMA_REQUEST_MEM2MEM;
 c000bf0:	4b39      	ldr	r3, [pc, #228]	; (c000cd8 <MX_DMA_Init+0x1bc>)
 c000bf2:	2200      	movs	r2, #0
 c000bf4:	605a      	str	r2, [r3, #4]
  hdma_memtomem_dma1_channel4.Init.Direction = DMA_MEMORY_TO_MEMORY;
 c000bf6:	4b38      	ldr	r3, [pc, #224]	; (c000cd8 <MX_DMA_Init+0x1bc>)
 c000bf8:	f44f 4280 	mov.w	r2, #16384	; 0x4000
 c000bfc:	609a      	str	r2, [r3, #8]
  hdma_memtomem_dma1_channel4.Init.PeriphInc = DMA_PINC_ENABLE;
 c000bfe:	4b36      	ldr	r3, [pc, #216]	; (c000cd8 <MX_DMA_Init+0x1bc>)
 c000c00:	2240      	movs	r2, #64	; 0x40
 c000c02:	60da      	str	r2, [r3, #12]
  hdma_memtomem_dma1_channel4.Init.MemInc = DMA_MINC_ENABLE;
 c000c04:	4b34      	ldr	r3, [pc, #208]	; (c000cd8 <MX_DMA_Init+0x1bc>)
 c000c06:	2280      	movs	r2, #128	; 0x80
 c000c08:	611a      	str	r2, [r3, #16]
  hdma_memtomem_dma1_channel4.Init.PeriphDataAlignment = DMA_PDATAALIGN_WORD;
 c000c0a:	4b33      	ldr	r3, [pc, #204]	; (c000cd8 <MX_DMA_Init+0x1bc>)
 c000c0c:	f44f 7200 	mov.w	r2, #512	; 0x200
 c000c10:	615a      	str	r2, [r3, #20]
  hdma_memtomem_dma1_channel4.Init.MemDataAlignment = DMA_MDATAALIGN_WORD;
 c000c12:	4b31      	ldr	r3, [pc, #196]	; (c000cd8 <MX_DMA_Init+0x1bc>)
 c000c14:	f44f 6200 	mov.w	r2, #2048	; 0x800
 c000c18:	619a      	str	r2, [r3, #24]
  hdma_memtomem_dma1_channel4.Init.Mode = DMA_NORMAL;
 c000c1a:	4b2f      	ldr	r3, [pc, #188]	; (c000cd8 <MX_DMA_Init+0x1bc>)
 c000c1c:	2200      	movs	r2, #0
 c000c1e:	61da      	str	r2, [r3, #28]
  hdma_memtomem_dma1_channel4.Init.Priority = DMA_PRIORITY_LOW;
 c000c20:	4b2d      	ldr	r3, [pc, #180]	; (c000cd8 <MX_DMA_Init+0x1bc>)
 c000c22:	2200      	movs	r2, #0
 c000c24:	621a      	str	r2, [r3, #32]
  if (HAL_DMA_Init(&hdma_memtomem_dma1_channel4) != HAL_OK)
 c000c26:	482c      	ldr	r0, [pc, #176]	; (c000cd8 <MX_DMA_Init+0x1bc>)
 c000c28:	f001 fd7c 	bl	c002724 <HAL_DMA_Init>
 c000c2c:	4603      	mov	r3, r0
 c000c2e:	2b00      	cmp	r3, #0
 c000c30:	d001      	beq.n	c000c36 <MX_DMA_Init+0x11a>
  {
    Error_Handler( );
 c000c32:	f000 f98f 	bl	c000f54 <Error_Handler>
  }

  /*  */
  if (HAL_DMA_ConfigChannelAttributes(&hdma_memtomem_dma1_channel4, DMA_CHANNEL_NPRIV) != HAL_OK)
 c000c36:	2110      	movs	r1, #16
 c000c38:	4827      	ldr	r0, [pc, #156]	; (c000cd8 <MX_DMA_Init+0x1bc>)
 c000c3a:	f001 ffeb 	bl	c002c14 <HAL_DMA_ConfigChannelAttributes>
 c000c3e:	4603      	mov	r3, r0
 c000c40:	2b00      	cmp	r3, #0
 c000c42:	d001      	beq.n	c000c48 <MX_DMA_Init+0x12c>
  {
    Error_Handler( );
 c000c44:	f000 f986 	bl	c000f54 <Error_Handler>
  }

  /*  */
  if (HAL_DMA_ConfigChannelAttributes(&hdma_memtomem_dma1_channel4, DMA_CHANNEL_SEC) != HAL_OK)
 c000c48:	f04f 1102 	mov.w	r1, #131074	; 0x20002
 c000c4c:	4822      	ldr	r0, [pc, #136]	; (c000cd8 <MX_DMA_Init+0x1bc>)
 c000c4e:	f001 ffe1 	bl	c002c14 <HAL_DMA_ConfigChannelAttributes>
 c000c52:	4603      	mov	r3, r0
 c000c54:	2b00      	cmp	r3, #0
 c000c56:	d001      	beq.n	c000c5c <MX_DMA_Init+0x140>
  {
    Error_Handler( );
 c000c58:	f000 f97c 	bl	c000f54 <Error_Handler>
  }

  /*  */
  if (HAL_DMA_ConfigChannelAttributes(&hdma_memtomem_dma1_channel4, DMA_CHANNEL_SRC_SEC) != HAL_OK)
 c000c5c:	f04f 1104 	mov.w	r1, #262148	; 0x40004
 c000c60:	481d      	ldr	r0, [pc, #116]	; (c000cd8 <MX_DMA_Init+0x1bc>)
 c000c62:	f001 ffd7 	bl	c002c14 <HAL_DMA_ConfigChannelAttributes>
 c000c66:	4603      	mov	r3, r0
 c000c68:	2b00      	cmp	r3, #0
 c000c6a:	d001      	beq.n	c000c70 <MX_DMA_Init+0x154>
  {
    Error_Handler( );
 c000c6c:	f000 f972 	bl	c000f54 <Error_Handler>
  }

  /*  */
  if (HAL_DMA_ConfigChannelAttributes(&hdma_memtomem_dma1_channel4, DMA_CHANNEL_DEST_SEC) != HAL_OK)
 c000c70:	f04f 1108 	mov.w	r1, #524296	; 0x80008
 c000c74:	4818      	ldr	r0, [pc, #96]	; (c000cd8 <MX_DMA_Init+0x1bc>)
 c000c76:	f001 ffcd 	bl	c002c14 <HAL_DMA_ConfigChannelAttributes>
 c000c7a:	4603      	mov	r3, r0
 c000c7c:	2b00      	cmp	r3, #0
 c000c7e:	d001      	beq.n	c000c84 <MX_DMA_Init+0x168>
  {
    Error_Handler( );
 c000c80:	f000 f968 	bl	c000f54 <Error_Handler>
  }

  /* DMA interrupt init */
  HAL_NVIC_SetPriority(DMA1_Channel1_IRQn, 0, 0);
 c000c84:	2200      	movs	r2, #0
 c000c86:	2100      	movs	r1, #0
 c000c88:	201d      	movs	r0, #29
 c000c8a:	f001 fd16 	bl	c0026ba <HAL_NVIC_SetPriority>
  HAL_NVIC_EnableIRQ(DMA1_Channel1_IRQn);
 c000c8e:	201d      	movs	r0, #29
 c000c90:	f001 fd2d 	bl	c0026ee <HAL_NVIC_EnableIRQ>
  /* DMA1_Channel2_IRQn interrupt configuration */
  HAL_NVIC_SetPriority(DMA1_Channel2_IRQn, 0, 0);
 c000c94:	2200      	movs	r2, #0
 c000c96:	2100      	movs	r1, #0
 c000c98:	201e      	movs	r0, #30
 c000c9a:	f001 fd0e 	bl	c0026ba <HAL_NVIC_SetPriority>
  HAL_NVIC_EnableIRQ(DMA1_Channel2_IRQn);
 c000c9e:	201e      	movs	r0, #30
 c000ca0:	f001 fd25 	bl	c0026ee <HAL_NVIC_EnableIRQ>
  /* DMA1_Channel3_IRQn interrupt configuration */
  HAL_NVIC_SetPriority(DMA1_Channel3_IRQn, 0, 0);
 c000ca4:	2200      	movs	r2, #0
 c000ca6:	2100      	movs	r1, #0
 c000ca8:	201f      	movs	r0, #31
 c000caa:	f001 fd06 	bl	c0026ba <HAL_NVIC_SetPriority>
  HAL_NVIC_EnableIRQ(DMA1_Channel3_IRQn);
 c000cae:	201f      	movs	r0, #31
 c000cb0:	f001 fd1d 	bl	c0026ee <HAL_NVIC_EnableIRQ>
  /* DMA1_Channel4_IRQn interrupt configuration */
  HAL_NVIC_SetPriority(DMA1_Channel4_IRQn, 0, 0);
 c000cb4:	2200      	movs	r2, #0
 c000cb6:	2100      	movs	r1, #0
 c000cb8:	2020      	movs	r0, #32
 c000cba:	f001 fcfe 	bl	c0026ba <HAL_NVIC_SetPriority>
  HAL_NVIC_EnableIRQ(DMA1_Channel4_IRQn);
 c000cbe:	2020      	movs	r0, #32
 c000cc0:	f001 fd15 	bl	c0026ee <HAL_NVIC_EnableIRQ>

}
 c000cc4:	bf00      	nop
 c000cc6:	3708      	adds	r7, #8
 c000cc8:	46bd      	mov	sp, r7
 c000cca:	bd80      	pop	{r7, pc}
 c000ccc:	50021000 	.word	0x50021000
 c000cd0:	300003a0 	.word	0x300003a0
 c000cd4:	50020008 	.word	0x50020008
 c000cd8:	30000408 	.word	0x30000408
 c000cdc:	50020044 	.word	0x50020044

0c000ce0 <MX_GPIO_Init>:
  * @brief GPIO Initialization Function
  * @param None
  * @retval None
  */
static void MX_GPIO_Init(void)
{
 c000ce0:	b580      	push	{r7, lr}
 c000ce2:	b08a      	sub	sp, #40	; 0x28
 c000ce4:	af00      	add	r7, sp, #0
  GPIO_InitTypeDef GPIO_InitStruct = {0};
 c000ce6:	f107 0314 	add.w	r3, r7, #20
 c000cea:	2200      	movs	r2, #0
 c000cec:	601a      	str	r2, [r3, #0]
 c000cee:	605a      	str	r2, [r3, #4]
 c000cf0:	609a      	str	r2, [r3, #8]
 c000cf2:	60da      	str	r2, [r3, #12]
 c000cf4:	611a      	str	r2, [r3, #16]
/* USER CODE BEGIN MX_GPIO_Init_1 */
/* USER CODE END MX_GPIO_Init_1 */

  /* GPIO Ports Clock Enable */
  __HAL_RCC_GPIOD_CLK_ENABLE();
 c000cf6:	4b31      	ldr	r3, [pc, #196]	; (c000dbc <MX_GPIO_Init+0xdc>)
 c000cf8:	6cdb      	ldr	r3, [r3, #76]	; 0x4c
 c000cfa:	4a30      	ldr	r2, [pc, #192]	; (c000dbc <MX_GPIO_Init+0xdc>)
 c000cfc:	f043 0308 	orr.w	r3, r3, #8
 c000d00:	64d3      	str	r3, [r2, #76]	; 0x4c
 c000d02:	4b2e      	ldr	r3, [pc, #184]	; (c000dbc <MX_GPIO_Init+0xdc>)
 c000d04:	6cdb      	ldr	r3, [r3, #76]	; 0x4c
 c000d06:	f003 0308 	and.w	r3, r3, #8
 c000d0a:	613b      	str	r3, [r7, #16]
 c000d0c:	693b      	ldr	r3, [r7, #16]
  __HAL_RCC_GPIOC_CLK_ENABLE();
 c000d0e:	4b2b      	ldr	r3, [pc, #172]	; (c000dbc <MX_GPIO_Init+0xdc>)
 c000d10:	6cdb      	ldr	r3, [r3, #76]	; 0x4c
 c000d12:	4a2a      	ldr	r2, [pc, #168]	; (c000dbc <MX_GPIO_Init+0xdc>)
 c000d14:	f043 0304 	orr.w	r3, r3, #4
 c000d18:	64d3      	str	r3, [r2, #76]	; 0x4c
 c000d1a:	4b28      	ldr	r3, [pc, #160]	; (c000dbc <MX_GPIO_Init+0xdc>)
 c000d1c:	6cdb      	ldr	r3, [r3, #76]	; 0x4c
 c000d1e:	f003 0304 	and.w	r3, r3, #4
 c000d22:	60fb      	str	r3, [r7, #12]
 c000d24:	68fb      	ldr	r3, [r7, #12]
  __HAL_RCC_GPIOG_CLK_ENABLE();
 c000d26:	4b25      	ldr	r3, [pc, #148]	; (c000dbc <MX_GPIO_Init+0xdc>)
 c000d28:	6cdb      	ldr	r3, [r3, #76]	; 0x4c
 c000d2a:	4a24      	ldr	r2, [pc, #144]	; (c000dbc <MX_GPIO_Init+0xdc>)
 c000d2c:	f043 0340 	orr.w	r3, r3, #64	; 0x40
 c000d30:	64d3      	str	r3, [r2, #76]	; 0x4c
 c000d32:	4b22      	ldr	r3, [pc, #136]	; (c000dbc <MX_GPIO_Init+0xdc>)
 c000d34:	6cdb      	ldr	r3, [r3, #76]	; 0x4c
 c000d36:	f003 0340 	and.w	r3, r3, #64	; 0x40
 c000d3a:	60bb      	str	r3, [r7, #8]
 c000d3c:	68bb      	ldr	r3, [r7, #8]
  HAL_PWREx_EnableVddIO2();
 c000d3e:	f003 f81f 	bl	c003d80 <HAL_PWREx_EnableVddIO2>
  __HAL_RCC_GPIOB_CLK_ENABLE();
 c000d42:	4b1e      	ldr	r3, [pc, #120]	; (c000dbc <MX_GPIO_Init+0xdc>)
 c000d44:	6cdb      	ldr	r3, [r3, #76]	; 0x4c
 c000d46:	4a1d      	ldr	r2, [pc, #116]	; (c000dbc <MX_GPIO_Init+0xdc>)
 c000d48:	f043 0302 	orr.w	r3, r3, #2
 c000d4c:	64d3      	str	r3, [r2, #76]	; 0x4c
 c000d4e:	4b1b      	ldr	r3, [pc, #108]	; (c000dbc <MX_GPIO_Init+0xdc>)
 c000d50:	6cdb      	ldr	r3, [r3, #76]	; 0x4c
 c000d52:	f003 0302 	and.w	r3, r3, #2
 c000d56:	607b      	str	r3, [r7, #4]
 c000d58:	687b      	ldr	r3, [r7, #4]
  __HAL_RCC_GPIOA_CLK_ENABLE();
 c000d5a:	4b18      	ldr	r3, [pc, #96]	; (c000dbc <MX_GPIO_Init+0xdc>)
 c000d5c:	6cdb      	ldr	r3, [r3, #76]	; 0x4c
 c000d5e:	4a17      	ldr	r2, [pc, #92]	; (c000dbc <MX_GPIO_Init+0xdc>)
 c000d60:	f043 0301 	orr.w	r3, r3, #1
 c000d64:	64d3      	str	r3, [r2, #76]	; 0x4c
 c000d66:	4b15      	ldr	r3, [pc, #84]	; (c000dbc <MX_GPIO_Init+0xdc>)
 c000d68:	6cdb      	ldr	r3, [r3, #76]	; 0x4c
 c000d6a:	f003 0301 	and.w	r3, r3, #1
 c000d6e:	603b      	str	r3, [r7, #0]
 c000d70:	683b      	ldr	r3, [r7, #0]

  /*Configure GPIO pin Output Level */
  HAL_GPIO_WritePin(GPIOB, GPIO_PIN_13, GPIO_PIN_SET);
 c000d72:	2201      	movs	r2, #1
 c000d74:	f44f 5100 	mov.w	r1, #8192	; 0x2000
 c000d78:	4811      	ldr	r0, [pc, #68]	; (c000dc0 <MX_GPIO_Init+0xe0>)
 c000d7a:	f002 f9f3 	bl	c003164 <HAL_GPIO_WritePin>

  /*IO attributes management functions */
  HAL_GPIO_ConfigPinAttributes(GPIOC, GPIO_PIN_11|GPIO_PIN_10|GPIO_PIN_14|GPIO_PIN_15
 c000d7e:	2200      	movs	r2, #0
 c000d80:	f64c 4140 	movw	r1, #52288	; 0xcc40
 c000d84:	480f      	ldr	r0, [pc, #60]	; (c000dc4 <MX_GPIO_Init+0xe4>)
 c000d86:	f002 fa05 	bl	c003194 <HAL_GPIO_ConfigPinAttributes>
                          |WHITE_LED_Pin, GPIO_PIN_NSEC);

  /*IO attributes management functions */
  HAL_GPIO_ConfigPinAttributes(IR_SENSOR_PIN_GPIO_Port, IR_SENSOR_PIN_Pin, GPIO_PIN_NSEC);
 c000d8a:	2200      	movs	r2, #0
 c000d8c:	f44f 6100 	mov.w	r1, #2048	; 0x800
 c000d90:	480d      	ldr	r0, [pc, #52]	; (c000dc8 <MX_GPIO_Init+0xe8>)
 c000d92:	f002 f9ff 	bl	c003194 <HAL_GPIO_ConfigPinAttributes>

  /*Configure GPIO pin : PB13 */
  GPIO_InitStruct.Pin = GPIO_PIN_13;
 c000d96:	f44f 5300 	mov.w	r3, #8192	; 0x2000
 c000d9a:	617b      	str	r3, [r7, #20]
  GPIO_InitStruct.Mode = GPIO_MODE_OUTPUT_PP;
 c000d9c:	2301      	movs	r3, #1
 c000d9e:	61bb      	str	r3, [r7, #24]
  GPIO_InitStruct.Pull = GPIO_PULLUP;
 c000da0:	2301      	movs	r3, #1
 c000da2:	61fb      	str	r3, [r7, #28]
  GPIO_InitStruct.Speed = GPIO_SPEED_FREQ_LOW;
 c000da4:	2300      	movs	r3, #0
 c000da6:	623b      	str	r3, [r7, #32]
  HAL_GPIO_Init(GPIOB, &GPIO_InitStruct);
 c000da8:	f107 0314 	add.w	r3, r7, #20
 c000dac:	4619      	mov	r1, r3
 c000dae:	4804      	ldr	r0, [pc, #16]	; (c000dc0 <MX_GPIO_Init+0xe0>)
 c000db0:	f002 f858 	bl	c002e64 <HAL_GPIO_Init>

/* USER CODE BEGIN MX_GPIO_Init_2 */
/* USER CODE END MX_GPIO_Init_2 */
}
 c000db4:	bf00      	nop
 c000db6:	3728      	adds	r7, #40	; 0x28
 c000db8:	46bd      	mov	sp, r7
 c000dba:	bd80      	pop	{r7, pc}
 c000dbc:	50021000 	.word	0x50021000
 c000dc0:	52020400 	.word	0x52020400
 c000dc4:	52020800 	.word	0x52020800
 c000dc8:	52020c00 	.word	0x52020c00

0c000dcc <HAL_SPI_TxRxCpltCallback>:
  * @note   This example shows a simple way to report end of DMA TxRx transfer, and
  *         you can add your own implementation.
  * @retval None
  */
void HAL_SPI_TxRxCpltCallback(SPI_HandleTypeDef *hspi)
{
 c000dcc:	b480      	push	{r7}
 c000dce:	b083      	sub	sp, #12
 c000dd0:	af00      	add	r7, sp, #0
 c000dd2:	6078      	str	r0, [r7, #4]
//  printf("SPI Transfer complete.\n\r");
  wTransferState = TRANSFER_COMPLETE;
 c000dd4:	4b04      	ldr	r3, [pc, #16]	; (c000de8 <HAL_SPI_TxRxCpltCallback+0x1c>)
 c000dd6:	2201      	movs	r2, #1
 c000dd8:	601a      	str	r2, [r3, #0]
}
 c000dda:	bf00      	nop
 c000ddc:	370c      	adds	r7, #12
 c000dde:	46bd      	mov	sp, r7
 c000de0:	f85d 7b04 	ldr.w	r7, [sp], #4
 c000de4:	4770      	bx	lr
 c000de6:	bf00      	nop
 c000de8:	30000470 	.word	0x30000470

0c000dec <HAL_SPI_TxCpltCallback>:


void HAL_SPI_TxCpltCallback(SPI_HandleTypeDef *hspi)
{
 c000dec:	b480      	push	{r7}
 c000dee:	b083      	sub	sp, #12
 c000df0:	af00      	add	r7, sp, #0
 c000df2:	6078      	str	r0, [r7, #4]
//  printf("SPI transmission complete.\n\r");
  wTransferState = TRANSFER_COMPLETE;
 c000df4:	4b04      	ldr	r3, [pc, #16]	; (c000e08 <HAL_SPI_TxCpltCallback+0x1c>)
 c000df6:	2201      	movs	r2, #1
 c000df8:	601a      	str	r2, [r3, #0]
}
 c000dfa:	bf00      	nop
 c000dfc:	370c      	adds	r7, #12
 c000dfe:	46bd      	mov	sp, r7
 c000e00:	f85d 7b04 	ldr.w	r7, [sp], #4
 c000e04:	4770      	bx	lr
 c000e06:	bf00      	nop
 c000e08:	30000470 	.word	0x30000470

0c000e0c <HAL_SPI_RxCpltCallback>:


void HAL_SPI_RxCpltCallback(SPI_HandleTypeDef *hspi)
{
 c000e0c:	b480      	push	{r7}
 c000e0e:	b083      	sub	sp, #12
 c000e10:	af00      	add	r7, sp, #0
 c000e12:	6078      	str	r0, [r7, #4]
//  printf("SPI Reception complete.\n\r");
  wTransferState = TRANSFER_COMPLETE;
 c000e14:	4b04      	ldr	r3, [pc, #16]	; (c000e28 <HAL_SPI_RxCpltCallback+0x1c>)
 c000e16:	2201      	movs	r2, #1
 c000e18:	601a      	str	r2, [r3, #0]
}
 c000e1a:	bf00      	nop
 c000e1c:	370c      	adds	r7, #12
 c000e1e:	46bd      	mov	sp, r7
 c000e20:	f85d 7b04 	ldr.w	r7, [sp], #4
 c000e24:	4770      	bx	lr
 c000e26:	bf00      	nop
 c000e28:	30000470 	.word	0x30000470

0c000e2c <__io_putchar>:


//redirects printf output to USART1 for displaying logs in a serial console
PUTCHAR_PROTOTYPE
{
 c000e2c:	b580      	push	{r7, lr}
 c000e2e:	b082      	sub	sp, #8
 c000e30:	af00      	add	r7, sp, #0
 c000e32:	6078      	str	r0, [r7, #4]
  /* Place your implementation of fputc here */
  /* e.g. write a character to the USART3 and Loop until the end of transmission */
  HAL_UART_Transmit(&huart1, (uint8_t *)&ch, 1, 0xFFFF);
 c000e34:	1d39      	adds	r1, r7, #4
 c000e36:	f64f 73ff 	movw	r3, #65535	; 0xffff
 c000e3a:	2201      	movs	r2, #1
 c000e3c:	4803      	ldr	r0, [pc, #12]	; (c000e4c <__io_putchar+0x20>)
 c000e3e:	f005 fc69 	bl	c006714 <HAL_UART_Transmit>

  return ch;
 c000e42:	687b      	ldr	r3, [r7, #4]
}
 c000e44:	4618      	mov	r0, r3
 c000e46:	3708      	adds	r7, #8
 c000e48:	46bd      	mov	sp, r7
 c000e4a:	bd80      	pop	{r7, pc}
 c000e4c:	3000030c 	.word	0x3000030c

0c000e50 <SearchForSig>:



//Returns position if s1 is substring of s2; -1 otherwise
int SearchForSig(uint8_t* signal, int sizeOfSig, uint8_t* data, int dataSize)
{
 c000e50:	b480      	push	{r7}
 c000e52:	b08b      	sub	sp, #44	; 0x2c
 c000e54:	af00      	add	r7, sp, #0
 c000e56:	60f8      	str	r0, [r7, #12]
 c000e58:	60b9      	str	r1, [r7, #8]
 c000e5a:	607a      	str	r2, [r7, #4]
 c000e5c:	603b      	str	r3, [r7, #0]
    int M = sizeOfSig;
 c000e5e:	68bb      	ldr	r3, [r7, #8]
 c000e60:	61bb      	str	r3, [r7, #24]
    int N = dataSize;
 c000e62:	683b      	ldr	r3, [r7, #0]
 c000e64:	617b      	str	r3, [r7, #20]
    int retval = -1;
 c000e66:	f04f 33ff 	mov.w	r3, #4294967295
 c000e6a:	627b      	str	r3, [r7, #36]	; 0x24


    /* A loop to slide signal one by one while comparing */
    for (int i = 0; i <= N - M; i++) {
 c000e6c:	2300      	movs	r3, #0
 c000e6e:	623b      	str	r3, [r7, #32]
 c000e70:	e022      	b.n	c000eb8 <SearchForSig+0x68>
      int j;

        //for current index i, check for signal match
      for (j = 0; j < M; j++){
 c000e72:	2300      	movs	r3, #0
 c000e74:	61fb      	str	r3, [r7, #28]
 c000e76:	e00f      	b.n	c000e98 <SearchForSig+0x48>
        if (data[i + j] != signal[j]){
 c000e78:	6a3a      	ldr	r2, [r7, #32]
 c000e7a:	69fb      	ldr	r3, [r7, #28]
 c000e7c:	4413      	add	r3, r2
 c000e7e:	461a      	mov	r2, r3
 c000e80:	687b      	ldr	r3, [r7, #4]
 c000e82:	4413      	add	r3, r2
 c000e84:	781a      	ldrb	r2, [r3, #0]
 c000e86:	69fb      	ldr	r3, [r7, #28]
 c000e88:	68f9      	ldr	r1, [r7, #12]
 c000e8a:	440b      	add	r3, r1
 c000e8c:	781b      	ldrb	r3, [r3, #0]
 c000e8e:	429a      	cmp	r2, r3
 c000e90:	d107      	bne.n	c000ea2 <SearchForSig+0x52>
      for (j = 0; j < M; j++){
 c000e92:	69fb      	ldr	r3, [r7, #28]
 c000e94:	3301      	adds	r3, #1
 c000e96:	61fb      	str	r3, [r7, #28]
 c000e98:	69fa      	ldr	r2, [r7, #28]
 c000e9a:	69bb      	ldr	r3, [r7, #24]
 c000e9c:	429a      	cmp	r2, r3
 c000e9e:	dbeb      	blt.n	c000e78 <SearchForSig+0x28>
 c000ea0:	e000      	b.n	c000ea4 <SearchForSig+0x54>
          break;
 c000ea2:	bf00      	nop
        }
      }
      if (j == M){
 c000ea4:	69fa      	ldr	r2, [r7, #28]
 c000ea6:	69bb      	ldr	r3, [r7, #24]
 c000ea8:	429a      	cmp	r2, r3
 c000eaa:	d102      	bne.n	c000eb2 <SearchForSig+0x62>
          retval = i;
 c000eac:	6a3b      	ldr	r3, [r7, #32]
 c000eae:	627b      	str	r3, [r7, #36]	; 0x24
          break;
 c000eb0:	e008      	b.n	c000ec4 <SearchForSig+0x74>
    for (int i = 0; i <= N - M; i++) {
 c000eb2:	6a3b      	ldr	r3, [r7, #32]
 c000eb4:	3301      	adds	r3, #1
 c000eb6:	623b      	str	r3, [r7, #32]
 c000eb8:	697a      	ldr	r2, [r7, #20]
 c000eba:	69bb      	ldr	r3, [r7, #24]
 c000ebc:	1ad3      	subs	r3, r2, r3
 c000ebe:	6a3a      	ldr	r2, [r7, #32]
 c000ec0:	429a      	cmp	r2, r3
 c000ec2:	ddd6      	ble.n	c000e72 <SearchForSig+0x22>
      }
    }

    return retval;
 c000ec4:	6a7b      	ldr	r3, [r7, #36]	; 0x24
}
 c000ec6:	4618      	mov	r0, r3
 c000ec8:	372c      	adds	r7, #44	; 0x2c
 c000eca:	46bd      	mov	sp, r7
 c000ecc:	f85d 7b04 	ldr.w	r7, [sp], #4
 c000ed0:	4770      	bx	lr
	...

0c000ed4 <NonsecureToSecureTransferComplete>:
}


//callback functions for nonsecure --> secure mem transfer
static void NonsecureToSecureTransferComplete(DMA_HandleTypeDef *hdma_memtomem_dma1_channel1)
{
 c000ed4:	b480      	push	{r7}
 c000ed6:	b083      	sub	sp, #12
 c000ed8:	af00      	add	r7, sp, #0
 c000eda:	6078      	str	r0, [r7, #4]
//	printf("nonsecure to secure transf complete executed.\n\r");
  NonsecureToSecureTransferCompleteDetected = 1;
 c000edc:	4b04      	ldr	r3, [pc, #16]	; (c000ef0 <NonsecureToSecureTransferComplete+0x1c>)
 c000ede:	2201      	movs	r2, #1
 c000ee0:	601a      	str	r2, [r3, #0]
}
 c000ee2:	bf00      	nop
 c000ee4:	370c      	adds	r7, #12
 c000ee6:	46bd      	mov	sp, r7
 c000ee8:	f85d 7b04 	ldr.w	r7, [sp], #4
 c000eec:	4770      	bx	lr
 c000eee:	bf00      	nop
 c000ef0:	30000474 	.word	0x30000474

0c000ef4 <NonsecureToSecureTransferError>:
  * @note   This function is executed when the transfer error interrupt
  *         is generated during DMA transfer
  * @retval None
  */
static void NonsecureToSecureTransferError(DMA_HandleTypeDef *hdma_memtomem_dma1_channel1)
{
 c000ef4:	b480      	push	{r7}
 c000ef6:	b083      	sub	sp, #12
 c000ef8:	af00      	add	r7, sp, #0
 c000efa:	6078      	str	r0, [r7, #4]
  NonsecureToSecureTransferErrorDetected = 1;
 c000efc:	4b04      	ldr	r3, [pc, #16]	; (c000f10 <NonsecureToSecureTransferError+0x1c>)
 c000efe:	2201      	movs	r2, #1
 c000f00:	601a      	str	r2, [r3, #0]
}
 c000f02:	bf00      	nop
 c000f04:	370c      	adds	r7, #12
 c000f06:	46bd      	mov	sp, r7
 c000f08:	f85d 7b04 	ldr.w	r7, [sp], #4
 c000f0c:	4770      	bx	lr
 c000f0e:	bf00      	nop
 c000f10:	30000478 	.word	0x30000478

0c000f14 <SecureToSecureTransferComplete>:
  * @note   This function is executed when the transfer complete interrupt
  *         is generated
  * @retval None
  */
static void SecureToSecureTransferComplete(DMA_HandleTypeDef *hdma_memtomem_dma1_channel4)
{
 c000f14:	b480      	push	{r7}
 c000f16:	b083      	sub	sp, #12
 c000f18:	af00      	add	r7, sp, #0
 c000f1a:	6078      	str	r0, [r7, #4]
  SecureToSecureTransferCompleteDetected = 1;
 c000f1c:	4b04      	ldr	r3, [pc, #16]	; (c000f30 <SecureToSecureTransferComplete+0x1c>)
 c000f1e:	2201      	movs	r2, #1
 c000f20:	601a      	str	r2, [r3, #0]
}
 c000f22:	bf00      	nop
 c000f24:	370c      	adds	r7, #12
 c000f26:	46bd      	mov	sp, r7
 c000f28:	f85d 7b04 	ldr.w	r7, [sp], #4
 c000f2c:	4770      	bx	lr
 c000f2e:	bf00      	nop
 c000f30:	30000480 	.word	0x30000480

0c000f34 <SecureToSecureTransferError>:
  * @note   This function is executed when the transfer error interrupt
  *         is generated during DMA transfer
  * @retval None
  */
static void SecureToSecureTransferError(DMA_HandleTypeDef *hdma_memtomem_dma1_channel4)
{
 c000f34:	b480      	push	{r7}
 c000f36:	b083      	sub	sp, #12
 c000f38:	af00      	add	r7, sp, #0
 c000f3a:	6078      	str	r0, [r7, #4]
  SecureToSecureTransferErrorDetected = 1;
 c000f3c:	4b04      	ldr	r3, [pc, #16]	; (c000f50 <SecureToSecureTransferError+0x1c>)
 c000f3e:	2201      	movs	r2, #1
 c000f40:	601a      	str	r2, [r3, #0]
}
 c000f42:	bf00      	nop
 c000f44:	370c      	adds	r7, #12
 c000f46:	46bd      	mov	sp, r7
 c000f48:	f85d 7b04 	ldr.w	r7, [sp], #4
 c000f4c:	4770      	bx	lr
 c000f4e:	bf00      	nop
 c000f50:	3000047c 	.word	0x3000047c

0c000f54 <Error_Handler>:
/**
  * @brief  This function is executed in case of error occurrence.
  * @retval None
  */
void Error_Handler(void)
{
 c000f54:	b480      	push	{r7}
 c000f56:	af00      	add	r7, sp, #0
  \details Disables IRQ interrupts by setting the I-bit in the CPSR.
           Can only be executed in Privileged modes.
 */
__STATIC_FORCEINLINE void __disable_irq(void)
{
  __ASM volatile ("cpsid i" : : : "memory");
 c000f58:	b672      	cpsid	i
}
 c000f5a:	bf00      	nop
  /* USER CODE BEGIN Error_Handler_Debug */
  /* User can add his own implementation to report the HAL error return state */
  __disable_irq();
  while (1)
 c000f5c:	e7fe      	b.n	c000f5c <Error_Handler+0x8>

0c000f5e <__acle_se_SECURE_print_Log>:
/* Private function prototypes -----------------------------------------------*/
/* Private functions ---------------------------------------------------------*/


//secure service for logging messages
CMSE_NS_ENTRY void SECURE_print_Log(char* string){
 c000f5e:	b580      	push	{r7, lr}
 c000f60:	b082      	sub	sp, #8
 c000f62:	af00      	add	r7, sp, #0
 c000f64:	6078      	str	r0, [r7, #4]
	printf(string);
 c000f66:	6878      	ldr	r0, [r7, #4]
 c000f68:	f006 fabe 	bl	c0074e8 <iprintf>
}
 c000f6c:	bf00      	nop
 c000f6e:	3708      	adds	r7, #8
 c000f70:	46bd      	mov	sp, r7
 c000f72:	e8bd 4080 	ldmia.w	sp!, {r7, lr}
 c000f76:	4670      	mov	r0, lr
 c000f78:	4671      	mov	r1, lr
 c000f7a:	4672      	mov	r2, lr
 c000f7c:	4673      	mov	r3, lr
 c000f7e:	eeb7 0a00 	vmov.f32	s0, #112	; 0x3f800000  1.0
 c000f82:	eef7 0a00 	vmov.f32	s1, #112	; 0x3f800000  1.0
 c000f86:	eeb7 1a00 	vmov.f32	s2, #112	; 0x3f800000  1.0
 c000f8a:	eef7 1a00 	vmov.f32	s3, #112	; 0x3f800000  1.0
 c000f8e:	eeb7 2a00 	vmov.f32	s4, #112	; 0x3f800000  1.0
 c000f92:	eef7 2a00 	vmov.f32	s5, #112	; 0x3f800000  1.0
 c000f96:	eeb7 3a00 	vmov.f32	s6, #112	; 0x3f800000  1.0
 c000f9a:	eef7 3a00 	vmov.f32	s7, #112	; 0x3f800000  1.0
 c000f9e:	eeb7 4a00 	vmov.f32	s8, #112	; 0x3f800000  1.0
 c000fa2:	eef7 4a00 	vmov.f32	s9, #112	; 0x3f800000  1.0
 c000fa6:	eeb7 5a00 	vmov.f32	s10, #112	; 0x3f800000  1.0
 c000faa:	eef7 5a00 	vmov.f32	s11, #112	; 0x3f800000  1.0
 c000fae:	eeb7 6a00 	vmov.f32	s12, #112	; 0x3f800000  1.0
 c000fb2:	eef7 6a00 	vmov.f32	s13, #112	; 0x3f800000  1.0
 c000fb6:	eeb7 7a00 	vmov.f32	s14, #112	; 0x3f800000  1.0
 c000fba:	eef7 7a00 	vmov.f32	s15, #112	; 0x3f800000  1.0
 c000fbe:	f38e 8c00 	msr	CPSR_fs, lr
 c000fc2:	b410      	push	{r4}
 c000fc4:	eef1 ca10 	vmrs	ip, fpscr
 c000fc8:	f64f 7460 	movw	r4, #65376	; 0xff60
 c000fcc:	f6c0 74ff 	movt	r4, #4095	; 0xfff
 c000fd0:	ea0c 0c04 	and.w	ip, ip, r4
 c000fd4:	eee1 ca10 	vmsr	fpscr, ip
 c000fd8:	bc10      	pop	{r4}
 c000fda:	46f4      	mov	ip, lr
 c000fdc:	4774      	bxns	lr
	...

0c000fe0 <__acle_se_SECURE_print_Num>:


//secure service for logging messages containing integer data
CMSE_NS_ENTRY void SECURE_print_Num(char* string, int num){
 c000fe0:	b580      	push	{r7, lr}
 c000fe2:	b082      	sub	sp, #8
 c000fe4:	af00      	add	r7, sp, #0
 c000fe6:	6078      	str	r0, [r7, #4]
 c000fe8:	6039      	str	r1, [r7, #0]
	printf("%s %d\n\r", string, num);
 c000fea:	683a      	ldr	r2, [r7, #0]
 c000fec:	6879      	ldr	r1, [r7, #4]
 c000fee:	481e      	ldr	r0, [pc, #120]	; (c001068 <__acle_se_SECURE_print_Num+0x88>)
 c000ff0:	f006 fa7a 	bl	c0074e8 <iprintf>
}
 c000ff4:	bf00      	nop
 c000ff6:	3708      	adds	r7, #8
 c000ff8:	46bd      	mov	sp, r7
 c000ffa:	e8bd 4080 	ldmia.w	sp!, {r7, lr}
 c000ffe:	4670      	mov	r0, lr
 c001000:	4671      	mov	r1, lr
 c001002:	4672      	mov	r2, lr
 c001004:	4673      	mov	r3, lr
 c001006:	eeb7 0a00 	vmov.f32	s0, #112	; 0x3f800000  1.0
 c00100a:	eef7 0a00 	vmov.f32	s1, #112	; 0x3f800000  1.0
 c00100e:	eeb7 1a00 	vmov.f32	s2, #112	; 0x3f800000  1.0
 c001012:	eef7 1a00 	vmov.f32	s3, #112	; 0x3f800000  1.0
 c001016:	eeb7 2a00 	vmov.f32	s4, #112	; 0x3f800000  1.0
 c00101a:	eef7 2a00 	vmov.f32	s5, #112	; 0x3f800000  1.0
 c00101e:	eeb7 3a00 	vmov.f32	s6, #112	; 0x3f800000  1.0
 c001022:	eef7 3a00 	vmov.f32	s7, #112	; 0x3f800000  1.0
 c001026:	eeb7 4a00 	vmov.f32	s8, #112	; 0x3f800000  1.0
 c00102a:	eef7 4a00 	vmov.f32	s9, #112	; 0x3f800000  1.0
 c00102e:	eeb7 5a00 	vmov.f32	s10, #112	; 0x3f800000  1.0
 c001032:	eef7 5a00 	vmov.f32	s11, #112	; 0x3f800000  1.0
 c001036:	eeb7 6a00 	vmov.f32	s12, #112	; 0x3f800000  1.0
 c00103a:	eef7 6a00 	vmov.f32	s13, #112	; 0x3f800000  1.0
 c00103e:	eeb7 7a00 	vmov.f32	s14, #112	; 0x3f800000  1.0
 c001042:	eef7 7a00 	vmov.f32	s15, #112	; 0x3f800000  1.0
 c001046:	f38e 8c00 	msr	CPSR_fs, lr
 c00104a:	b410      	push	{r4}
 c00104c:	eef1 ca10 	vmrs	ip, fpscr
 c001050:	f64f 7460 	movw	r4, #65376	; 0xff60
 c001054:	f6c0 74ff 	movt	r4, #4095	; 0xfff
 c001058:	ea0c 0c04 	and.w	ip, ip, r4
 c00105c:	eee1 ca10 	vmsr	fpscr, ip
 c001060:	bc10      	pop	{r4}
 c001062:	46f4      	mov	ip, lr
 c001064:	4774      	bxns	lr
 c001066:	bf00      	nop
 c001068:	0c0088b0 	.word	0x0c0088b0

0c00106c <__acle_se_SECURE_Send_Mem>:
//	    SECURE_print_Num(numBytesSent);
//}


//sends a full memory dump
CMSE_NS_ENTRY void SECURE_Send_Mem(){
 c00106c:	b580      	push	{r7, lr}
 c00106e:	b086      	sub	sp, #24
 c001070:	af00      	add	r7, sp, #0

	int blocksToSend = 256;
 c001072:	f44f 7380 	mov.w	r3, #256	; 0x100
 c001076:	60bb      	str	r3, [r7, #8]
	uint32_t* current_addr = (uint32_t*) NSEC_MEM_START;
 c001078:	4b4c      	ldr	r3, [pc, #304]	; (c0011ac <__acle_se_SECURE_Send_Mem+0x140>)
 c00107a:	617b      	str	r3, [r7, #20]
	uint8_t blocks_to_send_bytes[2];
	blocks_to_send_bytes[0] = blocksToSend >> 8;
 c00107c:	68bb      	ldr	r3, [r7, #8]
 c00107e:	121b      	asrs	r3, r3, #8
 c001080:	b2db      	uxtb	r3, r3
 c001082:	713b      	strb	r3, [r7, #4]
	blocks_to_send_bytes[1] = blocksToSend & 255;
 c001084:	68bb      	ldr	r3, [r7, #8]
 c001086:	b2db      	uxtb	r3, r3
 c001088:	717b      	strb	r3, [r7, #5]

	/********************************************* SEND NUM BLOCKS *******************************************************************************/

	//toggle spi communication; CS --> LOW (needed for library used on ESP32)
	SECURE_SPI_Toggle_Comm(0);
 c00108a:	2000      	movs	r0, #0
 c00108c:	f000 fc3c 	bl	c001908 <SECURE_SPI_Toggle_Comm>
	//send the start size signal through SPI
	SECURE_SPI_Send_Signal(START_SIZE_SIG, START_SIZE_SIG_SIZE);
 c001090:	4b47      	ldr	r3, [pc, #284]	; (c0011b0 <__acle_se_SECURE_Send_Mem+0x144>)
 c001092:	681b      	ldr	r3, [r3, #0]
 c001094:	4619      	mov	r1, r3
 c001096:	4847      	ldr	r0, [pc, #284]	; (c0011b4 <__acle_se_SECURE_Send_Mem+0x148>)
 c001098:	f000 fb18 	bl	c0016cc <SECURE_SPI_Send_Signal>
	HAL_Delay(800);
 c00109c:	f44f 7048 	mov.w	r0, #800	; 0x320
 c0010a0:	f001 fa0c 	bl	c0024bc <HAL_Delay>
	//send the number of modified blocks encoded as an unsigned byte. Range of values are 0-255 but we need 1-256, so needs to be adjusted at ESP32 side.
	SECURE_SPI_Send_Data_Buf((uint8_t*) blocks_to_send_bytes, 2);
 c0010a4:	1d3b      	adds	r3, r7, #4
 c0010a6:	2102      	movs	r1, #2
 c0010a8:	4618      	mov	r0, r3
 c0010aa:	f000 fb49 	bl	c001740 <SECURE_SPI_Send_Data_Buf>
	HAL_Delay(800);
 c0010ae:	f44f 7048 	mov.w	r0, #800	; 0x320
 c0010b2:	f001 fa03 	bl	c0024bc <HAL_Delay>
	//end the end size signal
	SECURE_SPI_Send_Signal(END_SIZE_SIG, END_SIZE_SIG_SIZE);
 c0010b6:	4b40      	ldr	r3, [pc, #256]	; (c0011b8 <__acle_se_SECURE_Send_Mem+0x14c>)
 c0010b8:	681b      	ldr	r3, [r3, #0]
 c0010ba:	4619      	mov	r1, r3
 c0010bc:	483f      	ldr	r0, [pc, #252]	; (c0011bc <__acle_se_SECURE_Send_Mem+0x150>)
 c0010be:	f000 fb05 	bl	c0016cc <SECURE_SPI_Send_Signal>
	HAL_Delay(800);
 c0010c2:	f44f 7048 	mov.w	r0, #800	; 0x320
 c0010c6:	f001 f9f9 	bl	c0024bc <HAL_Delay>
	SECURE_SPI_Toggle_Comm(1);
 c0010ca:	2001      	movs	r0, #1
 c0010cc:	f000 fc1c 	bl	c001908 <SECURE_SPI_Toggle_Comm>

	/******************************************** SEND MEMORY BLOCKS THROUGH SPI STREAM ***********************************************************/
	for(int i = 0; i < 32; i++){
 c0010d0:	2300      	movs	r3, #0
 c0010d2:	613b      	str	r3, [r7, #16]
 c0010d4:	e02c      	b.n	c001130 <__acle_se_SECURE_Send_Mem+0xc4>
		//send an 8KB chunk
		SECURE_SPI_Toggle_Comm(0);
 c0010d6:	2000      	movs	r0, #0
 c0010d8:	f000 fc16 	bl	c001908 <SECURE_SPI_Toggle_Comm>
		SECURE_SPI_Send_Signal(START_TRANSMISSION_SIG, START_TRANS_SIZE);
 c0010dc:	4b38      	ldr	r3, [pc, #224]	; (c0011c0 <__acle_se_SECURE_Send_Mem+0x154>)
 c0010de:	681b      	ldr	r3, [r3, #0]
 c0010e0:	4619      	mov	r1, r3
 c0010e2:	4838      	ldr	r0, [pc, #224]	; (c0011c4 <__acle_se_SECURE_Send_Mem+0x158>)
 c0010e4:	f000 faf2 	bl	c0016cc <SECURE_SPI_Send_Signal>
		for(int i = 0; i < 8; i++){
 c0010e8:	2300      	movs	r3, #0
 c0010ea:	60fb      	str	r3, [r7, #12]
 c0010ec:	e00d      	b.n	c00110a <__acle_se_SECURE_Send_Mem+0x9e>
			//send through SPI
			printf("sending data at address %p\n\r", current_addr);
 c0010ee:	6979      	ldr	r1, [r7, #20]
 c0010f0:	4835      	ldr	r0, [pc, #212]	; (c0011c8 <__acle_se_SECURE_Send_Mem+0x15c>)
 c0010f2:	f006 f9f9 	bl	c0074e8 <iprintf>
			SECURE_SPI_Send_Data_Block(current_addr);
 c0010f6:	6978      	ldr	r0, [r7, #20]
 c0010f8:	f000 fb5a 	bl	c0017b0 <SECURE_SPI_Send_Data_Block>
			//calculate the address of the next block to send
			current_addr += BUFFER_SIZE/4;
 c0010fc:	697b      	ldr	r3, [r7, #20]
 c0010fe:	f503 6380 	add.w	r3, r3, #1024	; 0x400
 c001102:	617b      	str	r3, [r7, #20]
		for(int i = 0; i < 8; i++){
 c001104:	68fb      	ldr	r3, [r7, #12]
 c001106:	3301      	adds	r3, #1
 c001108:	60fb      	str	r3, [r7, #12]
 c00110a:	68fb      	ldr	r3, [r7, #12]
 c00110c:	2b07      	cmp	r3, #7
 c00110e:	ddee      	ble.n	c0010ee <__acle_se_SECURE_Send_Mem+0x82>
		}
		//send the end signal
		SECURE_SPI_Send_Signal(END_TRANSMISSION_SIG, END_TRANS_SIZE);
 c001110:	4b2e      	ldr	r3, [pc, #184]	; (c0011cc <__acle_se_SECURE_Send_Mem+0x160>)
 c001112:	681b      	ldr	r3, [r3, #0]
 c001114:	4619      	mov	r1, r3
 c001116:	482e      	ldr	r0, [pc, #184]	; (c0011d0 <__acle_se_SECURE_Send_Mem+0x164>)
 c001118:	f000 fad8 	bl	c0016cc <SECURE_SPI_Send_Signal>
		//toggle spi communication
		SECURE_SPI_Toggle_Comm(1);
 c00111c:	2001      	movs	r0, #1
 c00111e:	f000 fbf3 	bl	c001908 <SECURE_SPI_Toggle_Comm>
		//decrement num modified blocks
		HAL_Delay(8000);
 c001122:	f44f 50fa 	mov.w	r0, #8000	; 0x1f40
 c001126:	f001 f9c9 	bl	c0024bc <HAL_Delay>
	for(int i = 0; i < 32; i++){
 c00112a:	693b      	ldr	r3, [r7, #16]
 c00112c:	3301      	adds	r3, #1
 c00112e:	613b      	str	r3, [r7, #16]
 c001130:	693b      	ldr	r3, [r7, #16]
 c001132:	2b1f      	cmp	r3, #31
 c001134:	ddcf      	ble.n	c0010d6 <__acle_se_SECURE_Send_Mem+0x6a>
	}

}
 c001136:	bf00      	nop
 c001138:	bf00      	nop
 c00113a:	3718      	adds	r7, #24
 c00113c:	46bd      	mov	sp, r7
 c00113e:	e8bd 4080 	ldmia.w	sp!, {r7, lr}
 c001142:	4670      	mov	r0, lr
 c001144:	4671      	mov	r1, lr
 c001146:	4672      	mov	r2, lr
 c001148:	4673      	mov	r3, lr
 c00114a:	eeb7 0a00 	vmov.f32	s0, #112	; 0x3f800000  1.0
 c00114e:	eef7 0a00 	vmov.f32	s1, #112	; 0x3f800000  1.0
 c001152:	eeb7 1a00 	vmov.f32	s2, #112	; 0x3f800000  1.0
 c001156:	eef7 1a00 	vmov.f32	s3, #112	; 0x3f800000  1.0
 c00115a:	eeb7 2a00 	vmov.f32	s4, #112	; 0x3f800000  1.0
 c00115e:	eef7 2a00 	vmov.f32	s5, #112	; 0x3f800000  1.0
 c001162:	eeb7 3a00 	vmov.f32	s6, #112	; 0x3f800000  1.0
 c001166:	eef7 3a00 	vmov.f32	s7, #112	; 0x3f800000  1.0
 c00116a:	eeb7 4a00 	vmov.f32	s8, #112	; 0x3f800000  1.0
 c00116e:	eef7 4a00 	vmov.f32	s9, #112	; 0x3f800000  1.0
 c001172:	eeb7 5a00 	vmov.f32	s10, #112	; 0x3f800000  1.0
 c001176:	eef7 5a00 	vmov.f32	s11, #112	; 0x3f800000  1.0
 c00117a:	eeb7 6a00 	vmov.f32	s12, #112	; 0x3f800000  1.0
 c00117e:	eef7 6a00 	vmov.f32	s13, #112	; 0x3f800000  1.0
 c001182:	eeb7 7a00 	vmov.f32	s14, #112	; 0x3f800000  1.0
 c001186:	eef7 7a00 	vmov.f32	s15, #112	; 0x3f800000  1.0
 c00118a:	f38e 8c00 	msr	CPSR_fs, lr
 c00118e:	b410      	push	{r4}
 c001190:	eef1 ca10 	vmrs	ip, fpscr
 c001194:	f64f 7460 	movw	r4, #65376	; 0xff60
 c001198:	f6c0 74ff 	movt	r4, #4095	; 0xfff
 c00119c:	ea0c 0c04 	and.w	ip, ip, r4
 c0011a0:	eee1 ca10 	vmsr	fpscr, ip
 c0011a4:	bc10      	pop	{r4}
 c0011a6:	46f4      	mov	ip, lr
 c0011a8:	4774      	bxns	lr
 c0011aa:	bf00      	nop
 c0011ac:	08040000 	.word	0x08040000
 c0011b0:	300000d8 	.word	0x300000d8
 c0011b4:	3000005c 	.word	0x3000005c
 c0011b8:	300000dc 	.word	0x300000dc
 c0011bc:	3000006c 	.word	0x3000006c
 c0011c0:	300000e0 	.word	0x300000e0
 c0011c4:	30000044 	.word	0x30000044
 c0011c8:	0c0088b8 	.word	0x0c0088b8
 c0011cc:	300000e4 	.word	0x300000e4
 c0011d0:	30000030 	.word	0x30000030

0c0011d4 <__acle_se_SECURE_Send_Modified_Mem>:



//sends only the modified memory
CMSE_NS_ENTRY void SECURE_Send_Modified_Mem(){
 c0011d4:	e92d 43f0 	stmdb	sp!, {r4, r5, r6, r7, r8, r9, lr}
 c0011d8:	f2ad 4d4c 	subw	sp, sp, #1100	; 0x44c
 c0011dc:	af02      	add	r7, sp, #8

	int modifiedBlockNums[256];
	//reset watchdog
	HAL_IWDG_Refresh(&hiwdg);
 c0011de:	48d0      	ldr	r0, [pc, #832]	; (c001520 <__acle_se_SECURE_Send_Modified_Mem+0x34c>)
 c0011e0:	f002 fd53 	bl	c003c8a <HAL_IWDG_Refresh>
	uint16_t numModified = 0;
 c0011e4:	2300      	movs	r3, #0
 c0011e6:	f8a7 3436 	strh.w	r3, [r7, #1078]	; 0x436
	blockNum = 0;
 c0011ea:	4bce      	ldr	r3, [pc, #824]	; (c001524 <__acle_se_SECURE_Send_Modified_Mem+0x350>)
 c0011ec:	2200      	movs	r2, #0
 c0011ee:	601a      	str	r2, [r3, #0]
	int max_blocks_modified = 256;
 c0011f0:	f44f 7380 	mov.w	r3, #256	; 0x100
 c0011f4:	f8c7 3424 	str.w	r3, [r7, #1060]	; 0x424
	int max_block_list_size = 3 * max_blocks_modified + max_blocks_modified;
 c0011f8:	f8d7 3424 	ldr.w	r3, [r7, #1060]	; 0x424
 c0011fc:	009b      	lsls	r3, r3, #2
 c0011fe:	f8c7 3420 	str.w	r3, [r7, #1056]	; 0x420
	uint8_t num_modified_bytes[2];

	/******************************************* ACQUIRE INFO ABOUT CHANGED BLOCKS *********************************************************/

	//loop through the blocks and compute hashes
	uint32_t* current_address = (uint32_t*) NSEC_MEM_START;
 c001202:	4bc9      	ldr	r3, [pc, #804]	; (c001528 <__acle_se_SECURE_Send_Modified_Mem+0x354>)
 c001204:	f8c7 3438 	str.w	r3, [r7, #1080]	; 0x438
	while((uint32_t) current_address <= NSEC_MEM_END && (NSEC_MEM_END - (uint32_t)current_address) +1 >= BUFFER_SIZE){
 c001208:	e053      	b.n	c0012b2 <__acle_se_SECURE_Send_Modified_Mem+0xde>
		  //get the current block
		  if(HAL_DMA_Start_IT(&hdma_memtomem_dma1_channel1, (uint32_t)current_address, (uint32_t)&SEC_Mem_Buffer, BUFFER_SIZE/4) != HAL_OK){
 c00120a:	f8d7 1438 	ldr.w	r1, [r7, #1080]	; 0x438
 c00120e:	4ac7      	ldr	r2, [pc, #796]	; (c00152c <__acle_se_SECURE_Send_Modified_Mem+0x358>)
 c001210:	f44f 7380 	mov.w	r3, #256	; 0x100
 c001214:	48c6      	ldr	r0, [pc, #792]	; (c001530 <__acle_se_SECURE_Send_Modified_Mem+0x35c>)
 c001216:	f001 fb2d 	bl	c002874 <HAL_DMA_Start_IT>
 c00121a:	4603      	mov	r3, r0
 c00121c:	2b00      	cmp	r3, #0
 c00121e:	d002      	beq.n	c001226 <__acle_se_SECURE_Send_Modified_Mem+0x52>
			  printf("could not start the secure to secure memory transfer.\n\r");
 c001220:	48c4      	ldr	r0, [pc, #784]	; (c001534 <__acle_se_SECURE_Send_Modified_Mem+0x360>)
 c001222:	f006 f961 	bl	c0074e8 <iprintf>
		   }
		  //wait for completion
		  while ((NonsecureToSecureTransferCompleteDetected == 0) &&
 c001226:	bf00      	nop
 c001228:	4bc3      	ldr	r3, [pc, #780]	; (c001538 <__acle_se_SECURE_Send_Modified_Mem+0x364>)
 c00122a:	681b      	ldr	r3, [r3, #0]
 c00122c:	2b00      	cmp	r3, #0
 c00122e:	d103      	bne.n	c001238 <__acle_se_SECURE_Send_Modified_Mem+0x64>
				 (NonsecureToSecureTransferErrorDetected == 0));
 c001230:	4bc2      	ldr	r3, [pc, #776]	; (c00153c <__acle_se_SECURE_Send_Modified_Mem+0x368>)
 c001232:	681b      	ldr	r3, [r3, #0]
		  while ((NonsecureToSecureTransferCompleteDetected == 0) &&
 c001234:	2b00      	cmp	r3, #0
 c001236:	d0f7      	beq.n	c001228 <__acle_se_SECURE_Send_Modified_Mem+0x54>

		  //compute the hash
		  if(HAL_HASH_MD5_Start(&hhash, (uint8_t*)SEC_Mem_Buffer, BUFFER_SIZE, SEC_Mem_Digest, 0xff) != HAL_OK){
 c001238:	23ff      	movs	r3, #255	; 0xff
 c00123a:	9300      	str	r3, [sp, #0]
 c00123c:	4bc0      	ldr	r3, [pc, #768]	; (c001540 <__acle_se_SECURE_Send_Modified_Mem+0x36c>)
 c00123e:	f44f 6280 	mov.w	r2, #1024	; 0x400
 c001242:	49ba      	ldr	r1, [pc, #744]	; (c00152c <__acle_se_SECURE_Send_Modified_Mem+0x358>)
 c001244:	48bf      	ldr	r0, [pc, #764]	; (c001544 <__acle_se_SECURE_Send_Modified_Mem+0x370>)
 c001246:	f002 f98d 	bl	c003564 <HAL_HASH_MD5_Start>
 c00124a:	4603      	mov	r3, r0
 c00124c:	2b00      	cmp	r3, #0
 c00124e:	d002      	beq.n	c001256 <__acle_se_SECURE_Send_Modified_Mem+0x82>
			  printf("There's an issue with the hash operation\n\r");
 c001250:	48bd      	ldr	r0, [pc, #756]	; (c001548 <__acle_se_SECURE_Send_Modified_Mem+0x374>)
 c001252:	f006 f949 	bl	c0074e8 <iprintf>
		  }

		  //compare to hash in the table
		  if(memcmp(SEC_Mem_Digest, SEC_Mem_Hashes[blockNum], 16) != 0){
 c001256:	4bb3      	ldr	r3, [pc, #716]	; (c001524 <__acle_se_SECURE_Send_Modified_Mem+0x350>)
 c001258:	681b      	ldr	r3, [r3, #0]
 c00125a:	011b      	lsls	r3, r3, #4
 c00125c:	4abb      	ldr	r2, [pc, #748]	; (c00154c <__acle_se_SECURE_Send_Modified_Mem+0x378>)
 c00125e:	4413      	add	r3, r2
 c001260:	2210      	movs	r2, #16
 c001262:	4619      	mov	r1, r3
 c001264:	48b6      	ldr	r0, [pc, #728]	; (c001540 <__acle_se_SECURE_Send_Modified_Mem+0x36c>)
 c001266:	f006 f927 	bl	c0074b8 <memcmp>
 c00126a:	4603      	mov	r3, r0
 c00126c:	2b00      	cmp	r3, #0
 c00126e:	d015      	beq.n	c00129c <__acle_se_SECURE_Send_Modified_Mem+0xc8>
			  printf("The hash has changed for block %d.\n\r", blockNum);
 c001270:	4bac      	ldr	r3, [pc, #688]	; (c001524 <__acle_se_SECURE_Send_Modified_Mem+0x350>)
 c001272:	681b      	ldr	r3, [r3, #0]
 c001274:	4619      	mov	r1, r3
 c001276:	48b6      	ldr	r0, [pc, #728]	; (c001550 <__acle_se_SECURE_Send_Modified_Mem+0x37c>)
 c001278:	f006 f936 	bl	c0074e8 <iprintf>
			  //the hash has changed
			  modifiedBlockNums[numModified] = blockNum;
 c00127c:	4ba9      	ldr	r3, [pc, #676]	; (c001524 <__acle_se_SECURE_Send_Modified_Mem+0x350>)
 c00127e:	681b      	ldr	r3, [r3, #0]
 c001280:	f8b7 2436 	ldrh.w	r2, [r7, #1078]	; 0x436
 c001284:	4619      	mov	r1, r3
 c001286:	f507 6388 	add.w	r3, r7, #1088	; 0x440
 c00128a:	f2a3 4334 	subw	r3, r3, #1076	; 0x434
 c00128e:	f843 1022 	str.w	r1, [r3, r2, lsl #2]
			  numModified ++;
 c001292:	f8b7 3436 	ldrh.w	r3, [r7, #1078]	; 0x436
 c001296:	3301      	adds	r3, #1
 c001298:	f8a7 3436 	strh.w	r3, [r7, #1078]	; 0x436
		  }
		  //increment variables
		  blockNum ++;
 c00129c:	4ba1      	ldr	r3, [pc, #644]	; (c001524 <__acle_se_SECURE_Send_Modified_Mem+0x350>)
 c00129e:	681b      	ldr	r3, [r3, #0]
 c0012a0:	3301      	adds	r3, #1
 c0012a2:	4aa0      	ldr	r2, [pc, #640]	; (c001524 <__acle_se_SECURE_Send_Modified_Mem+0x350>)
 c0012a4:	6013      	str	r3, [r2, #0]
		  current_address += BUFFER_SIZE/4;
 c0012a6:	f8d7 3438 	ldr.w	r3, [r7, #1080]	; 0x438
 c0012aa:	f503 6380 	add.w	r3, r3, #1024	; 0x400
 c0012ae:	f8c7 3438 	str.w	r3, [r7, #1080]	; 0x438
	while((uint32_t) current_address <= NSEC_MEM_END && (NSEC_MEM_END - (uint32_t)current_address) +1 >= BUFFER_SIZE){
 c0012b2:	f8d7 3438 	ldr.w	r3, [r7, #1080]	; 0x438
 c0012b6:	4aa7      	ldr	r2, [pc, #668]	; (c001554 <__acle_se_SECURE_Send_Modified_Mem+0x380>)
 c0012b8:	4293      	cmp	r3, r2
 c0012ba:	d808      	bhi.n	c0012ce <__acle_se_SECURE_Send_Modified_Mem+0xfa>
 c0012bc:	f8d7 3438 	ldr.w	r3, [r7, #1080]	; 0x438
 c0012c0:	f1c3 6300 	rsb	r3, r3, #134217728	; 0x8000000
 c0012c4:	f503 2300 	add.w	r3, r3, #524288	; 0x80000
 c0012c8:	f5b3 6f80 	cmp.w	r3, #1024	; 0x400
 c0012cc:	d29d      	bcs.n	c00120a <__acle_se_SECURE_Send_Modified_Mem+0x36>
	  }
	/******************************************* DATA MANIPULATION *********************************************************/
	printf("%d blocks have changed\n\r", numModified);
 c0012ce:	f8b7 3436 	ldrh.w	r3, [r7, #1078]	; 0x436
 c0012d2:	4619      	mov	r1, r3
 c0012d4:	48a0      	ldr	r0, [pc, #640]	; (c001558 <__acle_se_SECURE_Send_Modified_Mem+0x384>)
 c0012d6:	f006 f907 	bl	c0074e8 <iprintf>
	//build list of modified block numbers separated by commas. Encoded as a string
	char formattedBlockNums[max_block_list_size];
 c0012da:	f8d7 1420 	ldr.w	r1, [r7, #1056]	; 0x420
 c0012de:	466b      	mov	r3, sp
 c0012e0:	461e      	mov	r6, r3
 c0012e2:	1e4b      	subs	r3, r1, #1
 c0012e4:	f8c7 341c 	str.w	r3, [r7, #1052]	; 0x41c
 c0012e8:	460a      	mov	r2, r1
 c0012ea:	2300      	movs	r3, #0
 c0012ec:	4690      	mov	r8, r2
 c0012ee:	4699      	mov	r9, r3
 c0012f0:	f04f 0200 	mov.w	r2, #0
 c0012f4:	f04f 0300 	mov.w	r3, #0
 c0012f8:	ea4f 03c9 	mov.w	r3, r9, lsl #3
 c0012fc:	ea43 7358 	orr.w	r3, r3, r8, lsr #29
 c001300:	ea4f 02c8 	mov.w	r2, r8, lsl #3
 c001304:	460a      	mov	r2, r1
 c001306:	2300      	movs	r3, #0
 c001308:	4614      	mov	r4, r2
 c00130a:	461d      	mov	r5, r3
 c00130c:	f04f 0200 	mov.w	r2, #0
 c001310:	f04f 0300 	mov.w	r3, #0
 c001314:	00eb      	lsls	r3, r5, #3
 c001316:	ea43 7354 	orr.w	r3, r3, r4, lsr #29
 c00131a:	00e2      	lsls	r2, r4, #3
 c00131c:	460b      	mov	r3, r1
 c00131e:	3307      	adds	r3, #7
 c001320:	08db      	lsrs	r3, r3, #3
 c001322:	00db      	lsls	r3, r3, #3
 c001324:	ebad 0d03 	sub.w	sp, sp, r3
 c001328:	ab02      	add	r3, sp, #8
 c00132a:	3300      	adds	r3, #0
 c00132c:	f8c7 3418 	str.w	r3, [r7, #1048]	; 0x418
	int inc = 0;
 c001330:	2300      	movs	r3, #0
 c001332:	f8c7 3414 	str.w	r3, [r7, #1044]	; 0x414
	uint16_t pos = 0;
 c001336:	2300      	movs	r3, #0
 c001338:	f8a7 343e 	strh.w	r3, [r7, #1086]	; 0x43e
	inc = snprintf(&formattedBlockNums[pos], max_block_list_size, "%d", modifiedBlockNums[0]);
 c00133c:	f8b7 343e 	ldrh.w	r3, [r7, #1086]	; 0x43e
 c001340:	f8d7 2418 	ldr.w	r2, [r7, #1048]	; 0x418
 c001344:	18d0      	adds	r0, r2, r3
 c001346:	f8d7 1420 	ldr.w	r1, [r7, #1056]	; 0x420
 c00134a:	f507 6388 	add.w	r3, r7, #1088	; 0x440
 c00134e:	f2a3 4334 	subw	r3, r3, #1076	; 0x434
 c001352:	681b      	ldr	r3, [r3, #0]
 c001354:	4a81      	ldr	r2, [pc, #516]	; (c00155c <__acle_se_SECURE_Send_Modified_Mem+0x388>)
 c001356:	f006 f8df 	bl	c007518 <sniprintf>
 c00135a:	f8c7 0414 	str.w	r0, [r7, #1044]	; 0x414
	pos += inc;
 c00135e:	f8d7 3414 	ldr.w	r3, [r7, #1044]	; 0x414
 c001362:	b29a      	uxth	r2, r3
 c001364:	f8b7 343e 	ldrh.w	r3, [r7, #1086]	; 0x43e
 c001368:	4413      	add	r3, r2
 c00136a:	f8a7 343e 	strh.w	r3, [r7, #1086]	; 0x43e
	//send the block list out through spi as a comma separated list
	for(int i = 1; i < numModified; i++){
 c00136e:	2301      	movs	r3, #1
 c001370:	f8c7 3430 	str.w	r3, [r7, #1072]	; 0x430
 c001374:	e025      	b.n	c0013c2 <__acle_se_SECURE_Send_Modified_Mem+0x1ee>
		inc = snprintf(&formattedBlockNums[pos], max_block_list_size-pos+1, ",%d",modifiedBlockNums[i]);
 c001376:	f8b7 343e 	ldrh.w	r3, [r7, #1086]	; 0x43e
 c00137a:	f8d7 2418 	ldr.w	r2, [r7, #1048]	; 0x418
 c00137e:	18d0      	adds	r0, r2, r3
 c001380:	f8b7 343e 	ldrh.w	r3, [r7, #1086]	; 0x43e
 c001384:	f8d7 2420 	ldr.w	r2, [r7, #1056]	; 0x420
 c001388:	1ad3      	subs	r3, r2, r3
 c00138a:	3301      	adds	r3, #1
 c00138c:	4619      	mov	r1, r3
 c00138e:	f507 6388 	add.w	r3, r7, #1088	; 0x440
 c001392:	f2a3 4334 	subw	r3, r3, #1076	; 0x434
 c001396:	f8d7 2430 	ldr.w	r2, [r7, #1072]	; 0x430
 c00139a:	f853 3022 	ldr.w	r3, [r3, r2, lsl #2]
 c00139e:	4a70      	ldr	r2, [pc, #448]	; (c001560 <__acle_se_SECURE_Send_Modified_Mem+0x38c>)
 c0013a0:	f006 f8ba 	bl	c007518 <sniprintf>
 c0013a4:	f8c7 0414 	str.w	r0, [r7, #1044]	; 0x414
		pos+= inc;
 c0013a8:	f8d7 3414 	ldr.w	r3, [r7, #1044]	; 0x414
 c0013ac:	b29a      	uxth	r2, r3
 c0013ae:	f8b7 343e 	ldrh.w	r3, [r7, #1086]	; 0x43e
 c0013b2:	4413      	add	r3, r2
 c0013b4:	f8a7 343e 	strh.w	r3, [r7, #1086]	; 0x43e
	for(int i = 1; i < numModified; i++){
 c0013b8:	f8d7 3430 	ldr.w	r3, [r7, #1072]	; 0x430
 c0013bc:	3301      	adds	r3, #1
 c0013be:	f8c7 3430 	str.w	r3, [r7, #1072]	; 0x430
 c0013c2:	f8b7 3436 	ldrh.w	r3, [r7, #1078]	; 0x436
 c0013c6:	f8d7 2430 	ldr.w	r2, [r7, #1072]	; 0x430
 c0013ca:	429a      	cmp	r2, r3
 c0013cc:	dbd3      	blt.n	c001376 <__acle_se_SECURE_Send_Modified_Mem+0x1a2>
	}
	//encode block list size as a stream of bytes so it can be sent via SPI
	block_list_size_bytes[0] = pos >> 8; //most significant byte
 c0013ce:	f8b7 343e 	ldrh.w	r3, [r7, #1086]	; 0x43e
 c0013d2:	0a1b      	lsrs	r3, r3, #8
 c0013d4:	b29b      	uxth	r3, r3
 c0013d6:	b2da      	uxtb	r2, r3
 c0013d8:	f507 6388 	add.w	r3, r7, #1088	; 0x440
 c0013dc:	f5a3 6387 	sub.w	r3, r3, #1080	; 0x438
 c0013e0:	701a      	strb	r2, [r3, #0]
	block_list_size_bytes[1] = pos & 255; //least significant byte
 c0013e2:	f8b7 343e 	ldrh.w	r3, [r7, #1086]	; 0x43e
 c0013e6:	b2da      	uxtb	r2, r3
 c0013e8:	f507 6388 	add.w	r3, r7, #1088	; 0x440
 c0013ec:	f5a3 6387 	sub.w	r3, r3, #1080	; 0x438
 c0013f0:	705a      	strb	r2, [r3, #1]
	//do the same for the count of modified blocks
	num_modified_bytes[0] = numModified >> 8;
 c0013f2:	f8b7 3436 	ldrh.w	r3, [r7, #1078]	; 0x436
 c0013f6:	0a1b      	lsrs	r3, r3, #8
 c0013f8:	b29b      	uxth	r3, r3
 c0013fa:	b2da      	uxtb	r2, r3
 c0013fc:	f507 6388 	add.w	r3, r7, #1088	; 0x440
 c001400:	f2a3 433c 	subw	r3, r3, #1084	; 0x43c
 c001404:	701a      	strb	r2, [r3, #0]
	num_modified_bytes[1] = numModified & 255;
 c001406:	f8b7 3436 	ldrh.w	r3, [r7, #1078]	; 0x436
 c00140a:	b2da      	uxtb	r2, r3
 c00140c:	f507 6388 	add.w	r3, r7, #1088	; 0x440
 c001410:	f2a3 433c 	subw	r3, r3, #1084	; 0x43c
 c001414:	705a      	strb	r2, [r3, #1]

	/******************************************* BUILDING THE SPI DATA STREAM (METADATA) *********************************************************/

	//toggle spi communication; CS --> LOW (needed for library used on ESP32)
	SECURE_SPI_Toggle_Comm(0);
 c001416:	2000      	movs	r0, #0
 c001418:	f000 fa76 	bl	c001908 <SECURE_SPI_Toggle_Comm>
	//send the start size signal through SPI
	SECURE_SPI_Send_Signal(START_SIZE_SIG, START_SIZE_SIG_SIZE);
 c00141c:	4b51      	ldr	r3, [pc, #324]	; (c001564 <__acle_se_SECURE_Send_Modified_Mem+0x390>)
 c00141e:	681b      	ldr	r3, [r3, #0]
 c001420:	4619      	mov	r1, r3
 c001422:	4851      	ldr	r0, [pc, #324]	; (c001568 <__acle_se_SECURE_Send_Modified_Mem+0x394>)
 c001424:	f000 f952 	bl	c0016cc <SECURE_SPI_Send_Signal>
	HAL_Delay(500);
 c001428:	f44f 70fa 	mov.w	r0, #500	; 0x1f4
 c00142c:	f001 f846 	bl	c0024bc <HAL_Delay>
	//send the number of modified blocks encoded as an unsigned byte. Range of values are 0-255 but we need 1-256, so needs to be adjusted at ESP32 side.
	SECURE_SPI_Send_Data_Buf((uint8_t*) num_modified_bytes, 2);
 c001430:	1d3b      	adds	r3, r7, #4
 c001432:	2102      	movs	r1, #2
 c001434:	4618      	mov	r0, r3
 c001436:	f000 f983 	bl	c001740 <SECURE_SPI_Send_Data_Buf>
	HAL_Delay(500);
 c00143a:	f44f 70fa 	mov.w	r0, #500	; 0x1f4
 c00143e:	f001 f83d 	bl	c0024bc <HAL_Delay>
	//end the end size signal
	SECURE_SPI_Send_Signal(END_SIZE_SIG, END_SIZE_SIG_SIZE);
 c001442:	4b4a      	ldr	r3, [pc, #296]	; (c00156c <__acle_se_SECURE_Send_Modified_Mem+0x398>)
 c001444:	681b      	ldr	r3, [r3, #0]
 c001446:	4619      	mov	r1, r3
 c001448:	4849      	ldr	r0, [pc, #292]	; (c001570 <__acle_se_SECURE_Send_Modified_Mem+0x39c>)
 c00144a:	f000 f93f 	bl	c0016cc <SECURE_SPI_Send_Signal>
	HAL_Delay(500);
 c00144e:	f44f 70fa 	mov.w	r0, #500	; 0x1f4
 c001452:	f001 f833 	bl	c0024bc <HAL_Delay>
	SECURE_SPI_Toggle_Comm(1);
 c001456:	2001      	movs	r0, #1
 c001458:	f000 fa56 	bl	c001908 <SECURE_SPI_Toggle_Comm>
	HAL_Delay(500);
 c00145c:	f44f 70fa 	mov.w	r0, #500	; 0x1f4
 c001460:	f001 f82c 	bl	c0024bc <HAL_Delay>
	//send size of modified block list. This can potentially be a large number so we need to send it encoded as an unsigned short (two unsigned bytes)
	SECURE_SPI_Toggle_Comm(0);
 c001464:	2000      	movs	r0, #0
 c001466:	f000 fa4f 	bl	c001908 <SECURE_SPI_Toggle_Comm>
	//send the start size signal through SPI
	SECURE_SPI_Send_Signal(START_BLOCK_LIST_SIZE_SIG, START_BLOCK_LIST_SIZE);
 c00146a:	4b42      	ldr	r3, [pc, #264]	; (c001574 <__acle_se_SECURE_Send_Modified_Mem+0x3a0>)
 c00146c:	681b      	ldr	r3, [r3, #0]
 c00146e:	4619      	mov	r1, r3
 c001470:	4841      	ldr	r0, [pc, #260]	; (c001578 <__acle_se_SECURE_Send_Modified_Mem+0x3a4>)
 c001472:	f000 f92b 	bl	c0016cc <SECURE_SPI_Send_Signal>
	HAL_Delay(500);
 c001476:	f44f 70fa 	mov.w	r0, #500	; 0x1f4
 c00147a:	f001 f81f 	bl	c0024bc <HAL_Delay>
	//send the number of modified blocks
	SECURE_SPI_Send_Data_Buf((uint8_t*) block_list_size_bytes, 2);
 c00147e:	f107 0308 	add.w	r3, r7, #8
 c001482:	2102      	movs	r1, #2
 c001484:	4618      	mov	r0, r3
 c001486:	f000 f95b 	bl	c001740 <SECURE_SPI_Send_Data_Buf>
	HAL_Delay(500);
 c00148a:	f44f 70fa 	mov.w	r0, #500	; 0x1f4
 c00148e:	f001 f815 	bl	c0024bc <HAL_Delay>
	//end the end size signal
	SECURE_SPI_Send_Signal(END_BLOCK_LIST_SIZE_SIG, END_BLOCK_LIST_SIZE);
 c001492:	4b3a      	ldr	r3, [pc, #232]	; (c00157c <__acle_se_SECURE_Send_Modified_Mem+0x3a8>)
 c001494:	681b      	ldr	r3, [r3, #0]
 c001496:	4619      	mov	r1, r3
 c001498:	4839      	ldr	r0, [pc, #228]	; (c001580 <__acle_se_SECURE_Send_Modified_Mem+0x3ac>)
 c00149a:	f000 f917 	bl	c0016cc <SECURE_SPI_Send_Signal>
	HAL_Delay(500);
 c00149e:	f44f 70fa 	mov.w	r0, #500	; 0x1f4
 c0014a2:	f001 f80b 	bl	c0024bc <HAL_Delay>
	SECURE_SPI_Toggle_Comm(1);
 c0014a6:	2001      	movs	r0, #1
 c0014a8:	f000 fa2e 	bl	c001908 <SECURE_SPI_Toggle_Comm>
	//send the modified block list
	SECURE_SPI_Toggle_Comm(0);
 c0014ac:	2000      	movs	r0, #0
 c0014ae:	f000 fa2b 	bl	c001908 <SECURE_SPI_Toggle_Comm>
	SECURE_SPI_Send_Signal(START_BLOCK_NUMS_SIG, START_BLOCK_NUMS_SIZE);
 c0014b2:	4b34      	ldr	r3, [pc, #208]	; (c001584 <__acle_se_SECURE_Send_Modified_Mem+0x3b0>)
 c0014b4:	681b      	ldr	r3, [r3, #0]
 c0014b6:	4619      	mov	r1, r3
 c0014b8:	4833      	ldr	r0, [pc, #204]	; (c001588 <__acle_se_SECURE_Send_Modified_Mem+0x3b4>)
 c0014ba:	f000 f907 	bl	c0016cc <SECURE_SPI_Send_Signal>
	HAL_Delay(500);
 c0014be:	f44f 70fa 	mov.w	r0, #500	; 0x1f4
 c0014c2:	f000 fffb 	bl	c0024bc <HAL_Delay>
	SECURE_SPI_Send_Block_List(formattedBlockNums, pos);
 c0014c6:	f8b7 343e 	ldrh.w	r3, [r7, #1086]	; 0x43e
 c0014ca:	4619      	mov	r1, r3
 c0014cc:	f8d7 0418 	ldr.w	r0, [r7, #1048]	; 0x418
 c0014d0:	f000 f9e2 	bl	c001898 <SECURE_SPI_Send_Block_List>
	HAL_Delay(500);
 c0014d4:	f44f 70fa 	mov.w	r0, #500	; 0x1f4
 c0014d8:	f000 fff0 	bl	c0024bc <HAL_Delay>
	SECURE_SPI_Send_Signal(END_BLOCK_NUMS_SIG, END_BLOCK_NUMS_SIZE);
 c0014dc:	4b2b      	ldr	r3, [pc, #172]	; (c00158c <__acle_se_SECURE_Send_Modified_Mem+0x3b8>)
 c0014de:	681b      	ldr	r3, [r3, #0]
 c0014e0:	4619      	mov	r1, r3
 c0014e2:	482b      	ldr	r0, [pc, #172]	; (c001590 <__acle_se_SECURE_Send_Modified_Mem+0x3bc>)
 c0014e4:	f000 f8f2 	bl	c0016cc <SECURE_SPI_Send_Signal>
	HAL_Delay(500);
 c0014e8:	f44f 70fa 	mov.w	r0, #500	; 0x1f4
 c0014ec:	f000 ffe6 	bl	c0024bc <HAL_Delay>
	SECURE_SPI_Toggle_Comm(1);
 c0014f0:	2001      	movs	r0, #1
 c0014f2:	f000 fa09 	bl	c001908 <SECURE_SPI_Toggle_Comm>
	HAL_Delay(500);
 c0014f6:	f44f 70fa 	mov.w	r0, #500	; 0x1f4
 c0014fa:	f000 ffdf 	bl	c0024bc <HAL_Delay>

	/******************************************** SEND MEMORY BLOCKS THROUGH SPI STREAM ***********************************************************/
	while(numModified > 0){
 c0014fe:	e091      	b.n	c001624 <__acle_se_SECURE_Send_Modified_Mem+0x450>
		//send an 8KB chunk
		SECURE_SPI_Toggle_Comm(0);
 c001500:	2000      	movs	r0, #0
 c001502:	f000 fa01 	bl	c001908 <SECURE_SPI_Toggle_Comm>
		SECURE_SPI_Send_Signal(START_TRANSMISSION_SIG, START_TRANS_SIZE);
 c001506:	4b23      	ldr	r3, [pc, #140]	; (c001594 <__acle_se_SECURE_Send_Modified_Mem+0x3c0>)
 c001508:	681b      	ldr	r3, [r3, #0]
 c00150a:	4619      	mov	r1, r3
 c00150c:	4822      	ldr	r0, [pc, #136]	; (c001598 <__acle_se_SECURE_Send_Modified_Mem+0x3c4>)
 c00150e:	f000 f8dd 	bl	c0016cc <SECURE_SPI_Send_Signal>
		int blockInd = 0;
 c001512:	2300      	movs	r3, #0
 c001514:	f8c7 342c 	str.w	r3, [r7, #1068]	; 0x42c
		for(int i = 0; i < (numModified >= 8 ? 8 : numModified); i++){
 c001518:	2300      	movs	r3, #0
 c00151a:	f8c7 3428 	str.w	r3, [r7, #1064]	; 0x428
 c00151e:	e05a      	b.n	c0015d6 <__acle_se_SECURE_Send_Modified_Mem+0x402>
 c001520:	300001c8 	.word	0x300001c8
 c001524:	30001c94 	.word	0x30001c94
 c001528:	08040000 	.word	0x08040000
 c00152c:	30000484 	.word	0x30000484
 c001530:	300003a0 	.word	0x300003a0
 c001534:	0c0088d8 	.word	0x0c0088d8
 c001538:	30000474 	.word	0x30000474
 c00153c:	30000478 	.word	0x30000478
 c001540:	30000884 	.word	0x30000884
 c001544:	30000184 	.word	0x30000184
 c001548:	0c008910 	.word	0x0c008910
 c00154c:	30000894 	.word	0x30000894
 c001550:	0c00893c 	.word	0x0c00893c
 c001554:	0807ffff 	.word	0x0807ffff
 c001558:	0c008964 	.word	0x0c008964
 c00155c:	0c008980 	.word	0x0c008980
 c001560:	0c008984 	.word	0x0c008984
 c001564:	300000d8 	.word	0x300000d8
 c001568:	3000005c 	.word	0x3000005c
 c00156c:	300000dc 	.word	0x300000dc
 c001570:	3000006c 	.word	0x3000006c
 c001574:	300000f0 	.word	0x300000f0
 c001578:	300000a0 	.word	0x300000a0
 c00157c:	300000f4 	.word	0x300000f4
 c001580:	300000b8 	.word	0x300000b8
 c001584:	300000e8 	.word	0x300000e8
 c001588:	30000078 	.word	0x30000078
 c00158c:	300000ec 	.word	0x300000ec
 c001590:	3000008c 	.word	0x3000008c
 c001594:	300000e0 	.word	0x300000e0
 c001598:	30000044 	.word	0x30000044
			//calculate the address of the next block to send
			uint32_t* addrOfNextBlock = (uint32_t*) NSEC_MEM_START + modifiedBlockNums[blockInd]*BUFFER_SIZE/4;
 c00159c:	f507 6388 	add.w	r3, r7, #1088	; 0x440
 c0015a0:	f2a3 4334 	subw	r3, r3, #1076	; 0x434
 c0015a4:	f8d7 242c 	ldr.w	r2, [r7, #1068]	; 0x42c
 c0015a8:	f853 3022 	ldr.w	r3, [r3, r2, lsl #2]
 c0015ac:	029b      	lsls	r3, r3, #10
 c0015ae:	f103 6300 	add.w	r3, r3, #134217728	; 0x8000000
 c0015b2:	f503 2380 	add.w	r3, r3, #262144	; 0x40000
 c0015b6:	f8c7 3410 	str.w	r3, [r7, #1040]	; 0x410
			//send through SPI
			SECURE_SPI_Send_Data_Block(addrOfNextBlock);
 c0015ba:	f8d7 0410 	ldr.w	r0, [r7, #1040]	; 0x410
 c0015be:	f000 f8f7 	bl	c0017b0 <SECURE_SPI_Send_Data_Block>
			blockInd++;
 c0015c2:	f8d7 342c 	ldr.w	r3, [r7, #1068]	; 0x42c
 c0015c6:	3301      	adds	r3, #1
 c0015c8:	f8c7 342c 	str.w	r3, [r7, #1068]	; 0x42c
		for(int i = 0; i < (numModified >= 8 ? 8 : numModified); i++){
 c0015cc:	f8d7 3428 	ldr.w	r3, [r7, #1064]	; 0x428
 c0015d0:	3301      	adds	r3, #1
 c0015d2:	f8c7 3428 	str.w	r3, [r7, #1064]	; 0x428
 c0015d6:	f8b7 3436 	ldrh.w	r3, [r7, #1078]	; 0x436
 c0015da:	2b08      	cmp	r3, #8
 c0015dc:	bf28      	it	cs
 c0015de:	2308      	movcs	r3, #8
 c0015e0:	b29b      	uxth	r3, r3
 c0015e2:	461a      	mov	r2, r3
 c0015e4:	f8d7 3428 	ldr.w	r3, [r7, #1064]	; 0x428
 c0015e8:	4293      	cmp	r3, r2
 c0015ea:	dbd7      	blt.n	c00159c <__acle_se_SECURE_Send_Modified_Mem+0x3c8>
		}
		//send the end signal
		SECURE_SPI_Send_Signal(END_TRANSMISSION_SIG, END_TRANS_SIZE);
 c0015ec:	4b35      	ldr	r3, [pc, #212]	; (c0016c4 <__acle_se_SECURE_Send_Modified_Mem+0x4f0>)
 c0015ee:	681b      	ldr	r3, [r3, #0]
 c0015f0:	4619      	mov	r1, r3
 c0015f2:	4835      	ldr	r0, [pc, #212]	; (c0016c8 <__acle_se_SECURE_Send_Modified_Mem+0x4f4>)
 c0015f4:	f000 f86a 	bl	c0016cc <SECURE_SPI_Send_Signal>
		//decrement num modified blocks; be careful not to underflow
		numModified -= (numModified >= 8 ? 8 : numModified);
 c0015f8:	f8b7 3436 	ldrh.w	r3, [r7, #1078]	; 0x436
 c0015fc:	2b08      	cmp	r3, #8
 c0015fe:	bf28      	it	cs
 c001600:	2308      	movcs	r3, #8
 c001602:	b29b      	uxth	r3, r3
 c001604:	f8b7 2436 	ldrh.w	r2, [r7, #1078]	; 0x436
 c001608:	1ad3      	subs	r3, r2, r3
 c00160a:	f8a7 3436 	strh.w	r3, [r7, #1078]	; 0x436
		//if all blocks sent, immediately exit. If not, need to delay before sending next one.
		if(numModified <= 0){
 c00160e:	f8b7 3436 	ldrh.w	r3, [r7, #1078]	; 0x436
 c001612:	2b00      	cmp	r3, #0
 c001614:	d00c      	beq.n	c001630 <__acle_se_SECURE_Send_Modified_Mem+0x45c>
			break;
		}else{
			SECURE_SPI_Toggle_Comm(1);
 c001616:	2001      	movs	r0, #1
 c001618:	f000 f976 	bl	c001908 <SECURE_SPI_Toggle_Comm>
			HAL_Delay(8000);
 c00161c:	f44f 50fa 	mov.w	r0, #8000	; 0x1f40
 c001620:	f000 ff4c 	bl	c0024bc <HAL_Delay>
	while(numModified > 0){
 c001624:	f8b7 3436 	ldrh.w	r3, [r7, #1078]	; 0x436
 c001628:	2b00      	cmp	r3, #0
 c00162a:	f47f af69 	bne.w	c001500 <__acle_se_SECURE_Send_Modified_Mem+0x32c>
 c00162e:	e000      	b.n	c001632 <__acle_se_SECURE_Send_Modified_Mem+0x45e>
			break;
 c001630:	bf00      	nop
		}
	}
	int res = SECURE_SPI_Receive_Classification();
 c001632:	f000 f983 	bl	c00193c <SECURE_SPI_Receive_Classification>
 c001636:	f8c7 040c 	str.w	r0, [r7, #1036]	; 0x40c
	while(!res){
 c00163a:	e004      	b.n	c001646 <__acle_se_SECURE_Send_Modified_Mem+0x472>
		SECURE_SPI_Receive_Classification();
 c00163c:	f000 f97e 	bl	c00193c <SECURE_SPI_Receive_Classification>
		HAL_Delay(100);
 c001640:	2064      	movs	r0, #100	; 0x64
 c001642:	f000 ff3b 	bl	c0024bc <HAL_Delay>
	while(!res){
 c001646:	f8d7 340c 	ldr.w	r3, [r7, #1036]	; 0x40c
 c00164a:	2b00      	cmp	r3, #0
 c00164c:	d0f6      	beq.n	c00163c <__acle_se_SECURE_Send_Modified_Mem+0x468>
 c00164e:	46b5      	mov	sp, r6
	}


}
 c001650:	bf00      	nop
 c001652:	f207 4744 	addw	r7, r7, #1092	; 0x444
 c001656:	46bd      	mov	sp, r7
 c001658:	e8bd 43f0 	ldmia.w	sp!, {r4, r5, r6, r7, r8, r9, lr}
 c00165c:	4670      	mov	r0, lr
 c00165e:	4671      	mov	r1, lr
 c001660:	4672      	mov	r2, lr
 c001662:	4673      	mov	r3, lr
 c001664:	eeb7 0a00 	vmov.f32	s0, #112	; 0x3f800000  1.0
 c001668:	eef7 0a00 	vmov.f32	s1, #112	; 0x3f800000  1.0
 c00166c:	eeb7 1a00 	vmov.f32	s2, #112	; 0x3f800000  1.0
 c001670:	eef7 1a00 	vmov.f32	s3, #112	; 0x3f800000  1.0
 c001674:	eeb7 2a00 	vmov.f32	s4, #112	; 0x3f800000  1.0
 c001678:	eef7 2a00 	vmov.f32	s5, #112	; 0x3f800000  1.0
 c00167c:	eeb7 3a00 	vmov.f32	s6, #112	; 0x3f800000  1.0
 c001680:	eef7 3a00 	vmov.f32	s7, #112	; 0x3f800000  1.0
 c001684:	eeb7 4a00 	vmov.f32	s8, #112	; 0x3f800000  1.0
 c001688:	eef7 4a00 	vmov.f32	s9, #112	; 0x3f800000  1.0
 c00168c:	eeb7 5a00 	vmov.f32	s10, #112	; 0x3f800000  1.0
 c001690:	eef7 5a00 	vmov.f32	s11, #112	; 0x3f800000  1.0
 c001694:	eeb7 6a00 	vmov.f32	s12, #112	; 0x3f800000  1.0
 c001698:	eef7 6a00 	vmov.f32	s13, #112	; 0x3f800000  1.0
 c00169c:	eeb7 7a00 	vmov.f32	s14, #112	; 0x3f800000  1.0
 c0016a0:	eef7 7a00 	vmov.f32	s15, #112	; 0x3f800000  1.0
 c0016a4:	f38e 8c00 	msr	CPSR_fs, lr
 c0016a8:	b410      	push	{r4}
 c0016aa:	eef1 ca10 	vmrs	ip, fpscr
 c0016ae:	f64f 7460 	movw	r4, #65376	; 0xff60
 c0016b2:	f6c0 74ff 	movt	r4, #4095	; 0xfff
 c0016b6:	ea0c 0c04 	and.w	ip, ip, r4
 c0016ba:	eee1 ca10 	vmsr	fpscr, ip
 c0016be:	bc10      	pop	{r4}
 c0016c0:	46f4      	mov	ip, lr
 c0016c2:	4774      	bxns	lr
 c0016c4:	300000e4 	.word	0x300000e4
 c0016c8:	30000030 	.word	0x30000030

0c0016cc <SECURE_SPI_Send_Signal>:


//sends the start transmission signal out through the SPI Stream
//this allows the esp32 to know that the data it is receiving is the number of modifed memory blocks
void SECURE_SPI_Send_Signal(uint8_t* signal, int size){
 c0016cc:	b580      	push	{r7, lr}
 c0016ce:	b082      	sub	sp, #8
 c0016d0:	af00      	add	r7, sp, #0
 c0016d2:	6078      	str	r0, [r7, #4]
 c0016d4:	6039      	str	r1, [r7, #0]
	wTransferState = TRANSFER_WAIT;
 c0016d6:	4b15      	ldr	r3, [pc, #84]	; (c00172c <SECURE_SPI_Send_Signal+0x60>)
 c0016d8:	2200      	movs	r2, #0
 c0016da:	601a      	str	r2, [r3, #0]

	printf("Sending the %s signal...\n\r", (char*)signal);
 c0016dc:	6879      	ldr	r1, [r7, #4]
 c0016de:	4814      	ldr	r0, [pc, #80]	; (c001730 <SECURE_SPI_Send_Signal+0x64>)
 c0016e0:	f005 ff02 	bl	c0074e8 <iprintf>
	if (HAL_SPI_Transmit_DMA(&hspi3, (uint8_t *)signal, size) != HAL_OK)
 c0016e4:	683b      	ldr	r3, [r7, #0]
 c0016e6:	b29b      	uxth	r3, r3
 c0016e8:	461a      	mov	r2, r3
 c0016ea:	6879      	ldr	r1, [r7, #4]
 c0016ec:	4811      	ldr	r0, [pc, #68]	; (c001734 <SECURE_SPI_Send_Signal+0x68>)
 c0016ee:	f004 f8ff 	bl	c0058f0 <HAL_SPI_Transmit_DMA>
 c0016f2:	4603      	mov	r3, r0
 c0016f4:	2b00      	cmp	r3, #0
 c0016f6:	d004      	beq.n	c001702 <SECURE_SPI_Send_Signal+0x36>
	 {
		 /* Transfer error in transmission process */
		 printf("There was an error in starting up tx.\n\r");
 c0016f8:	480f      	ldr	r0, [pc, #60]	; (c001738 <SECURE_SPI_Send_Signal+0x6c>)
 c0016fa:	f005 fef5 	bl	c0074e8 <iprintf>
		 Error_Handler();
 c0016fe:	f7ff fc29 	bl	c000f54 <Error_Handler>
	 }

	 /*##-2- Wait for the end of the transfer ###################################*/
	 while (wTransferState == TRANSFER_WAIT)
 c001702:	bf00      	nop
 c001704:	4b09      	ldr	r3, [pc, #36]	; (c00172c <SECURE_SPI_Send_Signal+0x60>)
 c001706:	681b      	ldr	r3, [r3, #0]
 c001708:	2b00      	cmp	r3, #0
 c00170a:	d0fb      	beq.n	c001704 <SECURE_SPI_Send_Signal+0x38>
	 {
	 }

	//check SpI transfer state
	 switch (wTransferState)
 c00170c:	4b07      	ldr	r3, [pc, #28]	; (c00172c <SECURE_SPI_Send_Signal+0x60>)
 c00170e:	681b      	ldr	r3, [r3, #0]
 c001710:	2b01      	cmp	r3, #1
 c001712:	d104      	bne.n	c00171e <SECURE_SPI_Send_Signal+0x52>
	 {
		 case TRANSFER_COMPLETE:
		   printf("The %s signal was successfully transmitted\n\r", (char*)signal);
 c001714:	6879      	ldr	r1, [r7, #4]
 c001716:	4809      	ldr	r0, [pc, #36]	; (c00173c <SECURE_SPI_Send_Signal+0x70>)
 c001718:	f005 fee6 	bl	c0074e8 <iprintf>
		   break;
 c00171c:	e002      	b.n	c001724 <SECURE_SPI_Send_Signal+0x58>
		 default :
		   Error_Handler();
 c00171e:	f7ff fc19 	bl	c000f54 <Error_Handler>
		   break;
 c001722:	bf00      	nop
	 }
}
 c001724:	bf00      	nop
 c001726:	3708      	adds	r7, #8
 c001728:	46bd      	mov	sp, r7
 c00172a:	bd80      	pop	{r7, pc}
 c00172c:	30000470 	.word	0x30000470
 c001730:	0c008988 	.word	0x0c008988
 c001734:	300001d8 	.word	0x300001d8
 c001738:	0c0089a4 	.word	0x0c0089a4
 c00173c:	0c0089cc 	.word	0x0c0089cc

0c001740 <SECURE_SPI_Send_Data_Buf>:


//sends the number of modifed memory blocks out through the SPI Stream
//this allows the esp32 to know how many memory blocks it needs to receive
void SECURE_SPI_Send_Data_Buf(uint8_t* data, int size){
 c001740:	b580      	push	{r7, lr}
 c001742:	b082      	sub	sp, #8
 c001744:	af00      	add	r7, sp, #0
 c001746:	6078      	str	r0, [r7, #4]
 c001748:	6039      	str	r1, [r7, #0]
	wTransferState = TRANSFER_WAIT;
 c00174a:	4b14      	ldr	r3, [pc, #80]	; (c00179c <SECURE_SPI_Send_Data_Buf+0x5c>)
 c00174c:	2200      	movs	r2, #0
 c00174e:	601a      	str	r2, [r3, #0]

	printf("Sending the start size signal...\n\r");
 c001750:	4813      	ldr	r0, [pc, #76]	; (c0017a0 <SECURE_SPI_Send_Data_Buf+0x60>)
 c001752:	f005 fec9 	bl	c0074e8 <iprintf>
	if (HAL_SPI_Transmit_DMA(&hspi3, (uint8_t *) data, size) != HAL_OK)
 c001756:	683b      	ldr	r3, [r7, #0]
 c001758:	b29b      	uxth	r3, r3
 c00175a:	461a      	mov	r2, r3
 c00175c:	6879      	ldr	r1, [r7, #4]
 c00175e:	4811      	ldr	r0, [pc, #68]	; (c0017a4 <SECURE_SPI_Send_Data_Buf+0x64>)
 c001760:	f004 f8c6 	bl	c0058f0 <HAL_SPI_Transmit_DMA>
 c001764:	4603      	mov	r3, r0
 c001766:	2b00      	cmp	r3, #0
 c001768:	d004      	beq.n	c001774 <SECURE_SPI_Send_Data_Buf+0x34>
	 {
		 /* Transfer error in transmission process */
		 printf("There was an error in starting up tx.\n\r");
 c00176a:	480f      	ldr	r0, [pc, #60]	; (c0017a8 <SECURE_SPI_Send_Data_Buf+0x68>)
 c00176c:	f005 febc 	bl	c0074e8 <iprintf>
		 Error_Handler();
 c001770:	f7ff fbf0 	bl	c000f54 <Error_Handler>
	 }

	 /*##-2- Wait for the end of the transfer ###################################*/
	 while (wTransferState == TRANSFER_WAIT)
 c001774:	bf00      	nop
 c001776:	4b09      	ldr	r3, [pc, #36]	; (c00179c <SECURE_SPI_Send_Data_Buf+0x5c>)
 c001778:	681b      	ldr	r3, [r3, #0]
 c00177a:	2b00      	cmp	r3, #0
 c00177c:	d0fb      	beq.n	c001776 <SECURE_SPI_Send_Data_Buf+0x36>
	 {
	 }

	//check SpI transfer state
	 switch (wTransferState)
 c00177e:	4b07      	ldr	r3, [pc, #28]	; (c00179c <SECURE_SPI_Send_Data_Buf+0x5c>)
 c001780:	681b      	ldr	r3, [r3, #0]
 c001782:	2b01      	cmp	r3, #1
 c001784:	d103      	bne.n	c00178e <SECURE_SPI_Send_Data_Buf+0x4e>
	 {
		 case TRANSFER_COMPLETE:
		   printf("The number of modified blocks was successfully transmitted\n\r");
 c001786:	4809      	ldr	r0, [pc, #36]	; (c0017ac <SECURE_SPI_Send_Data_Buf+0x6c>)
 c001788:	f005 feae 	bl	c0074e8 <iprintf>
		   break;
 c00178c:	e002      	b.n	c001794 <SECURE_SPI_Send_Data_Buf+0x54>
		 default :
		   Error_Handler();
 c00178e:	f7ff fbe1 	bl	c000f54 <Error_Handler>
		   break;
 c001792:	bf00      	nop
	 }
}
 c001794:	bf00      	nop
 c001796:	3708      	adds	r7, #8
 c001798:	46bd      	mov	sp, r7
 c00179a:	bd80      	pop	{r7, pc}
 c00179c:	30000470 	.word	0x30000470
 c0017a0:	0c0089fc 	.word	0x0c0089fc
 c0017a4:	300001d8 	.word	0x300001d8
 c0017a8:	0c0089a4 	.word	0x0c0089a4
 c0017ac:	0c008a20 	.word	0x0c008a20

0c0017b0 <SECURE_SPI_Send_Data_Block>:



void SECURE_SPI_Send_Data_Block(uint32_t* addr){
 c0017b0:	b580      	push	{r7, lr}
 c0017b2:	b082      	sub	sp, #8
 c0017b4:	af00      	add	r7, sp, #0
 c0017b6:	6078      	str	r0, [r7, #4]

	//fetch the memory
	SECURE_DMA_Fetch_NonSecure_Mem((uint32_t*)addr, BUFFER_SIZE/4);
 c0017b8:	f44f 7180 	mov.w	r1, #256	; 0x100
 c0017bc:	6878      	ldr	r0, [r7, #4]
 c0017be:	f000 f835 	bl	c00182c <SECURE_DMA_Fetch_NonSecure_Mem>

	wTransferState = TRANSFER_WAIT;
 c0017c2:	4b14      	ldr	r3, [pc, #80]	; (c001814 <SECURE_SPI_Send_Data_Block+0x64>)
 c0017c4:	2200      	movs	r2, #0
 c0017c6:	601a      	str	r2, [r3, #0]
	/*** send the current memory block from the non-secure flash bank to SPI ***/
	if (HAL_SPI_Transmit_DMA(&hspi3, (uint8_t *) SEC_Mem_Buffer, BUFFER_SIZE) != HAL_OK)
 c0017c8:	f44f 6280 	mov.w	r2, #1024	; 0x400
 c0017cc:	4912      	ldr	r1, [pc, #72]	; (c001818 <SECURE_SPI_Send_Data_Block+0x68>)
 c0017ce:	4813      	ldr	r0, [pc, #76]	; (c00181c <SECURE_SPI_Send_Data_Block+0x6c>)
 c0017d0:	f004 f88e 	bl	c0058f0 <HAL_SPI_Transmit_DMA>
 c0017d4:	4603      	mov	r3, r0
 c0017d6:	2b00      	cmp	r3, #0
 c0017d8:	d004      	beq.n	c0017e4 <SECURE_SPI_Send_Data_Block+0x34>
	 {
		 /* Transfer error in transmission process */
		 printf("There was an error in starting up tx.\n\r");
 c0017da:	4811      	ldr	r0, [pc, #68]	; (c001820 <SECURE_SPI_Send_Data_Block+0x70>)
 c0017dc:	f005 fe84 	bl	c0074e8 <iprintf>
		 Error_Handler();
 c0017e0:	f7ff fbb8 	bl	c000f54 <Error_Handler>
	 }

	 /*##-2- Wait for the end of the transfer ###################################*/
	 while (wTransferState == TRANSFER_WAIT)
 c0017e4:	bf00      	nop
 c0017e6:	4b0b      	ldr	r3, [pc, #44]	; (c001814 <SECURE_SPI_Send_Data_Block+0x64>)
 c0017e8:	681b      	ldr	r3, [r3, #0]
 c0017ea:	2b00      	cmp	r3, #0
 c0017ec:	d0fb      	beq.n	c0017e6 <SECURE_SPI_Send_Data_Block+0x36>
	 {
	 }

	//check SpI transfer state
	 switch (wTransferState)
 c0017ee:	4b09      	ldr	r3, [pc, #36]	; (c001814 <SECURE_SPI_Send_Data_Block+0x64>)
 c0017f0:	681b      	ldr	r3, [r3, #0]
 c0017f2:	2b01      	cmp	r3, #1
 c0017f4:	d103      	bne.n	c0017fe <SECURE_SPI_Send_Data_Block+0x4e>
	 {
		 case TRANSFER_COMPLETE:
		   printf("The memory block was transferred successfully.\n\r");
 c0017f6:	480b      	ldr	r0, [pc, #44]	; (c001824 <SECURE_SPI_Send_Data_Block+0x74>)
 c0017f8:	f005 fe76 	bl	c0074e8 <iprintf>
		   break;
 c0017fc:	e005      	b.n	c00180a <SECURE_SPI_Send_Data_Block+0x5a>
		 default :
		   printf("There was an error in transferring the memory dump.\n\r");
 c0017fe:	480a      	ldr	r0, [pc, #40]	; (c001828 <SECURE_SPI_Send_Data_Block+0x78>)
 c001800:	f005 fe72 	bl	c0074e8 <iprintf>
		   Error_Handler();
 c001804:	f7ff fba6 	bl	c000f54 <Error_Handler>
		   break;
 c001808:	bf00      	nop
	 }

}
 c00180a:	bf00      	nop
 c00180c:	3708      	adds	r7, #8
 c00180e:	46bd      	mov	sp, r7
 c001810:	bd80      	pop	{r7, pc}
 c001812:	bf00      	nop
 c001814:	30000470 	.word	0x30000470
 c001818:	30000484 	.word	0x30000484
 c00181c:	300001d8 	.word	0x300001d8
 c001820:	0c0089a4 	.word	0x0c0089a4
 c001824:	0c008a60 	.word	0x0c008a60
 c001828:	0c008a94 	.word	0x0c008a94

0c00182c <SECURE_DMA_Fetch_NonSecure_Mem>:
  * @param  Size        		requested size of data (256 words)
  * @param  func   				pointer to non-secure callback function on transfer end
  * @retval SUCCESS or ERROR
  */
void SECURE_DMA_Fetch_NonSecure_Mem(uint32_t *nsc_mem_buffer, uint32_t Size)
{
 c00182c:	b580      	push	{r7, lr}
 c00182e:	b082      	sub	sp, #8
 c001830:	af00      	add	r7, sp, #0
 c001832:	6078      	str	r0, [r7, #4]
 c001834:	6039      	str	r1, [r7, #0]

  /* Check that the address range in non-secure */
   if (cmse_check_address_range(nsc_mem_buffer, Size * sizeof(uint32_t), CMSE_NONSECURE))
 c001836:	683b      	ldr	r3, [r7, #0]
 c001838:	009b      	lsls	r3, r3, #2
 c00183a:	2212      	movs	r2, #18
 c00183c:	4619      	mov	r1, r3
 c00183e:	6878      	ldr	r0, [r7, #4]
 c001840:	f7fe fcf8 	bl	c000234 <cmse_check_address_range>
 c001844:	4603      	mov	r3, r0
 c001846:	2b00      	cmp	r3, #0
 c001848:	d013      	beq.n	c001872 <SECURE_DMA_Fetch_NonSecure_Mem+0x46>
   {
	   printf("memory dump found to be in range.\n\r");
 c00184a:	480d      	ldr	r0, [pc, #52]	; (c001880 <SECURE_DMA_Fetch_NonSecure_Mem+0x54>)
 c00184c:	f005 fe4c 	bl	c0074e8 <iprintf>
	    if (HAL_DMA_Start_IT(&hdma_memtomem_dma1_channel1,
 c001850:	6879      	ldr	r1, [r7, #4]
 c001852:	4a0c      	ldr	r2, [pc, #48]	; (c001884 <SECURE_DMA_Fetch_NonSecure_Mem+0x58>)
 c001854:	683b      	ldr	r3, [r7, #0]
 c001856:	480c      	ldr	r0, [pc, #48]	; (c001888 <SECURE_DMA_Fetch_NonSecure_Mem+0x5c>)
 c001858:	f001 f80c 	bl	c002874 <HAL_DMA_Start_IT>
 c00185c:	4603      	mov	r3, r0
 c00185e:	2b00      	cmp	r3, #0
 c001860:	d103      	bne.n	c00186a <SECURE_DMA_Fetch_NonSecure_Mem+0x3e>
	                             (uint32_t)nsc_mem_buffer,
	                             (uint32_t)&SEC_Mem_Buffer,
	                             Size) == HAL_OK)
		{
		  /* Transfer started */
	    	printf("Transfer has started\n\r");
 c001862:	480a      	ldr	r0, [pc, #40]	; (c00188c <SECURE_DMA_Fetch_NonSecure_Mem+0x60>)
 c001864:	f005 fe40 	bl	c0074e8 <iprintf>
		}
   }else{
	   printf("Address out of range...\n\r");
   }

}
 c001868:	e006      	b.n	c001878 <SECURE_DMA_Fetch_NonSecure_Mem+0x4c>
			printf("transfer was not able to start.\n\r");
 c00186a:	4809      	ldr	r0, [pc, #36]	; (c001890 <SECURE_DMA_Fetch_NonSecure_Mem+0x64>)
 c00186c:	f005 fe3c 	bl	c0074e8 <iprintf>
}
 c001870:	e002      	b.n	c001878 <SECURE_DMA_Fetch_NonSecure_Mem+0x4c>
	   printf("Address out of range...\n\r");
 c001872:	4808      	ldr	r0, [pc, #32]	; (c001894 <SECURE_DMA_Fetch_NonSecure_Mem+0x68>)
 c001874:	f005 fe38 	bl	c0074e8 <iprintf>
}
 c001878:	bf00      	nop
 c00187a:	3708      	adds	r7, #8
 c00187c:	46bd      	mov	sp, r7
 c00187e:	bd80      	pop	{r7, pc}
 c001880:	0c008acc 	.word	0x0c008acc
 c001884:	30000484 	.word	0x30000484
 c001888:	300003a0 	.word	0x300003a0
 c00188c:	0c008af0 	.word	0x0c008af0
 c001890:	0c008b08 	.word	0x0c008b08
 c001894:	0c008b2c 	.word	0x0c008b2c

0c001898 <SECURE_SPI_Send_Block_List>:



void SECURE_SPI_Send_Block_List(char* blockList, int size){
 c001898:	b580      	push	{r7, lr}
 c00189a:	b082      	sub	sp, #8
 c00189c:	af00      	add	r7, sp, #0
 c00189e:	6078      	str	r0, [r7, #4]
 c0018a0:	6039      	str	r1, [r7, #0]
	wTransferState = TRANSFER_WAIT;
 c0018a2:	4b14      	ldr	r3, [pc, #80]	; (c0018f4 <SECURE_SPI_Send_Block_List+0x5c>)
 c0018a4:	2200      	movs	r2, #0
 c0018a6:	601a      	str	r2, [r3, #0]

	//transmit via SPI
	if (HAL_SPI_Transmit_DMA(&hspi3, (uint8_t *) blockList, size) != HAL_OK)
 c0018a8:	683b      	ldr	r3, [r7, #0]
 c0018aa:	b29b      	uxth	r3, r3
 c0018ac:	461a      	mov	r2, r3
 c0018ae:	6879      	ldr	r1, [r7, #4]
 c0018b0:	4811      	ldr	r0, [pc, #68]	; (c0018f8 <SECURE_SPI_Send_Block_List+0x60>)
 c0018b2:	f004 f81d 	bl	c0058f0 <HAL_SPI_Transmit_DMA>
 c0018b6:	4603      	mov	r3, r0
 c0018b8:	2b00      	cmp	r3, #0
 c0018ba:	d004      	beq.n	c0018c6 <SECURE_SPI_Send_Block_List+0x2e>
	 {
		 /* Transfer error in transmission process */
		 printf("There was an error in starting up tx.\n\r");
 c0018bc:	480f      	ldr	r0, [pc, #60]	; (c0018fc <SECURE_SPI_Send_Block_List+0x64>)
 c0018be:	f005 fe13 	bl	c0074e8 <iprintf>
		 Error_Handler();
 c0018c2:	f7ff fb47 	bl	c000f54 <Error_Handler>
	 }

	 /*##-2- Wait for the end of the transfer ###################################*/
	 while (wTransferState == TRANSFER_WAIT)
 c0018c6:	bf00      	nop
 c0018c8:	4b0a      	ldr	r3, [pc, #40]	; (c0018f4 <SECURE_SPI_Send_Block_List+0x5c>)
 c0018ca:	681b      	ldr	r3, [r3, #0]
 c0018cc:	2b00      	cmp	r3, #0
 c0018ce:	d0fb      	beq.n	c0018c8 <SECURE_SPI_Send_Block_List+0x30>
	 {
	 }

	//check SpI transfer state
	 switch (wTransferState)
 c0018d0:	4b08      	ldr	r3, [pc, #32]	; (c0018f4 <SECURE_SPI_Send_Block_List+0x5c>)
 c0018d2:	681b      	ldr	r3, [r3, #0]
 c0018d4:	2b01      	cmp	r3, #1
 c0018d6:	d103      	bne.n	c0018e0 <SECURE_SPI_Send_Block_List+0x48>
	 {
		 case TRANSFER_COMPLETE:
		   printf("The data was transferred successfully.");
 c0018d8:	4809      	ldr	r0, [pc, #36]	; (c001900 <SECURE_SPI_Send_Block_List+0x68>)
 c0018da:	f005 fe05 	bl	c0074e8 <iprintf>
		   break;
 c0018de:	e005      	b.n	c0018ec <SECURE_SPI_Send_Block_List+0x54>
		 default :
		   printf("There was an error in transferring the data.\n\r");
 c0018e0:	4808      	ldr	r0, [pc, #32]	; (c001904 <SECURE_SPI_Send_Block_List+0x6c>)
 c0018e2:	f005 fe01 	bl	c0074e8 <iprintf>
		   Error_Handler();
 c0018e6:	f7ff fb35 	bl	c000f54 <Error_Handler>
		   break;
 c0018ea:	bf00      	nop
	 }
}
 c0018ec:	bf00      	nop
 c0018ee:	3708      	adds	r7, #8
 c0018f0:	46bd      	mov	sp, r7
 c0018f2:	bd80      	pop	{r7, pc}
 c0018f4:	30000470 	.word	0x30000470
 c0018f8:	300001d8 	.word	0x300001d8
 c0018fc:	0c0089a4 	.word	0x0c0089a4
 c001900:	0c008b48 	.word	0x0c008b48
 c001904:	0c008b70 	.word	0x0c008b70

0c001908 <SECURE_SPI_Toggle_Comm>:
/**
  * @brief  Secure service to toggle SPI communication on or off. Must be called @ beginning and end of SPI transmission
  * @param state	SPI ON: 0 and SPI OFF: 1
  * @retval SUCCESS or ERROR
  */
void SECURE_SPI_Toggle_Comm(int state){
 c001908:	b580      	push	{r7, lr}
 c00190a:	b082      	sub	sp, #8
 c00190c:	af00      	add	r7, sp, #0
 c00190e:	6078      	str	r0, [r7, #4]
	if(state > 0){
 c001910:	687b      	ldr	r3, [r7, #4]
 c001912:	2b00      	cmp	r3, #0
 c001914:	dd06      	ble.n	c001924 <SECURE_SPI_Toggle_Comm+0x1c>
		//off state
		HAL_GPIO_WritePin(GPIOB, GPIO_PIN_13, GPIO_PIN_SET);
 c001916:	2201      	movs	r2, #1
 c001918:	f44f 5100 	mov.w	r1, #8192	; 0x2000
 c00191c:	4806      	ldr	r0, [pc, #24]	; (c001938 <SECURE_SPI_Toggle_Comm+0x30>)
 c00191e:	f001 fc21 	bl	c003164 <HAL_GPIO_WritePin>

	}else{
		//on state
		HAL_GPIO_WritePin(GPIOB, GPIO_PIN_13, GPIO_PIN_RESET);
	}
}
 c001922:	e005      	b.n	c001930 <SECURE_SPI_Toggle_Comm+0x28>
		HAL_GPIO_WritePin(GPIOB, GPIO_PIN_13, GPIO_PIN_RESET);
 c001924:	2200      	movs	r2, #0
 c001926:	f44f 5100 	mov.w	r1, #8192	; 0x2000
 c00192a:	4803      	ldr	r0, [pc, #12]	; (c001938 <SECURE_SPI_Toggle_Comm+0x30>)
 c00192c:	f001 fc1a 	bl	c003164 <HAL_GPIO_WritePin>
}
 c001930:	bf00      	nop
 c001932:	3708      	adds	r7, #8
 c001934:	46bd      	mov	sp, r7
 c001936:	bd80      	pop	{r7, pc}
 c001938:	52020400 	.word	0x52020400

0c00193c <SECURE_SPI_Receive_Classification>:



//this function checks for & receives a classification from a stream of SPI data coming in through MISO
//It must be called in memory forensics after sending a full memory dump to the server
int SECURE_SPI_Receive_Classification(){
 c00193c:	b580      	push	{r7, lr}
 c00193e:	b086      	sub	sp, #24
 c001940:	af00      	add	r7, sp, #0

	int containsStartClassification;
	int containsEndClassification;
	int retval = 0;
 c001942:	2300      	movs	r3, #0
 c001944:	617b      	str	r3, [r7, #20]
	//perform a new rx operation
	wTransferState = TRANSFER_WAIT;
 c001946:	4b38      	ldr	r3, [pc, #224]	; (c001a28 <SECURE_SPI_Receive_Classification+0xec>)
 c001948:	2200      	movs	r2, #0
 c00194a:	601a      	str	r2, [r3, #0]
	if (HAL_SPI_Receive_DMA(&hspi3, (uint8_t *)aRxBuffer, BUFFER_SIZE) != HAL_OK)
 c00194c:	f44f 6280 	mov.w	r2, #1024	; 0x400
 c001950:	4936      	ldr	r1, [pc, #216]	; (c001a2c <SECURE_SPI_Receive_Classification+0xf0>)
 c001952:	4837      	ldr	r0, [pc, #220]	; (c001a30 <SECURE_SPI_Receive_Classification+0xf4>)
 c001954:	f004 f8c0 	bl	c005ad8 <HAL_SPI_Receive_DMA>
 c001958:	4603      	mov	r3, r0
 c00195a:	2b00      	cmp	r3, #0
 c00195c:	d004      	beq.n	c001968 <SECURE_SPI_Receive_Classification+0x2c>
	 {
		 /* Transfer error in transmission process */
		 printf("There was an error in starting up RX.\n\r");
 c00195e:	4835      	ldr	r0, [pc, #212]	; (c001a34 <SECURE_SPI_Receive_Classification+0xf8>)
 c001960:	f005 fdc2 	bl	c0074e8 <iprintf>
		 Error_Handler();
 c001964:	f7ff faf6 	bl	c000f54 <Error_Handler>
	 }

	 /*##-2- Wait for the end of the transfer ###################################*/
	 while (wTransferState == TRANSFER_WAIT)
 c001968:	bf00      	nop
 c00196a:	4b2f      	ldr	r3, [pc, #188]	; (c001a28 <SECURE_SPI_Receive_Classification+0xec>)
 c00196c:	681b      	ldr	r3, [r3, #0]
 c00196e:	2b00      	cmp	r3, #0
 c001970:	d0fb      	beq.n	c00196a <SECURE_SPI_Receive_Classification+0x2e>
	 {
	 }

	//check SPI transfer state
	if(wTransferState == TRANSFER_COMPLETE){
 c001972:	4b2d      	ldr	r3, [pc, #180]	; (c001a28 <SECURE_SPI_Receive_Classification+0xec>)
 c001974:	681b      	ldr	r3, [r3, #0]
 c001976:	2b01      	cmp	r3, #1
 c001978:	d14e      	bne.n	c001a18 <SECURE_SPI_Receive_Classification+0xdc>
//			printf("%d\t", aRxBuffer[i]);
//		}
//		printf("\n\r");

		//if the transfer completed, look for the start and end signals in the SPI rx buffer
		containsStartClassification = SearchForSig(START_CLASSIFICATION_SIG, START_CLASSIFICATION_SIZE, aRxBuffer, BUFFER_SIZE);
 c00197a:	4b2f      	ldr	r3, [pc, #188]	; (c001a38 <SECURE_SPI_Receive_Classification+0xfc>)
 c00197c:	6819      	ldr	r1, [r3, #0]
 c00197e:	f44f 6380 	mov.w	r3, #1024	; 0x400
 c001982:	4a2a      	ldr	r2, [pc, #168]	; (c001a2c <SECURE_SPI_Receive_Classification+0xf0>)
 c001984:	482d      	ldr	r0, [pc, #180]	; (c001a3c <SECURE_SPI_Receive_Classification+0x100>)
 c001986:	f7ff fa63 	bl	c000e50 <SearchForSig>
 c00198a:	6138      	str	r0, [r7, #16]
		containsEndClassification = SearchForSig(END_CLASSIFICATION_SIG, END_CLASSIFICATION_SIZE, aRxBuffer, BUFFER_SIZE);
 c00198c:	4b2c      	ldr	r3, [pc, #176]	; (c001a40 <SECURE_SPI_Receive_Classification+0x104>)
 c00198e:	6819      	ldr	r1, [r3, #0]
 c001990:	f44f 6380 	mov.w	r3, #1024	; 0x400
 c001994:	4a25      	ldr	r2, [pc, #148]	; (c001a2c <SECURE_SPI_Receive_Classification+0xf0>)
 c001996:	482b      	ldr	r0, [pc, #172]	; (c001a44 <SECURE_SPI_Receive_Classification+0x108>)
 c001998:	f7ff fa5a 	bl	c000e50 <SearchForSig>
 c00199c:	60f8      	str	r0, [r7, #12]
		if(containsStartClassification >= 0 && containsEndClassification >= 0){
 c00199e:	693b      	ldr	r3, [r7, #16]
 c0019a0:	2b00      	cmp	r3, #0
 c0019a2:	db3b      	blt.n	c001a1c <SECURE_SPI_Receive_Classification+0xe0>
 c0019a4:	68fb      	ldr	r3, [r7, #12]
 c0019a6:	2b00      	cmp	r3, #0
 c0019a8:	db38      	blt.n	c001a1c <SECURE_SPI_Receive_Classification+0xe0>
			//The start and end signals were found; make sure there's only one element between them
			if(containsStartClassification == containsEndClassification - START_CLASSIFICATION_SIZE - 1){
 c0019aa:	4b23      	ldr	r3, [pc, #140]	; (c001a38 <SECURE_SPI_Receive_Classification+0xfc>)
 c0019ac:	681b      	ldr	r3, [r3, #0]
 c0019ae:	68fa      	ldr	r2, [r7, #12]
 c0019b0:	1ad3      	subs	r3, r2, r3
 c0019b2:	3b01      	subs	r3, #1
 c0019b4:	693a      	ldr	r2, [r7, #16]
 c0019b6:	429a      	cmp	r2, r3
 c0019b8:	d125      	bne.n	c001a06 <SECURE_SPI_Receive_Classification+0xca>
				retval = 1;
 c0019ba:	2301      	movs	r3, #1
 c0019bc:	617b      	str	r3, [r7, #20]
				//try to extract the classification
				printf("Classification found. Extracting...\n\r");
 c0019be:	4822      	ldr	r0, [pc, #136]	; (c001a48 <SECURE_SPI_Receive_Classification+0x10c>)
 c0019c0:	f005 fd92 	bl	c0074e8 <iprintf>
				int classificationInd = containsEndClassification - 1;
 c0019c4:	68fb      	ldr	r3, [r7, #12]
 c0019c6:	3b01      	subs	r3, #1
 c0019c8:	60bb      	str	r3, [r7, #8]
				uint8_t classification = aRxBuffer[classificationInd];
 c0019ca:	4a18      	ldr	r2, [pc, #96]	; (c001a2c <SECURE_SPI_Receive_Classification+0xf0>)
 c0019cc:	68bb      	ldr	r3, [r7, #8]
 c0019ce:	4413      	add	r3, r2
 c0019d0:	781b      	ldrb	r3, [r3, #0]
 c0019d2:	71fb      	strb	r3, [r7, #7]
				printf("Classification: %c\n\r", classification);
 c0019d4:	79fb      	ldrb	r3, [r7, #7]
 c0019d6:	4619      	mov	r1, r3
 c0019d8:	481c      	ldr	r0, [pc, #112]	; (c001a4c <SECURE_SPI_Receive_Classification+0x110>)
 c0019da:	f005 fd85 	bl	c0074e8 <iprintf>
				if(classification == '1'){
 c0019de:	79fb      	ldrb	r3, [r7, #7]
 c0019e0:	2b31      	cmp	r3, #49	; 0x31
 c0019e2:	d103      	bne.n	c0019ec <SECURE_SPI_Receive_Classification+0xb0>
					printf("Memory was found to be benign.\n\r");
 c0019e4:	481a      	ldr	r0, [pc, #104]	; (c001a50 <SECURE_SPI_Receive_Classification+0x114>)
 c0019e6:	f005 fd7f 	bl	c0074e8 <iprintf>
 c0019ea:	e017      	b.n	c001a1c <SECURE_SPI_Receive_Classification+0xe0>
				}else if(classification == '0'){
 c0019ec:	79fb      	ldrb	r3, [r7, #7]
 c0019ee:	2b30      	cmp	r3, #48	; 0x30
 c0019f0:	d103      	bne.n	c0019fa <SECURE_SPI_Receive_Classification+0xbe>
					printf("Memory was found to be malicious.\n\r");
 c0019f2:	4818      	ldr	r0, [pc, #96]	; (c001a54 <SECURE_SPI_Receive_Classification+0x118>)
 c0019f4:	f005 fd78 	bl	c0074e8 <iprintf>
 c0019f8:	e010      	b.n	c001a1c <SECURE_SPI_Receive_Classification+0xe0>
				}else{
					printf("Error in receiving classification from server. Bad value: %d\n\r", classification);
 c0019fa:	79fb      	ldrb	r3, [r7, #7]
 c0019fc:	4619      	mov	r1, r3
 c0019fe:	4816      	ldr	r0, [pc, #88]	; (c001a58 <SECURE_SPI_Receive_Classification+0x11c>)
 c001a00:	f005 fd72 	bl	c0074e8 <iprintf>
 c001a04:	e00a      	b.n	c001a1c <SECURE_SPI_Receive_Classification+0xe0>
				}
			}else{
				printf("Error: the SPI classification stream is incorrectly formatted.\n\r");
 c001a06:	4815      	ldr	r0, [pc, #84]	; (c001a5c <SECURE_SPI_Receive_Classification+0x120>)
 c001a08:	f005 fd6e 	bl	c0074e8 <iprintf>
				printf("Start classification: %d, End classification: %d\n\r", containsStartClassification, containsEndClassification);
 c001a0c:	68fa      	ldr	r2, [r7, #12]
 c001a0e:	6939      	ldr	r1, [r7, #16]
 c001a10:	4813      	ldr	r0, [pc, #76]	; (c001a60 <SECURE_SPI_Receive_Classification+0x124>)
 c001a12:	f005 fd69 	bl	c0074e8 <iprintf>
 c001a16:	e001      	b.n	c001a1c <SECURE_SPI_Receive_Classification+0xe0>
			}
		}
	}else{
		//if transfer didn't complete
		Error_Handler();
 c001a18:	f7ff fa9c 	bl	c000f54 <Error_Handler>
	}
	return retval;
 c001a1c:	697b      	ldr	r3, [r7, #20]

}
 c001a1e:	4618      	mov	r0, r3
 c001a20:	3718      	adds	r7, #24
 c001a22:	46bd      	mov	sp, r7
 c001a24:	bd80      	pop	{r7, pc}
 c001a26:	bf00      	nop
 c001a28:	30000470 	.word	0x30000470
 c001a2c:	30001894 	.word	0x30001894
 c001a30:	300001d8 	.word	0x300001d8
 c001a34:	0c008ba0 	.word	0x0c008ba0
 c001a38:	300000d4 	.word	0x300000d4
 c001a3c:	30000000 	.word	0x30000000
 c001a40:	300000d0 	.word	0x300000d0
 c001a44:	30000018 	.word	0x30000018
 c001a48:	0c008bc8 	.word	0x0c008bc8
 c001a4c:	0c008bf0 	.word	0x0c008bf0
 c001a50:	0c008c08 	.word	0x0c008c08
 c001a54:	0c008c2c 	.word	0x0c008c2c
 c001a58:	0c008c50 	.word	0x0c008c50
 c001a5c:	0c008c90 	.word	0x0c008c90
 c001a60:	0c008cd4 	.word	0x0c008cd4

0c001a64 <__acle_se_SECURE_RegisterCallback>:
  * @param  CallbackId  callback identifier
  * @param  func        pointer to non-secure function
  * @retval None
  */
CMSE_NS_ENTRY void SECURE_RegisterCallback(SECURE_CallbackIDTypeDef CallbackId, void *func)
{
 c001a64:	b480      	push	{r7}
 c001a66:	b083      	sub	sp, #12
 c001a68:	af00      	add	r7, sp, #0
 c001a6a:	4603      	mov	r3, r0
 c001a6c:	6039      	str	r1, [r7, #0]
 c001a6e:	71fb      	strb	r3, [r7, #7]
  if(func != NULL)
 c001a70:	683b      	ldr	r3, [r7, #0]
 c001a72:	2b00      	cmp	r3, #0
 c001a74:	d00d      	beq.n	c001a92 <__acle_se_SECURE_RegisterCallback+0x2e>
  {
    switch(CallbackId)
 c001a76:	79fb      	ldrb	r3, [r7, #7]
 c001a78:	2b00      	cmp	r3, #0
 c001a7a:	d002      	beq.n	c001a82 <__acle_se_SECURE_RegisterCallback+0x1e>
 c001a7c:	2b01      	cmp	r3, #1
 c001a7e:	d004      	beq.n	c001a8a <__acle_se_SECURE_RegisterCallback+0x26>
      case GTZC_ERROR_CB_ID:             /* GTZC Interrupt occurred */
        pSecureErrorCallback = func;
        break;
      default:
        /* unknown */
        break;
 c001a80:	e008      	b.n	c001a94 <__acle_se_SECURE_RegisterCallback+0x30>
        pSecureFaultCallback = func;
 c001a82:	4a21      	ldr	r2, [pc, #132]	; (c001b08 <__acle_se_SECURE_RegisterCallback+0xa4>)
 c001a84:	683b      	ldr	r3, [r7, #0]
 c001a86:	6013      	str	r3, [r2, #0]
        break;
 c001a88:	e004      	b.n	c001a94 <__acle_se_SECURE_RegisterCallback+0x30>
        pSecureErrorCallback = func;
 c001a8a:	4a20      	ldr	r2, [pc, #128]	; (c001b0c <__acle_se_SECURE_RegisterCallback+0xa8>)
 c001a8c:	683b      	ldr	r3, [r7, #0]
 c001a8e:	6013      	str	r3, [r2, #0]
        break;
 c001a90:	e000      	b.n	c001a94 <__acle_se_SECURE_RegisterCallback+0x30>
    }
  }
 c001a92:	bf00      	nop
}
 c001a94:	bf00      	nop
 c001a96:	370c      	adds	r7, #12
 c001a98:	46bd      	mov	sp, r7
 c001a9a:	f85d 7b04 	ldr.w	r7, [sp], #4
 c001a9e:	4670      	mov	r0, lr
 c001aa0:	4671      	mov	r1, lr
 c001aa2:	4672      	mov	r2, lr
 c001aa4:	4673      	mov	r3, lr
 c001aa6:	eeb7 0a00 	vmov.f32	s0, #112	; 0x3f800000  1.0
 c001aaa:	eef7 0a00 	vmov.f32	s1, #112	; 0x3f800000  1.0
 c001aae:	eeb7 1a00 	vmov.f32	s2, #112	; 0x3f800000  1.0
 c001ab2:	eef7 1a00 	vmov.f32	s3, #112	; 0x3f800000  1.0
 c001ab6:	eeb7 2a00 	vmov.f32	s4, #112	; 0x3f800000  1.0
 c001aba:	eef7 2a00 	vmov.f32	s5, #112	; 0x3f800000  1.0
 c001abe:	eeb7 3a00 	vmov.f32	s6, #112	; 0x3f800000  1.0
 c001ac2:	eef7 3a00 	vmov.f32	s7, #112	; 0x3f800000  1.0
 c001ac6:	eeb7 4a00 	vmov.f32	s8, #112	; 0x3f800000  1.0
 c001aca:	eef7 4a00 	vmov.f32	s9, #112	; 0x3f800000  1.0
 c001ace:	eeb7 5a00 	vmov.f32	s10, #112	; 0x3f800000  1.0
 c001ad2:	eef7 5a00 	vmov.f32	s11, #112	; 0x3f800000  1.0
 c001ad6:	eeb7 6a00 	vmov.f32	s12, #112	; 0x3f800000  1.0
 c001ada:	eef7 6a00 	vmov.f32	s13, #112	; 0x3f800000  1.0
 c001ade:	eeb7 7a00 	vmov.f32	s14, #112	; 0x3f800000  1.0
 c001ae2:	eef7 7a00 	vmov.f32	s15, #112	; 0x3f800000  1.0
 c001ae6:	f38e 8c00 	msr	CPSR_fs, lr
 c001aea:	b410      	push	{r4}
 c001aec:	eef1 ca10 	vmrs	ip, fpscr
 c001af0:	f64f 7460 	movw	r4, #65376	; 0xff60
 c001af4:	f6c0 74ff 	movt	r4, #4095	; 0xfff
 c001af8:	ea0c 0c04 	and.w	ip, ip, r4
 c001afc:	eee1 ca10 	vmsr	fpscr, ip
 c001b00:	bc10      	pop	{r4}
 c001b02:	46f4      	mov	ip, lr
 c001b04:	4774      	bxns	lr
 c001b06:	bf00      	nop
 c001b08:	30001c98 	.word	0x30001c98
 c001b0c:	30001c9c 	.word	0x30001c9c

0c001b10 <HAL_MspInit>:
/* USER CODE END 0 */
/**
  * Initializes the Global MSP.
  */
void HAL_MspInit(void)
{
 c001b10:	b580      	push	{r7, lr}
 c001b12:	b084      	sub	sp, #16
 c001b14:	af00      	add	r7, sp, #0
  /* USER CODE BEGIN MspInit 0 */

  /* USER CODE END MspInit 0 */

  __HAL_RCC_SYSCFG_CLK_ENABLE();
 c001b16:	4b15      	ldr	r3, [pc, #84]	; (c001b6c <HAL_MspInit+0x5c>)
 c001b18:	6e1b      	ldr	r3, [r3, #96]	; 0x60
 c001b1a:	4a14      	ldr	r2, [pc, #80]	; (c001b6c <HAL_MspInit+0x5c>)
 c001b1c:	f043 0301 	orr.w	r3, r3, #1
 c001b20:	6613      	str	r3, [r2, #96]	; 0x60
 c001b22:	4b12      	ldr	r3, [pc, #72]	; (c001b6c <HAL_MspInit+0x5c>)
 c001b24:	6e1b      	ldr	r3, [r3, #96]	; 0x60
 c001b26:	f003 0301 	and.w	r3, r3, #1
 c001b2a:	60fb      	str	r3, [r7, #12]
 c001b2c:	68fb      	ldr	r3, [r7, #12]
  __HAL_RCC_PWR_CLK_ENABLE();
 c001b2e:	4b0f      	ldr	r3, [pc, #60]	; (c001b6c <HAL_MspInit+0x5c>)
 c001b30:	6d9b      	ldr	r3, [r3, #88]	; 0x58
 c001b32:	4a0e      	ldr	r2, [pc, #56]	; (c001b6c <HAL_MspInit+0x5c>)
 c001b34:	f043 5380 	orr.w	r3, r3, #268435456	; 0x10000000
 c001b38:	6593      	str	r3, [r2, #88]	; 0x58
 c001b3a:	4b0c      	ldr	r3, [pc, #48]	; (c001b6c <HAL_MspInit+0x5c>)
 c001b3c:	6d9b      	ldr	r3, [r3, #88]	; 0x58
 c001b3e:	f003 5380 	and.w	r3, r3, #268435456	; 0x10000000
 c001b42:	60bb      	str	r3, [r7, #8]
 c001b44:	68bb      	ldr	r3, [r7, #8]
  __HAL_RCC_GTZC_CLK_ENABLE();
 c001b46:	4b09      	ldr	r3, [pc, #36]	; (c001b6c <HAL_MspInit+0x5c>)
 c001b48:	6c9b      	ldr	r3, [r3, #72]	; 0x48
 c001b4a:	4a08      	ldr	r2, [pc, #32]	; (c001b6c <HAL_MspInit+0x5c>)
 c001b4c:	f443 0380 	orr.w	r3, r3, #4194304	; 0x400000
 c001b50:	6493      	str	r3, [r2, #72]	; 0x48
 c001b52:	4b06      	ldr	r3, [pc, #24]	; (c001b6c <HAL_MspInit+0x5c>)
 c001b54:	6c9b      	ldr	r3, [r3, #72]	; 0x48
 c001b56:	f403 0380 	and.w	r3, r3, #4194304	; 0x400000
 c001b5a:	607b      	str	r3, [r7, #4]
 c001b5c:	687b      	ldr	r3, [r7, #4]

  /* System interrupt init*/

  /** Disable the internal Pull-Up in Dead Battery pins of UCPD peripheral
  */
  HAL_PWREx_DisableUCPDDeadBattery();
 c001b5e:	f002 f91f 	bl	c003da0 <HAL_PWREx_DisableUCPDDeadBattery>

  /* USER CODE BEGIN MspInit 1 */

  /* USER CODE END MspInit 1 */
}
 c001b62:	bf00      	nop
 c001b64:	3710      	adds	r7, #16
 c001b66:	46bd      	mov	sp, r7
 c001b68:	bd80      	pop	{r7, pc}
 c001b6a:	bf00      	nop
 c001b6c:	50021000 	.word	0x50021000

0c001b70 <HAL_HASH_MspInit>:
* This function configures the hardware resources used in this example
* @param hhash: HASH handle pointer
* @retval None
*/
void HAL_HASH_MspInit(HASH_HandleTypeDef* hhash)
{
 c001b70:	b480      	push	{r7}
 c001b72:	b085      	sub	sp, #20
 c001b74:	af00      	add	r7, sp, #0
 c001b76:	6078      	str	r0, [r7, #4]
  /* USER CODE BEGIN HASH_MspInit 0 */

  /* USER CODE END HASH_MspInit 0 */
    /* Peripheral clock enable */
    __HAL_RCC_HASH_CLK_ENABLE();
 c001b78:	4b08      	ldr	r3, [pc, #32]	; (c001b9c <HAL_HASH_MspInit+0x2c>)
 c001b7a:	6cdb      	ldr	r3, [r3, #76]	; 0x4c
 c001b7c:	4a07      	ldr	r2, [pc, #28]	; (c001b9c <HAL_HASH_MspInit+0x2c>)
 c001b7e:	f443 3300 	orr.w	r3, r3, #131072	; 0x20000
 c001b82:	64d3      	str	r3, [r2, #76]	; 0x4c
 c001b84:	4b05      	ldr	r3, [pc, #20]	; (c001b9c <HAL_HASH_MspInit+0x2c>)
 c001b86:	6cdb      	ldr	r3, [r3, #76]	; 0x4c
 c001b88:	f403 3300 	and.w	r3, r3, #131072	; 0x20000
 c001b8c:	60fb      	str	r3, [r7, #12]
 c001b8e:	68fb      	ldr	r3, [r7, #12]
  /* USER CODE BEGIN HASH_MspInit 1 */

  /* USER CODE END HASH_MspInit 1 */

}
 c001b90:	bf00      	nop
 c001b92:	3714      	adds	r7, #20
 c001b94:	46bd      	mov	sp, r7
 c001b96:	f85d 7b04 	ldr.w	r7, [sp], #4
 c001b9a:	4770      	bx	lr
 c001b9c:	50021000 	.word	0x50021000

0c001ba0 <HAL_SPI_MspInit>:
* This function configures the hardware resources used in this example
* @param hspi: SPI handle pointer
* @retval None
*/
void HAL_SPI_MspInit(SPI_HandleTypeDef* hspi)
{
 c001ba0:	b580      	push	{r7, lr}
 c001ba2:	b08a      	sub	sp, #40	; 0x28
 c001ba4:	af00      	add	r7, sp, #0
 c001ba6:	6078      	str	r0, [r7, #4]
  GPIO_InitTypeDef GPIO_InitStruct = {0};
 c001ba8:	f107 0314 	add.w	r3, r7, #20
 c001bac:	2200      	movs	r2, #0
 c001bae:	601a      	str	r2, [r3, #0]
 c001bb0:	605a      	str	r2, [r3, #4]
 c001bb2:	609a      	str	r2, [r3, #8]
 c001bb4:	60da      	str	r2, [r3, #12]
 c001bb6:	611a      	str	r2, [r3, #16]
  if(hspi->Instance==SPI3)
 c001bb8:	687b      	ldr	r3, [r7, #4]
 c001bba:	681b      	ldr	r3, [r3, #0]
 c001bbc:	4a77      	ldr	r2, [pc, #476]	; (c001d9c <HAL_SPI_MspInit+0x1fc>)
 c001bbe:	4293      	cmp	r3, r2
 c001bc0:	f040 80e7 	bne.w	c001d92 <HAL_SPI_MspInit+0x1f2>
  {
  /* USER CODE BEGIN SPI3_MspInit 0 */

  /* USER CODE END SPI3_MspInit 0 */
    /* Peripheral clock enable */
    __HAL_RCC_SPI3_CLK_ENABLE();
 c001bc4:	4b76      	ldr	r3, [pc, #472]	; (c001da0 <HAL_SPI_MspInit+0x200>)
 c001bc6:	6d9b      	ldr	r3, [r3, #88]	; 0x58
 c001bc8:	4a75      	ldr	r2, [pc, #468]	; (c001da0 <HAL_SPI_MspInit+0x200>)
 c001bca:	f443 4300 	orr.w	r3, r3, #32768	; 0x8000
 c001bce:	6593      	str	r3, [r2, #88]	; 0x58
 c001bd0:	4b73      	ldr	r3, [pc, #460]	; (c001da0 <HAL_SPI_MspInit+0x200>)
 c001bd2:	6d9b      	ldr	r3, [r3, #88]	; 0x58
 c001bd4:	f403 4300 	and.w	r3, r3, #32768	; 0x8000
 c001bd8:	613b      	str	r3, [r7, #16]
 c001bda:	693b      	ldr	r3, [r7, #16]

    __HAL_RCC_GPIOD_CLK_ENABLE();
 c001bdc:	4b70      	ldr	r3, [pc, #448]	; (c001da0 <HAL_SPI_MspInit+0x200>)
 c001bde:	6cdb      	ldr	r3, [r3, #76]	; 0x4c
 c001be0:	4a6f      	ldr	r2, [pc, #444]	; (c001da0 <HAL_SPI_MspInit+0x200>)
 c001be2:	f043 0308 	orr.w	r3, r3, #8
 c001be6:	64d3      	str	r3, [r2, #76]	; 0x4c
 c001be8:	4b6d      	ldr	r3, [pc, #436]	; (c001da0 <HAL_SPI_MspInit+0x200>)
 c001bea:	6cdb      	ldr	r3, [r3, #76]	; 0x4c
 c001bec:	f003 0308 	and.w	r3, r3, #8
 c001bf0:	60fb      	str	r3, [r7, #12]
 c001bf2:	68fb      	ldr	r3, [r7, #12]
    __HAL_RCC_GPIOG_CLK_ENABLE();
 c001bf4:	4b6a      	ldr	r3, [pc, #424]	; (c001da0 <HAL_SPI_MspInit+0x200>)
 c001bf6:	6cdb      	ldr	r3, [r3, #76]	; 0x4c
 c001bf8:	4a69      	ldr	r2, [pc, #420]	; (c001da0 <HAL_SPI_MspInit+0x200>)
 c001bfa:	f043 0340 	orr.w	r3, r3, #64	; 0x40
 c001bfe:	64d3      	str	r3, [r2, #76]	; 0x4c
 c001c00:	4b67      	ldr	r3, [pc, #412]	; (c001da0 <HAL_SPI_MspInit+0x200>)
 c001c02:	6cdb      	ldr	r3, [r3, #76]	; 0x4c
 c001c04:	f003 0340 	and.w	r3, r3, #64	; 0x40
 c001c08:	60bb      	str	r3, [r7, #8]
 c001c0a:	68bb      	ldr	r3, [r7, #8]
    HAL_PWREx_EnableVddIO2();
 c001c0c:	f002 f8b8 	bl	c003d80 <HAL_PWREx_EnableVddIO2>
    /**SPI3 GPIO Configuration
    PD6     ------> SPI3_MOSI
    PG9     ------> SPI3_SCK
    PG10     ------> SPI3_MISO
    */
    GPIO_InitStruct.Pin = GPIO_PIN_6;
 c001c10:	2340      	movs	r3, #64	; 0x40
 c001c12:	617b      	str	r3, [r7, #20]
    GPIO_InitStruct.Mode = GPIO_MODE_AF_PP;
 c001c14:	2302      	movs	r3, #2
 c001c16:	61bb      	str	r3, [r7, #24]
    GPIO_InitStruct.Pull = GPIO_NOPULL;
 c001c18:	2300      	movs	r3, #0
 c001c1a:	61fb      	str	r3, [r7, #28]
    GPIO_InitStruct.Speed = GPIO_SPEED_FREQ_LOW;
 c001c1c:	2300      	movs	r3, #0
 c001c1e:	623b      	str	r3, [r7, #32]
    GPIO_InitStruct.Alternate = GPIO_AF5_SPI3;
 c001c20:	2305      	movs	r3, #5
 c001c22:	627b      	str	r3, [r7, #36]	; 0x24
    HAL_GPIO_Init(GPIOD, &GPIO_InitStruct);
 c001c24:	f107 0314 	add.w	r3, r7, #20
 c001c28:	4619      	mov	r1, r3
 c001c2a:	485e      	ldr	r0, [pc, #376]	; (c001da4 <HAL_SPI_MspInit+0x204>)
 c001c2c:	f001 f91a 	bl	c002e64 <HAL_GPIO_Init>

    GPIO_InitStruct.Pin = GPIO_PIN_9|GPIO_PIN_10;
 c001c30:	f44f 63c0 	mov.w	r3, #1536	; 0x600
 c001c34:	617b      	str	r3, [r7, #20]
    GPIO_InitStruct.Mode = GPIO_MODE_AF_PP;
 c001c36:	2302      	movs	r3, #2
 c001c38:	61bb      	str	r3, [r7, #24]
    GPIO_InitStruct.Pull = GPIO_NOPULL;
 c001c3a:	2300      	movs	r3, #0
 c001c3c:	61fb      	str	r3, [r7, #28]
    GPIO_InitStruct.Speed = GPIO_SPEED_FREQ_LOW;
 c001c3e:	2300      	movs	r3, #0
 c001c40:	623b      	str	r3, [r7, #32]
    GPIO_InitStruct.Alternate = GPIO_AF6_SPI3;
 c001c42:	2306      	movs	r3, #6
 c001c44:	627b      	str	r3, [r7, #36]	; 0x24
    HAL_GPIO_Init(GPIOG, &GPIO_InitStruct);
 c001c46:	f107 0314 	add.w	r3, r7, #20
 c001c4a:	4619      	mov	r1, r3
 c001c4c:	4856      	ldr	r0, [pc, #344]	; (c001da8 <HAL_SPI_MspInit+0x208>)
 c001c4e:	f001 f909 	bl	c002e64 <HAL_GPIO_Init>

    /* SPI3 DMA Init */
    /* SPI3_RX Init */
    hdma_spi3_rx.Instance = DMA1_Channel2;
 c001c52:	4b56      	ldr	r3, [pc, #344]	; (c001dac <HAL_SPI_MspInit+0x20c>)
 c001c54:	4a56      	ldr	r2, [pc, #344]	; (c001db0 <HAL_SPI_MspInit+0x210>)
 c001c56:	601a      	str	r2, [r3, #0]
    hdma_spi3_rx.Init.Request = DMA_REQUEST_SPI3_RX;
 c001c58:	4b54      	ldr	r3, [pc, #336]	; (c001dac <HAL_SPI_MspInit+0x20c>)
 c001c5a:	220f      	movs	r2, #15
 c001c5c:	605a      	str	r2, [r3, #4]
    hdma_spi3_rx.Init.Direction = DMA_PERIPH_TO_MEMORY;
 c001c5e:	4b53      	ldr	r3, [pc, #332]	; (c001dac <HAL_SPI_MspInit+0x20c>)
 c001c60:	2200      	movs	r2, #0
 c001c62:	609a      	str	r2, [r3, #8]
    hdma_spi3_rx.Init.PeriphInc = DMA_PINC_DISABLE;
 c001c64:	4b51      	ldr	r3, [pc, #324]	; (c001dac <HAL_SPI_MspInit+0x20c>)
 c001c66:	2200      	movs	r2, #0
 c001c68:	60da      	str	r2, [r3, #12]
    hdma_spi3_rx.Init.MemInc = DMA_MINC_ENABLE;
 c001c6a:	4b50      	ldr	r3, [pc, #320]	; (c001dac <HAL_SPI_MspInit+0x20c>)
 c001c6c:	2280      	movs	r2, #128	; 0x80
 c001c6e:	611a      	str	r2, [r3, #16]
    hdma_spi3_rx.Init.PeriphDataAlignment = DMA_PDATAALIGN_BYTE;
 c001c70:	4b4e      	ldr	r3, [pc, #312]	; (c001dac <HAL_SPI_MspInit+0x20c>)
 c001c72:	2200      	movs	r2, #0
 c001c74:	615a      	str	r2, [r3, #20]
    hdma_spi3_rx.Init.MemDataAlignment = DMA_MDATAALIGN_BYTE;
 c001c76:	4b4d      	ldr	r3, [pc, #308]	; (c001dac <HAL_SPI_MspInit+0x20c>)
 c001c78:	2200      	movs	r2, #0
 c001c7a:	619a      	str	r2, [r3, #24]
    hdma_spi3_rx.Init.Mode = DMA_NORMAL;
 c001c7c:	4b4b      	ldr	r3, [pc, #300]	; (c001dac <HAL_SPI_MspInit+0x20c>)
 c001c7e:	2200      	movs	r2, #0
 c001c80:	61da      	str	r2, [r3, #28]
    hdma_spi3_rx.Init.Priority = DMA_PRIORITY_LOW;
 c001c82:	4b4a      	ldr	r3, [pc, #296]	; (c001dac <HAL_SPI_MspInit+0x20c>)
 c001c84:	2200      	movs	r2, #0
 c001c86:	621a      	str	r2, [r3, #32]
    if (HAL_DMA_Init(&hdma_spi3_rx) != HAL_OK)
 c001c88:	4848      	ldr	r0, [pc, #288]	; (c001dac <HAL_SPI_MspInit+0x20c>)
 c001c8a:	f000 fd4b 	bl	c002724 <HAL_DMA_Init>
 c001c8e:	4603      	mov	r3, r0
 c001c90:	2b00      	cmp	r3, #0
 c001c92:	d001      	beq.n	c001c98 <HAL_SPI_MspInit+0xf8>
    {
      Error_Handler();
 c001c94:	f7ff f95e 	bl	c000f54 <Error_Handler>
    }

    if (HAL_DMA_ConfigChannelAttributes(&hdma_spi3_rx, DMA_CHANNEL_NPRIV) != HAL_OK)
 c001c98:	2110      	movs	r1, #16
 c001c9a:	4844      	ldr	r0, [pc, #272]	; (c001dac <HAL_SPI_MspInit+0x20c>)
 c001c9c:	f000 ffba 	bl	c002c14 <HAL_DMA_ConfigChannelAttributes>
 c001ca0:	4603      	mov	r3, r0
 c001ca2:	2b00      	cmp	r3, #0
 c001ca4:	d001      	beq.n	c001caa <HAL_SPI_MspInit+0x10a>
    {
      Error_Handler();
 c001ca6:	f7ff f955 	bl	c000f54 <Error_Handler>
    }

    if (HAL_DMA_ConfigChannelAttributes(&hdma_spi3_rx, DMA_CHANNEL_SEC) != HAL_OK)
 c001caa:	f04f 1102 	mov.w	r1, #131074	; 0x20002
 c001cae:	483f      	ldr	r0, [pc, #252]	; (c001dac <HAL_SPI_MspInit+0x20c>)
 c001cb0:	f000 ffb0 	bl	c002c14 <HAL_DMA_ConfigChannelAttributes>
 c001cb4:	4603      	mov	r3, r0
 c001cb6:	2b00      	cmp	r3, #0
 c001cb8:	d001      	beq.n	c001cbe <HAL_SPI_MspInit+0x11e>
    {
      Error_Handler();
 c001cba:	f7ff f94b 	bl	c000f54 <Error_Handler>
    }

    if (HAL_DMA_ConfigChannelAttributes(&hdma_spi3_rx, DMA_CHANNEL_SRC_SEC) != HAL_OK)
 c001cbe:	f04f 1104 	mov.w	r1, #262148	; 0x40004
 c001cc2:	483a      	ldr	r0, [pc, #232]	; (c001dac <HAL_SPI_MspInit+0x20c>)
 c001cc4:	f000 ffa6 	bl	c002c14 <HAL_DMA_ConfigChannelAttributes>
 c001cc8:	4603      	mov	r3, r0
 c001cca:	2b00      	cmp	r3, #0
 c001ccc:	d001      	beq.n	c001cd2 <HAL_SPI_MspInit+0x132>
    {
      Error_Handler();
 c001cce:	f7ff f941 	bl	c000f54 <Error_Handler>
    }

    if (HAL_DMA_ConfigChannelAttributes(&hdma_spi3_rx, DMA_CHANNEL_DEST_SEC) != HAL_OK)
 c001cd2:	f04f 1108 	mov.w	r1, #524296	; 0x80008
 c001cd6:	4835      	ldr	r0, [pc, #212]	; (c001dac <HAL_SPI_MspInit+0x20c>)
 c001cd8:	f000 ff9c 	bl	c002c14 <HAL_DMA_ConfigChannelAttributes>
 c001cdc:	4603      	mov	r3, r0
 c001cde:	2b00      	cmp	r3, #0
 c001ce0:	d001      	beq.n	c001ce6 <HAL_SPI_MspInit+0x146>
    {
      Error_Handler();
 c001ce2:	f7ff f937 	bl	c000f54 <Error_Handler>
    }

    __HAL_LINKDMA(hspi,hdmarx,hdma_spi3_rx);
 c001ce6:	687b      	ldr	r3, [r7, #4]
 c001ce8:	4a30      	ldr	r2, [pc, #192]	; (c001dac <HAL_SPI_MspInit+0x20c>)
 c001cea:	659a      	str	r2, [r3, #88]	; 0x58
 c001cec:	4a2f      	ldr	r2, [pc, #188]	; (c001dac <HAL_SPI_MspInit+0x20c>)
 c001cee:	687b      	ldr	r3, [r7, #4]
 c001cf0:	6293      	str	r3, [r2, #40]	; 0x28

    /* SPI3_TX Init */
    hdma_spi3_tx.Instance = DMA1_Channel3;
 c001cf2:	4b30      	ldr	r3, [pc, #192]	; (c001db4 <HAL_SPI_MspInit+0x214>)
 c001cf4:	4a30      	ldr	r2, [pc, #192]	; (c001db8 <HAL_SPI_MspInit+0x218>)
 c001cf6:	601a      	str	r2, [r3, #0]
    hdma_spi3_tx.Init.Request = DMA_REQUEST_SPI3_TX;
 c001cf8:	4b2e      	ldr	r3, [pc, #184]	; (c001db4 <HAL_SPI_MspInit+0x214>)
 c001cfa:	2210      	movs	r2, #16
 c001cfc:	605a      	str	r2, [r3, #4]
    hdma_spi3_tx.Init.Direction = DMA_MEMORY_TO_PERIPH;
 c001cfe:	4b2d      	ldr	r3, [pc, #180]	; (c001db4 <HAL_SPI_MspInit+0x214>)
 c001d00:	2210      	movs	r2, #16
 c001d02:	609a      	str	r2, [r3, #8]
    hdma_spi3_tx.Init.PeriphInc = DMA_PINC_DISABLE;
 c001d04:	4b2b      	ldr	r3, [pc, #172]	; (c001db4 <HAL_SPI_MspInit+0x214>)
 c001d06:	2200      	movs	r2, #0
 c001d08:	60da      	str	r2, [r3, #12]
    hdma_spi3_tx.Init.MemInc = DMA_MINC_ENABLE;
 c001d0a:	4b2a      	ldr	r3, [pc, #168]	; (c001db4 <HAL_SPI_MspInit+0x214>)
 c001d0c:	2280      	movs	r2, #128	; 0x80
 c001d0e:	611a      	str	r2, [r3, #16]
    hdma_spi3_tx.Init.PeriphDataAlignment = DMA_PDATAALIGN_BYTE;
 c001d10:	4b28      	ldr	r3, [pc, #160]	; (c001db4 <HAL_SPI_MspInit+0x214>)
 c001d12:	2200      	movs	r2, #0
 c001d14:	615a      	str	r2, [r3, #20]
    hdma_spi3_tx.Init.MemDataAlignment = DMA_MDATAALIGN_BYTE;
 c001d16:	4b27      	ldr	r3, [pc, #156]	; (c001db4 <HAL_SPI_MspInit+0x214>)
 c001d18:	2200      	movs	r2, #0
 c001d1a:	619a      	str	r2, [r3, #24]
    hdma_spi3_tx.Init.Mode = DMA_NORMAL;
 c001d1c:	4b25      	ldr	r3, [pc, #148]	; (c001db4 <HAL_SPI_MspInit+0x214>)
 c001d1e:	2200      	movs	r2, #0
 c001d20:	61da      	str	r2, [r3, #28]
    hdma_spi3_tx.Init.Priority = DMA_PRIORITY_LOW;
 c001d22:	4b24      	ldr	r3, [pc, #144]	; (c001db4 <HAL_SPI_MspInit+0x214>)
 c001d24:	2200      	movs	r2, #0
 c001d26:	621a      	str	r2, [r3, #32]
    if (HAL_DMA_Init(&hdma_spi3_tx) != HAL_OK)
 c001d28:	4822      	ldr	r0, [pc, #136]	; (c001db4 <HAL_SPI_MspInit+0x214>)
 c001d2a:	f000 fcfb 	bl	c002724 <HAL_DMA_Init>
 c001d2e:	4603      	mov	r3, r0
 c001d30:	2b00      	cmp	r3, #0
 c001d32:	d001      	beq.n	c001d38 <HAL_SPI_MspInit+0x198>
    {
      Error_Handler();
 c001d34:	f7ff f90e 	bl	c000f54 <Error_Handler>
    }

    if (HAL_DMA_ConfigChannelAttributes(&hdma_spi3_tx, DMA_CHANNEL_NPRIV) != HAL_OK)
 c001d38:	2110      	movs	r1, #16
 c001d3a:	481e      	ldr	r0, [pc, #120]	; (c001db4 <HAL_SPI_MspInit+0x214>)
 c001d3c:	f000 ff6a 	bl	c002c14 <HAL_DMA_ConfigChannelAttributes>
 c001d40:	4603      	mov	r3, r0
 c001d42:	2b00      	cmp	r3, #0
 c001d44:	d001      	beq.n	c001d4a <HAL_SPI_MspInit+0x1aa>
    {
      Error_Handler();
 c001d46:	f7ff f905 	bl	c000f54 <Error_Handler>
    }

    if (HAL_DMA_ConfigChannelAttributes(&hdma_spi3_tx, DMA_CHANNEL_SEC) != HAL_OK)
 c001d4a:	f04f 1102 	mov.w	r1, #131074	; 0x20002
 c001d4e:	4819      	ldr	r0, [pc, #100]	; (c001db4 <HAL_SPI_MspInit+0x214>)
 c001d50:	f000 ff60 	bl	c002c14 <HAL_DMA_ConfigChannelAttributes>
 c001d54:	4603      	mov	r3, r0
 c001d56:	2b00      	cmp	r3, #0
 c001d58:	d001      	beq.n	c001d5e <HAL_SPI_MspInit+0x1be>
    {
      Error_Handler();
 c001d5a:	f7ff f8fb 	bl	c000f54 <Error_Handler>
    }

    if (HAL_DMA_ConfigChannelAttributes(&hdma_spi3_tx, DMA_CHANNEL_SRC_SEC) != HAL_OK)
 c001d5e:	f04f 1104 	mov.w	r1, #262148	; 0x40004
 c001d62:	4814      	ldr	r0, [pc, #80]	; (c001db4 <HAL_SPI_MspInit+0x214>)
 c001d64:	f000 ff56 	bl	c002c14 <HAL_DMA_ConfigChannelAttributes>
 c001d68:	4603      	mov	r3, r0
 c001d6a:	2b00      	cmp	r3, #0
 c001d6c:	d001      	beq.n	c001d72 <HAL_SPI_MspInit+0x1d2>
    {
      Error_Handler();
 c001d6e:	f7ff f8f1 	bl	c000f54 <Error_Handler>
    }

    if (HAL_DMA_ConfigChannelAttributes(&hdma_spi3_tx, DMA_CHANNEL_DEST_SEC) != HAL_OK)
 c001d72:	f04f 1108 	mov.w	r1, #524296	; 0x80008
 c001d76:	480f      	ldr	r0, [pc, #60]	; (c001db4 <HAL_SPI_MspInit+0x214>)
 c001d78:	f000 ff4c 	bl	c002c14 <HAL_DMA_ConfigChannelAttributes>
 c001d7c:	4603      	mov	r3, r0
 c001d7e:	2b00      	cmp	r3, #0
 c001d80:	d001      	beq.n	c001d86 <HAL_SPI_MspInit+0x1e6>
    {
      Error_Handler();
 c001d82:	f7ff f8e7 	bl	c000f54 <Error_Handler>
    }

    __HAL_LINKDMA(hspi,hdmatx,hdma_spi3_tx);
 c001d86:	687b      	ldr	r3, [r7, #4]
 c001d88:	4a0a      	ldr	r2, [pc, #40]	; (c001db4 <HAL_SPI_MspInit+0x214>)
 c001d8a:	655a      	str	r2, [r3, #84]	; 0x54
 c001d8c:	4a09      	ldr	r2, [pc, #36]	; (c001db4 <HAL_SPI_MspInit+0x214>)
 c001d8e:	687b      	ldr	r3, [r7, #4]
 c001d90:	6293      	str	r3, [r2, #40]	; 0x28
  /* USER CODE BEGIN SPI3_MspInit 1 */

  /* USER CODE END SPI3_MspInit 1 */
  }

}
 c001d92:	bf00      	nop
 c001d94:	3728      	adds	r7, #40	; 0x28
 c001d96:	46bd      	mov	sp, r7
 c001d98:	bd80      	pop	{r7, pc}
 c001d9a:	bf00      	nop
 c001d9c:	50003c00 	.word	0x50003c00
 c001da0:	50021000 	.word	0x50021000
 c001da4:	52020c00 	.word	0x52020c00
 c001da8:	52021800 	.word	0x52021800
 c001dac:	3000023c 	.word	0x3000023c
 c001db0:	5002001c 	.word	0x5002001c
 c001db4:	300002a4 	.word	0x300002a4
 c001db8:	50020030 	.word	0x50020030

0c001dbc <HAL_UART_MspInit>:
* This function configures the hardware resources used in this example
* @param huart: UART handle pointer
* @retval None
*/
void HAL_UART_MspInit(UART_HandleTypeDef* huart)
{
 c001dbc:	b580      	push	{r7, lr}
 c001dbe:	b0ae      	sub	sp, #184	; 0xb8
 c001dc0:	af00      	add	r7, sp, #0
 c001dc2:	6078      	str	r0, [r7, #4]
  GPIO_InitTypeDef GPIO_InitStruct = {0};
 c001dc4:	f107 03a4 	add.w	r3, r7, #164	; 0xa4
 c001dc8:	2200      	movs	r2, #0
 c001dca:	601a      	str	r2, [r3, #0]
 c001dcc:	605a      	str	r2, [r3, #4]
 c001dce:	609a      	str	r2, [r3, #8]
 c001dd0:	60da      	str	r2, [r3, #12]
 c001dd2:	611a      	str	r2, [r3, #16]
  RCC_PeriphCLKInitTypeDef PeriphClkInit = {0};
 c001dd4:	f107 0310 	add.w	r3, r7, #16
 c001dd8:	2294      	movs	r2, #148	; 0x94
 c001dda:	2100      	movs	r1, #0
 c001ddc:	4618      	mov	r0, r3
 c001dde:	f005 fb7b 	bl	c0074d8 <memset>
  if(huart->Instance==USART1)
 c001de2:	687b      	ldr	r3, [r7, #4]
 c001de4:	681b      	ldr	r3, [r3, #0]
 c001de6:	4a21      	ldr	r2, [pc, #132]	; (c001e6c <HAL_UART_MspInit+0xb0>)
 c001de8:	4293      	cmp	r3, r2
 c001dea:	d13b      	bne.n	c001e64 <HAL_UART_MspInit+0xa8>

  /* USER CODE END USART1_MspInit 0 */

  /** Initializes the peripherals clock
  */
    PeriphClkInit.PeriphClockSelection = RCC_PERIPHCLK_USART1;
 c001dec:	2301      	movs	r3, #1
 c001dee:	613b      	str	r3, [r7, #16]
    PeriphClkInit.Usart1ClockSelection = RCC_USART1CLKSOURCE_PCLK2;
 c001df0:	2300      	movs	r3, #0
 c001df2:	647b      	str	r3, [r7, #68]	; 0x44
    if (HAL_RCCEx_PeriphCLKConfig(&PeriphClkInit) != HAL_OK)
 c001df4:	f107 0310 	add.w	r3, r7, #16
 c001df8:	4618      	mov	r0, r3
 c001dfa:	f002 ffbf 	bl	c004d7c <HAL_RCCEx_PeriphCLKConfig>
 c001dfe:	4603      	mov	r3, r0
 c001e00:	2b00      	cmp	r3, #0
 c001e02:	d001      	beq.n	c001e08 <HAL_UART_MspInit+0x4c>
    {
      Error_Handler();
 c001e04:	f7ff f8a6 	bl	c000f54 <Error_Handler>
    }

    /* Peripheral clock enable */
    __HAL_RCC_USART1_CLK_ENABLE();
 c001e08:	4b19      	ldr	r3, [pc, #100]	; (c001e70 <HAL_UART_MspInit+0xb4>)
 c001e0a:	6e1b      	ldr	r3, [r3, #96]	; 0x60
 c001e0c:	4a18      	ldr	r2, [pc, #96]	; (c001e70 <HAL_UART_MspInit+0xb4>)
 c001e0e:	f443 4380 	orr.w	r3, r3, #16384	; 0x4000
 c001e12:	6613      	str	r3, [r2, #96]	; 0x60
 c001e14:	4b16      	ldr	r3, [pc, #88]	; (c001e70 <HAL_UART_MspInit+0xb4>)
 c001e16:	6e1b      	ldr	r3, [r3, #96]	; 0x60
 c001e18:	f403 4380 	and.w	r3, r3, #16384	; 0x4000
 c001e1c:	60fb      	str	r3, [r7, #12]
 c001e1e:	68fb      	ldr	r3, [r7, #12]

    __HAL_RCC_GPIOA_CLK_ENABLE();
 c001e20:	4b13      	ldr	r3, [pc, #76]	; (c001e70 <HAL_UART_MspInit+0xb4>)
 c001e22:	6cdb      	ldr	r3, [r3, #76]	; 0x4c
 c001e24:	4a12      	ldr	r2, [pc, #72]	; (c001e70 <HAL_UART_MspInit+0xb4>)
 c001e26:	f043 0301 	orr.w	r3, r3, #1
 c001e2a:	64d3      	str	r3, [r2, #76]	; 0x4c
 c001e2c:	4b10      	ldr	r3, [pc, #64]	; (c001e70 <HAL_UART_MspInit+0xb4>)
 c001e2e:	6cdb      	ldr	r3, [r3, #76]	; 0x4c
 c001e30:	f003 0301 	and.w	r3, r3, #1
 c001e34:	60bb      	str	r3, [r7, #8]
 c001e36:	68bb      	ldr	r3, [r7, #8]
    /**USART1 GPIO Configuration
    PA9     ------> USART1_TX
    PA10     ------> USART1_RX
    */
    GPIO_InitStruct.Pin = USART1_TX_Pin|USART1_RX_Pin;
 c001e38:	f44f 63c0 	mov.w	r3, #1536	; 0x600
 c001e3c:	f8c7 30a4 	str.w	r3, [r7, #164]	; 0xa4
    GPIO_InitStruct.Mode = GPIO_MODE_AF_PP;
 c001e40:	2302      	movs	r3, #2
 c001e42:	f8c7 30a8 	str.w	r3, [r7, #168]	; 0xa8
    GPIO_InitStruct.Pull = GPIO_NOPULL;
 c001e46:	2300      	movs	r3, #0
 c001e48:	f8c7 30ac 	str.w	r3, [r7, #172]	; 0xac
    GPIO_InitStruct.Speed = GPIO_SPEED_FREQ_LOW;
 c001e4c:	2300      	movs	r3, #0
 c001e4e:	f8c7 30b0 	str.w	r3, [r7, #176]	; 0xb0
    GPIO_InitStruct.Alternate = GPIO_AF7_USART1;
 c001e52:	2307      	movs	r3, #7
 c001e54:	f8c7 30b4 	str.w	r3, [r7, #180]	; 0xb4
    HAL_GPIO_Init(GPIOA, &GPIO_InitStruct);
 c001e58:	f107 03a4 	add.w	r3, r7, #164	; 0xa4
 c001e5c:	4619      	mov	r1, r3
 c001e5e:	4805      	ldr	r0, [pc, #20]	; (c001e74 <HAL_UART_MspInit+0xb8>)
 c001e60:	f001 f800 	bl	c002e64 <HAL_GPIO_Init>
  /* USER CODE BEGIN USART1_MspInit 1 */

  /* USER CODE END USART1_MspInit 1 */
  }

}
 c001e64:	bf00      	nop
 c001e66:	37b8      	adds	r7, #184	; 0xb8
 c001e68:	46bd      	mov	sp, r7
 c001e6a:	bd80      	pop	{r7, pc}
 c001e6c:	50013800 	.word	0x50013800
 c001e70:	50021000 	.word	0x50021000
 c001e74:	52020000 	.word	0x52020000

0c001e78 <NMI_Handler>:
/******************************************************************************/
/**
  * @brief This function handles Non maskable interrupt.
  */
void NMI_Handler(void)
{
 c001e78:	b480      	push	{r7}
 c001e7a:	af00      	add	r7, sp, #0
  /* USER CODE BEGIN NonMaskableInt_IRQn 0 */

  /* USER CODE END NonMaskableInt_IRQn 0 */
  /* USER CODE BEGIN NonMaskableInt_IRQn 1 */
  while (1)
 c001e7c:	e7fe      	b.n	c001e7c <NMI_Handler+0x4>

0c001e7e <HardFault_Handler>:

/**
  * @brief This function handles Hard fault interrupt.
  */
void HardFault_Handler(void)
{
 c001e7e:	b480      	push	{r7}
 c001e80:	af00      	add	r7, sp, #0
  /* USER CODE BEGIN HardFault_IRQn 0 */

  /* USER CODE END HardFault_IRQn 0 */
  while (1)
 c001e82:	e7fe      	b.n	c001e82 <HardFault_Handler+0x4>

0c001e84 <MemManage_Handler>:

/**
  * @brief This function handles Memory management fault.
  */
void MemManage_Handler(void)
{
 c001e84:	b480      	push	{r7}
 c001e86:	af00      	add	r7, sp, #0
  /* USER CODE BEGIN MemoryManagement_IRQn 0 */

  /* USER CODE END MemoryManagement_IRQn 0 */
  while (1)
 c001e88:	e7fe      	b.n	c001e88 <MemManage_Handler+0x4>

0c001e8a <BusFault_Handler>:

/**
  * @brief This function handles Prefetch fault, memory access fault.
  */
void BusFault_Handler(void)
{
 c001e8a:	b480      	push	{r7}
 c001e8c:	af00      	add	r7, sp, #0
  /* USER CODE BEGIN BusFault_IRQn 0 */

  /* USER CODE END BusFault_IRQn 0 */
  while (1)
 c001e8e:	e7fe      	b.n	c001e8e <BusFault_Handler+0x4>

0c001e90 <UsageFault_Handler>:

/**
  * @brief This function handles Undefined instruction or illegal state.
  */
void UsageFault_Handler(void)
{
 c001e90:	b480      	push	{r7}
 c001e92:	af00      	add	r7, sp, #0
  /* USER CODE BEGIN UsageFault_IRQn 0 */

  /* USER CODE END UsageFault_IRQn 0 */
  while (1)
 c001e94:	e7fe      	b.n	c001e94 <UsageFault_Handler+0x4>

0c001e96 <SecureFault_Handler>:

/**
  * @brief This function handles Secure fault.
  */
void SecureFault_Handler(void)
{
 c001e96:	b480      	push	{r7}
 c001e98:	af00      	add	r7, sp, #0
  /* USER CODE BEGIN SecureFault_IRQn 0 */

  /* USER CODE END SecureFault_IRQn 0 */
  while (1)
 c001e9a:	e7fe      	b.n	c001e9a <SecureFault_Handler+0x4>

0c001e9c <SVC_Handler>:

/**
  * @brief This function handles System service call via SWI instruction.
  */
void SVC_Handler(void)
{
 c001e9c:	b480      	push	{r7}
 c001e9e:	af00      	add	r7, sp, #0

  /* USER CODE END SVCall_IRQn 0 */
  /* USER CODE BEGIN SVCall_IRQn 1 */

  /* USER CODE END SVCall_IRQn 1 */
}
 c001ea0:	bf00      	nop
 c001ea2:	46bd      	mov	sp, r7
 c001ea4:	f85d 7b04 	ldr.w	r7, [sp], #4
 c001ea8:	4770      	bx	lr

0c001eaa <DebugMon_Handler>:

/**
  * @brief This function handles Debug monitor.
  */
void DebugMon_Handler(void)
{
 c001eaa:	b480      	push	{r7}
 c001eac:	af00      	add	r7, sp, #0

  /* USER CODE END DebugMonitor_IRQn 0 */
  /* USER CODE BEGIN DebugMonitor_IRQn 1 */

  /* USER CODE END DebugMonitor_IRQn 1 */
}
 c001eae:	bf00      	nop
 c001eb0:	46bd      	mov	sp, r7
 c001eb2:	f85d 7b04 	ldr.w	r7, [sp], #4
 c001eb6:	4770      	bx	lr

0c001eb8 <PendSV_Handler>:

/**
  * @brief This function handles Pendable request for system service.
  */
void PendSV_Handler(void)
{
 c001eb8:	b480      	push	{r7}
 c001eba:	af00      	add	r7, sp, #0

  /* USER CODE END PendSV_IRQn 0 */
  /* USER CODE BEGIN PendSV_IRQn 1 */

  /* USER CODE END PendSV_IRQn 1 */
}
 c001ebc:	bf00      	nop
 c001ebe:	46bd      	mov	sp, r7
 c001ec0:	f85d 7b04 	ldr.w	r7, [sp], #4
 c001ec4:	4770      	bx	lr

0c001ec6 <SysTick_Handler>:

/**
  * @brief This function handles System tick timer.
  */
void SysTick_Handler(void)
{
 c001ec6:	b580      	push	{r7, lr}
 c001ec8:	af00      	add	r7, sp, #0
  /* USER CODE BEGIN SysTick_IRQn 0 */

  /* USER CODE END SysTick_IRQn 0 */
  HAL_IncTick();
 c001eca:	f000 fad7 	bl	c00247c <HAL_IncTick>
  /* USER CODE BEGIN SysTick_IRQn 1 */

  /* USER CODE END SysTick_IRQn 1 */
}
 c001ece:	bf00      	nop
 c001ed0:	bd80      	pop	{r7, pc}
	...

0c001ed4 <DMA1_Channel2_IRQHandler>:

/**
  * @brief This function handles DMA1 channel2 global interrupt.
  */
void DMA1_Channel2_IRQHandler(void)
{
 c001ed4:	b580      	push	{r7, lr}
 c001ed6:	af00      	add	r7, sp, #0
  /* USER CODE BEGIN DMA1_Channel2_IRQn 0 */

  /* USER CODE END DMA1_Channel2_IRQn 0 */
  HAL_DMA_IRQHandler(&hdma_spi3_rx);
 c001ed8:	4802      	ldr	r0, [pc, #8]	; (c001ee4 <DMA1_Channel2_IRQHandler+0x10>)
 c001eda:	f000 fd46 	bl	c00296a <HAL_DMA_IRQHandler>
  /* USER CODE BEGIN DMA1_Channel2_IRQn 1 */

  /* USER CODE END DMA1_Channel2_IRQn 1 */
}
 c001ede:	bf00      	nop
 c001ee0:	bd80      	pop	{r7, pc}
 c001ee2:	bf00      	nop
 c001ee4:	3000023c 	.word	0x3000023c

0c001ee8 <DMA1_Channel3_IRQHandler>:

/**
  * @brief This function handles DMA1 channel3 global interrupt.
  */
void DMA1_Channel3_IRQHandler(void)
{
 c001ee8:	b580      	push	{r7, lr}
 c001eea:	af00      	add	r7, sp, #0
  /* USER CODE BEGIN DMA1_Channel3_IRQn 0 */

  /* USER CODE END DMA1_Channel3_IRQn 0 */
  HAL_DMA_IRQHandler(&hdma_spi3_tx);
 c001eec:	4802      	ldr	r0, [pc, #8]	; (c001ef8 <DMA1_Channel3_IRQHandler+0x10>)
 c001eee:	f000 fd3c 	bl	c00296a <HAL_DMA_IRQHandler>
  /* USER CODE BEGIN DMA1_Channel3_IRQn 1 */

  /* USER CODE END DMA1_Channel3_IRQn 1 */
}
 c001ef2:	bf00      	nop
 c001ef4:	bd80      	pop	{r7, pc}
 c001ef6:	bf00      	nop
 c001ef8:	300002a4 	.word	0x300002a4

0c001efc <DMA1_Channel1_IRQHandler>:

/* USER CODE BEGIN 1 */
void DMA1_Channel1_IRQHandler(void)
{
 c001efc:	b580      	push	{r7, lr}
 c001efe:	af00      	add	r7, sp, #0
  /* USER CODE BEGIN DMA1_Channel2_IRQn 0 */

  /* USER CODE END DMA1_Channel2_IRQn 0 */
	HAL_DMA_IRQHandler(&hdma_memtomem_dma1_channel1);
 c001f00:	4802      	ldr	r0, [pc, #8]	; (c001f0c <DMA1_Channel1_IRQHandler+0x10>)
 c001f02:	f000 fd32 	bl	c00296a <HAL_DMA_IRQHandler>
  /* USER CODE BEGIN DMA1_Channel2_IRQn 1 */

  /* USER CODE END DMA1_Channel2_IRQn 1 */
}
 c001f06:	bf00      	nop
 c001f08:	bd80      	pop	{r7, pc}
 c001f0a:	bf00      	nop
 c001f0c:	300003a0 	.word	0x300003a0

0c001f10 <DMA1_Channel4_IRQHandler>:

void DMA1_Channel4_IRQHandler(void)
{
 c001f10:	b580      	push	{r7, lr}
 c001f12:	af00      	add	r7, sp, #0
  /* USER CODE BEGIN DMA1_Channel2_IRQn 0 */

  /* USER CODE END DMA1_Channel2_IRQn 0 */
	HAL_DMA_IRQHandler(&hdma_memtomem_dma1_channel4);
 c001f14:	4802      	ldr	r0, [pc, #8]	; (c001f20 <DMA1_Channel4_IRQHandler+0x10>)
 c001f16:	f000 fd28 	bl	c00296a <HAL_DMA_IRQHandler>
  /* USER CODE BEGIN DMA1_Channel2_IRQn 1 */

  /* USER CODE END DMA1_Channel2_IRQn 1 */
}
 c001f1a:	bf00      	nop
 c001f1c:	bd80      	pop	{r7, pc}
 c001f1e:	bf00      	nop
 c001f20:	30000408 	.word	0x30000408

0c001f24 <_read>:
  _kill(status, -1);
  while (1) {}    /* Make sure we hang here */
}

__attribute__((weak)) int _read(int file, char *ptr, int len)
{
 c001f24:	b580      	push	{r7, lr}
 c001f26:	b086      	sub	sp, #24
 c001f28:	af00      	add	r7, sp, #0
 c001f2a:	60f8      	str	r0, [r7, #12]
 c001f2c:	60b9      	str	r1, [r7, #8]
 c001f2e:	607a      	str	r2, [r7, #4]
  (void)file;
  int DataIdx;

  for (DataIdx = 0; DataIdx < len; DataIdx++)
 c001f30:	2300      	movs	r3, #0
 c001f32:	617b      	str	r3, [r7, #20]
 c001f34:	e00a      	b.n	c001f4c <_read+0x28>
  {
    *ptr++ = __io_getchar();
 c001f36:	e000      	b.n	c001f3a <_read+0x16>
 c001f38:	bf00      	nop
 c001f3a:	4601      	mov	r1, r0
 c001f3c:	68bb      	ldr	r3, [r7, #8]
 c001f3e:	1c5a      	adds	r2, r3, #1
 c001f40:	60ba      	str	r2, [r7, #8]
 c001f42:	b2ca      	uxtb	r2, r1
 c001f44:	701a      	strb	r2, [r3, #0]
  for (DataIdx = 0; DataIdx < len; DataIdx++)
 c001f46:	697b      	ldr	r3, [r7, #20]
 c001f48:	3301      	adds	r3, #1
 c001f4a:	617b      	str	r3, [r7, #20]
 c001f4c:	697a      	ldr	r2, [r7, #20]
 c001f4e:	687b      	ldr	r3, [r7, #4]
 c001f50:	429a      	cmp	r2, r3
 c001f52:	dbf0      	blt.n	c001f36 <_read+0x12>
  }

  return len;
 c001f54:	687b      	ldr	r3, [r7, #4]
}
 c001f56:	4618      	mov	r0, r3
 c001f58:	3718      	adds	r7, #24
 c001f5a:	46bd      	mov	sp, r7
 c001f5c:	bd80      	pop	{r7, pc}

0c001f5e <_write>:

__attribute__((weak)) int _write(int file, char *ptr, int len)
{
 c001f5e:	b580      	push	{r7, lr}
 c001f60:	b086      	sub	sp, #24
 c001f62:	af00      	add	r7, sp, #0
 c001f64:	60f8      	str	r0, [r7, #12]
 c001f66:	60b9      	str	r1, [r7, #8]
 c001f68:	607a      	str	r2, [r7, #4]
  (void)file;
  int DataIdx;

  for (DataIdx = 0; DataIdx < len; DataIdx++)
 c001f6a:	2300      	movs	r3, #0
 c001f6c:	617b      	str	r3, [r7, #20]
 c001f6e:	e009      	b.n	c001f84 <_write+0x26>
  {
    __io_putchar(*ptr++);
 c001f70:	68bb      	ldr	r3, [r7, #8]
 c001f72:	1c5a      	adds	r2, r3, #1
 c001f74:	60ba      	str	r2, [r7, #8]
 c001f76:	781b      	ldrb	r3, [r3, #0]
 c001f78:	4618      	mov	r0, r3
 c001f7a:	f7fe ff57 	bl	c000e2c <__io_putchar>
  for (DataIdx = 0; DataIdx < len; DataIdx++)
 c001f7e:	697b      	ldr	r3, [r7, #20]
 c001f80:	3301      	adds	r3, #1
 c001f82:	617b      	str	r3, [r7, #20]
 c001f84:	697a      	ldr	r2, [r7, #20]
 c001f86:	687b      	ldr	r3, [r7, #4]
 c001f88:	429a      	cmp	r2, r3
 c001f8a:	dbf1      	blt.n	c001f70 <_write+0x12>
  }
  return len;
 c001f8c:	687b      	ldr	r3, [r7, #4]
}
 c001f8e:	4618      	mov	r0, r3
 c001f90:	3718      	adds	r7, #24
 c001f92:	46bd      	mov	sp, r7
 c001f94:	bd80      	pop	{r7, pc}

0c001f96 <_close>:

int _close(int file)
{
 c001f96:	b480      	push	{r7}
 c001f98:	b083      	sub	sp, #12
 c001f9a:	af00      	add	r7, sp, #0
 c001f9c:	6078      	str	r0, [r7, #4]
  (void)file;
  return -1;
 c001f9e:	f04f 33ff 	mov.w	r3, #4294967295
}
 c001fa2:	4618      	mov	r0, r3
 c001fa4:	370c      	adds	r7, #12
 c001fa6:	46bd      	mov	sp, r7
 c001fa8:	f85d 7b04 	ldr.w	r7, [sp], #4
 c001fac:	4770      	bx	lr

0c001fae <_fstat>:


int _fstat(int file, struct stat *st)
{
 c001fae:	b480      	push	{r7}
 c001fb0:	b083      	sub	sp, #12
 c001fb2:	af00      	add	r7, sp, #0
 c001fb4:	6078      	str	r0, [r7, #4]
 c001fb6:	6039      	str	r1, [r7, #0]
  (void)file;
  st->st_mode = S_IFCHR;
 c001fb8:	683b      	ldr	r3, [r7, #0]
 c001fba:	f44f 5200 	mov.w	r2, #8192	; 0x2000
 c001fbe:	605a      	str	r2, [r3, #4]
  return 0;
 c001fc0:	2300      	movs	r3, #0
}
 c001fc2:	4618      	mov	r0, r3
 c001fc4:	370c      	adds	r7, #12
 c001fc6:	46bd      	mov	sp, r7
 c001fc8:	f85d 7b04 	ldr.w	r7, [sp], #4
 c001fcc:	4770      	bx	lr

0c001fce <_isatty>:

int _isatty(int file)
{
 c001fce:	b480      	push	{r7}
 c001fd0:	b083      	sub	sp, #12
 c001fd2:	af00      	add	r7, sp, #0
 c001fd4:	6078      	str	r0, [r7, #4]
  (void)file;
  return 1;
 c001fd6:	2301      	movs	r3, #1
}
 c001fd8:	4618      	mov	r0, r3
 c001fda:	370c      	adds	r7, #12
 c001fdc:	46bd      	mov	sp, r7
 c001fde:	f85d 7b04 	ldr.w	r7, [sp], #4
 c001fe2:	4770      	bx	lr

0c001fe4 <_lseek>:

int _lseek(int file, int ptr, int dir)
{
 c001fe4:	b480      	push	{r7}
 c001fe6:	b085      	sub	sp, #20
 c001fe8:	af00      	add	r7, sp, #0
 c001fea:	60f8      	str	r0, [r7, #12]
 c001fec:	60b9      	str	r1, [r7, #8]
 c001fee:	607a      	str	r2, [r7, #4]
  (void)file;
  (void)ptr;
  (void)dir;
  return 0;
 c001ff0:	2300      	movs	r3, #0
}
 c001ff2:	4618      	mov	r0, r3
 c001ff4:	3714      	adds	r7, #20
 c001ff6:	46bd      	mov	sp, r7
 c001ff8:	f85d 7b04 	ldr.w	r7, [sp], #4
 c001ffc:	4770      	bx	lr
	...

0c002000 <_sbrk>:
 *
 * @param incr Memory size
 * @return Pointer to allocated memory
 */
void *_sbrk(ptrdiff_t incr)
{
 c002000:	b580      	push	{r7, lr}
 c002002:	b086      	sub	sp, #24
 c002004:	af00      	add	r7, sp, #0
 c002006:	6078      	str	r0, [r7, #4]
  extern uint8_t _end; /* Symbol defined in the linker script */
  extern uint8_t _estack; /* Symbol defined in the linker script */
  extern uint32_t _Min_Stack_Size; /* Symbol defined in the linker script */
  const uint32_t stack_limit = (uint32_t)&_estack - (uint32_t)&_Min_Stack_Size;
 c002008:	4a14      	ldr	r2, [pc, #80]	; (c00205c <_sbrk+0x5c>)
 c00200a:	4b15      	ldr	r3, [pc, #84]	; (c002060 <_sbrk+0x60>)
 c00200c:	1ad3      	subs	r3, r2, r3
 c00200e:	617b      	str	r3, [r7, #20]
  const uint8_t *max_heap = (uint8_t *)stack_limit;
 c002010:	697b      	ldr	r3, [r7, #20]
 c002012:	613b      	str	r3, [r7, #16]
  uint8_t *prev_heap_end;

  /* Initialize heap end at first call */
  if (NULL == __sbrk_heap_end)
 c002014:	4b13      	ldr	r3, [pc, #76]	; (c002064 <_sbrk+0x64>)
 c002016:	681b      	ldr	r3, [r3, #0]
 c002018:	2b00      	cmp	r3, #0
 c00201a:	d102      	bne.n	c002022 <_sbrk+0x22>
  {
    __sbrk_heap_end = &_end;
 c00201c:	4b11      	ldr	r3, [pc, #68]	; (c002064 <_sbrk+0x64>)
 c00201e:	4a12      	ldr	r2, [pc, #72]	; (c002068 <_sbrk+0x68>)
 c002020:	601a      	str	r2, [r3, #0]
  }

  /* Protect heap from growing into the reserved MSP stack */
  if (__sbrk_heap_end + incr > max_heap)
 c002022:	4b10      	ldr	r3, [pc, #64]	; (c002064 <_sbrk+0x64>)
 c002024:	681a      	ldr	r2, [r3, #0]
 c002026:	687b      	ldr	r3, [r7, #4]
 c002028:	4413      	add	r3, r2
 c00202a:	693a      	ldr	r2, [r7, #16]
 c00202c:	429a      	cmp	r2, r3
 c00202e:	d207      	bcs.n	c002040 <_sbrk+0x40>
  {
    errno = ENOMEM;
 c002030:	f005 fa18 	bl	c007464 <__errno>
 c002034:	4603      	mov	r3, r0
 c002036:	220c      	movs	r2, #12
 c002038:	601a      	str	r2, [r3, #0]
    return (void *)-1;
 c00203a:	f04f 33ff 	mov.w	r3, #4294967295
 c00203e:	e009      	b.n	c002054 <_sbrk+0x54>
  }

  prev_heap_end = __sbrk_heap_end;
 c002040:	4b08      	ldr	r3, [pc, #32]	; (c002064 <_sbrk+0x64>)
 c002042:	681b      	ldr	r3, [r3, #0]
 c002044:	60fb      	str	r3, [r7, #12]
  __sbrk_heap_end += incr;
 c002046:	4b07      	ldr	r3, [pc, #28]	; (c002064 <_sbrk+0x64>)
 c002048:	681a      	ldr	r2, [r3, #0]
 c00204a:	687b      	ldr	r3, [r7, #4]
 c00204c:	4413      	add	r3, r2
 c00204e:	4a05      	ldr	r2, [pc, #20]	; (c002064 <_sbrk+0x64>)
 c002050:	6013      	str	r3, [r2, #0]

  return (void *)prev_heap_end;
 c002052:	68fb      	ldr	r3, [r7, #12]
}
 c002054:	4618      	mov	r0, r3
 c002056:	3718      	adds	r7, #24
 c002058:	46bd      	mov	sp, r7
 c00205a:	bd80      	pop	{r7, pc}
 c00205c:	30018000 	.word	0x30018000
 c002060:	00000400 	.word	0x00000400
 c002064:	30001ca0 	.word	0x30001ca0
 c002068:	30001cb8 	.word	0x30001cb8

0c00206c <TZ_SAU_Setup>:
  \brief   Setup a SAU Region
  \details Writes the region information contained in SAU_Region to the
           registers SAU_RNR, SAU_RBAR, and SAU_RLAR
 */
__STATIC_INLINE void TZ_SAU_Setup (void)
{
 c00206c:	b480      	push	{r7}
 c00206e:	af00      	add	r7, sp, #0

#if defined (__SAUREGION_PRESENT) && (__SAUREGION_PRESENT == 1U)

  #if defined (SAU_INIT_REGION0) && (SAU_INIT_REGION0 == 1U)
    SAU_INIT_REGION(0);
 c002070:	4b30      	ldr	r3, [pc, #192]	; (c002134 <TZ_SAU_Setup+0xc8>)
 c002072:	2200      	movs	r2, #0
 c002074:	609a      	str	r2, [r3, #8]
 c002076:	4b2f      	ldr	r3, [pc, #188]	; (c002134 <TZ_SAU_Setup+0xc8>)
 c002078:	4a2f      	ldr	r2, [pc, #188]	; (c002138 <TZ_SAU_Setup+0xcc>)
 c00207a:	60da      	str	r2, [r3, #12]
 c00207c:	4b2d      	ldr	r3, [pc, #180]	; (c002134 <TZ_SAU_Setup+0xc8>)
 c00207e:	4a2f      	ldr	r2, [pc, #188]	; (c00213c <TZ_SAU_Setup+0xd0>)
 c002080:	611a      	str	r2, [r3, #16]
  #endif

  #if defined (SAU_INIT_REGION1) && (SAU_INIT_REGION1 == 1U)
    SAU_INIT_REGION(1);
 c002082:	4b2c      	ldr	r3, [pc, #176]	; (c002134 <TZ_SAU_Setup+0xc8>)
 c002084:	2201      	movs	r2, #1
 c002086:	609a      	str	r2, [r3, #8]
 c002088:	4b2a      	ldr	r3, [pc, #168]	; (c002134 <TZ_SAU_Setup+0xc8>)
 c00208a:	4a2d      	ldr	r2, [pc, #180]	; (c002140 <TZ_SAU_Setup+0xd4>)
 c00208c:	60da      	str	r2, [r3, #12]
 c00208e:	4b29      	ldr	r3, [pc, #164]	; (c002134 <TZ_SAU_Setup+0xc8>)
 c002090:	4a2c      	ldr	r2, [pc, #176]	; (c002144 <TZ_SAU_Setup+0xd8>)
 c002092:	611a      	str	r2, [r3, #16]
  #endif

  #if defined (SAU_INIT_REGION2) && (SAU_INIT_REGION2 == 1U)
    SAU_INIT_REGION(2);
 c002094:	4b27      	ldr	r3, [pc, #156]	; (c002134 <TZ_SAU_Setup+0xc8>)
 c002096:	2202      	movs	r2, #2
 c002098:	609a      	str	r2, [r3, #8]
 c00209a:	4b26      	ldr	r3, [pc, #152]	; (c002134 <TZ_SAU_Setup+0xc8>)
 c00209c:	4a2a      	ldr	r2, [pc, #168]	; (c002148 <TZ_SAU_Setup+0xdc>)
 c00209e:	60da      	str	r2, [r3, #12]
 c0020a0:	4b24      	ldr	r3, [pc, #144]	; (c002134 <TZ_SAU_Setup+0xc8>)
 c0020a2:	4a2a      	ldr	r2, [pc, #168]	; (c00214c <TZ_SAU_Setup+0xe0>)
 c0020a4:	611a      	str	r2, [r3, #16]
  #endif

  #if defined (SAU_INIT_REGION3) && (SAU_INIT_REGION3 == 1U)
    SAU_INIT_REGION(3);
 c0020a6:	4b23      	ldr	r3, [pc, #140]	; (c002134 <TZ_SAU_Setup+0xc8>)
 c0020a8:	2203      	movs	r2, #3
 c0020aa:	609a      	str	r2, [r3, #8]
 c0020ac:	4b21      	ldr	r3, [pc, #132]	; (c002134 <TZ_SAU_Setup+0xc8>)
 c0020ae:	f04f 4280 	mov.w	r2, #1073741824	; 0x40000000
 c0020b2:	60da      	str	r2, [r3, #12]
 c0020b4:	4b1f      	ldr	r3, [pc, #124]	; (c002134 <TZ_SAU_Setup+0xc8>)
 c0020b6:	4a26      	ldr	r2, [pc, #152]	; (c002150 <TZ_SAU_Setup+0xe4>)
 c0020b8:	611a      	str	r2, [r3, #16]
  #endif

  #if defined (SAU_INIT_REGION4) && (SAU_INIT_REGION4 == 1U)
    SAU_INIT_REGION(4);
 c0020ba:	4b1e      	ldr	r3, [pc, #120]	; (c002134 <TZ_SAU_Setup+0xc8>)
 c0020bc:	2204      	movs	r2, #4
 c0020be:	609a      	str	r2, [r3, #8]
 c0020c0:	4b1c      	ldr	r3, [pc, #112]	; (c002134 <TZ_SAU_Setup+0xc8>)
 c0020c2:	f04f 42c0 	mov.w	r2, #1610612736	; 0x60000000
 c0020c6:	60da      	str	r2, [r3, #12]
 c0020c8:	4b1a      	ldr	r3, [pc, #104]	; (c002134 <TZ_SAU_Setup+0xc8>)
 c0020ca:	4a22      	ldr	r2, [pc, #136]	; (c002154 <TZ_SAU_Setup+0xe8>)
 c0020cc:	611a      	str	r2, [r3, #16]
  #endif

  #if defined (SAU_INIT_REGION5) && (SAU_INIT_REGION5 == 1U)
    SAU_INIT_REGION(5);
 c0020ce:	4b19      	ldr	r3, [pc, #100]	; (c002134 <TZ_SAU_Setup+0xc8>)
 c0020d0:	2205      	movs	r2, #5
 c0020d2:	609a      	str	r2, [r3, #8]
 c0020d4:	4b17      	ldr	r3, [pc, #92]	; (c002134 <TZ_SAU_Setup+0xc8>)
 c0020d6:	4a20      	ldr	r2, [pc, #128]	; (c002158 <TZ_SAU_Setup+0xec>)
 c0020d8:	60da      	str	r2, [r3, #12]
 c0020da:	4b16      	ldr	r3, [pc, #88]	; (c002134 <TZ_SAU_Setup+0xc8>)
 c0020dc:	4a1f      	ldr	r2, [pc, #124]	; (c00215c <TZ_SAU_Setup+0xf0>)
 c0020de:	611a      	str	r2, [r3, #16]
  /* repeat this for all possible SAU regions */

#endif /* defined (__SAUREGION_PRESENT) && (__SAUREGION_PRESENT == 1U) */

  #if defined (SAU_INIT_CTRL) && (SAU_INIT_CTRL == 1U)
    SAU->CTRL = ((SAU_INIT_CTRL_ENABLE << SAU_CTRL_ENABLE_Pos) & SAU_CTRL_ENABLE_Msk) |
 c0020e0:	4b14      	ldr	r3, [pc, #80]	; (c002134 <TZ_SAU_Setup+0xc8>)
 c0020e2:	2201      	movs	r2, #1
 c0020e4:	601a      	str	r2, [r3, #0]
  #endif /* defined (SCB_CSR_AIRCR_INIT) && (SCB_CSR_AIRCR_INIT == 1U) */

  #if defined (__FPU_USED) && (__FPU_USED == 1U) && \
      defined (TZ_FPU_NS_USAGE) && (TZ_FPU_NS_USAGE == 1U)

    SCB->NSACR = (SCB->NSACR & ~(SCB_NSACR_CP10_Msk | SCB_NSACR_CP11_Msk)) |
 c0020e6:	4b1e      	ldr	r3, [pc, #120]	; (c002160 <TZ_SAU_Setup+0xf4>)
 c0020e8:	f8d3 308c 	ldr.w	r3, [r3, #140]	; 0x8c
 c0020ec:	4a1c      	ldr	r2, [pc, #112]	; (c002160 <TZ_SAU_Setup+0xf4>)
 c0020ee:	f443 6340 	orr.w	r3, r3, #3072	; 0xc00
 c0020f2:	f8c2 308c 	str.w	r3, [r2, #140]	; 0x8c
                   ((SCB_NSACR_CP10_11_VAL << SCB_NSACR_CP10_Pos) & (SCB_NSACR_CP10_Msk | SCB_NSACR_CP11_Msk));

    FPU->FPCCR = (FPU->FPCCR & ~(FPU_FPCCR_TS_Msk | FPU_FPCCR_CLRONRETS_Msk | FPU_FPCCR_CLRONRET_Msk)) |
 c0020f6:	4b1b      	ldr	r3, [pc, #108]	; (c002164 <TZ_SAU_Setup+0xf8>)
 c0020f8:	685b      	ldr	r3, [r3, #4]
                   ((FPU_FPCCR_TS_VAL        << FPU_FPCCR_TS_Pos       ) & FPU_FPCCR_TS_Msk       ) |
 c0020fa:	f023 53e0 	bic.w	r3, r3, #469762048	; 0x1c000000
    FPU->FPCCR = (FPU->FPCCR & ~(FPU_FPCCR_TS_Msk | FPU_FPCCR_CLRONRETS_Msk | FPU_FPCCR_CLRONRET_Msk)) |
 c0020fe:	4a19      	ldr	r2, [pc, #100]	; (c002164 <TZ_SAU_Setup+0xf8>)
                   ((FPU_FPCCR_CLRONRETS_VAL << FPU_FPCCR_CLRONRETS_Pos) & FPU_FPCCR_CLRONRETS_Msk) |
 c002100:	f043 5380 	orr.w	r3, r3, #268435456	; 0x10000000
    FPU->FPCCR = (FPU->FPCCR & ~(FPU_FPCCR_TS_Msk | FPU_FPCCR_CLRONRETS_Msk | FPU_FPCCR_CLRONRET_Msk)) |
 c002104:	6053      	str	r3, [r2, #4]
                   ((FPU_FPCCR_CLRONRET_VAL  << FPU_FPCCR_CLRONRET_Pos ) & FPU_FPCCR_CLRONRET_Msk );
  #endif

  #if defined (NVIC_INIT_ITNS0) && (NVIC_INIT_ITNS0 == 1U)
    NVIC->ITNS[0] = NVIC_INIT_ITNS0_VAL;
 c002106:	4b18      	ldr	r3, [pc, #96]	; (c002168 <TZ_SAU_Setup+0xfc>)
 c002108:	2200      	movs	r2, #0
 c00210a:	f8c3 2280 	str.w	r2, [r3, #640]	; 0x280
  #endif

  #if defined (NVIC_INIT_ITNS1) && (NVIC_INIT_ITNS1 == 1U)
    NVIC->ITNS[1] = NVIC_INIT_ITNS1_VAL;
 c00210e:	4b16      	ldr	r3, [pc, #88]	; (c002168 <TZ_SAU_Setup+0xfc>)
 c002110:	f44f 4200 	mov.w	r2, #32768	; 0x8000
 c002114:	f8c3 2284 	str.w	r2, [r3, #644]	; 0x284
  #endif

  #if defined (NVIC_INIT_ITNS2) && (NVIC_INIT_ITNS2 == 1U)
    NVIC->ITNS[2] = NVIC_INIT_ITNS2_VAL;
 c002118:	4b13      	ldr	r3, [pc, #76]	; (c002168 <TZ_SAU_Setup+0xfc>)
 c00211a:	2200      	movs	r2, #0
 c00211c:	f8c3 2288 	str.w	r2, [r3, #648]	; 0x288
  #endif

  #if defined (NVIC_INIT_ITNS3) && (NVIC_INIT_ITNS3 == 1U)
    NVIC->ITNS[3] = NVIC_INIT_ITNS3_VAL;
 c002120:	4b11      	ldr	r3, [pc, #68]	; (c002168 <TZ_SAU_Setup+0xfc>)
 c002122:	2200      	movs	r2, #0
 c002124:	f8c3 228c 	str.w	r2, [r3, #652]	; 0x28c
  #endif

}
 c002128:	bf00      	nop
 c00212a:	46bd      	mov	sp, r7
 c00212c:	f85d 7b04 	ldr.w	r7, [sp], #4
 c002130:	4770      	bx	lr
 c002132:	bf00      	nop
 c002134:	e000edd0 	.word	0xe000edd0
 c002138:	0c03e000 	.word	0x0c03e000
 c00213c:	0c03ffe3 	.word	0x0c03ffe3
 c002140:	08040000 	.word	0x08040000
 c002144:	0807ffe1 	.word	0x0807ffe1
 c002148:	20018000 	.word	0x20018000
 c00214c:	2003ffe1 	.word	0x2003ffe1
 c002150:	4fffffe1 	.word	0x4fffffe1
 c002154:	9fffffe1 	.word	0x9fffffe1
 c002158:	0bf90000 	.word	0x0bf90000
 c00215c:	0bfa8fe1 	.word	0x0bfa8fe1
 c002160:	e000ed00 	.word	0xe000ed00
 c002164:	e000ef30 	.word	0xe000ef30
 c002168:	e000e100 	.word	0xe000e100

0c00216c <SystemInit>:
  * @brief  Setup the microcontroller system.
  * @retval None
  */

void SystemInit(void)
{
 c00216c:	b580      	push	{r7, lr}
 c00216e:	af00      	add	r7, sp, #0
  /* SAU/IDAU, FPU and Interrupts secure/non-secure allocation settings */
  TZ_SAU_Setup();
 c002170:	f7ff ff7c 	bl	c00206c <TZ_SAU_Setup>
  SCB->VTOR = VECT_TAB_BASE_ADDRESS | VECT_TAB_OFFSET;
#endif

  /* FPU settings ------------------------------------------------------------*/
#if (__FPU_PRESENT == 1) && (__FPU_USED == 1)
  SCB->CPACR |= ((3UL << 20U)|(3UL << 22U));  /* set CP10 and CP11 Full Access */
 c002174:	4b08      	ldr	r3, [pc, #32]	; (c002198 <SystemInit+0x2c>)
 c002176:	f8d3 3088 	ldr.w	r3, [r3, #136]	; 0x88
 c00217a:	4a07      	ldr	r2, [pc, #28]	; (c002198 <SystemInit+0x2c>)
 c00217c:	f443 0370 	orr.w	r3, r3, #15728640	; 0xf00000
 c002180:	f8c2 3088 	str.w	r3, [r2, #136]	; 0x88

  SCB_NS->CPACR |= ((3UL << 20U)|(3UL << 22U));  /* set CP10 and CP11 Full Access */
 c002184:	4b05      	ldr	r3, [pc, #20]	; (c00219c <SystemInit+0x30>)
 c002186:	f8d3 3088 	ldr.w	r3, [r3, #136]	; 0x88
 c00218a:	4a04      	ldr	r2, [pc, #16]	; (c00219c <SystemInit+0x30>)
 c00218c:	f443 0370 	orr.w	r3, r3, #15728640	; 0xf00000
 c002190:	f8c2 3088 	str.w	r3, [r2, #136]	; 0x88
#endif
}
 c002194:	bf00      	nop
 c002196:	bd80      	pop	{r7, pc}
 c002198:	e000ed00 	.word	0xe000ed00
 c00219c:	e002ed00 	.word	0xe002ed00

0c0021a0 <SystemCoreClockUpdate>:
  *           value for HSE crystal.
  *
  * @retval None
  */
void SystemCoreClockUpdate(void)
{
 c0021a0:	b480      	push	{r7}
 c0021a2:	b087      	sub	sp, #28
 c0021a4:	af00      	add	r7, sp, #0
  uint32_t tmp, msirange, pllvco, pllsource, pllm, pllr;

  /* Get MSI Range frequency--------------------------------------------------*/
  if((RCC->CR & RCC_CR_MSIRGSEL) == 0U)
 c0021a6:	4b4f      	ldr	r3, [pc, #316]	; (c0022e4 <SystemCoreClockUpdate+0x144>)
 c0021a8:	681b      	ldr	r3, [r3, #0]
 c0021aa:	f003 0308 	and.w	r3, r3, #8
 c0021ae:	2b00      	cmp	r3, #0
 c0021b0:	d107      	bne.n	c0021c2 <SystemCoreClockUpdate+0x22>
  { /* MSISRANGE from RCC_CSR applies */
    msirange = (RCC->CSR & RCC_CSR_MSISRANGE) >> 8U;
 c0021b2:	4b4c      	ldr	r3, [pc, #304]	; (c0022e4 <SystemCoreClockUpdate+0x144>)
 c0021b4:	f8d3 3094 	ldr.w	r3, [r3, #148]	; 0x94
 c0021b8:	0a1b      	lsrs	r3, r3, #8
 c0021ba:	f003 030f 	and.w	r3, r3, #15
 c0021be:	617b      	str	r3, [r7, #20]
 c0021c0:	e005      	b.n	c0021ce <SystemCoreClockUpdate+0x2e>
  }
  else
  { /* MSIRANGE from RCC_CR applies */
    msirange = (RCC->CR & RCC_CR_MSIRANGE) >> 4U;
 c0021c2:	4b48      	ldr	r3, [pc, #288]	; (c0022e4 <SystemCoreClockUpdate+0x144>)
 c0021c4:	681b      	ldr	r3, [r3, #0]
 c0021c6:	091b      	lsrs	r3, r3, #4
 c0021c8:	f003 030f 	and.w	r3, r3, #15
 c0021cc:	617b      	str	r3, [r7, #20]
  }
  /*MSI frequency range in HZ*/
  msirange = MSIRangeTable[msirange];
 c0021ce:	4a46      	ldr	r2, [pc, #280]	; (c0022e8 <SystemCoreClockUpdate+0x148>)
 c0021d0:	697b      	ldr	r3, [r7, #20]
 c0021d2:	f852 3023 	ldr.w	r3, [r2, r3, lsl #2]
 c0021d6:	617b      	str	r3, [r7, #20]

  /* Get SYSCLK source -------------------------------------------------------*/
  switch (RCC->CFGR & RCC_CFGR_SWS)
 c0021d8:	4b42      	ldr	r3, [pc, #264]	; (c0022e4 <SystemCoreClockUpdate+0x144>)
 c0021da:	689b      	ldr	r3, [r3, #8]
 c0021dc:	f003 030c 	and.w	r3, r3, #12
 c0021e0:	2b0c      	cmp	r3, #12
 c0021e2:	d866      	bhi.n	c0022b2 <SystemCoreClockUpdate+0x112>
 c0021e4:	a201      	add	r2, pc, #4	; (adr r2, c0021ec <SystemCoreClockUpdate+0x4c>)
 c0021e6:	f852 f023 	ldr.w	pc, [r2, r3, lsl #2]
 c0021ea:	bf00      	nop
 c0021ec:	0c002221 	.word	0x0c002221
 c0021f0:	0c0022b3 	.word	0x0c0022b3
 c0021f4:	0c0022b3 	.word	0x0c0022b3
 c0021f8:	0c0022b3 	.word	0x0c0022b3
 c0021fc:	0c002229 	.word	0x0c002229
 c002200:	0c0022b3 	.word	0x0c0022b3
 c002204:	0c0022b3 	.word	0x0c0022b3
 c002208:	0c0022b3 	.word	0x0c0022b3
 c00220c:	0c002231 	.word	0x0c002231
 c002210:	0c0022b3 	.word	0x0c0022b3
 c002214:	0c0022b3 	.word	0x0c0022b3
 c002218:	0c0022b3 	.word	0x0c0022b3
 c00221c:	0c002239 	.word	0x0c002239
  {
    case 0x00:  /* MSI used as system clock source */
      SystemCoreClock = msirange;
 c002220:	4a32      	ldr	r2, [pc, #200]	; (c0022ec <SystemCoreClockUpdate+0x14c>)
 c002222:	697b      	ldr	r3, [r7, #20]
 c002224:	6013      	str	r3, [r2, #0]
      break;
 c002226:	e048      	b.n	c0022ba <SystemCoreClockUpdate+0x11a>

    case 0x04:  /* HSI used as system clock source */
      SystemCoreClock = HSI_VALUE;
 c002228:	4b30      	ldr	r3, [pc, #192]	; (c0022ec <SystemCoreClockUpdate+0x14c>)
 c00222a:	4a31      	ldr	r2, [pc, #196]	; (c0022f0 <SystemCoreClockUpdate+0x150>)
 c00222c:	601a      	str	r2, [r3, #0]
      break;
 c00222e:	e044      	b.n	c0022ba <SystemCoreClockUpdate+0x11a>

    case 0x08:  /* HSE used as system clock source */
      SystemCoreClock = HSE_VALUE;
 c002230:	4b2e      	ldr	r3, [pc, #184]	; (c0022ec <SystemCoreClockUpdate+0x14c>)
 c002232:	4a30      	ldr	r2, [pc, #192]	; (c0022f4 <SystemCoreClockUpdate+0x154>)
 c002234:	601a      	str	r2, [r3, #0]
      break;
 c002236:	e040      	b.n	c0022ba <SystemCoreClockUpdate+0x11a>

    case 0x0C:  /* PLL used as system clock  source */
      /* PLL_VCO = (HSE_VALUE or HSI_VALUE or MSI_VALUE/ PLLM) * PLLN
         SYSCLK = PLL_VCO / PLLR
         */
      pllsource = (RCC->PLLCFGR & RCC_PLLCFGR_PLLSRC);
 c002238:	4b2a      	ldr	r3, [pc, #168]	; (c0022e4 <SystemCoreClockUpdate+0x144>)
 c00223a:	68db      	ldr	r3, [r3, #12]
 c00223c:	f003 0303 	and.w	r3, r3, #3
 c002240:	60fb      	str	r3, [r7, #12]
      pllm = ((RCC->PLLCFGR & RCC_PLLCFGR_PLLM) >> 4U) + 1U ;
 c002242:	4b28      	ldr	r3, [pc, #160]	; (c0022e4 <SystemCoreClockUpdate+0x144>)
 c002244:	68db      	ldr	r3, [r3, #12]
 c002246:	091b      	lsrs	r3, r3, #4
 c002248:	f003 030f 	and.w	r3, r3, #15
 c00224c:	3301      	adds	r3, #1
 c00224e:	60bb      	str	r3, [r7, #8]
 c002250:	68fb      	ldr	r3, [r7, #12]
 c002252:	2b02      	cmp	r3, #2
 c002254:	d003      	beq.n	c00225e <SystemCoreClockUpdate+0xbe>
 c002256:	68fb      	ldr	r3, [r7, #12]
 c002258:	2b03      	cmp	r3, #3
 c00225a:	d006      	beq.n	c00226a <SystemCoreClockUpdate+0xca>
 c00225c:	e00b      	b.n	c002276 <SystemCoreClockUpdate+0xd6>

      switch (pllsource)
      {
        case 0x02:  /* HSI used as PLL clock source */
          pllvco = (HSI_VALUE / pllm);
 c00225e:	4a24      	ldr	r2, [pc, #144]	; (c0022f0 <SystemCoreClockUpdate+0x150>)
 c002260:	68bb      	ldr	r3, [r7, #8]
 c002262:	fbb2 f3f3 	udiv	r3, r2, r3
 c002266:	613b      	str	r3, [r7, #16]
          break;
 c002268:	e00b      	b.n	c002282 <SystemCoreClockUpdate+0xe2>

        case 0x03:  /* HSE used as PLL clock source */
          pllvco = (HSE_VALUE / pllm);
 c00226a:	4a22      	ldr	r2, [pc, #136]	; (c0022f4 <SystemCoreClockUpdate+0x154>)
 c00226c:	68bb      	ldr	r3, [r7, #8]
 c00226e:	fbb2 f3f3 	udiv	r3, r2, r3
 c002272:	613b      	str	r3, [r7, #16]
          break;
 c002274:	e005      	b.n	c002282 <SystemCoreClockUpdate+0xe2>

        default:    /* MSI used as PLL clock source */
          pllvco = (msirange / pllm);
 c002276:	697a      	ldr	r2, [r7, #20]
 c002278:	68bb      	ldr	r3, [r7, #8]
 c00227a:	fbb2 f3f3 	udiv	r3, r2, r3
 c00227e:	613b      	str	r3, [r7, #16]
          break;
 c002280:	bf00      	nop
      }
      pllvco = pllvco * ((RCC->PLLCFGR & RCC_PLLCFGR_PLLN) >> 8U);
 c002282:	4b18      	ldr	r3, [pc, #96]	; (c0022e4 <SystemCoreClockUpdate+0x144>)
 c002284:	68db      	ldr	r3, [r3, #12]
 c002286:	0a1b      	lsrs	r3, r3, #8
 c002288:	f003 027f 	and.w	r2, r3, #127	; 0x7f
 c00228c:	693b      	ldr	r3, [r7, #16]
 c00228e:	fb02 f303 	mul.w	r3, r2, r3
 c002292:	613b      	str	r3, [r7, #16]
      pllr = (((RCC->PLLCFGR & RCC_PLLCFGR_PLLR) >> 25U) + 1U) * 2U;
 c002294:	4b13      	ldr	r3, [pc, #76]	; (c0022e4 <SystemCoreClockUpdate+0x144>)
 c002296:	68db      	ldr	r3, [r3, #12]
 c002298:	0e5b      	lsrs	r3, r3, #25
 c00229a:	f003 0303 	and.w	r3, r3, #3
 c00229e:	3301      	adds	r3, #1
 c0022a0:	005b      	lsls	r3, r3, #1
 c0022a2:	607b      	str	r3, [r7, #4]
      SystemCoreClock = pllvco/pllr;
 c0022a4:	693a      	ldr	r2, [r7, #16]
 c0022a6:	687b      	ldr	r3, [r7, #4]
 c0022a8:	fbb2 f3f3 	udiv	r3, r2, r3
 c0022ac:	4a0f      	ldr	r2, [pc, #60]	; (c0022ec <SystemCoreClockUpdate+0x14c>)
 c0022ae:	6013      	str	r3, [r2, #0]
      break;
 c0022b0:	e003      	b.n	c0022ba <SystemCoreClockUpdate+0x11a>

    default:
      SystemCoreClock = msirange;
 c0022b2:	4a0e      	ldr	r2, [pc, #56]	; (c0022ec <SystemCoreClockUpdate+0x14c>)
 c0022b4:	697b      	ldr	r3, [r7, #20]
 c0022b6:	6013      	str	r3, [r2, #0]
      break;
 c0022b8:	bf00      	nop
  }
  /* Compute HCLK clock frequency --------------------------------------------*/
  /* Get HCLK prescaler */
  tmp = AHBPrescTable[((RCC->CFGR & RCC_CFGR_HPRE) >> 4U)];
 c0022ba:	4b0a      	ldr	r3, [pc, #40]	; (c0022e4 <SystemCoreClockUpdate+0x144>)
 c0022bc:	689b      	ldr	r3, [r3, #8]
 c0022be:	091b      	lsrs	r3, r3, #4
 c0022c0:	f003 030f 	and.w	r3, r3, #15
 c0022c4:	4a0c      	ldr	r2, [pc, #48]	; (c0022f8 <SystemCoreClockUpdate+0x158>)
 c0022c6:	5cd3      	ldrb	r3, [r2, r3]
 c0022c8:	603b      	str	r3, [r7, #0]
  /* HCLK clock frequency */
  SystemCoreClock >>= tmp;
 c0022ca:	4b08      	ldr	r3, [pc, #32]	; (c0022ec <SystemCoreClockUpdate+0x14c>)
 c0022cc:	681a      	ldr	r2, [r3, #0]
 c0022ce:	683b      	ldr	r3, [r7, #0]
 c0022d0:	fa22 f303 	lsr.w	r3, r2, r3
 c0022d4:	4a05      	ldr	r2, [pc, #20]	; (c0022ec <SystemCoreClockUpdate+0x14c>)
 c0022d6:	6013      	str	r3, [r2, #0]
}
 c0022d8:	bf00      	nop
 c0022da:	371c      	adds	r7, #28
 c0022dc:	46bd      	mov	sp, r7
 c0022de:	f85d 7b04 	ldr.w	r7, [sp], #4
 c0022e2:	4770      	bx	lr
 c0022e4:	50021000 	.word	0x50021000
 c0022e8:	0c008d20 	.word	0x0c008d20
 c0022ec:	300000f8 	.word	0x300000f8
 c0022f0:	00f42400 	.word	0x00f42400
 c0022f4:	007a1200 	.word	0x007a1200
 c0022f8:	0c008d08 	.word	0x0c008d08

0c0022fc <__acle_se_SECURE_SystemCoreClockUpdate>:
  *         be used by the user application to setup the SysTick timer or configure
  *         other parameters.
  * @retval SystemCoreClock value (HCLK)
  */
CMSE_NS_ENTRY uint32_t SECURE_SystemCoreClockUpdate(void)
{
 c0022fc:	b580      	push	{r7, lr}
 c0022fe:	af00      	add	r7, sp, #0
  SystemCoreClockUpdate();
 c002300:	f7ff ff4e 	bl	c0021a0 <SystemCoreClockUpdate>
  
  return SystemCoreClock;
 c002304:	4b1c      	ldr	r3, [pc, #112]	; (c002378 <__acle_se_SECURE_SystemCoreClockUpdate+0x7c>)
 c002306:	681b      	ldr	r3, [r3, #0]
}
 c002308:	4618      	mov	r0, r3
 c00230a:	46bd      	mov	sp, r7
 c00230c:	e8bd 4080 	ldmia.w	sp!, {r7, lr}
 c002310:	4671      	mov	r1, lr
 c002312:	4672      	mov	r2, lr
 c002314:	4673      	mov	r3, lr
 c002316:	eeb7 0a00 	vmov.f32	s0, #112	; 0x3f800000  1.0
 c00231a:	eef7 0a00 	vmov.f32	s1, #112	; 0x3f800000  1.0
 c00231e:	eeb7 1a00 	vmov.f32	s2, #112	; 0x3f800000  1.0
 c002322:	eef7 1a00 	vmov.f32	s3, #112	; 0x3f800000  1.0
 c002326:	eeb7 2a00 	vmov.f32	s4, #112	; 0x3f800000  1.0
 c00232a:	eef7 2a00 	vmov.f32	s5, #112	; 0x3f800000  1.0
 c00232e:	eeb7 3a00 	vmov.f32	s6, #112	; 0x3f800000  1.0
 c002332:	eef7 3a00 	vmov.f32	s7, #112	; 0x3f800000  1.0
 c002336:	eeb7 4a00 	vmov.f32	s8, #112	; 0x3f800000  1.0
 c00233a:	eef7 4a00 	vmov.f32	s9, #112	; 0x3f800000  1.0
 c00233e:	eeb7 5a00 	vmov.f32	s10, #112	; 0x3f800000  1.0
 c002342:	eef7 5a00 	vmov.f32	s11, #112	; 0x3f800000  1.0
 c002346:	eeb7 6a00 	vmov.f32	s12, #112	; 0x3f800000  1.0
 c00234a:	eef7 6a00 	vmov.f32	s13, #112	; 0x3f800000  1.0
 c00234e:	eeb7 7a00 	vmov.f32	s14, #112	; 0x3f800000  1.0
 c002352:	eef7 7a00 	vmov.f32	s15, #112	; 0x3f800000  1.0
 c002356:	f38e 8c00 	msr	CPSR_fs, lr
 c00235a:	b410      	push	{r4}
 c00235c:	eef1 ca10 	vmrs	ip, fpscr
 c002360:	f64f 7460 	movw	r4, #65376	; 0xff60
 c002364:	f6c0 74ff 	movt	r4, #4095	; 0xfff
 c002368:	ea0c 0c04 	and.w	ip, ip, r4
 c00236c:	eee1 ca10 	vmsr	fpscr, ip
 c002370:	bc10      	pop	{r4}
 c002372:	46f4      	mov	ip, lr
 c002374:	4774      	bxns	lr
 c002376:	bf00      	nop
 c002378:	300000f8 	.word	0x300000f8

0c00237c <Reset_Handler>:

    .section	.text.Reset_Handler
	.weak	Reset_Handler
	.type	Reset_Handler, %function
Reset_Handler:
  ldr   sp, =_estack    /* set stack pointer */
 c00237c:	f8df d034 	ldr.w	sp, [pc, #52]	; c0023b4 <LoopForever+0x2>

/* Call the clock system initialization function.*/
  bl  SystemInit
 c002380:	f7ff fef4 	bl	c00216c <SystemInit>

/* Copy the data segment initializers from flash to SRAM */
  movs	r1, #0
 c002384:	2100      	movs	r1, #0
  b	LoopCopyDataInit
 c002386:	e003      	b.n	c002390 <LoopCopyDataInit>

0c002388 <CopyDataInit>:

CopyDataInit:
	ldr	r3, =_sidata
 c002388:	4b0b      	ldr	r3, [pc, #44]	; (c0023b8 <LoopForever+0x6>)
	ldr	r3, [r3, r1]
 c00238a:	585b      	ldr	r3, [r3, r1]
	str	r3, [r0, r1]
 c00238c:	5043      	str	r3, [r0, r1]
	adds	r1, r1, #4
 c00238e:	3104      	adds	r1, #4

0c002390 <LoopCopyDataInit>:

LoopCopyDataInit:
	ldr	r0, =_sdata
 c002390:	480a      	ldr	r0, [pc, #40]	; (c0023bc <LoopForever+0xa>)
	ldr	r3, =_edata
 c002392:	4b0b      	ldr	r3, [pc, #44]	; (c0023c0 <LoopForever+0xe>)
	adds	r2, r0, r1
 c002394:	1842      	adds	r2, r0, r1
	cmp	r2, r3
 c002396:	429a      	cmp	r2, r3
	bcc	CopyDataInit
 c002398:	d3f6      	bcc.n	c002388 <CopyDataInit>
	ldr	r2, =_sbss
 c00239a:	4a0a      	ldr	r2, [pc, #40]	; (c0023c4 <LoopForever+0x12>)
	b	LoopFillZerobss
 c00239c:	e002      	b.n	c0023a4 <LoopFillZerobss>

0c00239e <FillZerobss>:
/* Zero fill the bss segment. */
FillZerobss:
	movs	r3, #0
 c00239e:	2300      	movs	r3, #0
	str	r3, [r2], #4
 c0023a0:	f842 3b04 	str.w	r3, [r2], #4

0c0023a4 <LoopFillZerobss>:

LoopFillZerobss:
	ldr	r3, = _ebss
 c0023a4:	4b08      	ldr	r3, [pc, #32]	; (c0023c8 <LoopForever+0x16>)
	cmp	r2, r3
 c0023a6:	429a      	cmp	r2, r3
	bcc	FillZerobss
 c0023a8:	d3f9      	bcc.n	c00239e <FillZerobss>

/* Call static constructors */
  bl __libc_init_array
 c0023aa:	f005 f861 	bl	c007470 <__libc_init_array>
/* Call the application's entry point.*/
	bl	main
 c0023ae:	f7fe f945 	bl	c00063c <main>

0c0023b2 <LoopForever>:

LoopForever:
    b LoopForever
 c0023b2:	e7fe      	b.n	c0023b2 <LoopForever>
  ldr   sp, =_estack    /* set stack pointer */
 c0023b4:	30018000 	.word	0x30018000
	ldr	r3, =_sidata
 c0023b8:	0c008e30 	.word	0x0c008e30
	ldr	r0, =_sdata
 c0023bc:	30000000 	.word	0x30000000
	ldr	r3, =_edata
 c0023c0:	30000168 	.word	0x30000168
	ldr	r2, =_sbss
 c0023c4:	30000168 	.word	0x30000168
	ldr	r3, = _ebss
 c0023c8:	30001cb8 	.word	0x30001cb8

0c0023cc <ADC1_2_IRQHandler>:
 * @retval : None
*/
    .section	.text.Default_Handler,"ax",%progbits
Default_Handler:
Infinite_Loop:
	b	Infinite_Loop
 c0023cc:	e7fe      	b.n	c0023cc <ADC1_2_IRQHandler>

0c0023ce <HAL_Init>:
  *         each 1ms in the SysTick_Handler() interrupt handler.
  *
  * @retval HAL status
  */
HAL_StatusTypeDef HAL_Init(void)
{
 c0023ce:	b580      	push	{r7, lr}
 c0023d0:	b082      	sub	sp, #8
 c0023d2:	af00      	add	r7, sp, #0
  HAL_StatusTypeDef  status = HAL_OK;
 c0023d4:	2300      	movs	r3, #0
 c0023d6:	71fb      	strb	r3, [r7, #7]

  /* Set Interrupt Group Priority */
  HAL_NVIC_SetPriorityGrouping(NVIC_PRIORITYGROUP_3);
 c0023d8:	2004      	movs	r0, #4
 c0023da:	f000 f963 	bl	c0026a4 <HAL_NVIC_SetPriorityGrouping>

  /* Insure time base clock coherency */
  SystemCoreClockUpdate();
 c0023de:	f7ff fedf 	bl	c0021a0 <SystemCoreClockUpdate>

  /* Use SysTick as time base source and configure 1ms tick (default clock after Reset is MSI) */
  if (HAL_InitTick(TICK_INT_PRIORITY) != HAL_OK)
 c0023e2:	2000      	movs	r0, #0
 c0023e4:	f000 f80e 	bl	c002404 <HAL_InitTick>
 c0023e8:	4603      	mov	r3, r0
 c0023ea:	2b00      	cmp	r3, #0
 c0023ec:	d002      	beq.n	c0023f4 <HAL_Init+0x26>
  {
    status = HAL_ERROR;
 c0023ee:	2301      	movs	r3, #1
 c0023f0:	71fb      	strb	r3, [r7, #7]
 c0023f2:	e001      	b.n	c0023f8 <HAL_Init+0x2a>
  }
  else
  {
    /* Init the low level hardware */
    HAL_MspInit();
 c0023f4:	f7ff fb8c 	bl	c001b10 <HAL_MspInit>
  }

  /* Return function status */
  return status;
 c0023f8:	79fb      	ldrb	r3, [r7, #7]
}
 c0023fa:	4618      	mov	r0, r3
 c0023fc:	3708      	adds	r7, #8
 c0023fe:	46bd      	mov	sp, r7
 c002400:	bd80      	pop	{r7, pc}
	...

0c002404 <HAL_InitTick>:
  *       implementation  in user file.
  * @param TickPriority  Tick interrupt priority.
  * @retval HAL status
  */
__weak HAL_StatusTypeDef HAL_InitTick(uint32_t TickPriority)
{
 c002404:	b580      	push	{r7, lr}
 c002406:	b084      	sub	sp, #16
 c002408:	af00      	add	r7, sp, #0
 c00240a:	6078      	str	r0, [r7, #4]
  HAL_StatusTypeDef  status = HAL_OK;
 c00240c:	2300      	movs	r3, #0
 c00240e:	73fb      	strb	r3, [r7, #15]

  /* Check uwTickFreq for MisraC 2012 (even if uwTickFreq is a enum type that doesn't take the value zero)*/
  if ((uint32_t)uwTickFreq != 0U)
 c002410:	4b17      	ldr	r3, [pc, #92]	; (c002470 <HAL_InitTick+0x6c>)
 c002412:	781b      	ldrb	r3, [r3, #0]
 c002414:	2b00      	cmp	r3, #0
 c002416:	d023      	beq.n	c002460 <HAL_InitTick+0x5c>
  {
    /*Configure the SysTick to have interrupt in 1ms time basis*/
    if (HAL_SYSTICK_Config(SystemCoreClock / (1000U / (uint32_t)uwTickFreq)) == 0U)
 c002418:	4b16      	ldr	r3, [pc, #88]	; (c002474 <HAL_InitTick+0x70>)
 c00241a:	681a      	ldr	r2, [r3, #0]
 c00241c:	4b14      	ldr	r3, [pc, #80]	; (c002470 <HAL_InitTick+0x6c>)
 c00241e:	781b      	ldrb	r3, [r3, #0]
 c002420:	4619      	mov	r1, r3
 c002422:	f44f 737a 	mov.w	r3, #1000	; 0x3e8
 c002426:	fbb3 f3f1 	udiv	r3, r3, r1
 c00242a:	fbb2 f3f3 	udiv	r3, r2, r3
 c00242e:	4618      	mov	r0, r3
 c002430:	f000 f96b 	bl	c00270a <HAL_SYSTICK_Config>
 c002434:	4603      	mov	r3, r0
 c002436:	2b00      	cmp	r3, #0
 c002438:	d10f      	bne.n	c00245a <HAL_InitTick+0x56>
    {
      /* Configure the SysTick IRQ priority */
      if (TickPriority < (1UL << __NVIC_PRIO_BITS))
 c00243a:	687b      	ldr	r3, [r7, #4]
 c00243c:	2b07      	cmp	r3, #7
 c00243e:	d809      	bhi.n	c002454 <HAL_InitTick+0x50>
      {
        HAL_NVIC_SetPriority(SysTick_IRQn, TickPriority, 0U);
 c002440:	2200      	movs	r2, #0
 c002442:	6879      	ldr	r1, [r7, #4]
 c002444:	f04f 30ff 	mov.w	r0, #4294967295
 c002448:	f000 f937 	bl	c0026ba <HAL_NVIC_SetPriority>
        uwTickPrio = TickPriority;
 c00244c:	4a0a      	ldr	r2, [pc, #40]	; (c002478 <HAL_InitTick+0x74>)
 c00244e:	687b      	ldr	r3, [r7, #4]
 c002450:	6013      	str	r3, [r2, #0]
 c002452:	e007      	b.n	c002464 <HAL_InitTick+0x60>
      }
      else
      {
        status = HAL_ERROR;
 c002454:	2301      	movs	r3, #1
 c002456:	73fb      	strb	r3, [r7, #15]
 c002458:	e004      	b.n	c002464 <HAL_InitTick+0x60>
      }
    }
    else
    {
      status = HAL_ERROR;
 c00245a:	2301      	movs	r3, #1
 c00245c:	73fb      	strb	r3, [r7, #15]
 c00245e:	e001      	b.n	c002464 <HAL_InitTick+0x60>
    }
  }
  else
  {
    status = HAL_ERROR;
 c002460:	2301      	movs	r3, #1
 c002462:	73fb      	strb	r3, [r7, #15]
  }

  /* Return function status */
  return status;
 c002464:	7bfb      	ldrb	r3, [r7, #15]
}
 c002466:	4618      	mov	r0, r3
 c002468:	3710      	adds	r7, #16
 c00246a:	46bd      	mov	sp, r7
 c00246c:	bd80      	pop	{r7, pc}
 c00246e:	bf00      	nop
 c002470:	30000100 	.word	0x30000100
 c002474:	300000f8 	.word	0x300000f8
 c002478:	300000fc 	.word	0x300000fc

0c00247c <HAL_IncTick>:
  * @note This function is declared as __weak to be overwritten in case of other
  *      implementations in user file.
  * @retval None
  */
__weak void HAL_IncTick(void)
{
 c00247c:	b480      	push	{r7}
 c00247e:	af00      	add	r7, sp, #0
  uwTick += (uint32_t)uwTickFreq;
 c002480:	4b06      	ldr	r3, [pc, #24]	; (c00249c <HAL_IncTick+0x20>)
 c002482:	781b      	ldrb	r3, [r3, #0]
 c002484:	461a      	mov	r2, r3
 c002486:	4b06      	ldr	r3, [pc, #24]	; (c0024a0 <HAL_IncTick+0x24>)
 c002488:	681b      	ldr	r3, [r3, #0]
 c00248a:	4413      	add	r3, r2
 c00248c:	4a04      	ldr	r2, [pc, #16]	; (c0024a0 <HAL_IncTick+0x24>)
 c00248e:	6013      	str	r3, [r2, #0]
}
 c002490:	bf00      	nop
 c002492:	46bd      	mov	sp, r7
 c002494:	f85d 7b04 	ldr.w	r7, [sp], #4
 c002498:	4770      	bx	lr
 c00249a:	bf00      	nop
 c00249c:	30000100 	.word	0x30000100
 c0024a0:	30001ca4 	.word	0x30001ca4

0c0024a4 <HAL_GetTick>:
  * @note This function is declared as __weak to be overwritten in case of other
  *       implementations in user file.
  * @retval tick value
  */
__weak uint32_t HAL_GetTick(void)
{
 c0024a4:	b480      	push	{r7}
 c0024a6:	af00      	add	r7, sp, #0
  return uwTick;
 c0024a8:	4b03      	ldr	r3, [pc, #12]	; (c0024b8 <HAL_GetTick+0x14>)
 c0024aa:	681b      	ldr	r3, [r3, #0]
}
 c0024ac:	4618      	mov	r0, r3
 c0024ae:	46bd      	mov	sp, r7
 c0024b0:	f85d 7b04 	ldr.w	r7, [sp], #4
 c0024b4:	4770      	bx	lr
 c0024b6:	bf00      	nop
 c0024b8:	30001ca4 	.word	0x30001ca4

0c0024bc <HAL_Delay>:
  *       implementations in user file.
  * @param Delay  specifies the delay time length, in milliseconds.
  * @retval None
  */
__weak void HAL_Delay(uint32_t Delay)
{
 c0024bc:	b580      	push	{r7, lr}
 c0024be:	b084      	sub	sp, #16
 c0024c0:	af00      	add	r7, sp, #0
 c0024c2:	6078      	str	r0, [r7, #4]
  uint32_t tickstart = HAL_GetTick();
 c0024c4:	f7ff ffee 	bl	c0024a4 <HAL_GetTick>
 c0024c8:	60b8      	str	r0, [r7, #8]
  uint32_t wait = Delay;
 c0024ca:	687b      	ldr	r3, [r7, #4]
 c0024cc:	60fb      	str	r3, [r7, #12]

  /* Add a period to guaranty minimum wait */
  if (wait < HAL_MAX_DELAY)
 c0024ce:	68fb      	ldr	r3, [r7, #12]
 c0024d0:	f1b3 3fff 	cmp.w	r3, #4294967295
 c0024d4:	d005      	beq.n	c0024e2 <HAL_Delay+0x26>
  {
    wait += (uint32_t)uwTickFreq;
 c0024d6:	4b0a      	ldr	r3, [pc, #40]	; (c002500 <HAL_Delay+0x44>)
 c0024d8:	781b      	ldrb	r3, [r3, #0]
 c0024da:	461a      	mov	r2, r3
 c0024dc:	68fb      	ldr	r3, [r7, #12]
 c0024de:	4413      	add	r3, r2
 c0024e0:	60fb      	str	r3, [r7, #12]
  }

  while ((HAL_GetTick() - tickstart) < wait)
 c0024e2:	bf00      	nop
 c0024e4:	f7ff ffde 	bl	c0024a4 <HAL_GetTick>
 c0024e8:	4602      	mov	r2, r0
 c0024ea:	68bb      	ldr	r3, [r7, #8]
 c0024ec:	1ad3      	subs	r3, r2, r3
 c0024ee:	68fa      	ldr	r2, [r7, #12]
 c0024f0:	429a      	cmp	r2, r3
 c0024f2:	d8f7      	bhi.n	c0024e4 <HAL_Delay+0x28>
  {
  }
}
 c0024f4:	bf00      	nop
 c0024f6:	bf00      	nop
 c0024f8:	3710      	adds	r7, #16
 c0024fa:	46bd      	mov	sp, r7
 c0024fc:	bd80      	pop	{r7, pc}
 c0024fe:	bf00      	nop
 c002500:	30000100 	.word	0x30000100

0c002504 <__NVIC_SetPriorityGrouping>:
           In case of a conflict between priority grouping and available
           priority bits (__NVIC_PRIO_BITS), the smallest possible priority group is set.
  \param [in]      PriorityGroup  Priority grouping field.
 */
__STATIC_INLINE void __NVIC_SetPriorityGrouping(uint32_t PriorityGroup)
{
 c002504:	b480      	push	{r7}
 c002506:	b085      	sub	sp, #20
 c002508:	af00      	add	r7, sp, #0
 c00250a:	6078      	str	r0, [r7, #4]
  uint32_t reg_value;
  uint32_t PriorityGroupTmp = (PriorityGroup & (uint32_t)0x07UL);             /* only values 0..7 are used          */
 c00250c:	687b      	ldr	r3, [r7, #4]
 c00250e:	f003 0307 	and.w	r3, r3, #7
 c002512:	60fb      	str	r3, [r7, #12]

  reg_value  =  SCB->AIRCR;                                                   /* read old register configuration    */
 c002514:	4b0c      	ldr	r3, [pc, #48]	; (c002548 <__NVIC_SetPriorityGrouping+0x44>)
 c002516:	68db      	ldr	r3, [r3, #12]
 c002518:	60bb      	str	r3, [r7, #8]
  reg_value &= ~((uint32_t)(SCB_AIRCR_VECTKEY_Msk | SCB_AIRCR_PRIGROUP_Msk)); /* clear bits to change               */
 c00251a:	68ba      	ldr	r2, [r7, #8]
 c00251c:	f64f 03ff 	movw	r3, #63743	; 0xf8ff
 c002520:	4013      	ands	r3, r2
 c002522:	60bb      	str	r3, [r7, #8]
  reg_value  =  (reg_value                                   |
                ((uint32_t)0x5FAUL << SCB_AIRCR_VECTKEY_Pos) |
                (PriorityGroupTmp << SCB_AIRCR_PRIGROUP_Pos)  );              /* Insert write key and priority group */
 c002524:	68fb      	ldr	r3, [r7, #12]
 c002526:	021a      	lsls	r2, r3, #8
                ((uint32_t)0x5FAUL << SCB_AIRCR_VECTKEY_Pos) |
 c002528:	68bb      	ldr	r3, [r7, #8]
 c00252a:	4313      	orrs	r3, r2
  reg_value  =  (reg_value                                   |
 c00252c:	f043 63bf 	orr.w	r3, r3, #100139008	; 0x5f80000
 c002530:	f443 3300 	orr.w	r3, r3, #131072	; 0x20000
 c002534:	60bb      	str	r3, [r7, #8]
  SCB->AIRCR =  reg_value;
 c002536:	4a04      	ldr	r2, [pc, #16]	; (c002548 <__NVIC_SetPriorityGrouping+0x44>)
 c002538:	68bb      	ldr	r3, [r7, #8]
 c00253a:	60d3      	str	r3, [r2, #12]
}
 c00253c:	bf00      	nop
 c00253e:	3714      	adds	r7, #20
 c002540:	46bd      	mov	sp, r7
 c002542:	f85d 7b04 	ldr.w	r7, [sp], #4
 c002546:	4770      	bx	lr
 c002548:	e000ed00 	.word	0xe000ed00

0c00254c <__NVIC_GetPriorityGrouping>:
  \brief   Get Priority Grouping
  \details Reads the priority grouping field from the NVIC Interrupt Controller.
  \return                Priority grouping field (SCB->AIRCR [10:8] PRIGROUP field).
 */
__STATIC_INLINE uint32_t __NVIC_GetPriorityGrouping(void)
{
 c00254c:	b480      	push	{r7}
 c00254e:	af00      	add	r7, sp, #0
  return ((uint32_t)((SCB->AIRCR & SCB_AIRCR_PRIGROUP_Msk) >> SCB_AIRCR_PRIGROUP_Pos));
 c002550:	4b04      	ldr	r3, [pc, #16]	; (c002564 <__NVIC_GetPriorityGrouping+0x18>)
 c002552:	68db      	ldr	r3, [r3, #12]
 c002554:	0a1b      	lsrs	r3, r3, #8
 c002556:	f003 0307 	and.w	r3, r3, #7
}
 c00255a:	4618      	mov	r0, r3
 c00255c:	46bd      	mov	sp, r7
 c00255e:	f85d 7b04 	ldr.w	r7, [sp], #4
 c002562:	4770      	bx	lr
 c002564:	e000ed00 	.word	0xe000ed00

0c002568 <__NVIC_EnableIRQ>:
  \details Enables a device specific interrupt in the NVIC interrupt controller.
  \param [in]      IRQn  Device specific interrupt number.
  \note    IRQn must not be negative.
 */
__STATIC_INLINE void __NVIC_EnableIRQ(IRQn_Type IRQn)
{
 c002568:	b480      	push	{r7}
 c00256a:	b083      	sub	sp, #12
 c00256c:	af00      	add	r7, sp, #0
 c00256e:	4603      	mov	r3, r0
 c002570:	71fb      	strb	r3, [r7, #7]
  if ((int32_t)(IRQn) >= 0)
 c002572:	f997 3007 	ldrsb.w	r3, [r7, #7]
 c002576:	2b00      	cmp	r3, #0
 c002578:	db0b      	blt.n	c002592 <__NVIC_EnableIRQ+0x2a>
  {
    __COMPILER_BARRIER();
    NVIC->ISER[(((uint32_t)IRQn) >> 5UL)] = (uint32_t)(1UL << (((uint32_t)IRQn) & 0x1FUL));
 c00257a:	79fb      	ldrb	r3, [r7, #7]
 c00257c:	f003 021f 	and.w	r2, r3, #31
 c002580:	4907      	ldr	r1, [pc, #28]	; (c0025a0 <__NVIC_EnableIRQ+0x38>)
 c002582:	f997 3007 	ldrsb.w	r3, [r7, #7]
 c002586:	095b      	lsrs	r3, r3, #5
 c002588:	2001      	movs	r0, #1
 c00258a:	fa00 f202 	lsl.w	r2, r0, r2
 c00258e:	f841 2023 	str.w	r2, [r1, r3, lsl #2]
    __COMPILER_BARRIER();
  }
}
 c002592:	bf00      	nop
 c002594:	370c      	adds	r7, #12
 c002596:	46bd      	mov	sp, r7
 c002598:	f85d 7b04 	ldr.w	r7, [sp], #4
 c00259c:	4770      	bx	lr
 c00259e:	bf00      	nop
 c0025a0:	e000e100 	.word	0xe000e100

0c0025a4 <__NVIC_SetPriority>:
  \param [in]      IRQn  Interrupt number.
  \param [in]  priority  Priority to set.
  \note    The priority cannot be set for every processor exception.
 */
__STATIC_INLINE void __NVIC_SetPriority(IRQn_Type IRQn, uint32_t priority)
{
 c0025a4:	b480      	push	{r7}
 c0025a6:	b083      	sub	sp, #12
 c0025a8:	af00      	add	r7, sp, #0
 c0025aa:	4603      	mov	r3, r0
 c0025ac:	6039      	str	r1, [r7, #0]
 c0025ae:	71fb      	strb	r3, [r7, #7]
  if ((int32_t)(IRQn) >= 0)
 c0025b0:	f997 3007 	ldrsb.w	r3, [r7, #7]
 c0025b4:	2b00      	cmp	r3, #0
 c0025b6:	db0a      	blt.n	c0025ce <__NVIC_SetPriority+0x2a>
  {
    NVIC->IPR[((uint32_t)IRQn)]               = (uint8_t)((priority << (8U - __NVIC_PRIO_BITS)) & (uint32_t)0xFFUL);
 c0025b8:	683b      	ldr	r3, [r7, #0]
 c0025ba:	b2da      	uxtb	r2, r3
 c0025bc:	490c      	ldr	r1, [pc, #48]	; (c0025f0 <__NVIC_SetPriority+0x4c>)
 c0025be:	f997 3007 	ldrsb.w	r3, [r7, #7]
 c0025c2:	0152      	lsls	r2, r2, #5
 c0025c4:	b2d2      	uxtb	r2, r2
 c0025c6:	440b      	add	r3, r1
 c0025c8:	f883 2300 	strb.w	r2, [r3, #768]	; 0x300
  }
  else
  {
    SCB->SHPR[(((uint32_t)IRQn) & 0xFUL)-4UL] = (uint8_t)((priority << (8U - __NVIC_PRIO_BITS)) & (uint32_t)0xFFUL);
  }
}
 c0025cc:	e00a      	b.n	c0025e4 <__NVIC_SetPriority+0x40>
    SCB->SHPR[(((uint32_t)IRQn) & 0xFUL)-4UL] = (uint8_t)((priority << (8U - __NVIC_PRIO_BITS)) & (uint32_t)0xFFUL);
 c0025ce:	683b      	ldr	r3, [r7, #0]
 c0025d0:	b2da      	uxtb	r2, r3
 c0025d2:	4908      	ldr	r1, [pc, #32]	; (c0025f4 <__NVIC_SetPriority+0x50>)
 c0025d4:	79fb      	ldrb	r3, [r7, #7]
 c0025d6:	f003 030f 	and.w	r3, r3, #15
 c0025da:	3b04      	subs	r3, #4
 c0025dc:	0152      	lsls	r2, r2, #5
 c0025de:	b2d2      	uxtb	r2, r2
 c0025e0:	440b      	add	r3, r1
 c0025e2:	761a      	strb	r2, [r3, #24]
}
 c0025e4:	bf00      	nop
 c0025e6:	370c      	adds	r7, #12
 c0025e8:	46bd      	mov	sp, r7
 c0025ea:	f85d 7b04 	ldr.w	r7, [sp], #4
 c0025ee:	4770      	bx	lr
 c0025f0:	e000e100 	.word	0xe000e100
 c0025f4:	e000ed00 	.word	0xe000ed00

0c0025f8 <NVIC_EncodePriority>:
  \param [in]   PreemptPriority  Preemptive priority value (starting from 0).
  \param [in]       SubPriority  Subpriority value (starting from 0).
  \return                        Encoded priority. Value can be used in the function \ref NVIC_SetPriority().
 */
__STATIC_INLINE uint32_t NVIC_EncodePriority (uint32_t PriorityGroup, uint32_t PreemptPriority, uint32_t SubPriority)
{
 c0025f8:	b480      	push	{r7}
 c0025fa:	b089      	sub	sp, #36	; 0x24
 c0025fc:	af00      	add	r7, sp, #0
 c0025fe:	60f8      	str	r0, [r7, #12]
 c002600:	60b9      	str	r1, [r7, #8]
 c002602:	607a      	str	r2, [r7, #4]
  uint32_t PriorityGroupTmp = (PriorityGroup & (uint32_t)0x07UL);   /* only values 0..7 are used          */
 c002604:	68fb      	ldr	r3, [r7, #12]
 c002606:	f003 0307 	and.w	r3, r3, #7
 c00260a:	61fb      	str	r3, [r7, #28]
  uint32_t PreemptPriorityBits;
  uint32_t SubPriorityBits;

  PreemptPriorityBits = ((7UL - PriorityGroupTmp) > (uint32_t)(__NVIC_PRIO_BITS)) ? (uint32_t)(__NVIC_PRIO_BITS) : (uint32_t)(7UL - PriorityGroupTmp);
 c00260c:	69fb      	ldr	r3, [r7, #28]
 c00260e:	f1c3 0307 	rsb	r3, r3, #7
 c002612:	2b03      	cmp	r3, #3
 c002614:	bf28      	it	cs
 c002616:	2303      	movcs	r3, #3
 c002618:	61bb      	str	r3, [r7, #24]
  SubPriorityBits     = ((PriorityGroupTmp + (uint32_t)(__NVIC_PRIO_BITS)) < (uint32_t)7UL) ? (uint32_t)0UL : (uint32_t)((PriorityGroupTmp - 7UL) + (uint32_t)(__NVIC_PRIO_BITS));
 c00261a:	69fb      	ldr	r3, [r7, #28]
 c00261c:	3303      	adds	r3, #3
 c00261e:	2b06      	cmp	r3, #6
 c002620:	d902      	bls.n	c002628 <NVIC_EncodePriority+0x30>
 c002622:	69fb      	ldr	r3, [r7, #28]
 c002624:	3b04      	subs	r3, #4
 c002626:	e000      	b.n	c00262a <NVIC_EncodePriority+0x32>
 c002628:	2300      	movs	r3, #0
 c00262a:	617b      	str	r3, [r7, #20]

  return (
           ((PreemptPriority & (uint32_t)((1UL << (PreemptPriorityBits)) - 1UL)) << SubPriorityBits) |
 c00262c:	f04f 32ff 	mov.w	r2, #4294967295
 c002630:	69bb      	ldr	r3, [r7, #24]
 c002632:	fa02 f303 	lsl.w	r3, r2, r3
 c002636:	43da      	mvns	r2, r3
 c002638:	68bb      	ldr	r3, [r7, #8]
 c00263a:	401a      	ands	r2, r3
 c00263c:	697b      	ldr	r3, [r7, #20]
 c00263e:	409a      	lsls	r2, r3
           ((SubPriority     & (uint32_t)((1UL << (SubPriorityBits    )) - 1UL)))
 c002640:	f04f 31ff 	mov.w	r1, #4294967295
 c002644:	697b      	ldr	r3, [r7, #20]
 c002646:	fa01 f303 	lsl.w	r3, r1, r3
 c00264a:	43d9      	mvns	r1, r3
 c00264c:	687b      	ldr	r3, [r7, #4]
 c00264e:	400b      	ands	r3, r1
           ((PreemptPriority & (uint32_t)((1UL << (PreemptPriorityBits)) - 1UL)) << SubPriorityBits) |
 c002650:	4313      	orrs	r3, r2
         );
}
 c002652:	4618      	mov	r0, r3
 c002654:	3724      	adds	r7, #36	; 0x24
 c002656:	46bd      	mov	sp, r7
 c002658:	f85d 7b04 	ldr.w	r7, [sp], #4
 c00265c:	4770      	bx	lr
	...

0c002660 <SysTick_Config>:
  \note    When the variable <b>__Vendor_SysTickConfig</b> is set to 1, then the
           function <b>SysTick_Config</b> is not included. In this case, the file <b><i>device</i>.h</b>
           must contain a vendor-specific implementation of this function.
 */
__STATIC_INLINE uint32_t SysTick_Config(uint32_t ticks)
{
 c002660:	b580      	push	{r7, lr}
 c002662:	b082      	sub	sp, #8
 c002664:	af00      	add	r7, sp, #0
 c002666:	6078      	str	r0, [r7, #4]
  if ((ticks - 1UL) > SysTick_LOAD_RELOAD_Msk)
 c002668:	687b      	ldr	r3, [r7, #4]
 c00266a:	3b01      	subs	r3, #1
 c00266c:	f1b3 7f80 	cmp.w	r3, #16777216	; 0x1000000
 c002670:	d301      	bcc.n	c002676 <SysTick_Config+0x16>
  {
    return (1UL);                                                   /* Reload value impossible */
 c002672:	2301      	movs	r3, #1
 c002674:	e00f      	b.n	c002696 <SysTick_Config+0x36>
  }

  SysTick->LOAD  = (uint32_t)(ticks - 1UL);                         /* set reload register */
 c002676:	4a0a      	ldr	r2, [pc, #40]	; (c0026a0 <SysTick_Config+0x40>)
 c002678:	687b      	ldr	r3, [r7, #4]
 c00267a:	3b01      	subs	r3, #1
 c00267c:	6053      	str	r3, [r2, #4]
  NVIC_SetPriority (SysTick_IRQn, (1UL << __NVIC_PRIO_BITS) - 1UL); /* set Priority for Systick Interrupt */
 c00267e:	2107      	movs	r1, #7
 c002680:	f04f 30ff 	mov.w	r0, #4294967295
 c002684:	f7ff ff8e 	bl	c0025a4 <__NVIC_SetPriority>
  SysTick->VAL   = 0UL;                                             /* Load the SysTick Counter Value */
 c002688:	4b05      	ldr	r3, [pc, #20]	; (c0026a0 <SysTick_Config+0x40>)
 c00268a:	2200      	movs	r2, #0
 c00268c:	609a      	str	r2, [r3, #8]
  SysTick->CTRL  = SysTick_CTRL_CLKSOURCE_Msk |
 c00268e:	4b04      	ldr	r3, [pc, #16]	; (c0026a0 <SysTick_Config+0x40>)
 c002690:	2207      	movs	r2, #7
 c002692:	601a      	str	r2, [r3, #0]
                   SysTick_CTRL_TICKINT_Msk   |
                   SysTick_CTRL_ENABLE_Msk;                         /* Enable SysTick IRQ and SysTick Timer */
  return (0UL);                                                     /* Function successful */
 c002694:	2300      	movs	r3, #0
}
 c002696:	4618      	mov	r0, r3
 c002698:	3708      	adds	r7, #8
 c00269a:	46bd      	mov	sp, r7
 c00269c:	bd80      	pop	{r7, pc}
 c00269e:	bf00      	nop
 c0026a0:	e000e010 	.word	0xe000e010

0c0026a4 <HAL_NVIC_SetPriorityGrouping>:
  * @note   When the NVIC_PriorityGroup_0 is selected, IRQ pre-emption is no more possible.
  *         The pending IRQ priority will be managed only by the subpriority.
  * @retval None
  */
void HAL_NVIC_SetPriorityGrouping(uint32_t PriorityGroup)
{
 c0026a4:	b580      	push	{r7, lr}
 c0026a6:	b082      	sub	sp, #8
 c0026a8:	af00      	add	r7, sp, #0
 c0026aa:	6078      	str	r0, [r7, #4]
  /* Check the parameters */
  assert_param(IS_NVIC_PRIORITY_GROUP(PriorityGroup));

  /* Set the PRIGROUP[10:8] bits according to the PriorityGroup parameter value */
  NVIC_SetPriorityGrouping(PriorityGroup);
 c0026ac:	6878      	ldr	r0, [r7, #4]
 c0026ae:	f7ff ff29 	bl	c002504 <__NVIC_SetPriorityGrouping>
}
 c0026b2:	bf00      	nop
 c0026b4:	3708      	adds	r7, #8
 c0026b6:	46bd      	mov	sp, r7
 c0026b8:	bd80      	pop	{r7, pc}

0c0026ba <HAL_NVIC_SetPriority>:
  *         This parameter can be a value between 0 and 7
  *         A lower priority value indicates a higher priority.
  * @retval None
  */
void HAL_NVIC_SetPriority(IRQn_Type IRQn, uint32_t PreemptPriority, uint32_t SubPriority)
{
 c0026ba:	b580      	push	{r7, lr}
 c0026bc:	b086      	sub	sp, #24
 c0026be:	af00      	add	r7, sp, #0
 c0026c0:	4603      	mov	r3, r0
 c0026c2:	60b9      	str	r1, [r7, #8]
 c0026c4:	607a      	str	r2, [r7, #4]
 c0026c6:	73fb      	strb	r3, [r7, #15]

  /* Check the parameters */
  assert_param(IS_NVIC_SUB_PRIORITY(SubPriority));
  assert_param(IS_NVIC_PREEMPTION_PRIORITY(PreemptPriority));

  prioritygroup = NVIC_GetPriorityGrouping();
 c0026c8:	f7ff ff40 	bl	c00254c <__NVIC_GetPriorityGrouping>
 c0026cc:	6178      	str	r0, [r7, #20]

  NVIC_SetPriority(IRQn, NVIC_EncodePriority(prioritygroup, PreemptPriority, SubPriority));
 c0026ce:	687a      	ldr	r2, [r7, #4]
 c0026d0:	68b9      	ldr	r1, [r7, #8]
 c0026d2:	6978      	ldr	r0, [r7, #20]
 c0026d4:	f7ff ff90 	bl	c0025f8 <NVIC_EncodePriority>
 c0026d8:	4602      	mov	r2, r0
 c0026da:	f997 300f 	ldrsb.w	r3, [r7, #15]
 c0026de:	4611      	mov	r1, r2
 c0026e0:	4618      	mov	r0, r3
 c0026e2:	f7ff ff5f 	bl	c0025a4 <__NVIC_SetPriority>
}
 c0026e6:	bf00      	nop
 c0026e8:	3718      	adds	r7, #24
 c0026ea:	46bd      	mov	sp, r7
 c0026ec:	bd80      	pop	{r7, pc}

0c0026ee <HAL_NVIC_EnableIRQ>:
  *         This parameter can be an enumerator of IRQn_Type enumeration
  *         (For the complete STM32 Devices IRQ Channels list, please refer to the appropriate CMSIS device file (stm32l5xxxx.h))
  * @retval None
  */
void HAL_NVIC_EnableIRQ(IRQn_Type IRQn)
{
 c0026ee:	b580      	push	{r7, lr}
 c0026f0:	b082      	sub	sp, #8
 c0026f2:	af00      	add	r7, sp, #0
 c0026f4:	4603      	mov	r3, r0
 c0026f6:	71fb      	strb	r3, [r7, #7]
  /* Check the parameters */
  assert_param(IS_NVIC_DEVICE_IRQ(IRQn));

  /* Enable interrupt */
  NVIC_EnableIRQ(IRQn);
 c0026f8:	f997 3007 	ldrsb.w	r3, [r7, #7]
 c0026fc:	4618      	mov	r0, r3
 c0026fe:	f7ff ff33 	bl	c002568 <__NVIC_EnableIRQ>
}
 c002702:	bf00      	nop
 c002704:	3708      	adds	r7, #8
 c002706:	46bd      	mov	sp, r7
 c002708:	bd80      	pop	{r7, pc}

0c00270a <HAL_SYSTICK_Config>:
  * @param  TicksNumb Specifies the ticks Number of ticks between two interrupts.
  * @retval status:  - 0  Function succeeded.
  *                  - 1  Function failed.
  */
uint32_t HAL_SYSTICK_Config(uint32_t TicksNumb)
{
 c00270a:	b580      	push	{r7, lr}
 c00270c:	b082      	sub	sp, #8
 c00270e:	af00      	add	r7, sp, #0
 c002710:	6078      	str	r0, [r7, #4]
  return SysTick_Config(TicksNumb);
 c002712:	6878      	ldr	r0, [r7, #4]
 c002714:	f7ff ffa4 	bl	c002660 <SysTick_Config>
 c002718:	4603      	mov	r3, r0
}
 c00271a:	4618      	mov	r0, r3
 c00271c:	3708      	adds	r7, #8
 c00271e:	46bd      	mov	sp, r7
 c002720:	bd80      	pop	{r7, pc}
	...

0c002724 <HAL_DMA_Init>:
  * @param  hdma pointer to a DMA_HandleTypeDef structure that contains
  *              the configuration information for the specified DMA Channel.
  * @retval HAL status
  */
HAL_StatusTypeDef HAL_DMA_Init(DMA_HandleTypeDef *hdma)
{
 c002724:	b580      	push	{r7, lr}
 c002726:	b084      	sub	sp, #16
 c002728:	af00      	add	r7, sp, #0
 c00272a:	6078      	str	r0, [r7, #4]
  uint32_t tmp;

  /* Check the DMA handle allocation */
  if(hdma == NULL)
 c00272c:	687b      	ldr	r3, [r7, #4]
 c00272e:	2b00      	cmp	r3, #0
 c002730:	d101      	bne.n	c002736 <HAL_DMA_Init+0x12>
  {
    return HAL_ERROR;
 c002732:	2301      	movs	r3, #1
 c002734:	e08d      	b.n	c002852 <HAL_DMA_Init+0x12e>
  assert_param(IS_DMA_PRIORITY(hdma->Init.Priority));

  assert_param(IS_DMA_ALL_REQUEST(hdma->Init.Request));

  /* Compute the channel index */
  if ((uint32_t)(hdma->Instance) < (uint32_t)(DMA2_Channel1))
 c002736:	687b      	ldr	r3, [r7, #4]
 c002738:	681b      	ldr	r3, [r3, #0]
 c00273a:	461a      	mov	r2, r3
 c00273c:	4b47      	ldr	r3, [pc, #284]	; (c00285c <HAL_DMA_Init+0x138>)
 c00273e:	429a      	cmp	r2, r3
 c002740:	d80f      	bhi.n	c002762 <HAL_DMA_Init+0x3e>
  {
    /* DMA1 */
    hdma->ChannelIndex = (((uint32_t)hdma->Instance - (uint32_t)DMA1_Channel1) / ((uint32_t)DMA1_Channel2 - (uint32_t)DMA1_Channel1)) << 2U;
 c002742:	687b      	ldr	r3, [r7, #4]
 c002744:	681b      	ldr	r3, [r3, #0]
 c002746:	461a      	mov	r2, r3
 c002748:	4b45      	ldr	r3, [pc, #276]	; (c002860 <HAL_DMA_Init+0x13c>)
 c00274a:	4413      	add	r3, r2
 c00274c:	4a45      	ldr	r2, [pc, #276]	; (c002864 <HAL_DMA_Init+0x140>)
 c00274e:	fba2 2303 	umull	r2, r3, r2, r3
 c002752:	091b      	lsrs	r3, r3, #4
 c002754:	009a      	lsls	r2, r3, #2
 c002756:	687b      	ldr	r3, [r7, #4]
 c002758:	64da      	str	r2, [r3, #76]	; 0x4c
    hdma->DmaBaseAddress = DMA1;
 c00275a:	687b      	ldr	r3, [r7, #4]
 c00275c:	4a42      	ldr	r2, [pc, #264]	; (c002868 <HAL_DMA_Init+0x144>)
 c00275e:	649a      	str	r2, [r3, #72]	; 0x48
 c002760:	e00e      	b.n	c002780 <HAL_DMA_Init+0x5c>
  }
  else
  {
    /* DMA2 */
    hdma->ChannelIndex = (((uint32_t)hdma->Instance - (uint32_t)DMA2_Channel1) / ((uint32_t)DMA2_Channel2 - (uint32_t)DMA2_Channel1)) << 2U;
 c002762:	687b      	ldr	r3, [r7, #4]
 c002764:	681b      	ldr	r3, [r3, #0]
 c002766:	461a      	mov	r2, r3
 c002768:	4b40      	ldr	r3, [pc, #256]	; (c00286c <HAL_DMA_Init+0x148>)
 c00276a:	4413      	add	r3, r2
 c00276c:	4a3d      	ldr	r2, [pc, #244]	; (c002864 <HAL_DMA_Init+0x140>)
 c00276e:	fba2 2303 	umull	r2, r3, r2, r3
 c002772:	091b      	lsrs	r3, r3, #4
 c002774:	009a      	lsls	r2, r3, #2
 c002776:	687b      	ldr	r3, [r7, #4]
 c002778:	64da      	str	r2, [r3, #76]	; 0x4c
    hdma->DmaBaseAddress = DMA2;
 c00277a:	687b      	ldr	r3, [r7, #4]
 c00277c:	4a3c      	ldr	r2, [pc, #240]	; (c002870 <HAL_DMA_Init+0x14c>)
 c00277e:	649a      	str	r2, [r3, #72]	; 0x48
  }

  /* Change DMA peripheral state */
  hdma->State = HAL_DMA_STATE_BUSY;
 c002780:	687b      	ldr	r3, [r7, #4]
 c002782:	2202      	movs	r2, #2
 c002784:	f883 2025 	strb.w	r2, [r3, #37]	; 0x25

  /* Get the CR register value */
  tmp = hdma->Instance->CCR;
 c002788:	687b      	ldr	r3, [r7, #4]
 c00278a:	681b      	ldr	r3, [r3, #0]
 c00278c:	681b      	ldr	r3, [r3, #0]
 c00278e:	60fb      	str	r3, [r7, #12]

  /* Clear PL, MSIZE, PSIZE, MINC, PINC, CIRC, DIR, MEM2MEM, CT and DBM bits */
  tmp &= ((uint32_t)~(DMA_CCR_PL    | DMA_CCR_MSIZE   | DMA_CCR_PSIZE  |
 c002790:	68fb      	ldr	r3, [r7, #12]
 c002792:	f423 33ff 	bic.w	r3, r3, #130560	; 0x1fe00
 c002796:	f423 73f8 	bic.w	r3, r3, #496	; 0x1f0
 c00279a:	60fb      	str	r3, [r7, #12]
                      DMA_CCR_MINC  | DMA_CCR_PINC    | DMA_CCR_CIRC   |
                      DMA_CCR_DIR   | DMA_CCR_MEM2MEM | DMA_CCR_CT     |
                      DMA_CCR_DBM));

  /* Prepare the DMA Channel configuration */
  tmp |=  hdma->Init.Direction        |
 c00279c:	687b      	ldr	r3, [r7, #4]
 c00279e:	689a      	ldr	r2, [r3, #8]
          hdma->Init.PeriphInc           | hdma->Init.MemInc           |
 c0027a0:	687b      	ldr	r3, [r7, #4]
 c0027a2:	68db      	ldr	r3, [r3, #12]
  tmp |=  hdma->Init.Direction        |
 c0027a4:	431a      	orrs	r2, r3
          hdma->Init.PeriphInc           | hdma->Init.MemInc           |
 c0027a6:	687b      	ldr	r3, [r7, #4]
 c0027a8:	691b      	ldr	r3, [r3, #16]
 c0027aa:	431a      	orrs	r2, r3
          hdma->Init.PeriphDataAlignment | hdma->Init.MemDataAlignment |
 c0027ac:	687b      	ldr	r3, [r7, #4]
 c0027ae:	695b      	ldr	r3, [r3, #20]
          hdma->Init.PeriphInc           | hdma->Init.MemInc           |
 c0027b0:	431a      	orrs	r2, r3
          hdma->Init.PeriphDataAlignment | hdma->Init.MemDataAlignment |
 c0027b2:	687b      	ldr	r3, [r7, #4]
 c0027b4:	699b      	ldr	r3, [r3, #24]
 c0027b6:	431a      	orrs	r2, r3
          hdma->Init.Mode                | hdma->Init.Priority;
 c0027b8:	687b      	ldr	r3, [r7, #4]
 c0027ba:	69db      	ldr	r3, [r3, #28]
          hdma->Init.PeriphDataAlignment | hdma->Init.MemDataAlignment |
 c0027bc:	431a      	orrs	r2, r3
          hdma->Init.Mode                | hdma->Init.Priority;
 c0027be:	687b      	ldr	r3, [r7, #4]
 c0027c0:	6a1b      	ldr	r3, [r3, #32]
 c0027c2:	4313      	orrs	r3, r2
  tmp |=  hdma->Init.Direction        |
 c0027c4:	68fa      	ldr	r2, [r7, #12]
 c0027c6:	4313      	orrs	r3, r2
 c0027c8:	60fb      	str	r3, [r7, #12]

  /* Write to DMA Channel CR register */
  hdma->Instance->CCR = tmp;
 c0027ca:	687b      	ldr	r3, [r7, #4]
 c0027cc:	681b      	ldr	r3, [r3, #0]
 c0027ce:	68fa      	ldr	r2, [r7, #12]
 c0027d0:	601a      	str	r2, [r3, #0]

  /* Initialize parameters for DMAMUX channel :
     DMAmuxChannel, DMAmuxChannelStatus and DMAmuxChannelStatusMask
  */
  DMA_CalcDMAMUXChannelBaseAndMask(hdma);
 c0027d2:	6878      	ldr	r0, [r7, #4]
 c0027d4:	f000 fae4 	bl	c002da0 <DMA_CalcDMAMUXChannelBaseAndMask>

  if(hdma->Init.Direction == DMA_MEMORY_TO_MEMORY)
 c0027d8:	687b      	ldr	r3, [r7, #4]
 c0027da:	689b      	ldr	r3, [r3, #8]
 c0027dc:	f5b3 4f80 	cmp.w	r3, #16384	; 0x4000
 c0027e0:	d102      	bne.n	c0027e8 <HAL_DMA_Init+0xc4>
  {
    /* if memory to memory force the request to 0*/
    hdma->Init.Request = DMA_REQUEST_MEM2MEM;
 c0027e2:	687b      	ldr	r3, [r7, #4]
 c0027e4:	2200      	movs	r2, #0
 c0027e6:	605a      	str	r2, [r3, #4]
  }

  /* Set peripheral request  to DMAMUX channel */
  hdma->DMAmuxChannel->CCR = (hdma->Init.Request & DMAMUX_CxCR_DMAREQ_ID);
 c0027e8:	687b      	ldr	r3, [r7, #4]
 c0027ea:	685a      	ldr	r2, [r3, #4]
 c0027ec:	687b      	ldr	r3, [r7, #4]
 c0027ee:	6d1b      	ldr	r3, [r3, #80]	; 0x50
 c0027f0:	b2d2      	uxtb	r2, r2
 c0027f2:	601a      	str	r2, [r3, #0]

  /* Clear the DMAMUX synchro overrun flag */
  hdma->DMAmuxChannelStatus->CFR = hdma->DMAmuxChannelStatusMask;
 c0027f4:	687b      	ldr	r3, [r7, #4]
 c0027f6:	6d5b      	ldr	r3, [r3, #84]	; 0x54
 c0027f8:	687a      	ldr	r2, [r7, #4]
 c0027fa:	6d92      	ldr	r2, [r2, #88]	; 0x58
 c0027fc:	605a      	str	r2, [r3, #4]

  if(((hdma->Init.Request > 0U) && (hdma->Init.Request <= DMA_REQUEST_GENERATOR3)))
 c0027fe:	687b      	ldr	r3, [r7, #4]
 c002800:	685b      	ldr	r3, [r3, #4]
 c002802:	2b00      	cmp	r3, #0
 c002804:	d010      	beq.n	c002828 <HAL_DMA_Init+0x104>
 c002806:	687b      	ldr	r3, [r7, #4]
 c002808:	685b      	ldr	r3, [r3, #4]
 c00280a:	2b04      	cmp	r3, #4
 c00280c:	d80c      	bhi.n	c002828 <HAL_DMA_Init+0x104>
  {
    /* Initialize parameters for DMAMUX request generator :
       DMAmuxRequestGen, DMAmuxRequestGenStatus and DMAmuxRequestGenStatusMask
    */
    DMA_CalcDMAMUXRequestGenBaseAndMask(hdma);
 c00280e:	6878      	ldr	r0, [r7, #4]
 c002810:	f000 fb04 	bl	c002e1c <DMA_CalcDMAMUXRequestGenBaseAndMask>

    /* Reset the DMAMUX request generator register*/
    hdma->DMAmuxRequestGen->RGCR = 0U;
 c002814:	687b      	ldr	r3, [r7, #4]
 c002816:	6ddb      	ldr	r3, [r3, #92]	; 0x5c
 c002818:	2200      	movs	r2, #0
 c00281a:	601a      	str	r2, [r3, #0]

    /* Clear the DMAMUX request generator overrun flag */
    hdma->DMAmuxRequestGenStatus->RGCFR = hdma->DMAmuxRequestGenStatusMask;
 c00281c:	687b      	ldr	r3, [r7, #4]
 c00281e:	6e1b      	ldr	r3, [r3, #96]	; 0x60
 c002820:	687a      	ldr	r2, [r7, #4]
 c002822:	6e52      	ldr	r2, [r2, #100]	; 0x64
 c002824:	605a      	str	r2, [r3, #4]
 c002826:	e008      	b.n	c00283a <HAL_DMA_Init+0x116>
  }
  else
  {
    hdma->DMAmuxRequestGen = 0U;
 c002828:	687b      	ldr	r3, [r7, #4]
 c00282a:	2200      	movs	r2, #0
 c00282c:	65da      	str	r2, [r3, #92]	; 0x5c
    hdma->DMAmuxRequestGenStatus = 0U;
 c00282e:	687b      	ldr	r3, [r7, #4]
 c002830:	2200      	movs	r2, #0
 c002832:	661a      	str	r2, [r3, #96]	; 0x60
    hdma->DMAmuxRequestGenStatusMask = 0U;
 c002834:	687b      	ldr	r3, [r7, #4]
 c002836:	2200      	movs	r2, #0
 c002838:	665a      	str	r2, [r3, #100]	; 0x64
  }

  /* Initialise the error code */
  hdma->ErrorCode = HAL_DMA_ERROR_NONE;
 c00283a:	687b      	ldr	r3, [r7, #4]
 c00283c:	2200      	movs	r2, #0
 c00283e:	645a      	str	r2, [r3, #68]	; 0x44

  /* Initialize the DMA state*/
  hdma->State = HAL_DMA_STATE_READY;
 c002840:	687b      	ldr	r3, [r7, #4]
 c002842:	2201      	movs	r2, #1
 c002844:	f883 2025 	strb.w	r2, [r3, #37]	; 0x25

  /* Allocate lock resource and initialize it */
  hdma->Lock = HAL_UNLOCKED;
 c002848:	687b      	ldr	r3, [r7, #4]
 c00284a:	2200      	movs	r2, #0
 c00284c:	f883 2024 	strb.w	r2, [r3, #36]	; 0x24

  return HAL_OK;
 c002850:	2300      	movs	r3, #0
}
 c002852:	4618      	mov	r0, r3
 c002854:	3710      	adds	r7, #16
 c002856:	46bd      	mov	sp, r7
 c002858:	bd80      	pop	{r7, pc}
 c00285a:	bf00      	nop
 c00285c:	50020407 	.word	0x50020407
 c002860:	affdfff8 	.word	0xaffdfff8
 c002864:	cccccccd 	.word	0xcccccccd
 c002868:	50020000 	.word	0x50020000
 c00286c:	affdfbf8 	.word	0xaffdfbf8
 c002870:	50020400 	.word	0x50020400

0c002874 <HAL_DMA_Start_IT>:
  * @param  DstAddress The destination memory Buffer address
  * @param  DataLength The length of data to be transferred from source to destination
  * @retval HAL status
  */
HAL_StatusTypeDef HAL_DMA_Start_IT(DMA_HandleTypeDef *hdma, uint32_t SrcAddress, uint32_t DstAddress, uint32_t DataLength)
{
 c002874:	b580      	push	{r7, lr}
 c002876:	b086      	sub	sp, #24
 c002878:	af00      	add	r7, sp, #0
 c00287a:	60f8      	str	r0, [r7, #12]
 c00287c:	60b9      	str	r1, [r7, #8]
 c00287e:	607a      	str	r2, [r7, #4]
 c002880:	603b      	str	r3, [r7, #0]
  HAL_StatusTypeDef status = HAL_OK;
 c002882:	2300      	movs	r3, #0
 c002884:	75fb      	strb	r3, [r7, #23]

  /* Check the parameters */
  assert_param(IS_DMA_BUFFER_SIZE(DataLength));

  /* Process locked */
  __HAL_LOCK(hdma);
 c002886:	68fb      	ldr	r3, [r7, #12]
 c002888:	f893 3024 	ldrb.w	r3, [r3, #36]	; 0x24
 c00288c:	2b01      	cmp	r3, #1
 c00288e:	d101      	bne.n	c002894 <HAL_DMA_Start_IT+0x20>
 c002890:	2302      	movs	r3, #2
 c002892:	e066      	b.n	c002962 <HAL_DMA_Start_IT+0xee>
 c002894:	68fb      	ldr	r3, [r7, #12]
 c002896:	2201      	movs	r2, #1
 c002898:	f883 2024 	strb.w	r2, [r3, #36]	; 0x24

  if(HAL_DMA_STATE_READY == hdma->State)
 c00289c:	68fb      	ldr	r3, [r7, #12]
 c00289e:	f893 3025 	ldrb.w	r3, [r3, #37]	; 0x25
 c0028a2:	b2db      	uxtb	r3, r3
 c0028a4:	2b01      	cmp	r3, #1
 c0028a6:	d155      	bne.n	c002954 <HAL_DMA_Start_IT+0xe0>
  {
    /* Change DMA peripheral state */
    hdma->State = HAL_DMA_STATE_BUSY;
 c0028a8:	68fb      	ldr	r3, [r7, #12]
 c0028aa:	2202      	movs	r2, #2
 c0028ac:	f883 2025 	strb.w	r2, [r3, #37]	; 0x25
    hdma->ErrorCode = HAL_DMA_ERROR_NONE;
 c0028b0:	68fb      	ldr	r3, [r7, #12]
 c0028b2:	2200      	movs	r2, #0
 c0028b4:	645a      	str	r2, [r3, #68]	; 0x44

    /* Disable the peripheral */
    __HAL_DMA_DISABLE(hdma);
 c0028b6:	68fb      	ldr	r3, [r7, #12]
 c0028b8:	681b      	ldr	r3, [r3, #0]
 c0028ba:	681a      	ldr	r2, [r3, #0]
 c0028bc:	68fb      	ldr	r3, [r7, #12]
 c0028be:	681b      	ldr	r3, [r3, #0]
 c0028c0:	f022 0201 	bic.w	r2, r2, #1
 c0028c4:	601a      	str	r2, [r3, #0]

    /* Configure the source, destination address and the data length & clear flags*/
    DMA_SetConfig(hdma, SrcAddress, DstAddress, DataLength);
 c0028c6:	683b      	ldr	r3, [r7, #0]
 c0028c8:	687a      	ldr	r2, [r7, #4]
 c0028ca:	68b9      	ldr	r1, [r7, #8]
 c0028cc:	68f8      	ldr	r0, [r7, #12]
 c0028ce:	f000 fa29 	bl	c002d24 <DMA_SetConfig>

    /* Enable the transfer complete interrupt */
    /* Enable the transfer Error interrupt */
    if(NULL != hdma->XferHalfCpltCallback )
 c0028d2:	68fb      	ldr	r3, [r7, #12]
 c0028d4:	6b1b      	ldr	r3, [r3, #48]	; 0x30
 c0028d6:	2b00      	cmp	r3, #0
 c0028d8:	d008      	beq.n	c0028ec <HAL_DMA_Start_IT+0x78>
    {
      /* Enable the Half transfer complete interrupt as well */
      __HAL_DMA_ENABLE_IT(hdma, (DMA_IT_TC | DMA_IT_HT | DMA_IT_TE));
 c0028da:	68fb      	ldr	r3, [r7, #12]
 c0028dc:	681b      	ldr	r3, [r3, #0]
 c0028de:	681a      	ldr	r2, [r3, #0]
 c0028e0:	68fb      	ldr	r3, [r7, #12]
 c0028e2:	681b      	ldr	r3, [r3, #0]
 c0028e4:	f042 020e 	orr.w	r2, r2, #14
 c0028e8:	601a      	str	r2, [r3, #0]
 c0028ea:	e00f      	b.n	c00290c <HAL_DMA_Start_IT+0x98>
    }
    else
    {
      __HAL_DMA_DISABLE_IT(hdma, DMA_IT_HT);
 c0028ec:	68fb      	ldr	r3, [r7, #12]
 c0028ee:	681b      	ldr	r3, [r3, #0]
 c0028f0:	681a      	ldr	r2, [r3, #0]
 c0028f2:	68fb      	ldr	r3, [r7, #12]
 c0028f4:	681b      	ldr	r3, [r3, #0]
 c0028f6:	f022 0204 	bic.w	r2, r2, #4
 c0028fa:	601a      	str	r2, [r3, #0]
      __HAL_DMA_ENABLE_IT(hdma, (DMA_IT_TC | DMA_IT_TE));
 c0028fc:	68fb      	ldr	r3, [r7, #12]
 c0028fe:	681b      	ldr	r3, [r3, #0]
 c002900:	681a      	ldr	r2, [r3, #0]
 c002902:	68fb      	ldr	r3, [r7, #12]
 c002904:	681b      	ldr	r3, [r3, #0]
 c002906:	f042 020a 	orr.w	r2, r2, #10
 c00290a:	601a      	str	r2, [r3, #0]
    }

    /* Check if DMAMUX Synchronization is enabled*/
    if((hdma->DMAmuxChannel->CCR & DMAMUX_CxCR_SE) != 0U)
 c00290c:	68fb      	ldr	r3, [r7, #12]
 c00290e:	6d1b      	ldr	r3, [r3, #80]	; 0x50
 c002910:	681b      	ldr	r3, [r3, #0]
 c002912:	f403 3380 	and.w	r3, r3, #65536	; 0x10000
 c002916:	2b00      	cmp	r3, #0
 c002918:	d007      	beq.n	c00292a <HAL_DMA_Start_IT+0xb6>
    {
      /* Enable DMAMUX sync overrun IT*/
      hdma->DMAmuxChannel->CCR |= DMAMUX_CxCR_SOIE;
 c00291a:	68fb      	ldr	r3, [r7, #12]
 c00291c:	6d1b      	ldr	r3, [r3, #80]	; 0x50
 c00291e:	681a      	ldr	r2, [r3, #0]
 c002920:	68fb      	ldr	r3, [r7, #12]
 c002922:	6d1b      	ldr	r3, [r3, #80]	; 0x50
 c002924:	f442 7280 	orr.w	r2, r2, #256	; 0x100
 c002928:	601a      	str	r2, [r3, #0]
    }

    if(hdma->DMAmuxRequestGen != 0U)
 c00292a:	68fb      	ldr	r3, [r7, #12]
 c00292c:	6ddb      	ldr	r3, [r3, #92]	; 0x5c
 c00292e:	2b00      	cmp	r3, #0
 c002930:	d007      	beq.n	c002942 <HAL_DMA_Start_IT+0xce>
    {
      /* if using DMAMUX request generator, enable the DMAMUX request generator overrun IT*/
      /* enable the request gen overrun IT*/
      hdma->DMAmuxRequestGen->RGCR |= DMAMUX_RGxCR_OIE;
 c002932:	68fb      	ldr	r3, [r7, #12]
 c002934:	6ddb      	ldr	r3, [r3, #92]	; 0x5c
 c002936:	681a      	ldr	r2, [r3, #0]
 c002938:	68fb      	ldr	r3, [r7, #12]
 c00293a:	6ddb      	ldr	r3, [r3, #92]	; 0x5c
 c00293c:	f442 7280 	orr.w	r2, r2, #256	; 0x100
 c002940:	601a      	str	r2, [r3, #0]
    }

    /* Enable the Peripheral */
    __HAL_DMA_ENABLE(hdma);
 c002942:	68fb      	ldr	r3, [r7, #12]
 c002944:	681b      	ldr	r3, [r3, #0]
 c002946:	681a      	ldr	r2, [r3, #0]
 c002948:	68fb      	ldr	r3, [r7, #12]
 c00294a:	681b      	ldr	r3, [r3, #0]
 c00294c:	f042 0201 	orr.w	r2, r2, #1
 c002950:	601a      	str	r2, [r3, #0]
 c002952:	e005      	b.n	c002960 <HAL_DMA_Start_IT+0xec>
  }
  else
  {
    /* Process Unlocked */
    __HAL_UNLOCK(hdma);
 c002954:	68fb      	ldr	r3, [r7, #12]
 c002956:	2200      	movs	r2, #0
 c002958:	f883 2024 	strb.w	r2, [r3, #36]	; 0x24

    /* Remain BUSY */
    status = HAL_BUSY;
 c00295c:	2302      	movs	r3, #2
 c00295e:	75fb      	strb	r3, [r7, #23]
  }
  return status;
 c002960:	7dfb      	ldrb	r3, [r7, #23]
}
 c002962:	4618      	mov	r0, r3
 c002964:	3718      	adds	r7, #24
 c002966:	46bd      	mov	sp, r7
 c002968:	bd80      	pop	{r7, pc}

0c00296a <HAL_DMA_IRQHandler>:
  * @param  hdma pointer to a DMA_HandleTypeDef structure that contains
  *               the configuration information for the specified DMA Channel.
  * @retval None
  */
void HAL_DMA_IRQHandler(DMA_HandleTypeDef *hdma)
{
 c00296a:	b580      	push	{r7, lr}
 c00296c:	b084      	sub	sp, #16
 c00296e:	af00      	add	r7, sp, #0
 c002970:	6078      	str	r0, [r7, #4]
  uint32_t flag_it = hdma->DmaBaseAddress->ISR;
 c002972:	687b      	ldr	r3, [r7, #4]
 c002974:	6c9b      	ldr	r3, [r3, #72]	; 0x48
 c002976:	681b      	ldr	r3, [r3, #0]
 c002978:	60fb      	str	r3, [r7, #12]
  uint32_t source_it = hdma->Instance->CCR;
 c00297a:	687b      	ldr	r3, [r7, #4]
 c00297c:	681b      	ldr	r3, [r3, #0]
 c00297e:	681b      	ldr	r3, [r3, #0]
 c002980:	60bb      	str	r3, [r7, #8]

  /* Half Transfer Complete Interrupt management ******************************/
  if (((flag_it & (DMA_FLAG_HT1 << (hdma->ChannelIndex & 0x1CU))) != 0U) && ((source_it & DMA_IT_HT) != 0U))
 c002982:	687b      	ldr	r3, [r7, #4]
 c002984:	6cdb      	ldr	r3, [r3, #76]	; 0x4c
 c002986:	f003 031c 	and.w	r3, r3, #28
 c00298a:	2204      	movs	r2, #4
 c00298c:	409a      	lsls	r2, r3
 c00298e:	68fb      	ldr	r3, [r7, #12]
 c002990:	4013      	ands	r3, r2
 c002992:	2b00      	cmp	r3, #0
 c002994:	d053      	beq.n	c002a3e <HAL_DMA_IRQHandler+0xd4>
 c002996:	68bb      	ldr	r3, [r7, #8]
 c002998:	f003 0304 	and.w	r3, r3, #4
 c00299c:	2b00      	cmp	r3, #0
 c00299e:	d04e      	beq.n	c002a3e <HAL_DMA_IRQHandler+0xd4>
  {
    /* Multi_Buffering mode enabled */
    if(((hdma->Instance->CCR) & (uint32_t)(DMA_CCR_DBM)) != 0U)
 c0029a0:	687b      	ldr	r3, [r7, #4]
 c0029a2:	681b      	ldr	r3, [r3, #0]
 c0029a4:	681b      	ldr	r3, [r3, #0]
 c0029a6:	f403 4300 	and.w	r3, r3, #32768	; 0x8000
 c0029aa:	2b00      	cmp	r3, #0
 c0029ac:	d024      	beq.n	c0029f8 <HAL_DMA_IRQHandler+0x8e>
    {
      /* Clear the half transfer complete flag */
      hdma->DmaBaseAddress->IFCR = DMA_ISR_HTIF1 << (hdma->ChannelIndex & 0x1CU);
 c0029ae:	687b      	ldr	r3, [r7, #4]
 c0029b0:	6cdb      	ldr	r3, [r3, #76]	; 0x4c
 c0029b2:	f003 021c 	and.w	r2, r3, #28
 c0029b6:	687b      	ldr	r3, [r7, #4]
 c0029b8:	6c9b      	ldr	r3, [r3, #72]	; 0x48
 c0029ba:	2104      	movs	r1, #4
 c0029bc:	fa01 f202 	lsl.w	r2, r1, r2
 c0029c0:	605a      	str	r2, [r3, #4]

      /* Current memory buffer used is Memory 0 */
      if((hdma->Instance->CCR & DMA_CCR_CT) == 0U)
 c0029c2:	687b      	ldr	r3, [r7, #4]
 c0029c4:	681b      	ldr	r3, [r3, #0]
 c0029c6:	681b      	ldr	r3, [r3, #0]
 c0029c8:	f403 3380 	and.w	r3, r3, #65536	; 0x10000
 c0029cc:	2b00      	cmp	r3, #0
 c0029ce:	d109      	bne.n	c0029e4 <HAL_DMA_IRQHandler+0x7a>
      {
        if(hdma->XferHalfCpltCallback != NULL)
 c0029d0:	687b      	ldr	r3, [r7, #4]
 c0029d2:	6b1b      	ldr	r3, [r3, #48]	; 0x30
 c0029d4:	2b00      	cmp	r3, #0
 c0029d6:	f000 80c0 	beq.w	c002b5a <HAL_DMA_IRQHandler+0x1f0>
        {
          /* Half transfer callback */
          hdma->XferHalfCpltCallback(hdma);
 c0029da:	687b      	ldr	r3, [r7, #4]
 c0029dc:	6b1b      	ldr	r3, [r3, #48]	; 0x30
 c0029de:	6878      	ldr	r0, [r7, #4]
 c0029e0:	4798      	blx	r3
    if(((hdma->Instance->CCR) & (uint32_t)(DMA_CCR_DBM)) != 0U)
 c0029e2:	e0ba      	b.n	c002b5a <HAL_DMA_IRQHandler+0x1f0>
        }
      }
      /* Current memory buffer used is Memory 1 */
      else
      {
        if(hdma->XferM1HalfCpltCallback != NULL)
 c0029e4:	687b      	ldr	r3, [r7, #4]
 c0029e6:	6b9b      	ldr	r3, [r3, #56]	; 0x38
 c0029e8:	2b00      	cmp	r3, #0
 c0029ea:	f000 80b6 	beq.w	c002b5a <HAL_DMA_IRQHandler+0x1f0>
        {
          /* Half transfer callback */
          hdma->XferM1HalfCpltCallback(hdma);
 c0029ee:	687b      	ldr	r3, [r7, #4]
 c0029f0:	6b9b      	ldr	r3, [r3, #56]	; 0x38
 c0029f2:	6878      	ldr	r0, [r7, #4]
 c0029f4:	4798      	blx	r3
    if(((hdma->Instance->CCR) & (uint32_t)(DMA_CCR_DBM)) != 0U)
 c0029f6:	e0b0      	b.n	c002b5a <HAL_DMA_IRQHandler+0x1f0>
      }
    }
    else
    {
      /* Disable the half transfer interrupt if the DMA mode is not CIRCULAR */
      if((hdma->Instance->CCR & DMA_CCR_CIRC) == 0U)
 c0029f8:	687b      	ldr	r3, [r7, #4]
 c0029fa:	681b      	ldr	r3, [r3, #0]
 c0029fc:	681b      	ldr	r3, [r3, #0]
 c0029fe:	f003 0320 	and.w	r3, r3, #32
 c002a02:	2b00      	cmp	r3, #0
 c002a04:	d107      	bne.n	c002a16 <HAL_DMA_IRQHandler+0xac>
      {
        /* Disable the half transfer interrupt */
        __HAL_DMA_DISABLE_IT(hdma, DMA_IT_HT);
 c002a06:	687b      	ldr	r3, [r7, #4]
 c002a08:	681b      	ldr	r3, [r3, #0]
 c002a0a:	681a      	ldr	r2, [r3, #0]
 c002a0c:	687b      	ldr	r3, [r7, #4]
 c002a0e:	681b      	ldr	r3, [r3, #0]
 c002a10:	f022 0204 	bic.w	r2, r2, #4
 c002a14:	601a      	str	r2, [r3, #0]
      }
      /* Clear the half transfer complete flag */
      hdma->DmaBaseAddress->IFCR = DMA_ISR_HTIF1 << (hdma->ChannelIndex & 0x1CU);
 c002a16:	687b      	ldr	r3, [r7, #4]
 c002a18:	6cdb      	ldr	r3, [r3, #76]	; 0x4c
 c002a1a:	f003 021c 	and.w	r2, r3, #28
 c002a1e:	687b      	ldr	r3, [r7, #4]
 c002a20:	6c9b      	ldr	r3, [r3, #72]	; 0x48
 c002a22:	2104      	movs	r1, #4
 c002a24:	fa01 f202 	lsl.w	r2, r1, r2
 c002a28:	605a      	str	r2, [r3, #4]

      /* DMA peripheral state is not updated in Half Transfer */
      /* but in Transfer Complete case */

      if(hdma->XferHalfCpltCallback != NULL)
 c002a2a:	687b      	ldr	r3, [r7, #4]
 c002a2c:	6b1b      	ldr	r3, [r3, #48]	; 0x30
 c002a2e:	2b00      	cmp	r3, #0
 c002a30:	f000 8093 	beq.w	c002b5a <HAL_DMA_IRQHandler+0x1f0>
      {
        /* Half transfer callback */
        hdma->XferHalfCpltCallback(hdma);
 c002a34:	687b      	ldr	r3, [r7, #4]
 c002a36:	6b1b      	ldr	r3, [r3, #48]	; 0x30
 c002a38:	6878      	ldr	r0, [r7, #4]
 c002a3a:	4798      	blx	r3
    if(((hdma->Instance->CCR) & (uint32_t)(DMA_CCR_DBM)) != 0U)
 c002a3c:	e08d      	b.n	c002b5a <HAL_DMA_IRQHandler+0x1f0>
      }
    }
  }

  /* Transfer Complete Interrupt management ***********************************/
  else if (((flag_it & (DMA_FLAG_TC1 << (hdma->ChannelIndex & 0x1CU))) != 0U) && ((source_it & DMA_IT_TC) != 0U))
 c002a3e:	687b      	ldr	r3, [r7, #4]
 c002a40:	6cdb      	ldr	r3, [r3, #76]	; 0x4c
 c002a42:	f003 031c 	and.w	r3, r3, #28
 c002a46:	2202      	movs	r2, #2
 c002a48:	409a      	lsls	r2, r3
 c002a4a:	68fb      	ldr	r3, [r7, #12]
 c002a4c:	4013      	ands	r3, r2
 c002a4e:	2b00      	cmp	r3, #0
 c002a50:	d04e      	beq.n	c002af0 <HAL_DMA_IRQHandler+0x186>
 c002a52:	68bb      	ldr	r3, [r7, #8]
 c002a54:	f003 0302 	and.w	r3, r3, #2
 c002a58:	2b00      	cmp	r3, #0
 c002a5a:	d049      	beq.n	c002af0 <HAL_DMA_IRQHandler+0x186>
  {
    if(((hdma->Instance->CCR) & (uint32_t)(DMA_CCR_DBM)) != 0U)
 c002a5c:	687b      	ldr	r3, [r7, #4]
 c002a5e:	681b      	ldr	r3, [r3, #0]
 c002a60:	681b      	ldr	r3, [r3, #0]
 c002a62:	f403 4300 	and.w	r3, r3, #32768	; 0x8000
 c002a66:	2b00      	cmp	r3, #0
 c002a68:	d018      	beq.n	c002a9c <HAL_DMA_IRQHandler+0x132>
    {
      /* Current memory buffer used is Memory 0 */
      if((hdma->Instance->CCR & DMA_CCR_CT) == 0U)
 c002a6a:	687b      	ldr	r3, [r7, #4]
 c002a6c:	681b      	ldr	r3, [r3, #0]
 c002a6e:	681b      	ldr	r3, [r3, #0]
 c002a70:	f403 3380 	and.w	r3, r3, #65536	; 0x10000
 c002a74:	2b00      	cmp	r3, #0
 c002a76:	d108      	bne.n	c002a8a <HAL_DMA_IRQHandler+0x120>
      {
        if(hdma->XferM1CpltCallback != NULL)
 c002a78:	687b      	ldr	r3, [r7, #4]
 c002a7a:	6b5b      	ldr	r3, [r3, #52]	; 0x34
 c002a7c:	2b00      	cmp	r3, #0
 c002a7e:	d06e      	beq.n	c002b5e <HAL_DMA_IRQHandler+0x1f4>
        {
          /* Transfer complete Callback for memory1 */
          hdma->XferM1CpltCallback(hdma);
 c002a80:	687b      	ldr	r3, [r7, #4]
 c002a82:	6b5b      	ldr	r3, [r3, #52]	; 0x34
 c002a84:	6878      	ldr	r0, [r7, #4]
 c002a86:	4798      	blx	r3
    if(((hdma->Instance->CCR) & (uint32_t)(DMA_CCR_DBM)) != 0U)
 c002a88:	e069      	b.n	c002b5e <HAL_DMA_IRQHandler+0x1f4>
        }
      }
      /* Current memory buffer used is Memory 1 */
      else
      {
        if(hdma->XferCpltCallback != NULL)
 c002a8a:	687b      	ldr	r3, [r7, #4]
 c002a8c:	6adb      	ldr	r3, [r3, #44]	; 0x2c
 c002a8e:	2b00      	cmp	r3, #0
 c002a90:	d065      	beq.n	c002b5e <HAL_DMA_IRQHandler+0x1f4>
        {
          /* Transfer complete Callback for memory0 */
          hdma->XferCpltCallback(hdma);
 c002a92:	687b      	ldr	r3, [r7, #4]
 c002a94:	6adb      	ldr	r3, [r3, #44]	; 0x2c
 c002a96:	6878      	ldr	r0, [r7, #4]
 c002a98:	4798      	blx	r3
    if(((hdma->Instance->CCR) & (uint32_t)(DMA_CCR_DBM)) != 0U)
 c002a9a:	e060      	b.n	c002b5e <HAL_DMA_IRQHandler+0x1f4>
        }
      }
    }
    else
    {
      if((hdma->Instance->CCR & DMA_CCR_CIRC) == 0U)
 c002a9c:	687b      	ldr	r3, [r7, #4]
 c002a9e:	681b      	ldr	r3, [r3, #0]
 c002aa0:	681b      	ldr	r3, [r3, #0]
 c002aa2:	f003 0320 	and.w	r3, r3, #32
 c002aa6:	2b00      	cmp	r3, #0
 c002aa8:	d10b      	bne.n	c002ac2 <HAL_DMA_IRQHandler+0x158>
      {
        /* Disable the transfer complete interrupt if the DMA mode is not CIRCULAR */
        /* Disable the transfer complete and error interrupt */
        /* if the DMA mode is not CIRCULAR  */
        __HAL_DMA_DISABLE_IT(hdma, DMA_IT_TE | DMA_IT_TC);
 c002aaa:	687b      	ldr	r3, [r7, #4]
 c002aac:	681b      	ldr	r3, [r3, #0]
 c002aae:	681a      	ldr	r2, [r3, #0]
 c002ab0:	687b      	ldr	r3, [r7, #4]
 c002ab2:	681b      	ldr	r3, [r3, #0]
 c002ab4:	f022 020a 	bic.w	r2, r2, #10
 c002ab8:	601a      	str	r2, [r3, #0]

        /* Change the DMA state */
        hdma->State = HAL_DMA_STATE_READY;
 c002aba:	687b      	ldr	r3, [r7, #4]
 c002abc:	2201      	movs	r2, #1
 c002abe:	f883 2025 	strb.w	r2, [r3, #37]	; 0x25
      }
      /* Clear the transfer complete flag */
      hdma->DmaBaseAddress->IFCR = (DMA_ISR_TCIF1 << (hdma->ChannelIndex & 0x1CU));
 c002ac2:	687b      	ldr	r3, [r7, #4]
 c002ac4:	6cdb      	ldr	r3, [r3, #76]	; 0x4c
 c002ac6:	f003 021c 	and.w	r2, r3, #28
 c002aca:	687b      	ldr	r3, [r7, #4]
 c002acc:	6c9b      	ldr	r3, [r3, #72]	; 0x48
 c002ace:	2102      	movs	r1, #2
 c002ad0:	fa01 f202 	lsl.w	r2, r1, r2
 c002ad4:	605a      	str	r2, [r3, #4]

      /* Process Unlocked */
      __HAL_UNLOCK(hdma);
 c002ad6:	687b      	ldr	r3, [r7, #4]
 c002ad8:	2200      	movs	r2, #0
 c002ada:	f883 2024 	strb.w	r2, [r3, #36]	; 0x24

      if(hdma->XferCpltCallback != NULL)
 c002ade:	687b      	ldr	r3, [r7, #4]
 c002ae0:	6adb      	ldr	r3, [r3, #44]	; 0x2c
 c002ae2:	2b00      	cmp	r3, #0
 c002ae4:	d03b      	beq.n	c002b5e <HAL_DMA_IRQHandler+0x1f4>
      {
        /* Transfer complete callback */
        hdma->XferCpltCallback(hdma);
 c002ae6:	687b      	ldr	r3, [r7, #4]
 c002ae8:	6adb      	ldr	r3, [r3, #44]	; 0x2c
 c002aea:	6878      	ldr	r0, [r7, #4]
 c002aec:	4798      	blx	r3
    if(((hdma->Instance->CCR) & (uint32_t)(DMA_CCR_DBM)) != 0U)
 c002aee:	e036      	b.n	c002b5e <HAL_DMA_IRQHandler+0x1f4>
      }
    }
  }

  /* Transfer Error Interrupt management **************************************/
  else if (((flag_it & (DMA_FLAG_TE1 << (hdma->ChannelIndex & 0x1CU))) != 0U) && ((source_it & DMA_IT_TE) !=  0U))
 c002af0:	687b      	ldr	r3, [r7, #4]
 c002af2:	6cdb      	ldr	r3, [r3, #76]	; 0x4c
 c002af4:	f003 031c 	and.w	r3, r3, #28
 c002af8:	2208      	movs	r2, #8
 c002afa:	409a      	lsls	r2, r3
 c002afc:	68fb      	ldr	r3, [r7, #12]
 c002afe:	4013      	ands	r3, r2
 c002b00:	2b00      	cmp	r3, #0
 c002b02:	d02e      	beq.n	c002b62 <HAL_DMA_IRQHandler+0x1f8>
 c002b04:	68bb      	ldr	r3, [r7, #8]
 c002b06:	f003 0308 	and.w	r3, r3, #8
 c002b0a:	2b00      	cmp	r3, #0
 c002b0c:	d029      	beq.n	c002b62 <HAL_DMA_IRQHandler+0x1f8>
  {
    /* When a DMA transfer error occurs */
    /* A hardware clear of its EN bits is performed */
    /* Disable ALL DMA IT */
    __HAL_DMA_DISABLE_IT(hdma, (DMA_IT_TC | DMA_IT_HT | DMA_IT_TE));
 c002b0e:	687b      	ldr	r3, [r7, #4]
 c002b10:	681b      	ldr	r3, [r3, #0]
 c002b12:	681a      	ldr	r2, [r3, #0]
 c002b14:	687b      	ldr	r3, [r7, #4]
 c002b16:	681b      	ldr	r3, [r3, #0]
 c002b18:	f022 020e 	bic.w	r2, r2, #14
 c002b1c:	601a      	str	r2, [r3, #0]

    /* Clear all flags */
    hdma->DmaBaseAddress->IFCR = (DMA_ISR_GIF1 << (hdma->ChannelIndex & 0x1CU));
 c002b1e:	687b      	ldr	r3, [r7, #4]
 c002b20:	6cdb      	ldr	r3, [r3, #76]	; 0x4c
 c002b22:	f003 021c 	and.w	r2, r3, #28
 c002b26:	687b      	ldr	r3, [r7, #4]
 c002b28:	6c9b      	ldr	r3, [r3, #72]	; 0x48
 c002b2a:	2101      	movs	r1, #1
 c002b2c:	fa01 f202 	lsl.w	r2, r1, r2
 c002b30:	605a      	str	r2, [r3, #4]

    /* Update error code */
    hdma->ErrorCode = HAL_DMA_ERROR_TE;
 c002b32:	687b      	ldr	r3, [r7, #4]
 c002b34:	2201      	movs	r2, #1
 c002b36:	645a      	str	r2, [r3, #68]	; 0x44

    /* Change the DMA state */
    hdma->State = HAL_DMA_STATE_READY;
 c002b38:	687b      	ldr	r3, [r7, #4]
 c002b3a:	2201      	movs	r2, #1
 c002b3c:	f883 2025 	strb.w	r2, [r3, #37]	; 0x25

    /* Process Unlocked */
    __HAL_UNLOCK(hdma);
 c002b40:	687b      	ldr	r3, [r7, #4]
 c002b42:	2200      	movs	r2, #0
 c002b44:	f883 2024 	strb.w	r2, [r3, #36]	; 0x24

    if (hdma->XferErrorCallback != NULL)
 c002b48:	687b      	ldr	r3, [r7, #4]
 c002b4a:	6bdb      	ldr	r3, [r3, #60]	; 0x3c
 c002b4c:	2b00      	cmp	r3, #0
 c002b4e:	d008      	beq.n	c002b62 <HAL_DMA_IRQHandler+0x1f8>
    {
      /* Transfer error callback */
      hdma->XferErrorCallback(hdma);
 c002b50:	687b      	ldr	r3, [r7, #4]
 c002b52:	6bdb      	ldr	r3, [r3, #60]	; 0x3c
 c002b54:	6878      	ldr	r0, [r7, #4]
 c002b56:	4798      	blx	r3
  }
  else
  {
    /* Nothing To Do */
  }
  return;
 c002b58:	e002      	b.n	c002b60 <HAL_DMA_IRQHandler+0x1f6>
    if(((hdma->Instance->CCR) & (uint32_t)(DMA_CCR_DBM)) != 0U)
 c002b5a:	bf00      	nop
 c002b5c:	e000      	b.n	c002b60 <HAL_DMA_IRQHandler+0x1f6>
    if(((hdma->Instance->CCR) & (uint32_t)(DMA_CCR_DBM)) != 0U)
 c002b5e:	bf00      	nop
  return;
 c002b60:	bf00      	nop
 c002b62:	bf00      	nop
}
 c002b64:	3710      	adds	r7, #16
 c002b66:	46bd      	mov	sp, r7
 c002b68:	bd80      	pop	{r7, pc}
	...

0c002b6c <HAL_DMA_RegisterCallback>:
  * @param  pCallback            pointer to private callbacsk function which has pointer to
  *                               a DMA_HandleTypeDef structure as parameter.
  * @retval HAL status
  */
HAL_StatusTypeDef HAL_DMA_RegisterCallback(DMA_HandleTypeDef *hdma, HAL_DMA_CallbackIDTypeDef CallbackID, void (* pCallback)( DMA_HandleTypeDef * _hdma))
{
 c002b6c:	b480      	push	{r7}
 c002b6e:	b087      	sub	sp, #28
 c002b70:	af00      	add	r7, sp, #0
 c002b72:	60f8      	str	r0, [r7, #12]
 c002b74:	460b      	mov	r3, r1
 c002b76:	607a      	str	r2, [r7, #4]
 c002b78:	72fb      	strb	r3, [r7, #11]
  HAL_StatusTypeDef status = HAL_OK;
 c002b7a:	2300      	movs	r3, #0
 c002b7c:	75fb      	strb	r3, [r7, #23]

  /* Process locked */
  __HAL_LOCK(hdma);
 c002b7e:	68fb      	ldr	r3, [r7, #12]
 c002b80:	f893 3024 	ldrb.w	r3, [r3, #36]	; 0x24
 c002b84:	2b01      	cmp	r3, #1
 c002b86:	d101      	bne.n	c002b8c <HAL_DMA_RegisterCallback+0x20>
 c002b88:	2302      	movs	r3, #2
 c002b8a:	e03d      	b.n	c002c08 <HAL_DMA_RegisterCallback+0x9c>
 c002b8c:	68fb      	ldr	r3, [r7, #12]
 c002b8e:	2201      	movs	r2, #1
 c002b90:	f883 2024 	strb.w	r2, [r3, #36]	; 0x24

  if(HAL_DMA_STATE_READY == hdma->State)
 c002b94:	68fb      	ldr	r3, [r7, #12]
 c002b96:	f893 3025 	ldrb.w	r3, [r3, #37]	; 0x25
 c002b9a:	b2db      	uxtb	r3, r3
 c002b9c:	2b01      	cmp	r3, #1
 c002b9e:	d12c      	bne.n	c002bfa <HAL_DMA_RegisterCallback+0x8e>
  {
    switch (CallbackID)
 c002ba0:	7afb      	ldrb	r3, [r7, #11]
 c002ba2:	2b05      	cmp	r3, #5
 c002ba4:	d826      	bhi.n	c002bf4 <HAL_DMA_RegisterCallback+0x88>
 c002ba6:	a201      	add	r2, pc, #4	; (adr r2, c002bac <HAL_DMA_RegisterCallback+0x40>)
 c002ba8:	f852 f023 	ldr.w	pc, [r2, r3, lsl #2]
 c002bac:	0c002bc5 	.word	0x0c002bc5
 c002bb0:	0c002bcd 	.word	0x0c002bcd
 c002bb4:	0c002bd5 	.word	0x0c002bd5
 c002bb8:	0c002bdd 	.word	0x0c002bdd
 c002bbc:	0c002be5 	.word	0x0c002be5
 c002bc0:	0c002bed 	.word	0x0c002bed
    {
     case  HAL_DMA_XFER_CPLT_CB_ID:
           hdma->XferCpltCallback = pCallback;
 c002bc4:	68fb      	ldr	r3, [r7, #12]
 c002bc6:	687a      	ldr	r2, [r7, #4]
 c002bc8:	62da      	str	r2, [r3, #44]	; 0x2c
           break;
 c002bca:	e018      	b.n	c002bfe <HAL_DMA_RegisterCallback+0x92>

     case  HAL_DMA_XFER_HALFCPLT_CB_ID:
           hdma->XferHalfCpltCallback = pCallback;
 c002bcc:	68fb      	ldr	r3, [r7, #12]
 c002bce:	687a      	ldr	r2, [r7, #4]
 c002bd0:	631a      	str	r2, [r3, #48]	; 0x30
           break;
 c002bd2:	e014      	b.n	c002bfe <HAL_DMA_RegisterCallback+0x92>

     case  HAL_DMA_XFER_M1CPLT_CB_ID:
           hdma->XferM1CpltCallback = pCallback;
 c002bd4:	68fb      	ldr	r3, [r7, #12]
 c002bd6:	687a      	ldr	r2, [r7, #4]
 c002bd8:	635a      	str	r2, [r3, #52]	; 0x34
           break;
 c002bda:	e010      	b.n	c002bfe <HAL_DMA_RegisterCallback+0x92>

     case  HAL_DMA_XFER_M1HALFCPLT_CB_ID:
           hdma->XferM1HalfCpltCallback = pCallback;
 c002bdc:	68fb      	ldr	r3, [r7, #12]
 c002bde:	687a      	ldr	r2, [r7, #4]
 c002be0:	639a      	str	r2, [r3, #56]	; 0x38
           break;
 c002be2:	e00c      	b.n	c002bfe <HAL_DMA_RegisterCallback+0x92>

     case  HAL_DMA_XFER_ERROR_CB_ID:
           hdma->XferErrorCallback = pCallback;
 c002be4:	68fb      	ldr	r3, [r7, #12]
 c002be6:	687a      	ldr	r2, [r7, #4]
 c002be8:	63da      	str	r2, [r3, #60]	; 0x3c
           break;
 c002bea:	e008      	b.n	c002bfe <HAL_DMA_RegisterCallback+0x92>

     case  HAL_DMA_XFER_ABORT_CB_ID:
           hdma->XferAbortCallback = pCallback;
 c002bec:	68fb      	ldr	r3, [r7, #12]
 c002bee:	687a      	ldr	r2, [r7, #4]
 c002bf0:	641a      	str	r2, [r3, #64]	; 0x40
           break;
 c002bf2:	e004      	b.n	c002bfe <HAL_DMA_RegisterCallback+0x92>

     default:
           status = HAL_ERROR;
 c002bf4:	2301      	movs	r3, #1
 c002bf6:	75fb      	strb	r3, [r7, #23]
           break;
 c002bf8:	e001      	b.n	c002bfe <HAL_DMA_RegisterCallback+0x92>
    }
  }
  else
  {
    status = HAL_ERROR;
 c002bfa:	2301      	movs	r3, #1
 c002bfc:	75fb      	strb	r3, [r7, #23]
  }

  /* Release Lock */
  __HAL_UNLOCK(hdma);
 c002bfe:	68fb      	ldr	r3, [r7, #12]
 c002c00:	2200      	movs	r2, #0
 c002c02:	f883 2024 	strb.w	r2, [r3, #36]	; 0x24

  return status;
 c002c06:	7dfb      	ldrb	r3, [r7, #23]
}
 c002c08:	4618      	mov	r0, r3
 c002c0a:	371c      	adds	r7, #28
 c002c0c:	46bd      	mov	sp, r7
 c002c0e:	f85d 7b04 	ldr.w	r7, [sp], #4
 c002c12:	4770      	bx	lr

0c002c14 <HAL_DMA_ConfigChannelAttributes>:
  * @param  ChannelAttributes specifies the DMA channel secure/privilege attributes.
  *         This parameter can be a one or a combination of @ref DMA_Channel_Attributes
  * @retval HAL Status
  */
HAL_StatusTypeDef HAL_DMA_ConfigChannelAttributes(DMA_HandleTypeDef *hdma, uint32_t ChannelAttributes)
{
 c002c14:	b480      	push	{r7}
 c002c16:	b087      	sub	sp, #28
 c002c18:	af00      	add	r7, sp, #0
 c002c1a:	6078      	str	r0, [r7, #4]
 c002c1c:	6039      	str	r1, [r7, #0]
  HAL_StatusTypeDef status = HAL_OK;
 c002c1e:	2300      	movs	r3, #0
 c002c20:	75fb      	strb	r3, [r7, #23]
#if defined (__ARM_FEATURE_CMSE) && (__ARM_FEATURE_CMSE == 3U)
  uint32_t ccr_SECM;
#endif
  
  /* Check the DMA peripheral handle */
  if(hdma == NULL)
 c002c22:	687b      	ldr	r3, [r7, #4]
 c002c24:	2b00      	cmp	r3, #0
 c002c26:	d103      	bne.n	c002c30 <HAL_DMA_ConfigChannelAttributes+0x1c>
  {
    status = HAL_ERROR;
 c002c28:	2301      	movs	r3, #1
 c002c2a:	75fb      	strb	r3, [r7, #23]
    return status;
 c002c2c:	7dfb      	ldrb	r3, [r7, #23]
 c002c2e:	e073      	b.n	c002d18 <HAL_DMA_ConfigChannelAttributes+0x104>

  /* Check the parameters */
  assert_param(IS_DMA_ATTRIBUTES(ChannelAttributes));

  /* Read CCR register */
  ccr = READ_REG(hdma->Instance->CCR);
 c002c30:	687b      	ldr	r3, [r7, #4]
 c002c32:	681b      	ldr	r3, [r3, #0]
 c002c34:	681b      	ldr	r3, [r3, #0]
 c002c36:	613b      	str	r3, [r7, #16]

  /* Apply any requested privilege/non-privilege attributes */
  if ((ChannelAttributes & DMA_CHANNEL_ATTR_PRIV_MASK) != 0U)
 c002c38:	683b      	ldr	r3, [r7, #0]
 c002c3a:	f003 0310 	and.w	r3, r3, #16
 c002c3e:	2b00      	cmp	r3, #0
 c002c40:	d00d      	beq.n	c002c5e <HAL_DMA_ConfigChannelAttributes+0x4a>
  {
    if((ChannelAttributes & DMA_CCR_PRIV) != 0U)
 c002c42:	683b      	ldr	r3, [r7, #0]
 c002c44:	f403 1380 	and.w	r3, r3, #1048576	; 0x100000
 c002c48:	2b00      	cmp	r3, #0
 c002c4a:	d004      	beq.n	c002c56 <HAL_DMA_ConfigChannelAttributes+0x42>
    {
      SET_BIT(ccr, DMA_CCR_PRIV);
 c002c4c:	693b      	ldr	r3, [r7, #16]
 c002c4e:	f443 1380 	orr.w	r3, r3, #1048576	; 0x100000
 c002c52:	613b      	str	r3, [r7, #16]
 c002c54:	e003      	b.n	c002c5e <HAL_DMA_ConfigChannelAttributes+0x4a>
    }
    else
    {
      CLEAR_BIT(ccr, DMA_CCR_PRIV);
 c002c56:	693b      	ldr	r3, [r7, #16]
 c002c58:	f423 1380 	bic.w	r3, r3, #1048576	; 0x100000
 c002c5c:	613b      	str	r3, [r7, #16]
  }

#if defined (__ARM_FEATURE_CMSE) && (__ARM_FEATURE_CMSE == 3U)
  /* Channel */
  /* Check what is the current SECM status */
  if ((hdma->Instance->CCR & DMA_CCR_SECM) == DMA_CCR_SECM)
 c002c5e:	687b      	ldr	r3, [r7, #4]
 c002c60:	681b      	ldr	r3, [r3, #0]
 c002c62:	681b      	ldr	r3, [r3, #0]
 c002c64:	f403 3300 	and.w	r3, r3, #131072	; 0x20000
 c002c68:	f5b3 3f00 	cmp.w	r3, #131072	; 0x20000
 c002c6c:	d103      	bne.n	c002c76 <HAL_DMA_ConfigChannelAttributes+0x62>
  {
    /* Channel is currently secure */
    ccr_SECM = DMA_CCR_SECM;
 c002c6e:	f44f 3300 	mov.w	r3, #131072	; 0x20000
 c002c72:	60fb      	str	r3, [r7, #12]
 c002c74:	e001      	b.n	c002c7a <HAL_DMA_ConfigChannelAttributes+0x66>
  }
  else
  {
    /* Channel is currently non-secure */
    ccr_SECM = 0U;
 c002c76:	2300      	movs	r3, #0
 c002c78:	60fb      	str	r3, [r7, #12]
  }

  if((ChannelAttributes & DMA_CHANNEL_ATTR_SEC_MASK) != 0U)
 c002c7a:	683b      	ldr	r3, [r7, #0]
 c002c7c:	f003 0302 	and.w	r3, r3, #2
 c002c80:	2b00      	cmp	r3, #0
 c002c82:	d012      	beq.n	c002caa <HAL_DMA_ConfigChannelAttributes+0x96>
  {
    if((ChannelAttributes & DMA_CCR_SECM) != 0U)
 c002c84:	683b      	ldr	r3, [r7, #0]
 c002c86:	f403 3300 	and.w	r3, r3, #131072	; 0x20000
 c002c8a:	2b00      	cmp	r3, #0
 c002c8c:	d007      	beq.n	c002c9e <HAL_DMA_ConfigChannelAttributes+0x8a>
    {
      SET_BIT(ccr, DMA_CCR_SECM);
 c002c8e:	693b      	ldr	r3, [r7, #16]
 c002c90:	f443 3300 	orr.w	r3, r3, #131072	; 0x20000
 c002c94:	613b      	str	r3, [r7, #16]
      /* Channel changed to secure */
      ccr_SECM = DMA_CCR_SECM;
 c002c96:	f44f 3300 	mov.w	r3, #131072	; 0x20000
 c002c9a:	60fb      	str	r3, [r7, #12]
 c002c9c:	e005      	b.n	c002caa <HAL_DMA_ConfigChannelAttributes+0x96>
    }
    else
    {
      CLEAR_BIT(ccr, DMA_CCR_SECM);
 c002c9e:	693b      	ldr	r3, [r7, #16]
 c002ca0:	f423 3300 	bic.w	r3, r3, #131072	; 0x20000
 c002ca4:	613b      	str	r3, [r7, #16]
      /* Channel changed to non-secure */
      ccr_SECM = 0U;
 c002ca6:	2300      	movs	r3, #0
 c002ca8:	60fb      	str	r3, [r7, #12]
    }
  }

  /* Channel source */
  if((ChannelAttributes & DMA_CHANNEL_ATTR_SEC_SRC_MASK) != 0U)
 c002caa:	683b      	ldr	r3, [r7, #0]
 c002cac:	f003 0304 	and.w	r3, r3, #4
 c002cb0:	2b00      	cmp	r3, #0
 c002cb2:	d013      	beq.n	c002cdc <HAL_DMA_ConfigChannelAttributes+0xc8>
  {
    /* Configure Source security attributes */
    if ((ChannelAttributes & DMA_CCR_SSEC) != 0x0U)
 c002cb4:	683b      	ldr	r3, [r7, #0]
 c002cb6:	f403 2380 	and.w	r3, r3, #262144	; 0x40000
 c002cba:	2b00      	cmp	r3, #0
 c002cbc:	d00a      	beq.n	c002cd4 <HAL_DMA_ConfigChannelAttributes+0xc0>
    {
      /* SSEC can only be set if channel is secure */
      /* Otherwise configuration is not taken into account */
      if (ccr_SECM == 0U)
 c002cbe:	68fb      	ldr	r3, [r7, #12]
 c002cc0:	2b00      	cmp	r3, #0
 c002cc2:	d102      	bne.n	c002cca <HAL_DMA_ConfigChannelAttributes+0xb6>
      {
        /* DSEC can not be secure */
        /* Source channel is non secure */
         status = HAL_ERROR;
 c002cc4:	2301      	movs	r3, #1
 c002cc6:	75fb      	strb	r3, [r7, #23]
 c002cc8:	e008      	b.n	c002cdc <HAL_DMA_ConfigChannelAttributes+0xc8>
      }
      else
      {
        SET_BIT(ccr, DMA_CCR_SSEC);
 c002cca:	693b      	ldr	r3, [r7, #16]
 c002ccc:	f443 2380 	orr.w	r3, r3, #262144	; 0x40000
 c002cd0:	613b      	str	r3, [r7, #16]
 c002cd2:	e003      	b.n	c002cdc <HAL_DMA_ConfigChannelAttributes+0xc8>
      }
    }
    else
    {
      CLEAR_BIT(ccr, DMA_CCR_SSEC);
 c002cd4:	693b      	ldr	r3, [r7, #16]
 c002cd6:	f423 2380 	bic.w	r3, r3, #262144	; 0x40000
 c002cda:	613b      	str	r3, [r7, #16]
    }
  }

  /* Channel destination */
  if((ChannelAttributes & DMA_CHANNEL_ATTR_SEC_DEST_MASK) != 0U)
 c002cdc:	683b      	ldr	r3, [r7, #0]
 c002cde:	f003 0308 	and.w	r3, r3, #8
 c002ce2:	2b00      	cmp	r3, #0
 c002ce4:	d013      	beq.n	c002d0e <HAL_DMA_ConfigChannelAttributes+0xfa>
  {
    /* Configure Destination security attributes */
    if((ChannelAttributes & DMA_CCR_DSEC) != 0U)
 c002ce6:	683b      	ldr	r3, [r7, #0]
 c002ce8:	f403 2300 	and.w	r3, r3, #524288	; 0x80000
 c002cec:	2b00      	cmp	r3, #0
 c002cee:	d00a      	beq.n	c002d06 <HAL_DMA_ConfigChannelAttributes+0xf2>
    {
      if (ccr_SECM == 0U)
 c002cf0:	68fb      	ldr	r3, [r7, #12]
 c002cf2:	2b00      	cmp	r3, #0
 c002cf4:	d102      	bne.n	c002cfc <HAL_DMA_ConfigChannelAttributes+0xe8>
      {
        /* DSEC can only be set if channel is secure */
        /* Destination channel is non secure */
         status = HAL_ERROR;
 c002cf6:	2301      	movs	r3, #1
 c002cf8:	75fb      	strb	r3, [r7, #23]
 c002cfa:	e008      	b.n	c002d0e <HAL_DMA_ConfigChannelAttributes+0xfa>
      }
      else
      {
        SET_BIT(ccr, DMA_CCR_DSEC);
 c002cfc:	693b      	ldr	r3, [r7, #16]
 c002cfe:	f443 2300 	orr.w	r3, r3, #524288	; 0x80000
 c002d02:	613b      	str	r3, [r7, #16]
 c002d04:	e003      	b.n	c002d0e <HAL_DMA_ConfigChannelAttributes+0xfa>
      }
    }
    else
    {
      CLEAR_BIT(ccr, DMA_CCR_DSEC);
 c002d06:	693b      	ldr	r3, [r7, #16]
 c002d08:	f423 2300 	bic.w	r3, r3, #524288	; 0x80000
 c002d0c:	613b      	str	r3, [r7, #16]
  }

#endif /* __ARM_FEATURE_CMSE */

  /* Update CCR Register: PRIV, SECM, SCEC, DSEC bits */
  WRITE_REG(hdma->Instance->CCR, ccr);
 c002d0e:	687b      	ldr	r3, [r7, #4]
 c002d10:	681b      	ldr	r3, [r3, #0]
 c002d12:	693a      	ldr	r2, [r7, #16]
 c002d14:	601a      	str	r2, [r3, #0]

  return status;
 c002d16:	7dfb      	ldrb	r3, [r7, #23]
}
 c002d18:	4618      	mov	r0, r3
 c002d1a:	371c      	adds	r7, #28
 c002d1c:	46bd      	mov	sp, r7
 c002d1e:	f85d 7b04 	ldr.w	r7, [sp], #4
 c002d22:	4770      	bx	lr

0c002d24 <DMA_SetConfig>:
  * @param  DstAddress The destination memory Buffer address
  * @param  DataLength The length of data to be transferred from source to destination
  * @retval HAL status
  */
static void DMA_SetConfig(DMA_HandleTypeDef *hdma, uint32_t SrcAddress, uint32_t DstAddress, uint32_t DataLength)
{
 c002d24:	b480      	push	{r7}
 c002d26:	b085      	sub	sp, #20
 c002d28:	af00      	add	r7, sp, #0
 c002d2a:	60f8      	str	r0, [r7, #12]
 c002d2c:	60b9      	str	r1, [r7, #8]
 c002d2e:	607a      	str	r2, [r7, #4]
 c002d30:	603b      	str	r3, [r7, #0]
  /* Clear the DMAMUX synchro overrun flag */
  hdma->DMAmuxChannelStatus->CFR = hdma->DMAmuxChannelStatusMask;
 c002d32:	68fb      	ldr	r3, [r7, #12]
 c002d34:	6d5b      	ldr	r3, [r3, #84]	; 0x54
 c002d36:	68fa      	ldr	r2, [r7, #12]
 c002d38:	6d92      	ldr	r2, [r2, #88]	; 0x58
 c002d3a:	605a      	str	r2, [r3, #4]

  if(hdma->DMAmuxRequestGen != 0U)
 c002d3c:	68fb      	ldr	r3, [r7, #12]
 c002d3e:	6ddb      	ldr	r3, [r3, #92]	; 0x5c
 c002d40:	2b00      	cmp	r3, #0
 c002d42:	d004      	beq.n	c002d4e <DMA_SetConfig+0x2a>
  {
    /* Clear the DMAMUX request generator overrun flag */
    hdma->DMAmuxRequestGenStatus->RGCFR = hdma->DMAmuxRequestGenStatusMask;
 c002d44:	68fb      	ldr	r3, [r7, #12]
 c002d46:	6e1b      	ldr	r3, [r3, #96]	; 0x60
 c002d48:	68fa      	ldr	r2, [r7, #12]
 c002d4a:	6e52      	ldr	r2, [r2, #100]	; 0x64
 c002d4c:	605a      	str	r2, [r3, #4]
  }

  /* Clear all flags */
  hdma->DmaBaseAddress->IFCR = (DMA_ISR_GIF1 << (hdma->ChannelIndex & 0x1CU));
 c002d4e:	68fb      	ldr	r3, [r7, #12]
 c002d50:	6cdb      	ldr	r3, [r3, #76]	; 0x4c
 c002d52:	f003 021c 	and.w	r2, r3, #28
 c002d56:	68fb      	ldr	r3, [r7, #12]
 c002d58:	6c9b      	ldr	r3, [r3, #72]	; 0x48
 c002d5a:	2101      	movs	r1, #1
 c002d5c:	fa01 f202 	lsl.w	r2, r1, r2
 c002d60:	605a      	str	r2, [r3, #4]

  /* Configure DMA Channel data length */
  hdma->Instance->CNDTR = DataLength;
 c002d62:	68fb      	ldr	r3, [r7, #12]
 c002d64:	681b      	ldr	r3, [r3, #0]
 c002d66:	683a      	ldr	r2, [r7, #0]
 c002d68:	605a      	str	r2, [r3, #4]

  /* Memory to Peripheral */
  if((hdma->Init.Direction) == DMA_MEMORY_TO_PERIPH)
 c002d6a:	68fb      	ldr	r3, [r7, #12]
 c002d6c:	689b      	ldr	r3, [r3, #8]
 c002d6e:	2b10      	cmp	r3, #16
 c002d70:	d108      	bne.n	c002d84 <DMA_SetConfig+0x60>
  {
    /* Configure DMA Channel destination address */
    hdma->Instance->CPAR = DstAddress;
 c002d72:	68fb      	ldr	r3, [r7, #12]
 c002d74:	681b      	ldr	r3, [r3, #0]
 c002d76:	687a      	ldr	r2, [r7, #4]
 c002d78:	609a      	str	r2, [r3, #8]

    /* Configure DMA Channel source address */
    hdma->Instance->CM0AR = SrcAddress;
 c002d7a:	68fb      	ldr	r3, [r7, #12]
 c002d7c:	681b      	ldr	r3, [r3, #0]
 c002d7e:	68ba      	ldr	r2, [r7, #8]
 c002d80:	60da      	str	r2, [r3, #12]
    hdma->Instance->CPAR = SrcAddress;

    /* Configure DMA Channel destination address */
    hdma->Instance->CM0AR = DstAddress;
  }
}
 c002d82:	e007      	b.n	c002d94 <DMA_SetConfig+0x70>
    hdma->Instance->CPAR = SrcAddress;
 c002d84:	68fb      	ldr	r3, [r7, #12]
 c002d86:	681b      	ldr	r3, [r3, #0]
 c002d88:	68ba      	ldr	r2, [r7, #8]
 c002d8a:	609a      	str	r2, [r3, #8]
    hdma->Instance->CM0AR = DstAddress;
 c002d8c:	68fb      	ldr	r3, [r7, #12]
 c002d8e:	681b      	ldr	r3, [r3, #0]
 c002d90:	687a      	ldr	r2, [r7, #4]
 c002d92:	60da      	str	r2, [r3, #12]
}
 c002d94:	bf00      	nop
 c002d96:	3714      	adds	r7, #20
 c002d98:	46bd      	mov	sp, r7
 c002d9a:	f85d 7b04 	ldr.w	r7, [sp], #4
 c002d9e:	4770      	bx	lr

0c002da0 <DMA_CalcDMAMUXChannelBaseAndMask>:
  * @param  hdma        pointer to a DMA_HandleTypeDef structure that contains
  *                     the configuration information for the specified DMA Channel.
  * @retval None
  */
static void DMA_CalcDMAMUXChannelBaseAndMask(DMA_HandleTypeDef *hdma)
{
 c002da0:	b480      	push	{r7}
 c002da2:	b085      	sub	sp, #20
 c002da4:	af00      	add	r7, sp, #0
 c002da6:	6078      	str	r0, [r7, #4]
  uint32_t channel_number;

  /* check if instance is not outside the DMA channel range */
  if ((uint32_t)hdma->Instance < (uint32_t)DMA2_Channel1)
 c002da8:	687b      	ldr	r3, [r7, #4]
 c002daa:	681b      	ldr	r3, [r3, #0]
 c002dac:	461a      	mov	r2, r3
 c002dae:	4b17      	ldr	r3, [pc, #92]	; (c002e0c <DMA_CalcDMAMUXChannelBaseAndMask+0x6c>)
 c002db0:	429a      	cmp	r2, r3
 c002db2:	d80a      	bhi.n	c002dca <DMA_CalcDMAMUXChannelBaseAndMask+0x2a>
  {
    /* DMA1 */
    hdma->DMAmuxChannel = (DMAMUX1_Channel0 + (hdma->ChannelIndex >> 2U));
 c002db4:	687b      	ldr	r3, [r7, #4]
 c002db6:	6cdb      	ldr	r3, [r3, #76]	; 0x4c
 c002db8:	089b      	lsrs	r3, r3, #2
 c002dba:	009b      	lsls	r3, r3, #2
 c002dbc:	f103 43a0 	add.w	r3, r3, #1342177280	; 0x50000000
 c002dc0:	f503 3302 	add.w	r3, r3, #133120	; 0x20800
 c002dc4:	687a      	ldr	r2, [r7, #4]
 c002dc6:	6513      	str	r3, [r2, #80]	; 0x50
 c002dc8:	e007      	b.n	c002dda <DMA_CalcDMAMUXChannelBaseAndMask+0x3a>
  }
  else
  {
    /* DMA2 */
    hdma->DMAmuxChannel = (DMAMUX1_Channel8 + (hdma->ChannelIndex >> 2U));
 c002dca:	687b      	ldr	r3, [r7, #4]
 c002dcc:	6cdb      	ldr	r3, [r3, #76]	; 0x4c
 c002dce:	089b      	lsrs	r3, r3, #2
 c002dd0:	009a      	lsls	r2, r3, #2
 c002dd2:	4b0f      	ldr	r3, [pc, #60]	; (c002e10 <DMA_CalcDMAMUXChannelBaseAndMask+0x70>)
 c002dd4:	4413      	add	r3, r2
 c002dd6:	687a      	ldr	r2, [r7, #4]
 c002dd8:	6513      	str	r3, [r2, #80]	; 0x50
  }

  channel_number = (((uint32_t)hdma->Instance & 0xFFU) - 8U) / 20U;
 c002dda:	687b      	ldr	r3, [r7, #4]
 c002ddc:	681b      	ldr	r3, [r3, #0]
 c002dde:	b2db      	uxtb	r3, r3
 c002de0:	3b08      	subs	r3, #8
 c002de2:	4a0c      	ldr	r2, [pc, #48]	; (c002e14 <DMA_CalcDMAMUXChannelBaseAndMask+0x74>)
 c002de4:	fba2 2303 	umull	r2, r3, r2, r3
 c002de8:	091b      	lsrs	r3, r3, #4
 c002dea:	60fb      	str	r3, [r7, #12]
  hdma->DMAmuxChannelStatus = DMAMUX1_ChannelStatus;
 c002dec:	687b      	ldr	r3, [r7, #4]
 c002dee:	4a0a      	ldr	r2, [pc, #40]	; (c002e18 <DMA_CalcDMAMUXChannelBaseAndMask+0x78>)
 c002df0:	655a      	str	r2, [r3, #84]	; 0x54
  hdma->DMAmuxChannelStatusMask = 1UL << (channel_number & 0x1FU);
 c002df2:	68fb      	ldr	r3, [r7, #12]
 c002df4:	f003 031f 	and.w	r3, r3, #31
 c002df8:	2201      	movs	r2, #1
 c002dfa:	409a      	lsls	r2, r3
 c002dfc:	687b      	ldr	r3, [r7, #4]
 c002dfe:	659a      	str	r2, [r3, #88]	; 0x58
}
 c002e00:	bf00      	nop
 c002e02:	3714      	adds	r7, #20
 c002e04:	46bd      	mov	sp, r7
 c002e06:	f85d 7b04 	ldr.w	r7, [sp], #4
 c002e0a:	4770      	bx	lr
 c002e0c:	50020407 	.word	0x50020407
 c002e10:	50020820 	.word	0x50020820
 c002e14:	cccccccd 	.word	0xcccccccd
 c002e18:	50020880 	.word	0x50020880

0c002e1c <DMA_CalcDMAMUXRequestGenBaseAndMask>:
  *                     the configuration information for the specified DMA Channel.
  * @retval None
  */

static void DMA_CalcDMAMUXRequestGenBaseAndMask(DMA_HandleTypeDef *hdma)
{
 c002e1c:	b480      	push	{r7}
 c002e1e:	b085      	sub	sp, #20
 c002e20:	af00      	add	r7, sp, #0
 c002e22:	6078      	str	r0, [r7, #4]
  uint32_t request =  hdma->Init.Request & DMAMUX_CxCR_DMAREQ_ID;
 c002e24:	687b      	ldr	r3, [r7, #4]
 c002e26:	685b      	ldr	r3, [r3, #4]
 c002e28:	b2db      	uxtb	r3, r3
 c002e2a:	60fb      	str	r3, [r7, #12]

  /* DMA Channels are connected to DMAMUX1 request generator blocks*/
  hdma->DMAmuxRequestGen = (DMAMUX_RequestGen_TypeDef *)((uint32_t)(((uint32_t)DMAMUX1_RequestGenerator0) + ((request - 1U) * 4U)));
 c002e2c:	68fa      	ldr	r2, [r7, #12]
 c002e2e:	4b0b      	ldr	r3, [pc, #44]	; (c002e5c <DMA_CalcDMAMUXRequestGenBaseAndMask+0x40>)
 c002e30:	4413      	add	r3, r2
 c002e32:	009b      	lsls	r3, r3, #2
 c002e34:	461a      	mov	r2, r3
 c002e36:	687b      	ldr	r3, [r7, #4]
 c002e38:	65da      	str	r2, [r3, #92]	; 0x5c

  hdma->DMAmuxRequestGenStatus = DMAMUX1_RequestGenStatus;
 c002e3a:	687b      	ldr	r3, [r7, #4]
 c002e3c:	4a08      	ldr	r2, [pc, #32]	; (c002e60 <DMA_CalcDMAMUXRequestGenBaseAndMask+0x44>)
 c002e3e:	661a      	str	r2, [r3, #96]	; 0x60

  /* here "Request" is either DMA_REQUEST_GENERATOR0 to DMA_REQUEST_GENERATOR3, i.e. <= 4*/
  hdma->DMAmuxRequestGenStatusMask = 1UL << ((request - 1U) & 0x3U);
 c002e40:	68fb      	ldr	r3, [r7, #12]
 c002e42:	3b01      	subs	r3, #1
 c002e44:	f003 0303 	and.w	r3, r3, #3
 c002e48:	2201      	movs	r2, #1
 c002e4a:	409a      	lsls	r2, r3
 c002e4c:	687b      	ldr	r3, [r7, #4]
 c002e4e:	665a      	str	r2, [r3, #100]	; 0x64
}
 c002e50:	bf00      	nop
 c002e52:	3714      	adds	r7, #20
 c002e54:	46bd      	mov	sp, r7
 c002e56:	f85d 7b04 	ldr.w	r7, [sp], #4
 c002e5a:	4770      	bx	lr
 c002e5c:	1400823f 	.word	0x1400823f
 c002e60:	50020940 	.word	0x50020940

0c002e64 <HAL_GPIO_Init>:
  * @param  GPIO_Init pointer to a GPIO_InitTypeDef structure that contains
  *         the configuration information for the specified GPIO peripheral.
  * @retval None
  */
void HAL_GPIO_Init(GPIO_TypeDef  *GPIOx, GPIO_InitTypeDef *GPIO_Init)
{
 c002e64:	b480      	push	{r7}
 c002e66:	b087      	sub	sp, #28
 c002e68:	af00      	add	r7, sp, #0
 c002e6a:	6078      	str	r0, [r7, #4]
 c002e6c:	6039      	str	r1, [r7, #0]
  uint32_t position = 0U;
 c002e6e:	2300      	movs	r3, #0
 c002e70:	617b      	str	r3, [r7, #20]
  assert_param(IS_GPIO_ALL_INSTANCE(GPIOx));
  assert_param(IS_GPIO_PIN(GPIO_Init->Pin));
  assert_param(IS_GPIO_MODE(GPIO_Init->Mode));

  /* Configure the port pins */
  while (((GPIO_Init->Pin) >> position) != 0U)
 c002e72:	e158      	b.n	c003126 <HAL_GPIO_Init+0x2c2>
  {
    /* Get current io position */
    iocurrent = (GPIO_Init->Pin) & (1UL << position);
 c002e74:	683b      	ldr	r3, [r7, #0]
 c002e76:	681a      	ldr	r2, [r3, #0]
 c002e78:	2101      	movs	r1, #1
 c002e7a:	697b      	ldr	r3, [r7, #20]
 c002e7c:	fa01 f303 	lsl.w	r3, r1, r3
 c002e80:	4013      	ands	r3, r2
 c002e82:	60fb      	str	r3, [r7, #12]

    if (iocurrent != 0U)
 c002e84:	68fb      	ldr	r3, [r7, #12]
 c002e86:	2b00      	cmp	r3, #0
 c002e88:	f000 814a 	beq.w	c003120 <HAL_GPIO_Init+0x2bc>
    {
      /*--------------------- GPIO Mode Configuration ------------------------*/
      /* In case of Output or Alternate function mode selection */
      if (((GPIO_Init->Mode & GPIO_MODE) == MODE_OUTPUT) || ((GPIO_Init->Mode & GPIO_MODE) == MODE_AF))
 c002e8c:	683b      	ldr	r3, [r7, #0]
 c002e8e:	685b      	ldr	r3, [r3, #4]
 c002e90:	f003 0303 	and.w	r3, r3, #3
 c002e94:	2b01      	cmp	r3, #1
 c002e96:	d005      	beq.n	c002ea4 <HAL_GPIO_Init+0x40>
 c002e98:	683b      	ldr	r3, [r7, #0]
 c002e9a:	685b      	ldr	r3, [r3, #4]
 c002e9c:	f003 0303 	and.w	r3, r3, #3
 c002ea0:	2b02      	cmp	r3, #2
 c002ea2:	d130      	bne.n	c002f06 <HAL_GPIO_Init+0xa2>
      {
        /* Check the Speed parameter */
        assert_param(IS_GPIO_SPEED(GPIO_Init->Speed));

        /* Configure the IO Speed */
        temp = GPIOx->OSPEEDR;
 c002ea4:	687b      	ldr	r3, [r7, #4]
 c002ea6:	689b      	ldr	r3, [r3, #8]
 c002ea8:	613b      	str	r3, [r7, #16]
        temp &= ~(GPIO_OSPEEDR_OSPEED0 << (position * 2U));
 c002eaa:	697b      	ldr	r3, [r7, #20]
 c002eac:	005b      	lsls	r3, r3, #1
 c002eae:	2203      	movs	r2, #3
 c002eb0:	fa02 f303 	lsl.w	r3, r2, r3
 c002eb4:	43db      	mvns	r3, r3
 c002eb6:	693a      	ldr	r2, [r7, #16]
 c002eb8:	4013      	ands	r3, r2
 c002eba:	613b      	str	r3, [r7, #16]
        temp |= (GPIO_Init->Speed << (position * 2U));
 c002ebc:	683b      	ldr	r3, [r7, #0]
 c002ebe:	68da      	ldr	r2, [r3, #12]
 c002ec0:	697b      	ldr	r3, [r7, #20]
 c002ec2:	005b      	lsls	r3, r3, #1
 c002ec4:	fa02 f303 	lsl.w	r3, r2, r3
 c002ec8:	693a      	ldr	r2, [r7, #16]
 c002eca:	4313      	orrs	r3, r2
 c002ecc:	613b      	str	r3, [r7, #16]
        GPIOx->OSPEEDR = temp;
 c002ece:	687b      	ldr	r3, [r7, #4]
 c002ed0:	693a      	ldr	r2, [r7, #16]
 c002ed2:	609a      	str	r2, [r3, #8]

        /* Configure the IO Output Type */
        temp = GPIOx->OTYPER;
 c002ed4:	687b      	ldr	r3, [r7, #4]
 c002ed6:	685b      	ldr	r3, [r3, #4]
 c002ed8:	613b      	str	r3, [r7, #16]
        temp &= ~(GPIO_OTYPER_OT0 << position) ;
 c002eda:	2201      	movs	r2, #1
 c002edc:	697b      	ldr	r3, [r7, #20]
 c002ede:	fa02 f303 	lsl.w	r3, r2, r3
 c002ee2:	43db      	mvns	r3, r3
 c002ee4:	693a      	ldr	r2, [r7, #16]
 c002ee6:	4013      	ands	r3, r2
 c002ee8:	613b      	str	r3, [r7, #16]
        temp |= (((GPIO_Init->Mode & OUTPUT_TYPE) >> OUTPUT_TYPE_Pos) << position);
 c002eea:	683b      	ldr	r3, [r7, #0]
 c002eec:	685b      	ldr	r3, [r3, #4]
 c002eee:	091b      	lsrs	r3, r3, #4
 c002ef0:	f003 0201 	and.w	r2, r3, #1
 c002ef4:	697b      	ldr	r3, [r7, #20]
 c002ef6:	fa02 f303 	lsl.w	r3, r2, r3
 c002efa:	693a      	ldr	r2, [r7, #16]
 c002efc:	4313      	orrs	r3, r2
 c002efe:	613b      	str	r3, [r7, #16]
        GPIOx->OTYPER = temp;
 c002f00:	687b      	ldr	r3, [r7, #4]
 c002f02:	693a      	ldr	r2, [r7, #16]
 c002f04:	605a      	str	r2, [r3, #4]
      }

      /* Activate the Pull-up or Pull down resistor for the current IO */
      if ((GPIO_Init->Mode & GPIO_MODE) != MODE_ANALOG)
 c002f06:	683b      	ldr	r3, [r7, #0]
 c002f08:	685b      	ldr	r3, [r3, #4]
 c002f0a:	f003 0303 	and.w	r3, r3, #3
 c002f0e:	2b03      	cmp	r3, #3
 c002f10:	d017      	beq.n	c002f42 <HAL_GPIO_Init+0xde>
      {
        /* Check the Pull parameter */
        assert_param(IS_GPIO_PULL(GPIO_Init->Pull));

        temp = GPIOx->PUPDR;
 c002f12:	687b      	ldr	r3, [r7, #4]
 c002f14:	68db      	ldr	r3, [r3, #12]
 c002f16:	613b      	str	r3, [r7, #16]
        temp &= ~(GPIO_PUPDR_PUPD0 << (position * 2U));
 c002f18:	697b      	ldr	r3, [r7, #20]
 c002f1a:	005b      	lsls	r3, r3, #1
 c002f1c:	2203      	movs	r2, #3
 c002f1e:	fa02 f303 	lsl.w	r3, r2, r3
 c002f22:	43db      	mvns	r3, r3
 c002f24:	693a      	ldr	r2, [r7, #16]
 c002f26:	4013      	ands	r3, r2
 c002f28:	613b      	str	r3, [r7, #16]
        temp |= ((GPIO_Init->Pull) << (position * 2U));
 c002f2a:	683b      	ldr	r3, [r7, #0]
 c002f2c:	689a      	ldr	r2, [r3, #8]
 c002f2e:	697b      	ldr	r3, [r7, #20]
 c002f30:	005b      	lsls	r3, r3, #1
 c002f32:	fa02 f303 	lsl.w	r3, r2, r3
 c002f36:	693a      	ldr	r2, [r7, #16]
 c002f38:	4313      	orrs	r3, r2
 c002f3a:	613b      	str	r3, [r7, #16]
        GPIOx->PUPDR = temp;
 c002f3c:	687b      	ldr	r3, [r7, #4]
 c002f3e:	693a      	ldr	r2, [r7, #16]
 c002f40:	60da      	str	r2, [r3, #12]
      }

      /* In case of Alternate function mode selection */
      if ((GPIO_Init->Mode & GPIO_MODE) == MODE_AF)
 c002f42:	683b      	ldr	r3, [r7, #0]
 c002f44:	685b      	ldr	r3, [r3, #4]
 c002f46:	f003 0303 	and.w	r3, r3, #3
 c002f4a:	2b02      	cmp	r3, #2
 c002f4c:	d123      	bne.n	c002f96 <HAL_GPIO_Init+0x132>
        /* Check the Alternate function parameters */
        assert_param(IS_GPIO_AF_INSTANCE(GPIOx));
        assert_param(IS_GPIO_AF(GPIO_Init->Alternate));

        /* Configure Alternate function mapped with the current IO */
        temp = GPIOx->AFR[position >> 3U];
 c002f4e:	697b      	ldr	r3, [r7, #20]
 c002f50:	08da      	lsrs	r2, r3, #3
 c002f52:	687b      	ldr	r3, [r7, #4]
 c002f54:	3208      	adds	r2, #8
 c002f56:	f853 3022 	ldr.w	r3, [r3, r2, lsl #2]
 c002f5a:	613b      	str	r3, [r7, #16]
        temp &= ~(0x0FUL << ((position & 0x07U) * 4U)) ;
 c002f5c:	697b      	ldr	r3, [r7, #20]
 c002f5e:	f003 0307 	and.w	r3, r3, #7
 c002f62:	009b      	lsls	r3, r3, #2
 c002f64:	220f      	movs	r2, #15
 c002f66:	fa02 f303 	lsl.w	r3, r2, r3
 c002f6a:	43db      	mvns	r3, r3
 c002f6c:	693a      	ldr	r2, [r7, #16]
 c002f6e:	4013      	ands	r3, r2
 c002f70:	613b      	str	r3, [r7, #16]
        temp |= ((GPIO_Init->Alternate) << ((position & 0x07U) * 4U));
 c002f72:	683b      	ldr	r3, [r7, #0]
 c002f74:	691a      	ldr	r2, [r3, #16]
 c002f76:	697b      	ldr	r3, [r7, #20]
 c002f78:	f003 0307 	and.w	r3, r3, #7
 c002f7c:	009b      	lsls	r3, r3, #2
 c002f7e:	fa02 f303 	lsl.w	r3, r2, r3
 c002f82:	693a      	ldr	r2, [r7, #16]
 c002f84:	4313      	orrs	r3, r2
 c002f86:	613b      	str	r3, [r7, #16]
        GPIOx->AFR[position >> 3U] = temp;
 c002f88:	697b      	ldr	r3, [r7, #20]
 c002f8a:	08da      	lsrs	r2, r3, #3
 c002f8c:	687b      	ldr	r3, [r7, #4]
 c002f8e:	3208      	adds	r2, #8
 c002f90:	6939      	ldr	r1, [r7, #16]
 c002f92:	f843 1022 	str.w	r1, [r3, r2, lsl #2]
      }

      /* Configure IO Direction mode (Input, Output, Alternate or Analog) */
      temp = GPIOx->MODER;
 c002f96:	687b      	ldr	r3, [r7, #4]
 c002f98:	681b      	ldr	r3, [r3, #0]
 c002f9a:	613b      	str	r3, [r7, #16]
      temp &= ~(GPIO_MODER_MODE0 << (position * 2U));
 c002f9c:	697b      	ldr	r3, [r7, #20]
 c002f9e:	005b      	lsls	r3, r3, #1
 c002fa0:	2203      	movs	r2, #3
 c002fa2:	fa02 f303 	lsl.w	r3, r2, r3
 c002fa6:	43db      	mvns	r3, r3
 c002fa8:	693a      	ldr	r2, [r7, #16]
 c002faa:	4013      	ands	r3, r2
 c002fac:	613b      	str	r3, [r7, #16]
      temp |= ((GPIO_Init->Mode & GPIO_MODE) << (position * 2U));
 c002fae:	683b      	ldr	r3, [r7, #0]
 c002fb0:	685b      	ldr	r3, [r3, #4]
 c002fb2:	f003 0203 	and.w	r2, r3, #3
 c002fb6:	697b      	ldr	r3, [r7, #20]
 c002fb8:	005b      	lsls	r3, r3, #1
 c002fba:	fa02 f303 	lsl.w	r3, r2, r3
 c002fbe:	693a      	ldr	r2, [r7, #16]
 c002fc0:	4313      	orrs	r3, r2
 c002fc2:	613b      	str	r3, [r7, #16]
      GPIOx->MODER = temp;
 c002fc4:	687b      	ldr	r3, [r7, #4]
 c002fc6:	693a      	ldr	r2, [r7, #16]
 c002fc8:	601a      	str	r2, [r3, #0]

      /*--------------------- EXTI Mode Configuration ------------------------*/
      /* Configure the External Interrupt or event for the current IO */
      if ((GPIO_Init->Mode & EXTI_MODE) != 0x00u)
 c002fca:	683b      	ldr	r3, [r7, #0]
 c002fcc:	685b      	ldr	r3, [r3, #4]
 c002fce:	f403 3340 	and.w	r3, r3, #196608	; 0x30000
 c002fd2:	2b00      	cmp	r3, #0
 c002fd4:	f000 80a4 	beq.w	c003120 <HAL_GPIO_Init+0x2bc>
      {
        temp = EXTI->EXTICR[position >> 2U];
 c002fd8:	4a5a      	ldr	r2, [pc, #360]	; (c003144 <HAL_GPIO_Init+0x2e0>)
 c002fda:	697b      	ldr	r3, [r7, #20]
 c002fdc:	089b      	lsrs	r3, r3, #2
 c002fde:	3318      	adds	r3, #24
 c002fe0:	f852 3023 	ldr.w	r3, [r2, r3, lsl #2]
 c002fe4:	613b      	str	r3, [r7, #16]
        temp &= ~((0x0FU) << (8U * (position & 0x03U)));
 c002fe6:	697b      	ldr	r3, [r7, #20]
 c002fe8:	f003 0303 	and.w	r3, r3, #3
 c002fec:	00db      	lsls	r3, r3, #3
 c002fee:	220f      	movs	r2, #15
 c002ff0:	fa02 f303 	lsl.w	r3, r2, r3
 c002ff4:	43db      	mvns	r3, r3
 c002ff6:	693a      	ldr	r2, [r7, #16]
 c002ff8:	4013      	ands	r3, r2
 c002ffa:	613b      	str	r3, [r7, #16]
        temp |= (GPIO_GET_INDEX(GPIOx) << (8U * (position & 0x03U)));
 c002ffc:	687b      	ldr	r3, [r7, #4]
 c002ffe:	4a52      	ldr	r2, [pc, #328]	; (c003148 <HAL_GPIO_Init+0x2e4>)
 c003000:	4293      	cmp	r3, r2
 c003002:	d025      	beq.n	c003050 <HAL_GPIO_Init+0x1ec>
 c003004:	687b      	ldr	r3, [r7, #4]
 c003006:	4a51      	ldr	r2, [pc, #324]	; (c00314c <HAL_GPIO_Init+0x2e8>)
 c003008:	4293      	cmp	r3, r2
 c00300a:	d01f      	beq.n	c00304c <HAL_GPIO_Init+0x1e8>
 c00300c:	687b      	ldr	r3, [r7, #4]
 c00300e:	4a50      	ldr	r2, [pc, #320]	; (c003150 <HAL_GPIO_Init+0x2ec>)
 c003010:	4293      	cmp	r3, r2
 c003012:	d019      	beq.n	c003048 <HAL_GPIO_Init+0x1e4>
 c003014:	687b      	ldr	r3, [r7, #4]
 c003016:	4a4f      	ldr	r2, [pc, #316]	; (c003154 <HAL_GPIO_Init+0x2f0>)
 c003018:	4293      	cmp	r3, r2
 c00301a:	d013      	beq.n	c003044 <HAL_GPIO_Init+0x1e0>
 c00301c:	687b      	ldr	r3, [r7, #4]
 c00301e:	4a4e      	ldr	r2, [pc, #312]	; (c003158 <HAL_GPIO_Init+0x2f4>)
 c003020:	4293      	cmp	r3, r2
 c003022:	d00d      	beq.n	c003040 <HAL_GPIO_Init+0x1dc>
 c003024:	687b      	ldr	r3, [r7, #4]
 c003026:	4a4d      	ldr	r2, [pc, #308]	; (c00315c <HAL_GPIO_Init+0x2f8>)
 c003028:	4293      	cmp	r3, r2
 c00302a:	d007      	beq.n	c00303c <HAL_GPIO_Init+0x1d8>
 c00302c:	687b      	ldr	r3, [r7, #4]
 c00302e:	4a4c      	ldr	r2, [pc, #304]	; (c003160 <HAL_GPIO_Init+0x2fc>)
 c003030:	4293      	cmp	r3, r2
 c003032:	d101      	bne.n	c003038 <HAL_GPIO_Init+0x1d4>
 c003034:	2306      	movs	r3, #6
 c003036:	e00c      	b.n	c003052 <HAL_GPIO_Init+0x1ee>
 c003038:	2307      	movs	r3, #7
 c00303a:	e00a      	b.n	c003052 <HAL_GPIO_Init+0x1ee>
 c00303c:	2305      	movs	r3, #5
 c00303e:	e008      	b.n	c003052 <HAL_GPIO_Init+0x1ee>
 c003040:	2304      	movs	r3, #4
 c003042:	e006      	b.n	c003052 <HAL_GPIO_Init+0x1ee>
 c003044:	2303      	movs	r3, #3
 c003046:	e004      	b.n	c003052 <HAL_GPIO_Init+0x1ee>
 c003048:	2302      	movs	r3, #2
 c00304a:	e002      	b.n	c003052 <HAL_GPIO_Init+0x1ee>
 c00304c:	2301      	movs	r3, #1
 c00304e:	e000      	b.n	c003052 <HAL_GPIO_Init+0x1ee>
 c003050:	2300      	movs	r3, #0
 c003052:	697a      	ldr	r2, [r7, #20]
 c003054:	f002 0203 	and.w	r2, r2, #3
 c003058:	00d2      	lsls	r2, r2, #3
 c00305a:	4093      	lsls	r3, r2
 c00305c:	693a      	ldr	r2, [r7, #16]
 c00305e:	4313      	orrs	r3, r2
 c003060:	613b      	str	r3, [r7, #16]
        EXTI->EXTICR[position >> 2U] = temp;
 c003062:	4938      	ldr	r1, [pc, #224]	; (c003144 <HAL_GPIO_Init+0x2e0>)
 c003064:	697b      	ldr	r3, [r7, #20]
 c003066:	089b      	lsrs	r3, r3, #2
 c003068:	3318      	adds	r3, #24
 c00306a:	693a      	ldr	r2, [r7, #16]
 c00306c:	f841 2023 	str.w	r2, [r1, r3, lsl #2]

        /* Clear Rising Falling edge configuration */
        temp = EXTI->RTSR1;
 c003070:	4b34      	ldr	r3, [pc, #208]	; (c003144 <HAL_GPIO_Init+0x2e0>)
 c003072:	681b      	ldr	r3, [r3, #0]
 c003074:	613b      	str	r3, [r7, #16]
        temp &= ~(iocurrent);
 c003076:	68fb      	ldr	r3, [r7, #12]
 c003078:	43db      	mvns	r3, r3
 c00307a:	693a      	ldr	r2, [r7, #16]
 c00307c:	4013      	ands	r3, r2
 c00307e:	613b      	str	r3, [r7, #16]
        if ((GPIO_Init->Mode & TRIGGER_RISING) != 0x00u)
 c003080:	683b      	ldr	r3, [r7, #0]
 c003082:	685b      	ldr	r3, [r3, #4]
 c003084:	f403 1380 	and.w	r3, r3, #1048576	; 0x100000
 c003088:	2b00      	cmp	r3, #0
 c00308a:	d003      	beq.n	c003094 <HAL_GPIO_Init+0x230>
        {
          temp |= iocurrent;
 c00308c:	693a      	ldr	r2, [r7, #16]
 c00308e:	68fb      	ldr	r3, [r7, #12]
 c003090:	4313      	orrs	r3, r2
 c003092:	613b      	str	r3, [r7, #16]
        }
        EXTI->RTSR1 = temp;
 c003094:	4a2b      	ldr	r2, [pc, #172]	; (c003144 <HAL_GPIO_Init+0x2e0>)
 c003096:	693b      	ldr	r3, [r7, #16]
 c003098:	6013      	str	r3, [r2, #0]

        temp = EXTI->FTSR1;
 c00309a:	4b2a      	ldr	r3, [pc, #168]	; (c003144 <HAL_GPIO_Init+0x2e0>)
 c00309c:	685b      	ldr	r3, [r3, #4]
 c00309e:	613b      	str	r3, [r7, #16]
        temp &= ~(iocurrent);
 c0030a0:	68fb      	ldr	r3, [r7, #12]
 c0030a2:	43db      	mvns	r3, r3
 c0030a4:	693a      	ldr	r2, [r7, #16]
 c0030a6:	4013      	ands	r3, r2
 c0030a8:	613b      	str	r3, [r7, #16]
        if ((GPIO_Init->Mode & TRIGGER_FALLING) != 0x00u)
 c0030aa:	683b      	ldr	r3, [r7, #0]
 c0030ac:	685b      	ldr	r3, [r3, #4]
 c0030ae:	f403 1300 	and.w	r3, r3, #2097152	; 0x200000
 c0030b2:	2b00      	cmp	r3, #0
 c0030b4:	d003      	beq.n	c0030be <HAL_GPIO_Init+0x25a>
        {
          temp |= iocurrent;
 c0030b6:	693a      	ldr	r2, [r7, #16]
 c0030b8:	68fb      	ldr	r3, [r7, #12]
 c0030ba:	4313      	orrs	r3, r2
 c0030bc:	613b      	str	r3, [r7, #16]
        }
        EXTI->FTSR1 = temp;
 c0030be:	4a21      	ldr	r2, [pc, #132]	; (c003144 <HAL_GPIO_Init+0x2e0>)
 c0030c0:	693b      	ldr	r3, [r7, #16]
 c0030c2:	6053      	str	r3, [r2, #4]

        /* Clear EXTI line configuration */
        temp = EXTI->EMR1;
 c0030c4:	4b1f      	ldr	r3, [pc, #124]	; (c003144 <HAL_GPIO_Init+0x2e0>)
 c0030c6:	f8d3 3084 	ldr.w	r3, [r3, #132]	; 0x84
 c0030ca:	613b      	str	r3, [r7, #16]
        temp &= ~(iocurrent);
 c0030cc:	68fb      	ldr	r3, [r7, #12]
 c0030ce:	43db      	mvns	r3, r3
 c0030d0:	693a      	ldr	r2, [r7, #16]
 c0030d2:	4013      	ands	r3, r2
 c0030d4:	613b      	str	r3, [r7, #16]
        if ((GPIO_Init->Mode & EXTI_EVT) != 0x00u)
 c0030d6:	683b      	ldr	r3, [r7, #0]
 c0030d8:	685b      	ldr	r3, [r3, #4]
 c0030da:	f403 3300 	and.w	r3, r3, #131072	; 0x20000
 c0030de:	2b00      	cmp	r3, #0
 c0030e0:	d003      	beq.n	c0030ea <HAL_GPIO_Init+0x286>
        {
          temp |= iocurrent;
 c0030e2:	693a      	ldr	r2, [r7, #16]
 c0030e4:	68fb      	ldr	r3, [r7, #12]
 c0030e6:	4313      	orrs	r3, r2
 c0030e8:	613b      	str	r3, [r7, #16]
        }
        EXTI->EMR1 = temp;
 c0030ea:	4a16      	ldr	r2, [pc, #88]	; (c003144 <HAL_GPIO_Init+0x2e0>)
 c0030ec:	693b      	ldr	r3, [r7, #16]
 c0030ee:	f8c2 3084 	str.w	r3, [r2, #132]	; 0x84

        temp = EXTI->IMR1;
 c0030f2:	4b14      	ldr	r3, [pc, #80]	; (c003144 <HAL_GPIO_Init+0x2e0>)
 c0030f4:	f8d3 3080 	ldr.w	r3, [r3, #128]	; 0x80
 c0030f8:	613b      	str	r3, [r7, #16]
        temp &= ~(iocurrent);
 c0030fa:	68fb      	ldr	r3, [r7, #12]
 c0030fc:	43db      	mvns	r3, r3
 c0030fe:	693a      	ldr	r2, [r7, #16]
 c003100:	4013      	ands	r3, r2
 c003102:	613b      	str	r3, [r7, #16]
        if ((GPIO_Init->Mode & EXTI_IT) != 0x00u)
 c003104:	683b      	ldr	r3, [r7, #0]
 c003106:	685b      	ldr	r3, [r3, #4]
 c003108:	f403 3380 	and.w	r3, r3, #65536	; 0x10000
 c00310c:	2b00      	cmp	r3, #0
 c00310e:	d003      	beq.n	c003118 <HAL_GPIO_Init+0x2b4>
        {
          temp |= iocurrent;
 c003110:	693a      	ldr	r2, [r7, #16]
 c003112:	68fb      	ldr	r3, [r7, #12]
 c003114:	4313      	orrs	r3, r2
 c003116:	613b      	str	r3, [r7, #16]
        }
        EXTI->IMR1 = temp;
 c003118:	4a0a      	ldr	r2, [pc, #40]	; (c003144 <HAL_GPIO_Init+0x2e0>)
 c00311a:	693b      	ldr	r3, [r7, #16]
 c00311c:	f8c2 3080 	str.w	r3, [r2, #128]	; 0x80
      }
    }

    position++;
 c003120:	697b      	ldr	r3, [r7, #20]
 c003122:	3301      	adds	r3, #1
 c003124:	617b      	str	r3, [r7, #20]
  while (((GPIO_Init->Pin) >> position) != 0U)
 c003126:	683b      	ldr	r3, [r7, #0]
 c003128:	681a      	ldr	r2, [r3, #0]
 c00312a:	697b      	ldr	r3, [r7, #20]
 c00312c:	fa22 f303 	lsr.w	r3, r2, r3
 c003130:	2b00      	cmp	r3, #0
 c003132:	f47f ae9f 	bne.w	c002e74 <HAL_GPIO_Init+0x10>
  }
}
 c003136:	bf00      	nop
 c003138:	bf00      	nop
 c00313a:	371c      	adds	r7, #28
 c00313c:	46bd      	mov	sp, r7
 c00313e:	f85d 7b04 	ldr.w	r7, [sp], #4
 c003142:	4770      	bx	lr
 c003144:	5002f400 	.word	0x5002f400
 c003148:	52020000 	.word	0x52020000
 c00314c:	52020400 	.word	0x52020400
 c003150:	52020800 	.word	0x52020800
 c003154:	52020c00 	.word	0x52020c00
 c003158:	52021000 	.word	0x52021000
 c00315c:	52021400 	.word	0x52021400
 c003160:	52021800 	.word	0x52021800

0c003164 <HAL_GPIO_WritePin>:
  *            @arg GPIO_PIN_RESET: to clear the port pin
  *            @arg GPIO_PIN_SET: to set the port pin
  * @retval None
  */
void HAL_GPIO_WritePin(GPIO_TypeDef *GPIOx, uint16_t GPIO_Pin, GPIO_PinState PinState)
{
 c003164:	b480      	push	{r7}
 c003166:	b083      	sub	sp, #12
 c003168:	af00      	add	r7, sp, #0
 c00316a:	6078      	str	r0, [r7, #4]
 c00316c:	460b      	mov	r3, r1
 c00316e:	807b      	strh	r3, [r7, #2]
 c003170:	4613      	mov	r3, r2
 c003172:	707b      	strb	r3, [r7, #1]
  /* Check the parameters */
  assert_param(IS_GPIO_PIN(GPIO_Pin));
  assert_param(IS_GPIO_PIN_ACTION(PinState));

  if (PinState != GPIO_PIN_RESET)
 c003174:	787b      	ldrb	r3, [r7, #1]
 c003176:	2b00      	cmp	r3, #0
 c003178:	d003      	beq.n	c003182 <HAL_GPIO_WritePin+0x1e>
  {
    GPIOx->BSRR = (uint32_t)GPIO_Pin;
 c00317a:	887a      	ldrh	r2, [r7, #2]
 c00317c:	687b      	ldr	r3, [r7, #4]
 c00317e:	619a      	str	r2, [r3, #24]
  }
  else
  {
    GPIOx->BRR = (uint32_t)GPIO_Pin;
  }
}
 c003180:	e002      	b.n	c003188 <HAL_GPIO_WritePin+0x24>
    GPIOx->BRR = (uint32_t)GPIO_Pin;
 c003182:	887a      	ldrh	r2, [r7, #2]
 c003184:	687b      	ldr	r3, [r7, #4]
 c003186:	629a      	str	r2, [r3, #40]	; 0x28
}
 c003188:	bf00      	nop
 c00318a:	370c      	adds	r7, #12
 c00318c:	46bd      	mov	sp, r7
 c00318e:	f85d 7b04 	ldr.w	r7, [sp], #4
 c003192:	4770      	bx	lr

0c003194 <HAL_GPIO_ConfigPinAttributes>:
  * @param  GPIO_Pin specifies the pin(s) to configure the secure attribute
  * @param  PinAttributes specifies the pin(s) to be set in secure mode, other being set non secured.
  * @retval None
  */
void HAL_GPIO_ConfigPinAttributes(GPIO_TypeDef *GPIOx, uint16_t GPIO_Pin, uint32_t PinAttributes)
{
 c003194:	b480      	push	{r7}
 c003196:	b089      	sub	sp, #36	; 0x24
 c003198:	af00      	add	r7, sp, #0
 c00319a:	60f8      	str	r0, [r7, #12]
 c00319c:	460b      	mov	r3, r1
 c00319e:	607a      	str	r2, [r7, #4]
 c0031a0:	817b      	strh	r3, [r7, #10]
  uint32_t position = 0U;
 c0031a2:	2300      	movs	r3, #0
 c0031a4:	61fb      	str	r3, [r7, #28]
  /* Check the parameters */
  assert_param(IS_GPIO_ALL_INSTANCE(GPIOx));
  assert_param(IS_GPIO_PIN(GPIO_Pin));
  assert_param(IS_GPIO_PIN_ATTRIBUTES(PinAttributes));

  temp = GPIOx->SECCFGR;
 c0031a6:	68fb      	ldr	r3, [r7, #12]
 c0031a8:	6b1b      	ldr	r3, [r3, #48]	; 0x30
 c0031aa:	61bb      	str	r3, [r7, #24]

  /* Configure the port pins */
  while ((GPIO_Pin >> position) != 0U)
 c0031ac:	e01b      	b.n	c0031e6 <HAL_GPIO_ConfigPinAttributes+0x52>
  {
    /* Get current io position */
    iocurrent = GPIO_Pin & (1UL << position);
 c0031ae:	897a      	ldrh	r2, [r7, #10]
 c0031b0:	2101      	movs	r1, #1
 c0031b2:	69fb      	ldr	r3, [r7, #28]
 c0031b4:	fa01 f303 	lsl.w	r3, r1, r3
 c0031b8:	4013      	ands	r3, r2
 c0031ba:	617b      	str	r3, [r7, #20]

    if (iocurrent != 0U)
 c0031bc:	697b      	ldr	r3, [r7, #20]
 c0031be:	2b00      	cmp	r3, #0
 c0031c0:	d00e      	beq.n	c0031e0 <HAL_GPIO_ConfigPinAttributes+0x4c>
    {
      /* Configure the IO secure attribute */
      temp &= ~(GPIO_SECCFGR_SEC0 << position) ;
 c0031c2:	2201      	movs	r2, #1
 c0031c4:	69fb      	ldr	r3, [r7, #28]
 c0031c6:	fa02 f303 	lsl.w	r3, r2, r3
 c0031ca:	43db      	mvns	r3, r3
 c0031cc:	69ba      	ldr	r2, [r7, #24]
 c0031ce:	4013      	ands	r3, r2
 c0031d0:	61bb      	str	r3, [r7, #24]
      temp |= (PinAttributes << position);
 c0031d2:	687a      	ldr	r2, [r7, #4]
 c0031d4:	69fb      	ldr	r3, [r7, #28]
 c0031d6:	fa02 f303 	lsl.w	r3, r2, r3
 c0031da:	69ba      	ldr	r2, [r7, #24]
 c0031dc:	4313      	orrs	r3, r2
 c0031de:	61bb      	str	r3, [r7, #24]
    }
    position++;
 c0031e0:	69fb      	ldr	r3, [r7, #28]
 c0031e2:	3301      	adds	r3, #1
 c0031e4:	61fb      	str	r3, [r7, #28]
  while ((GPIO_Pin >> position) != 0U)
 c0031e6:	897a      	ldrh	r2, [r7, #10]
 c0031e8:	69fb      	ldr	r3, [r7, #28]
 c0031ea:	fa42 f303 	asr.w	r3, r2, r3
 c0031ee:	2b00      	cmp	r3, #0
 c0031f0:	d1dd      	bne.n	c0031ae <HAL_GPIO_ConfigPinAttributes+0x1a>
  }

  /* Set secure attributes */
  GPIOx->SECCFGR = temp;
 c0031f2:	68fb      	ldr	r3, [r7, #12]
 c0031f4:	69ba      	ldr	r2, [r7, #24]
 c0031f6:	631a      	str	r2, [r3, #48]	; 0x30
}
 c0031f8:	bf00      	nop
 c0031fa:	3724      	adds	r7, #36	; 0x24
 c0031fc:	46bd      	mov	sp, r7
 c0031fe:	f85d 7b04 	ldr.w	r7, [sp], #4
 c003202:	4770      	bx	lr

0c003204 <HAL_GTZC_TZSC_ConfigPeriphAttributes>:
  * @param  PeriphAttributes Peripheral attributes, see @ref GTZC_TZSC_PeriphAttributes.
  * @retval HAL status.
  */
HAL_StatusTypeDef HAL_GTZC_TZSC_ConfigPeriphAttributes(uint32_t PeriphId,
                                                       uint32_t PeriphAttributes)
{
 c003204:	b480      	push	{r7}
 c003206:	b085      	sub	sp, #20
 c003208:	af00      	add	r7, sp, #0
 c00320a:	6078      	str	r0, [r7, #4]
 c00320c:	6039      	str	r1, [r7, #0]
  uint32_t register_address;

  /* check entry parameters */
  if ((PeriphAttributes > (GTZC_TZSC_PERIPH_SEC | GTZC_TZSC_PERIPH_PRIV))
 c00320e:	683b      	ldr	r3, [r7, #0]
 c003210:	f5b3 7f41 	cmp.w	r3, #772	; 0x304
 c003214:	d216      	bcs.n	c003244 <HAL_GTZC_TZSC_ConfigPeriphAttributes+0x40>
      || (HAL_GTZC_GET_ARRAY_INDEX(PeriphId) >= GTZC_TZSC_PERIPH_NUMBER)
 c003216:	687b      	ldr	r3, [r7, #4]
 c003218:	0f1b      	lsrs	r3, r3, #28
 c00321a:	015a      	lsls	r2, r3, #5
 c00321c:	687b      	ldr	r3, [r7, #4]
 c00321e:	f003 031f 	and.w	r3, r3, #31
 c003222:	4413      	add	r3, r2
 c003224:	2b32      	cmp	r3, #50	; 0x32
 c003226:	d80d      	bhi.n	c003244 <HAL_GTZC_TZSC_ConfigPeriphAttributes+0x40>
      || (((PeriphId & GTZC_PERIPH_ALL) != 0U) && (HAL_GTZC_GET_ARRAY_INDEX(PeriphId) != 0U)))
 c003228:	687b      	ldr	r3, [r7, #4]
 c00322a:	f003 0320 	and.w	r3, r3, #32
 c00322e:	2b00      	cmp	r3, #0
 c003230:	d00a      	beq.n	c003248 <HAL_GTZC_TZSC_ConfigPeriphAttributes+0x44>
 c003232:	687b      	ldr	r3, [r7, #4]
 c003234:	0f1b      	lsrs	r3, r3, #28
 c003236:	015a      	lsls	r2, r3, #5
 c003238:	687b      	ldr	r3, [r7, #4]
 c00323a:	f003 031f 	and.w	r3, r3, #31
 c00323e:	4413      	add	r3, r2
 c003240:	2b00      	cmp	r3, #0
 c003242:	d001      	beq.n	c003248 <HAL_GTZC_TZSC_ConfigPeriphAttributes+0x44>
  {
    return HAL_ERROR;
 c003244:	2301      	movs	r3, #1
 c003246:	e0a8      	b.n	c00339a <HAL_GTZC_TZSC_ConfigPeriphAttributes+0x196>
  }

  if ((PeriphId & GTZC_PERIPH_ALL) != 0U)
 c003248:	687b      	ldr	r3, [r7, #4]
 c00324a:	f003 0320 	and.w	r3, r3, #32
 c00324e:	2b00      	cmp	r3, #0
 c003250:	d04e      	beq.n	c0032f0 <HAL_GTZC_TZSC_ConfigPeriphAttributes+0xec>
  {
    /* special case where same attributes are applied to all peripherals */

#if defined(__ARM_FEATURE_CMSE) && (__ARM_FEATURE_CMSE == 3U)
    /* secure configuration */
    if ((PeriphAttributes & GTZC_TZSC_PERIPH_SEC) == GTZC_TZSC_PERIPH_SEC)
 c003252:	683a      	ldr	r2, [r7, #0]
 c003254:	f240 1301 	movw	r3, #257	; 0x101
 c003258:	4013      	ands	r3, r2
 c00325a:	f240 1201 	movw	r2, #257	; 0x101
 c00325e:	4293      	cmp	r3, r2
 c003260:	d10e      	bne.n	c003280 <HAL_GTZC_TZSC_ConfigPeriphAttributes+0x7c>
    {
      SET_BIT(GTZC_TZSC->SECCFGR1, TZSC_SECCFGR1_ALL);
 c003262:	4b51      	ldr	r3, [pc, #324]	; (c0033a8 <HAL_GTZC_TZSC_ConfigPeriphAttributes+0x1a4>)
 c003264:	691b      	ldr	r3, [r3, #16]
 c003266:	4b50      	ldr	r3, [pc, #320]	; (c0033a8 <HAL_GTZC_TZSC_ConfigPeriphAttributes+0x1a4>)
 c003268:	f04f 32ff 	mov.w	r2, #4294967295
 c00326c:	611a      	str	r2, [r3, #16]
      SET_BIT(GTZC_TZSC->SECCFGR2, TZSC_SECCFGR2_ALL);
 c00326e:	4b4e      	ldr	r3, [pc, #312]	; (c0033a8 <HAL_GTZC_TZSC_ConfigPeriphAttributes+0x1a4>)
 c003270:	695b      	ldr	r3, [r3, #20]
 c003272:	4a4d      	ldr	r2, [pc, #308]	; (c0033a8 <HAL_GTZC_TZSC_ConfigPeriphAttributes+0x1a4>)
 c003274:	ea6f 43d3 	mvn.w	r3, r3, lsr #19
 c003278:	ea6f 43c3 	mvn.w	r3, r3, lsl #19
 c00327c:	6153      	str	r3, [r2, #20]
 c00327e:	e00f      	b.n	c0032a0 <HAL_GTZC_TZSC_ConfigPeriphAttributes+0x9c>
    }
    else if ((PeriphAttributes & GTZC_TZSC_PERIPH_NSEC) == GTZC_TZSC_PERIPH_NSEC)
 c003280:	683b      	ldr	r3, [r7, #0]
 c003282:	f403 7380 	and.w	r3, r3, #256	; 0x100
 c003286:	2b00      	cmp	r3, #0
 c003288:	d00a      	beq.n	c0032a0 <HAL_GTZC_TZSC_ConfigPeriphAttributes+0x9c>
    {
      CLEAR_BIT(GTZC_TZSC->SECCFGR1, TZSC_SECCFGR1_ALL);
 c00328a:	4b47      	ldr	r3, [pc, #284]	; (c0033a8 <HAL_GTZC_TZSC_ConfigPeriphAttributes+0x1a4>)
 c00328c:	691b      	ldr	r3, [r3, #16]
 c00328e:	4b46      	ldr	r3, [pc, #280]	; (c0033a8 <HAL_GTZC_TZSC_ConfigPeriphAttributes+0x1a4>)
 c003290:	2200      	movs	r2, #0
 c003292:	611a      	str	r2, [r3, #16]
      CLEAR_BIT(GTZC_TZSC->SECCFGR2, TZSC_SECCFGR2_ALL);
 c003294:	4b44      	ldr	r3, [pc, #272]	; (c0033a8 <HAL_GTZC_TZSC_ConfigPeriphAttributes+0x1a4>)
 c003296:	695b      	ldr	r3, [r3, #20]
 c003298:	4a43      	ldr	r2, [pc, #268]	; (c0033a8 <HAL_GTZC_TZSC_ConfigPeriphAttributes+0x1a4>)
 c00329a:	0cdb      	lsrs	r3, r3, #19
 c00329c:	04db      	lsls	r3, r3, #19
 c00329e:	6153      	str	r3, [r2, #20]
      /* do nothing */
    }
#endif /* defined(__ARM_FEATURE_CMSE) && (__ARM_FEATURE_CMSE == 3U) */

    /* privilege configuration */
    if ((PeriphAttributes & GTZC_TZSC_PERIPH_PRIV) == GTZC_TZSC_PERIPH_PRIV)
 c0032a0:	683a      	ldr	r2, [r7, #0]
 c0032a2:	f240 2302 	movw	r3, #514	; 0x202
 c0032a6:	4013      	ands	r3, r2
 c0032a8:	f240 2202 	movw	r2, #514	; 0x202
 c0032ac:	4293      	cmp	r3, r2
 c0032ae:	d10e      	bne.n	c0032ce <HAL_GTZC_TZSC_ConfigPeriphAttributes+0xca>
    {
      SET_BIT(GTZC_TZSC->PRIVCFGR1, TZSC_PRIVCFGR1_ALL);
 c0032b0:	4b3d      	ldr	r3, [pc, #244]	; (c0033a8 <HAL_GTZC_TZSC_ConfigPeriphAttributes+0x1a4>)
 c0032b2:	6a1b      	ldr	r3, [r3, #32]
 c0032b4:	4b3c      	ldr	r3, [pc, #240]	; (c0033a8 <HAL_GTZC_TZSC_ConfigPeriphAttributes+0x1a4>)
 c0032b6:	f04f 32ff 	mov.w	r2, #4294967295
 c0032ba:	621a      	str	r2, [r3, #32]
      SET_BIT(GTZC_TZSC->PRIVCFGR2, TZSC_PRIVCFGR2_ALL);
 c0032bc:	4b3a      	ldr	r3, [pc, #232]	; (c0033a8 <HAL_GTZC_TZSC_ConfigPeriphAttributes+0x1a4>)
 c0032be:	6a5b      	ldr	r3, [r3, #36]	; 0x24
 c0032c0:	4a39      	ldr	r2, [pc, #228]	; (c0033a8 <HAL_GTZC_TZSC_ConfigPeriphAttributes+0x1a4>)
 c0032c2:	ea6f 43d3 	mvn.w	r3, r3, lsr #19
 c0032c6:	ea6f 43c3 	mvn.w	r3, r3, lsl #19
 c0032ca:	6253      	str	r3, [r2, #36]	; 0x24
 c0032cc:	e064      	b.n	c003398 <HAL_GTZC_TZSC_ConfigPeriphAttributes+0x194>
    }
    else if ((PeriphAttributes & GTZC_TZSC_PERIPH_NPRIV) == GTZC_TZSC_PERIPH_NPRIV)
 c0032ce:	683b      	ldr	r3, [r7, #0]
 c0032d0:	f403 7300 	and.w	r3, r3, #512	; 0x200
 c0032d4:	2b00      	cmp	r3, #0
 c0032d6:	d05f      	beq.n	c003398 <HAL_GTZC_TZSC_ConfigPeriphAttributes+0x194>
    {
      CLEAR_BIT(GTZC_TZSC->PRIVCFGR1, TZSC_PRIVCFGR1_ALL);
 c0032d8:	4b33      	ldr	r3, [pc, #204]	; (c0033a8 <HAL_GTZC_TZSC_ConfigPeriphAttributes+0x1a4>)
 c0032da:	6a1b      	ldr	r3, [r3, #32]
 c0032dc:	4b32      	ldr	r3, [pc, #200]	; (c0033a8 <HAL_GTZC_TZSC_ConfigPeriphAttributes+0x1a4>)
 c0032de:	2200      	movs	r2, #0
 c0032e0:	621a      	str	r2, [r3, #32]
      CLEAR_BIT(GTZC_TZSC->PRIVCFGR2, TZSC_PRIVCFGR2_ALL);
 c0032e2:	4b31      	ldr	r3, [pc, #196]	; (c0033a8 <HAL_GTZC_TZSC_ConfigPeriphAttributes+0x1a4>)
 c0032e4:	6a5b      	ldr	r3, [r3, #36]	; 0x24
 c0032e6:	4a30      	ldr	r2, [pc, #192]	; (c0033a8 <HAL_GTZC_TZSC_ConfigPeriphAttributes+0x1a4>)
 c0032e8:	0cdb      	lsrs	r3, r3, #19
 c0032ea:	04db      	lsls	r3, r3, #19
 c0032ec:	6253      	str	r3, [r2, #36]	; 0x24
 c0032ee:	e053      	b.n	c003398 <HAL_GTZC_TZSC_ConfigPeriphAttributes+0x194>
  {
    /* common case where only one peripheral is configured */

#if defined(__ARM_FEATURE_CMSE) && (__ARM_FEATURE_CMSE == 3U)
    /* secure configuration */
    register_address = (uint32_t) &(GTZC_TZSC->SECCFGR1) + (4U * GTZC_GET_REG_INDEX(PeriphId));
 c0032f0:	687b      	ldr	r3, [r7, #4]
 c0032f2:	0f1a      	lsrs	r2, r3, #28
 c0032f4:	4b2d      	ldr	r3, [pc, #180]	; (c0033ac <HAL_GTZC_TZSC_ConfigPeriphAttributes+0x1a8>)
 c0032f6:	4413      	add	r3, r2
 c0032f8:	009b      	lsls	r3, r3, #2
 c0032fa:	60fb      	str	r3, [r7, #12]
    if ((PeriphAttributes & GTZC_TZSC_PERIPH_SEC) == GTZC_TZSC_PERIPH_SEC)
 c0032fc:	683a      	ldr	r2, [r7, #0]
 c0032fe:	f240 1301 	movw	r3, #257	; 0x101
 c003302:	4013      	ands	r3, r2
 c003304:	f240 1201 	movw	r2, #257	; 0x101
 c003308:	4293      	cmp	r3, r2
 c00330a:	d10a      	bne.n	c003322 <HAL_GTZC_TZSC_ConfigPeriphAttributes+0x11e>
    {
      SET_BIT(*(__IO uint32_t *)register_address, 1UL << GTZC_GET_PERIPH_POS(PeriphId));
 c00330c:	68fb      	ldr	r3, [r7, #12]
 c00330e:	6819      	ldr	r1, [r3, #0]
 c003310:	687b      	ldr	r3, [r7, #4]
 c003312:	f003 031f 	and.w	r3, r3, #31
 c003316:	2201      	movs	r2, #1
 c003318:	409a      	lsls	r2, r3
 c00331a:	68fb      	ldr	r3, [r7, #12]
 c00331c:	430a      	orrs	r2, r1
 c00331e:	601a      	str	r2, [r3, #0]
 c003320:	e010      	b.n	c003344 <HAL_GTZC_TZSC_ConfigPeriphAttributes+0x140>
    }
    else if ((PeriphAttributes & GTZC_TZSC_PERIPH_NSEC) == GTZC_TZSC_PERIPH_NSEC)
 c003322:	683b      	ldr	r3, [r7, #0]
 c003324:	f403 7380 	and.w	r3, r3, #256	; 0x100
 c003328:	2b00      	cmp	r3, #0
 c00332a:	d00b      	beq.n	c003344 <HAL_GTZC_TZSC_ConfigPeriphAttributes+0x140>
    {
      CLEAR_BIT(*(__IO uint32_t *)register_address, 1UL << GTZC_GET_PERIPH_POS(PeriphId));
 c00332c:	68fb      	ldr	r3, [r7, #12]
 c00332e:	6819      	ldr	r1, [r3, #0]
 c003330:	687b      	ldr	r3, [r7, #4]
 c003332:	f003 031f 	and.w	r3, r3, #31
 c003336:	2201      	movs	r2, #1
 c003338:	fa02 f303 	lsl.w	r3, r2, r3
 c00333c:	43da      	mvns	r2, r3
 c00333e:	68fb      	ldr	r3, [r7, #12]
 c003340:	400a      	ands	r2, r1
 c003342:	601a      	str	r2, [r3, #0]
      /* do nothing */
    }
#endif /* defined(__ARM_FEATURE_CMSE) && (__ARM_FEATURE_CMSE == 3U) */

    /* privilege configuration */
    register_address = (uint32_t) &(GTZC_TZSC->PRIVCFGR1) + (4U * GTZC_GET_REG_INDEX(PeriphId));
 c003344:	687b      	ldr	r3, [r7, #4]
 c003346:	0f1a      	lsrs	r2, r3, #28
 c003348:	4b19      	ldr	r3, [pc, #100]	; (c0033b0 <HAL_GTZC_TZSC_ConfigPeriphAttributes+0x1ac>)
 c00334a:	4413      	add	r3, r2
 c00334c:	009b      	lsls	r3, r3, #2
 c00334e:	60fb      	str	r3, [r7, #12]
    if ((PeriphAttributes & GTZC_TZSC_PERIPH_PRIV) == GTZC_TZSC_PERIPH_PRIV)
 c003350:	683a      	ldr	r2, [r7, #0]
 c003352:	f240 2302 	movw	r3, #514	; 0x202
 c003356:	4013      	ands	r3, r2
 c003358:	f240 2202 	movw	r2, #514	; 0x202
 c00335c:	4293      	cmp	r3, r2
 c00335e:	d10a      	bne.n	c003376 <HAL_GTZC_TZSC_ConfigPeriphAttributes+0x172>
    {
      SET_BIT(*(__IO uint32_t *)register_address, 1UL << GTZC_GET_PERIPH_POS(PeriphId));
 c003360:	68fb      	ldr	r3, [r7, #12]
 c003362:	6819      	ldr	r1, [r3, #0]
 c003364:	687b      	ldr	r3, [r7, #4]
 c003366:	f003 031f 	and.w	r3, r3, #31
 c00336a:	2201      	movs	r2, #1
 c00336c:	409a      	lsls	r2, r3
 c00336e:	68fb      	ldr	r3, [r7, #12]
 c003370:	430a      	orrs	r2, r1
 c003372:	601a      	str	r2, [r3, #0]
 c003374:	e010      	b.n	c003398 <HAL_GTZC_TZSC_ConfigPeriphAttributes+0x194>
    }
    else if ((PeriphAttributes & GTZC_TZSC_PERIPH_NPRIV) == GTZC_TZSC_PERIPH_NPRIV)
 c003376:	683b      	ldr	r3, [r7, #0]
 c003378:	f403 7300 	and.w	r3, r3, #512	; 0x200
 c00337c:	2b00      	cmp	r3, #0
 c00337e:	d00b      	beq.n	c003398 <HAL_GTZC_TZSC_ConfigPeriphAttributes+0x194>
    {
      CLEAR_BIT(*(__IO uint32_t *)register_address, 1UL << GTZC_GET_PERIPH_POS(PeriphId));
 c003380:	68fb      	ldr	r3, [r7, #12]
 c003382:	6819      	ldr	r1, [r3, #0]
 c003384:	687b      	ldr	r3, [r7, #4]
 c003386:	f003 031f 	and.w	r3, r3, #31
 c00338a:	2201      	movs	r2, #1
 c00338c:	fa02 f303 	lsl.w	r3, r2, r3
 c003390:	43da      	mvns	r2, r3
 c003392:	68fb      	ldr	r3, [r7, #12]
 c003394:	400a      	ands	r2, r1
 c003396:	601a      	str	r2, [r3, #0]
    else
    {
      /* do nothing */
    }
  }
  return HAL_OK;
 c003398:	2300      	movs	r3, #0
}
 c00339a:	4618      	mov	r0, r3
 c00339c:	3714      	adds	r7, #20
 c00339e:	46bd      	mov	sp, r7
 c0033a0:	f85d 7b04 	ldr.w	r7, [sp], #4
 c0033a4:	4770      	bx	lr
 c0033a6:	bf00      	nop
 c0033a8:	50032400 	.word	0x50032400
 c0033ac:	1400c904 	.word	0x1400c904
 c0033b0:	1400c908 	.word	0x1400c908

0c0033b4 <HAL_GTZC_MPCBB_ConfigMem>:
  *         The structure description is available in @ref GTZC_Exported_Types.
  * @retval HAL status.
  */
HAL_StatusTypeDef HAL_GTZC_MPCBB_ConfigMem(uint32_t MemBaseAddress,
                                           const MPCBB_ConfigTypeDef *pMPCBB_desc)
{
 c0033b4:	b480      	push	{r7}
 c0033b6:	b089      	sub	sp, #36	; 0x24
 c0033b8:	af00      	add	r7, sp, #0
 c0033ba:	6078      	str	r0, [r7, #4]
 c0033bc:	6039      	str	r1, [r7, #0]
  uint32_t size_mask;
  uint32_t size_in_superblocks;
  uint32_t i;

  /* check entry parameters */
  if ((!(IS_GTZC_BASE_ADDRESS(SRAM1, MemBaseAddress))
 c0033be:	687b      	ldr	r3, [r7, #4]
 c0033c0:	f1b3 5f00 	cmp.w	r3, #536870912	; 0x20000000
 c0033c4:	d00b      	beq.n	c0033de <HAL_GTZC_MPCBB_ConfigMem+0x2a>
 c0033c6:	687b      	ldr	r3, [r7, #4]
 c0033c8:	f1b3 5f40 	cmp.w	r3, #805306368	; 0x30000000
 c0033cc:	d007      	beq.n	c0033de <HAL_GTZC_MPCBB_ConfigMem+0x2a>
       &&  !(IS_GTZC_BASE_ADDRESS(SRAM2, MemBaseAddress)))
 c0033ce:	687b      	ldr	r3, [r7, #4]
 c0033d0:	4a36      	ldr	r2, [pc, #216]	; (c0034ac <HAL_GTZC_MPCBB_ConfigMem+0xf8>)
 c0033d2:	4293      	cmp	r3, r2
 c0033d4:	d003      	beq.n	c0033de <HAL_GTZC_MPCBB_ConfigMem+0x2a>
 c0033d6:	687b      	ldr	r3, [r7, #4]
 c0033d8:	4a35      	ldr	r2, [pc, #212]	; (c0034b0 <HAL_GTZC_MPCBB_ConfigMem+0xfc>)
 c0033da:	4293      	cmp	r3, r2
 c0033dc:	d111      	bne.n	c003402 <HAL_GTZC_MPCBB_ConfigMem+0x4e>
      || ((pMPCBB_desc->SecureRWIllegalMode != GTZC_MPCBB_SRWILADIS_ENABLE)
 c0033de:	683b      	ldr	r3, [r7, #0]
 c0033e0:	681b      	ldr	r3, [r3, #0]
 c0033e2:	2b00      	cmp	r3, #0
 c0033e4:	d004      	beq.n	c0033f0 <HAL_GTZC_MPCBB_ConfigMem+0x3c>
          && (pMPCBB_desc->SecureRWIllegalMode != GTZC_MPCBB_SRWILADIS_DISABLE))
 c0033e6:	683b      	ldr	r3, [r7, #0]
 c0033e8:	681b      	ldr	r3, [r3, #0]
 c0033ea:	f1b3 4f00 	cmp.w	r3, #2147483648	; 0x80000000
 c0033ee:	d108      	bne.n	c003402 <HAL_GTZC_MPCBB_ConfigMem+0x4e>
      || ((pMPCBB_desc->InvertSecureState != GTZC_MPCBB_INVSECSTATE_NOT_INVERTED)
 c0033f0:	683b      	ldr	r3, [r7, #0]
 c0033f2:	685b      	ldr	r3, [r3, #4]
 c0033f4:	2b00      	cmp	r3, #0
 c0033f6:	d006      	beq.n	c003406 <HAL_GTZC_MPCBB_ConfigMem+0x52>
          && (pMPCBB_desc->InvertSecureState != GTZC_MPCBB_INVSECSTATE_INVERTED)))
 c0033f8:	683b      	ldr	r3, [r7, #0]
 c0033fa:	685b      	ldr	r3, [r3, #4]
 c0033fc:	f1b3 4f80 	cmp.w	r3, #1073741824	; 0x40000000
 c003400:	d001      	beq.n	c003406 <HAL_GTZC_MPCBB_ConfigMem+0x52>
  {
    return HAL_ERROR;
 c003402:	2301      	movs	r3, #1
 c003404:	e04b      	b.n	c00349e <HAL_GTZC_MPCBB_ConfigMem+0xea>
  }

  /* write InvertSecureState and SecureRWIllegalMode properties */
  /* assume their Position/Mask is identical for all sub-blocks */
  reg_value = pMPCBB_desc->InvertSecureState;
 c003406:	683b      	ldr	r3, [r7, #0]
 c003408:	685b      	ldr	r3, [r3, #4]
 c00340a:	613b      	str	r3, [r7, #16]
  reg_value |= pMPCBB_desc->SecureRWIllegalMode;
 c00340c:	683b      	ldr	r3, [r7, #0]
 c00340e:	681b      	ldr	r3, [r3, #0]
 c003410:	693a      	ldr	r2, [r7, #16]
 c003412:	4313      	orrs	r3, r2
 c003414:	613b      	str	r3, [r7, #16]
  if (IS_GTZC_BASE_ADDRESS(SRAM1, MemBaseAddress))
 c003416:	687b      	ldr	r3, [r7, #4]
 c003418:	f1b3 5f00 	cmp.w	r3, #536870912	; 0x20000000
 c00341c:	d003      	beq.n	c003426 <HAL_GTZC_MPCBB_ConfigMem+0x72>
 c00341e:	687b      	ldr	r3, [r7, #4]
 c003420:	f1b3 5f40 	cmp.w	r3, #805306368	; 0x30000000
 c003424:	d105      	bne.n	c003432 <HAL_GTZC_MPCBB_ConfigMem+0x7e>
  {
    mpcbb_ptr = GTZC_MPCBB1_S;
 c003426:	4b23      	ldr	r3, [pc, #140]	; (c0034b4 <HAL_GTZC_MPCBB_ConfigMem+0x100>)
 c003428:	61fb      	str	r3, [r7, #28]
    mem_size = GTZC_MEM_SIZE(SRAM1);
 c00342a:	f44f 3340 	mov.w	r3, #196608	; 0x30000
 c00342e:	61bb      	str	r3, [r7, #24]
 c003430:	e004      	b.n	c00343c <HAL_GTZC_MPCBB_ConfigMem+0x88>
  }
  else
  {
    /* Here MemBaseAddress is inside SRAM2 (already tested) */
    mpcbb_ptr = GTZC_MPCBB2_S;
 c003432:	4b21      	ldr	r3, [pc, #132]	; (c0034b8 <HAL_GTZC_MPCBB_ConfigMem+0x104>)
 c003434:	61fb      	str	r3, [r7, #28]
    mem_size = GTZC_MEM_SIZE(SRAM2);
 c003436:	f44f 3380 	mov.w	r3, #65536	; 0x10000
 c00343a:	61bb      	str	r3, [r7, #24]
  }

  /* write vector register information */
  size_in_superblocks = (mem_size / GTZC_MPCBB_SUPERBLOCK_SIZE);
 c00343c:	69bb      	ldr	r3, [r7, #24]
 c00343e:	0b5b      	lsrs	r3, r3, #13
 c003440:	60fb      	str	r3, [r7, #12]
  for (i = 0U; i < size_in_superblocks; i++)
 c003442:	2300      	movs	r3, #0
 c003444:	617b      	str	r3, [r7, #20]
 c003446:	e00c      	b.n	c003462 <HAL_GTZC_MPCBB_ConfigMem+0xae>
  {
    WRITE_REG(mpcbb_ptr->VCTR[i],
 c003448:	683b      	ldr	r3, [r7, #0]
 c00344a:	697a      	ldr	r2, [r7, #20]
 c00344c:	3202      	adds	r2, #2
 c00344e:	f853 1022 	ldr.w	r1, [r3, r2, lsl #2]
 c003452:	69fb      	ldr	r3, [r7, #28]
 c003454:	697a      	ldr	r2, [r7, #20]
 c003456:	3240      	adds	r2, #64	; 0x40
 c003458:	f843 1022 	str.w	r1, [r3, r2, lsl #2]
  for (i = 0U; i < size_in_superblocks; i++)
 c00345c:	697b      	ldr	r3, [r7, #20]
 c00345e:	3301      	adds	r3, #1
 c003460:	617b      	str	r3, [r7, #20]
 c003462:	697a      	ldr	r2, [r7, #20]
 c003464:	68fb      	ldr	r3, [r7, #12]
 c003466:	429a      	cmp	r2, r3
 c003468:	d3ee      	bcc.n	c003448 <HAL_GTZC_MPCBB_ConfigMem+0x94>
              pMPCBB_desc->AttributeConfig.MPCBB_SecConfig_array[i]);
  }

  /* write configuration and lock register information */
  MODIFY_REG(mpcbb_ptr->CR,
 c00346a:	69fb      	ldr	r3, [r7, #28]
 c00346c:	681b      	ldr	r3, [r3, #0]
 c00346e:	f023 4240 	bic.w	r2, r3, #3221225472	; 0xc0000000
 c003472:	693b      	ldr	r3, [r7, #16]
 c003474:	431a      	orrs	r2, r3
 c003476:	69fb      	ldr	r3, [r7, #28]
 c003478:	601a      	str	r2, [r3, #0]
             GTZC_MPCBB_CR_INVSECSTATE_Msk | GTZC_MPCBB_CR_SRWILADIS_Msk, reg_value);

  size_mask = (1UL << (mem_size / GTZC_MPCBB_SUPERBLOCK_SIZE)) - 1U;
 c00347a:	69bb      	ldr	r3, [r7, #24]
 c00347c:	0b5b      	lsrs	r3, r3, #13
 c00347e:	2201      	movs	r2, #1
 c003480:	fa02 f303 	lsl.w	r3, r2, r3
 c003484:	3b01      	subs	r3, #1
 c003486:	60bb      	str	r3, [r7, #8]
  /* limitation: code not portable with memory > 256K */
  MODIFY_REG(mpcbb_ptr->LCKVTR1, size_mask, pMPCBB_desc->AttributeConfig.MPCBB_LockConfig_array[0]);
 c003488:	69fb      	ldr	r3, [r7, #28]
 c00348a:	691a      	ldr	r2, [r3, #16]
 c00348c:	68bb      	ldr	r3, [r7, #8]
 c00348e:	43db      	mvns	r3, r3
 c003490:	401a      	ands	r2, r3
 c003492:	683b      	ldr	r3, [r7, #0]
 c003494:	6e9b      	ldr	r3, [r3, #104]	; 0x68
 c003496:	431a      	orrs	r2, r3
 c003498:	69fb      	ldr	r3, [r7, #28]
 c00349a:	611a      	str	r2, [r3, #16]

  return HAL_OK;
 c00349c:	2300      	movs	r3, #0
}
 c00349e:	4618      	mov	r0, r3
 c0034a0:	3724      	adds	r7, #36	; 0x24
 c0034a2:	46bd      	mov	sp, r7
 c0034a4:	f85d 7b04 	ldr.w	r7, [sp], #4
 c0034a8:	4770      	bx	lr
 c0034aa:	bf00      	nop
 c0034ac:	20030000 	.word	0x20030000
 c0034b0:	30030000 	.word	0x30030000
 c0034b4:	50032c00 	.word	0x50032c00
 c0034b8:	50033000 	.word	0x50033000

0c0034bc <HAL_HASH_Init>:
  *         relevant APIs manage themselves the MDMAT bit.
  * @param  hhash HASH handle
  * @retval HAL status
  */
HAL_StatusTypeDef HAL_HASH_Init(HASH_HandleTypeDef *hhash)
{
 c0034bc:	b580      	push	{r7, lr}
 c0034be:	b082      	sub	sp, #8
 c0034c0:	af00      	add	r7, sp, #0
 c0034c2:	6078      	str	r0, [r7, #4]
  /* Check the hash handle allocation */
  if (hhash == NULL)
 c0034c4:	687b      	ldr	r3, [r7, #4]
 c0034c6:	2b00      	cmp	r3, #0
 c0034c8:	d101      	bne.n	c0034ce <HAL_HASH_Init+0x12>
  {
    return HAL_ERROR;
 c0034ca:	2301      	movs	r3, #1
 c0034cc:	e043      	b.n	c003556 <HAL_HASH_Init+0x9a>

    /* Init the low level hardware */
    hhash->MspInitCallback(hhash);
  }
#else
  if (hhash->State == HAL_HASH_STATE_RESET)
 c0034ce:	687b      	ldr	r3, [r7, #4]
 c0034d0:	f893 3035 	ldrb.w	r3, [r3, #53]	; 0x35
 c0034d4:	b2db      	uxtb	r3, r3
 c0034d6:	2b00      	cmp	r3, #0
 c0034d8:	d106      	bne.n	c0034e8 <HAL_HASH_Init+0x2c>
  {
    /* Allocate lock resource and initialize it */
    hhash->Lock = HAL_UNLOCKED;
 c0034da:	687b      	ldr	r3, [r7, #4]
 c0034dc:	2200      	movs	r2, #0
 c0034de:	f883 2034 	strb.w	r2, [r3, #52]	; 0x34

    /* Init the low level hardware */
    HAL_HASH_MspInit(hhash);
 c0034e2:	6878      	ldr	r0, [r7, #4]
 c0034e4:	f7fe fb44 	bl	c001b70 <HAL_HASH_MspInit>
  }
#endif /* (USE_HAL_HASH_REGISTER_CALLBACKS) */

  /* Change the HASH state */
  hhash->State = HAL_HASH_STATE_BUSY;
 c0034e8:	687b      	ldr	r3, [r7, #4]
 c0034ea:	2202      	movs	r2, #2
 c0034ec:	f883 2035 	strb.w	r2, [r3, #53]	; 0x35

  /* Reset HashInCount, HashITCounter, HashBuffSize and NbWordsAlreadyPushed */
  hhash->HashInCount = 0;
 c0034f0:	687b      	ldr	r3, [r7, #4]
 c0034f2:	2200      	movs	r2, #0
 c0034f4:	621a      	str	r2, [r3, #32]
  hhash->HashBuffSize = 0;
 c0034f6:	687b      	ldr	r3, [r7, #4]
 c0034f8:	2200      	movs	r2, #0
 c0034fa:	61da      	str	r2, [r3, #28]
  hhash->HashITCounter = 0;
 c0034fc:	687b      	ldr	r3, [r7, #4]
 c0034fe:	2200      	movs	r2, #0
 c003500:	625a      	str	r2, [r3, #36]	; 0x24
  hhash->NbWordsAlreadyPushed = 0;
 c003502:	687b      	ldr	r3, [r7, #4]
 c003504:	2200      	movs	r2, #0
 c003506:	639a      	str	r2, [r3, #56]	; 0x38
  /* Reset digest calculation bridle (MDMAT bit control) */
  hhash->DigestCalculationDisable = RESET;
 c003508:	687b      	ldr	r3, [r7, #4]
 c00350a:	2200      	movs	r2, #0
 c00350c:	f883 2037 	strb.w	r2, [r3, #55]	; 0x37
  /* Set phase to READY */
  hhash->Phase = HAL_HASH_PHASE_READY;
 c003510:	687b      	ldr	r3, [r7, #4]
 c003512:	2201      	movs	r2, #1
 c003514:	f883 202d 	strb.w	r2, [r3, #45]	; 0x2d
  /* Reset suspension request flag */
  hhash->SuspendRequest = HAL_HASH_SUSPEND_NONE;
 c003518:	687b      	ldr	r3, [r7, #4]
 c00351a:	2200      	movs	r2, #0
 c00351c:	f883 2036 	strb.w	r2, [r3, #54]	; 0x36

  /* Set the data type bit */
  MODIFY_REG(HASH->CR, HASH_CR_DATATYPE, hhash->Init.DataType);
 c003520:	4b0f      	ldr	r3, [pc, #60]	; (c003560 <HAL_HASH_Init+0xa4>)
 c003522:	681b      	ldr	r3, [r3, #0]
 c003524:	f023 0230 	bic.w	r2, r3, #48	; 0x30
 c003528:	687b      	ldr	r3, [r7, #4]
 c00352a:	681b      	ldr	r3, [r3, #0]
 c00352c:	490c      	ldr	r1, [pc, #48]	; (c003560 <HAL_HASH_Init+0xa4>)
 c00352e:	4313      	orrs	r3, r2
 c003530:	600b      	str	r3, [r1, #0]
  /* Reset MDMAT bit */
  __HAL_HASH_RESET_MDMAT();
 c003532:	4b0b      	ldr	r3, [pc, #44]	; (c003560 <HAL_HASH_Init+0xa4>)
 c003534:	681b      	ldr	r3, [r3, #0]
 c003536:	4a0a      	ldr	r2, [pc, #40]	; (c003560 <HAL_HASH_Init+0xa4>)
 c003538:	f423 5300 	bic.w	r3, r3, #8192	; 0x2000
 c00353c:	6013      	str	r3, [r2, #0]
  /* Reset HASH handle status */
  hhash->Status = HAL_OK;
 c00353e:	687b      	ldr	r3, [r7, #4]
 c003540:	2200      	movs	r2, #0
 c003542:	f883 202c 	strb.w	r2, [r3, #44]	; 0x2c

  /* Set the HASH state to Ready */
  hhash->State = HAL_HASH_STATE_READY;
 c003546:	687b      	ldr	r3, [r7, #4]
 c003548:	2201      	movs	r2, #1
 c00354a:	f883 2035 	strb.w	r2, [r3, #53]	; 0x35

  /* Initialise the error code */
  hhash->ErrorCode = HAL_HASH_ERROR_NONE;
 c00354e:	687b      	ldr	r3, [r7, #4]
 c003550:	2200      	movs	r2, #0
 c003552:	63da      	str	r2, [r3, #60]	; 0x3c

  /* Return function status */
  return HAL_OK;
 c003554:	2300      	movs	r3, #0
}
 c003556:	4618      	mov	r0, r3
 c003558:	3708      	adds	r7, #8
 c00355a:	46bd      	mov	sp, r7
 c00355c:	bd80      	pop	{r7, pc}
 c00355e:	bf00      	nop
 c003560:	520c0400 	.word	0x520c0400

0c003564 <HAL_HASH_MD5_Start>:
  * @param  Timeout Timeout value
  * @retval HAL status
  */
HAL_StatusTypeDef HAL_HASH_MD5_Start(HASH_HandleTypeDef *hhash, uint8_t *pInBuffer, uint32_t Size, uint8_t *pOutBuffer,
                                     uint32_t Timeout)
{
 c003564:	b580      	push	{r7, lr}
 c003566:	b086      	sub	sp, #24
 c003568:	af02      	add	r7, sp, #8
 c00356a:	60f8      	str	r0, [r7, #12]
 c00356c:	60b9      	str	r1, [r7, #8]
 c00356e:	607a      	str	r2, [r7, #4]
 c003570:	603b      	str	r3, [r7, #0]
  return HASH_Start(hhash, pInBuffer, Size, pOutBuffer, Timeout, HASH_ALGOSELECTION_MD5);
 c003572:	2380      	movs	r3, #128	; 0x80
 c003574:	9301      	str	r3, [sp, #4]
 c003576:	69bb      	ldr	r3, [r7, #24]
 c003578:	9300      	str	r3, [sp, #0]
 c00357a:	683b      	ldr	r3, [r7, #0]
 c00357c:	687a      	ldr	r2, [r7, #4]
 c00357e:	68b9      	ldr	r1, [r7, #8]
 c003580:	68f8      	ldr	r0, [r7, #12]
 c003582:	f000 fa21 	bl	c0039c8 <HASH_Start>
 c003586:	4603      	mov	r3, r0
}
 c003588:	4618      	mov	r0, r3
 c00358a:	3710      	adds	r7, #16
 c00358c:	46bd      	mov	sp, r7
 c00358e:	bd80      	pop	{r7, pc}

0c003590 <HASH_WriteData>:
  *         processing is suspended when possible and the Peripheral feeding point reached at
  *         suspension time is stored in the handle for resumption later on.
  * @retval HAL status
  */
static HAL_StatusTypeDef HASH_WriteData(HASH_HandleTypeDef *hhash, uint8_t *pInBuffer, uint32_t Size)
{
 c003590:	b480      	push	{r7}
 c003592:	b087      	sub	sp, #28
 c003594:	af00      	add	r7, sp, #0
 c003596:	60f8      	str	r0, [r7, #12]
 c003598:	60b9      	str	r1, [r7, #8]
 c00359a:	607a      	str	r2, [r7, #4]
  uint32_t buffercounter;
  __IO uint32_t inputaddr = (uint32_t) pInBuffer;
 c00359c:	68bb      	ldr	r3, [r7, #8]
 c00359e:	613b      	str	r3, [r7, #16]

  for (buffercounter = 0U; buffercounter < Size; buffercounter += 4U)
 c0035a0:	2300      	movs	r3, #0
 c0035a2:	617b      	str	r3, [r7, #20]
 c0035a4:	e057      	b.n	c003656 <HASH_WriteData+0xc6>
  {
    /* Write input data 4 bytes at a time */
    HASH->DIN = *(uint32_t *)inputaddr;
 c0035a6:	693b      	ldr	r3, [r7, #16]
 c0035a8:	4a30      	ldr	r2, [pc, #192]	; (c00366c <HASH_WriteData+0xdc>)
 c0035aa:	681b      	ldr	r3, [r3, #0]
 c0035ac:	6053      	str	r3, [r2, #4]
    inputaddr += 4U;
 c0035ae:	693b      	ldr	r3, [r7, #16]
 c0035b0:	3304      	adds	r3, #4
 c0035b2:	613b      	str	r3, [r7, #16]

    /* If the suspension flag has been raised and if the processing is not about
    to end, suspend processing */
    if ((hhash->SuspendRequest == HAL_HASH_SUSPEND) && ((buffercounter + 4U) < Size))
 c0035b4:	68fb      	ldr	r3, [r7, #12]
 c0035b6:	f893 3036 	ldrb.w	r3, [r3, #54]	; 0x36
 c0035ba:	2b01      	cmp	r3, #1
 c0035bc:	d148      	bne.n	c003650 <HASH_WriteData+0xc0>
 c0035be:	697b      	ldr	r3, [r7, #20]
 c0035c0:	3304      	adds	r3, #4
 c0035c2:	687a      	ldr	r2, [r7, #4]
 c0035c4:	429a      	cmp	r2, r3
 c0035c6:	d943      	bls.n	c003650 <HASH_WriteData+0xc0>
    {
      /* Wait for DINIS = 1, which occurs when 16 32-bit locations are free
      in the input buffer */
      if (__HAL_HASH_GET_FLAG(HASH_FLAG_DINIS))
 c0035c8:	4b28      	ldr	r3, [pc, #160]	; (c00366c <HASH_WriteData+0xdc>)
 c0035ca:	6a5b      	ldr	r3, [r3, #36]	; 0x24
 c0035cc:	f003 0301 	and.w	r3, r3, #1
 c0035d0:	2b01      	cmp	r3, #1
 c0035d2:	d13d      	bne.n	c003650 <HASH_WriteData+0xc0>
      {
        /* Reset SuspendRequest */
        hhash->SuspendRequest = HAL_HASH_SUSPEND_NONE;
 c0035d4:	68fb      	ldr	r3, [r7, #12]
 c0035d6:	2200      	movs	r2, #0
 c0035d8:	f883 2036 	strb.w	r2, [r3, #54]	; 0x36

        /* Depending whether the key or the input data were fed to the Peripheral, the feeding point
        reached at suspension time is not saved in the same handle fields */
        if ((hhash->Phase == HAL_HASH_PHASE_PROCESS) || (hhash->Phase == HAL_HASH_PHASE_HMAC_STEP_2))
 c0035dc:	68fb      	ldr	r3, [r7, #12]
 c0035de:	f893 302d 	ldrb.w	r3, [r3, #45]	; 0x2d
 c0035e2:	2b02      	cmp	r3, #2
 c0035e4:	d004      	beq.n	c0035f0 <HASH_WriteData+0x60>
 c0035e6:	68fb      	ldr	r3, [r7, #12]
 c0035e8:	f893 302d 	ldrb.w	r3, [r3, #45]	; 0x2d
 c0035ec:	2b04      	cmp	r3, #4
 c0035ee:	d10a      	bne.n	c003606 <HASH_WriteData+0x76>
        {
          /* Save current reading and writing locations of Input and Output buffers */
          hhash->pHashInBuffPtr = (uint8_t *)inputaddr;
 c0035f0:	693b      	ldr	r3, [r7, #16]
 c0035f2:	461a      	mov	r2, r3
 c0035f4:	68fb      	ldr	r3, [r7, #12]
 c0035f6:	60da      	str	r2, [r3, #12]
          /* Save the number of bytes that remain to be processed at this point */
          hhash->HashInCount    =  Size - (buffercounter + 4U);
 c0035f8:	687a      	ldr	r2, [r7, #4]
 c0035fa:	697b      	ldr	r3, [r7, #20]
 c0035fc:	1ad3      	subs	r3, r2, r3
 c0035fe:	1f1a      	subs	r2, r3, #4
 c003600:	68fb      	ldr	r3, [r7, #12]
 c003602:	621a      	str	r2, [r3, #32]
 c003604:	e01e      	b.n	c003644 <HASH_WriteData+0xb4>
        }
        else if ((hhash->Phase == HAL_HASH_PHASE_HMAC_STEP_1) || (hhash->Phase == HAL_HASH_PHASE_HMAC_STEP_3))
 c003606:	68fb      	ldr	r3, [r7, #12]
 c003608:	f893 302d 	ldrb.w	r3, [r3, #45]	; 0x2d
 c00360c:	2b03      	cmp	r3, #3
 c00360e:	d004      	beq.n	c00361a <HASH_WriteData+0x8a>
 c003610:	68fb      	ldr	r3, [r7, #12]
 c003612:	f893 302d 	ldrb.w	r3, [r3, #45]	; 0x2d
 c003616:	2b05      	cmp	r3, #5
 c003618:	d10a      	bne.n	c003630 <HASH_WriteData+0xa0>
        {
          /* Save current reading and writing locations of Input and Output buffers */
          hhash->pHashKeyBuffPtr  = (uint8_t *)inputaddr;
 c00361a:	693b      	ldr	r3, [r7, #16]
 c00361c:	461a      	mov	r2, r3
 c00361e:	68fb      	ldr	r3, [r7, #12]
 c003620:	615a      	str	r2, [r3, #20]
          /* Save the number of bytes that remain to be processed at this point */
          hhash->HashKeyCount  =  Size - (buffercounter + 4U);
 c003622:	687a      	ldr	r2, [r7, #4]
 c003624:	697b      	ldr	r3, [r7, #20]
 c003626:	1ad3      	subs	r3, r2, r3
 c003628:	1f1a      	subs	r2, r3, #4
 c00362a:	68fb      	ldr	r3, [r7, #12]
 c00362c:	629a      	str	r2, [r3, #40]	; 0x28
 c00362e:	e009      	b.n	c003644 <HASH_WriteData+0xb4>
        }
        else
        {
          /* Unexpected phase: unlock process and report error */
          hhash->State = HAL_HASH_STATE_READY;
 c003630:	68fb      	ldr	r3, [r7, #12]
 c003632:	2201      	movs	r2, #1
 c003634:	f883 2035 	strb.w	r2, [r3, #53]	; 0x35
          __HAL_UNLOCK(hhash);
 c003638:	68fb      	ldr	r3, [r7, #12]
 c00363a:	2200      	movs	r2, #0
 c00363c:	f883 2034 	strb.w	r2, [r3, #52]	; 0x34
          return HAL_ERROR;
 c003640:	2301      	movs	r3, #1
 c003642:	e00d      	b.n	c003660 <HASH_WriteData+0xd0>
        }

        /* Set the HASH state to Suspended and exit to stop entering data */
        hhash->State = HAL_HASH_STATE_SUSPENDED;
 c003644:	68fb      	ldr	r3, [r7, #12]
 c003646:	2208      	movs	r2, #8
 c003648:	f883 2035 	strb.w	r2, [r3, #53]	; 0x35

        return HAL_OK;
 c00364c:	2300      	movs	r3, #0
 c00364e:	e007      	b.n	c003660 <HASH_WriteData+0xd0>
  for (buffercounter = 0U; buffercounter < Size; buffercounter += 4U)
 c003650:	697b      	ldr	r3, [r7, #20]
 c003652:	3304      	adds	r3, #4
 c003654:	617b      	str	r3, [r7, #20]
 c003656:	697a      	ldr	r2, [r7, #20]
 c003658:	687b      	ldr	r3, [r7, #4]
 c00365a:	429a      	cmp	r2, r3
 c00365c:	d3a3      	bcc.n	c0035a6 <HASH_WriteData+0x16>
      } /* if (__HAL_HASH_GET_FLAG(HASH_FLAG_DINIS))  */
    } /* if ((hhash->SuspendRequest == HAL_HASH_SUSPEND) && ((buffercounter+4) < Size)) */
  }   /* for(buffercounter = 0; buffercounter < Size; buffercounter+=4)                 */

  /* At this point, all the data have been entered to the Peripheral: exit */
  return  HAL_OK;
 c00365e:	2300      	movs	r3, #0
}
 c003660:	4618      	mov	r0, r3
 c003662:	371c      	adds	r7, #28
 c003664:	46bd      	mov	sp, r7
 c003666:	f85d 7b04 	ldr.w	r7, [sp], #4
 c00366a:	4770      	bx	lr
 c00366c:	520c0400 	.word	0x520c0400

0c003670 <HASH_GetDigest>:
  * @param  pMsgDigest pointer to the computed digest.
  * @param  Size message digest size in bytes.
  * @retval None
  */
static void HASH_GetDigest(uint8_t *pMsgDigest, uint8_t Size)
{
 c003670:	b480      	push	{r7}
 c003672:	b09d      	sub	sp, #116	; 0x74
 c003674:	af00      	add	r7, sp, #0
 c003676:	6078      	str	r0, [r7, #4]
 c003678:	460b      	mov	r3, r1
 c00367a:	70fb      	strb	r3, [r7, #3]
  uint32_t msgdigest = (uint32_t)pMsgDigest;
 c00367c:	687b      	ldr	r3, [r7, #4]
 c00367e:	66fb      	str	r3, [r7, #108]	; 0x6c

  switch (Size)
 c003680:	78fb      	ldrb	r3, [r7, #3]
 c003682:	3b10      	subs	r3, #16
 c003684:	2b10      	cmp	r3, #16
 c003686:	f200 810d 	bhi.w	c0038a4 <HASH_GetDigest+0x234>
 c00368a:	a201      	add	r2, pc, #4	; (adr r2, c003690 <HASH_GetDigest+0x20>)
 c00368c:	f852 f023 	ldr.w	pc, [r2, r3, lsl #2]
 c003690:	0c0036d5 	.word	0x0c0036d5
 c003694:	0c0038a5 	.word	0x0c0038a5
 c003698:	0c0038a5 	.word	0x0c0038a5
 c00369c:	0c0038a5 	.word	0x0c0038a5
 c0036a0:	0c003721 	.word	0x0c003721
 c0036a4:	0c0038a5 	.word	0x0c0038a5
 c0036a8:	0c0038a5 	.word	0x0c0038a5
 c0036ac:	0c0038a5 	.word	0x0c0038a5
 c0036b0:	0c0038a5 	.word	0x0c0038a5
 c0036b4:	0c0038a5 	.word	0x0c0038a5
 c0036b8:	0c0038a5 	.word	0x0c0038a5
 c0036bc:	0c0038a5 	.word	0x0c0038a5
 c0036c0:	0c003781 	.word	0x0c003781
 c0036c4:	0c0038a5 	.word	0x0c0038a5
 c0036c8:	0c0038a5 	.word	0x0c0038a5
 c0036cc:	0c0038a5 	.word	0x0c0038a5
 c0036d0:	0c003809 	.word	0x0c003809
  {
    /* Read the message digest */
    case 16:  /* MD5 */
      *(uint32_t *)(msgdigest) = __REV(HASH->HR[0]);
 c0036d4:	4b77      	ldr	r3, [pc, #476]	; (c0038b4 <HASH_GetDigest+0x244>)
 c0036d6:	68da      	ldr	r2, [r3, #12]
 c0036d8:	6efb      	ldr	r3, [r7, #108]	; 0x6c
 c0036da:	65fa      	str	r2, [r7, #92]	; 0x5c
  \return               Reversed value
 */
__STATIC_FORCEINLINE uint32_t __REV(uint32_t value)
{
#if (__GNUC__ > 4) || (__GNUC__ == 4 && __GNUC_MINOR__ >= 5)
  return __builtin_bswap32(value);
 c0036dc:	6dfa      	ldr	r2, [r7, #92]	; 0x5c
 c0036de:	ba12      	rev	r2, r2
 c0036e0:	601a      	str	r2, [r3, #0]
      msgdigest += 4U;
 c0036e2:	6efb      	ldr	r3, [r7, #108]	; 0x6c
 c0036e4:	3304      	adds	r3, #4
 c0036e6:	66fb      	str	r3, [r7, #108]	; 0x6c
      *(uint32_t *)(msgdigest) = __REV(HASH->HR[1]);
 c0036e8:	4b72      	ldr	r3, [pc, #456]	; (c0038b4 <HASH_GetDigest+0x244>)
 c0036ea:	691a      	ldr	r2, [r3, #16]
 c0036ec:	6efb      	ldr	r3, [r7, #108]	; 0x6c
 c0036ee:	663a      	str	r2, [r7, #96]	; 0x60
 c0036f0:	6e3a      	ldr	r2, [r7, #96]	; 0x60
 c0036f2:	ba12      	rev	r2, r2
 c0036f4:	601a      	str	r2, [r3, #0]
      msgdigest += 4U;
 c0036f6:	6efb      	ldr	r3, [r7, #108]	; 0x6c
 c0036f8:	3304      	adds	r3, #4
 c0036fa:	66fb      	str	r3, [r7, #108]	; 0x6c
      *(uint32_t *)(msgdigest) = __REV(HASH->HR[2]);
 c0036fc:	4b6d      	ldr	r3, [pc, #436]	; (c0038b4 <HASH_GetDigest+0x244>)
 c0036fe:	695a      	ldr	r2, [r3, #20]
 c003700:	6efb      	ldr	r3, [r7, #108]	; 0x6c
 c003702:	667a      	str	r2, [r7, #100]	; 0x64
 c003704:	6e7a      	ldr	r2, [r7, #100]	; 0x64
 c003706:	ba12      	rev	r2, r2
 c003708:	601a      	str	r2, [r3, #0]
      msgdigest += 4U;
 c00370a:	6efb      	ldr	r3, [r7, #108]	; 0x6c
 c00370c:	3304      	adds	r3, #4
 c00370e:	66fb      	str	r3, [r7, #108]	; 0x6c
      *(uint32_t *)(msgdigest) = __REV(HASH->HR[3]);
 c003710:	4b68      	ldr	r3, [pc, #416]	; (c0038b4 <HASH_GetDigest+0x244>)
 c003712:	699a      	ldr	r2, [r3, #24]
 c003714:	6efb      	ldr	r3, [r7, #108]	; 0x6c
 c003716:	66ba      	str	r2, [r7, #104]	; 0x68
 c003718:	6eba      	ldr	r2, [r7, #104]	; 0x68
 c00371a:	ba12      	rev	r2, r2
 c00371c:	601a      	str	r2, [r3, #0]
      break;
 c00371e:	e0c2      	b.n	c0038a6 <HASH_GetDigest+0x236>
    case 20:  /* SHA1 */
      *(uint32_t *)(msgdigest) = __REV(HASH->HR[0]);
 c003720:	4b64      	ldr	r3, [pc, #400]	; (c0038b4 <HASH_GetDigest+0x244>)
 c003722:	68da      	ldr	r2, [r3, #12]
 c003724:	6efb      	ldr	r3, [r7, #108]	; 0x6c
 c003726:	64ba      	str	r2, [r7, #72]	; 0x48
 c003728:	6cba      	ldr	r2, [r7, #72]	; 0x48
 c00372a:	ba12      	rev	r2, r2
 c00372c:	601a      	str	r2, [r3, #0]
      msgdigest += 4U;
 c00372e:	6efb      	ldr	r3, [r7, #108]	; 0x6c
 c003730:	3304      	adds	r3, #4
 c003732:	66fb      	str	r3, [r7, #108]	; 0x6c
      *(uint32_t *)(msgdigest) = __REV(HASH->HR[1]);
 c003734:	4b5f      	ldr	r3, [pc, #380]	; (c0038b4 <HASH_GetDigest+0x244>)
 c003736:	691a      	ldr	r2, [r3, #16]
 c003738:	6efb      	ldr	r3, [r7, #108]	; 0x6c
 c00373a:	64fa      	str	r2, [r7, #76]	; 0x4c
 c00373c:	6cfa      	ldr	r2, [r7, #76]	; 0x4c
 c00373e:	ba12      	rev	r2, r2
 c003740:	601a      	str	r2, [r3, #0]
      msgdigest += 4U;
 c003742:	6efb      	ldr	r3, [r7, #108]	; 0x6c
 c003744:	3304      	adds	r3, #4
 c003746:	66fb      	str	r3, [r7, #108]	; 0x6c
      *(uint32_t *)(msgdigest) = __REV(HASH->HR[2]);
 c003748:	4b5a      	ldr	r3, [pc, #360]	; (c0038b4 <HASH_GetDigest+0x244>)
 c00374a:	695a      	ldr	r2, [r3, #20]
 c00374c:	6efb      	ldr	r3, [r7, #108]	; 0x6c
 c00374e:	653a      	str	r2, [r7, #80]	; 0x50
 c003750:	6d3a      	ldr	r2, [r7, #80]	; 0x50
 c003752:	ba12      	rev	r2, r2
 c003754:	601a      	str	r2, [r3, #0]
      msgdigest += 4U;
 c003756:	6efb      	ldr	r3, [r7, #108]	; 0x6c
 c003758:	3304      	adds	r3, #4
 c00375a:	66fb      	str	r3, [r7, #108]	; 0x6c
      *(uint32_t *)(msgdigest) = __REV(HASH->HR[3]);
 c00375c:	4b55      	ldr	r3, [pc, #340]	; (c0038b4 <HASH_GetDigest+0x244>)
 c00375e:	699a      	ldr	r2, [r3, #24]
 c003760:	6efb      	ldr	r3, [r7, #108]	; 0x6c
 c003762:	657a      	str	r2, [r7, #84]	; 0x54
 c003764:	6d7a      	ldr	r2, [r7, #84]	; 0x54
 c003766:	ba12      	rev	r2, r2
 c003768:	601a      	str	r2, [r3, #0]
      msgdigest += 4U;
 c00376a:	6efb      	ldr	r3, [r7, #108]	; 0x6c
 c00376c:	3304      	adds	r3, #4
 c00376e:	66fb      	str	r3, [r7, #108]	; 0x6c
      *(uint32_t *)(msgdigest) = __REV(HASH->HR[4]);
 c003770:	4b50      	ldr	r3, [pc, #320]	; (c0038b4 <HASH_GetDigest+0x244>)
 c003772:	69da      	ldr	r2, [r3, #28]
 c003774:	6efb      	ldr	r3, [r7, #108]	; 0x6c
 c003776:	65ba      	str	r2, [r7, #88]	; 0x58
 c003778:	6dba      	ldr	r2, [r7, #88]	; 0x58
 c00377a:	ba12      	rev	r2, r2
 c00377c:	601a      	str	r2, [r3, #0]
      break;
 c00377e:	e092      	b.n	c0038a6 <HASH_GetDigest+0x236>
    case 28:  /* SHA224 */
      *(uint32_t *)(msgdigest) = __REV(HASH->HR[0]);
 c003780:	4b4c      	ldr	r3, [pc, #304]	; (c0038b4 <HASH_GetDigest+0x244>)
 c003782:	68da      	ldr	r2, [r3, #12]
 c003784:	6efb      	ldr	r3, [r7, #108]	; 0x6c
 c003786:	62fa      	str	r2, [r7, #44]	; 0x2c
 c003788:	6afa      	ldr	r2, [r7, #44]	; 0x2c
 c00378a:	ba12      	rev	r2, r2
 c00378c:	601a      	str	r2, [r3, #0]
      msgdigest += 4U;
 c00378e:	6efb      	ldr	r3, [r7, #108]	; 0x6c
 c003790:	3304      	adds	r3, #4
 c003792:	66fb      	str	r3, [r7, #108]	; 0x6c
      *(uint32_t *)(msgdigest) = __REV(HASH->HR[1]);
 c003794:	4b47      	ldr	r3, [pc, #284]	; (c0038b4 <HASH_GetDigest+0x244>)
 c003796:	691a      	ldr	r2, [r3, #16]
 c003798:	6efb      	ldr	r3, [r7, #108]	; 0x6c
 c00379a:	633a      	str	r2, [r7, #48]	; 0x30
 c00379c:	6b3a      	ldr	r2, [r7, #48]	; 0x30
 c00379e:	ba12      	rev	r2, r2
 c0037a0:	601a      	str	r2, [r3, #0]
      msgdigest += 4U;
 c0037a2:	6efb      	ldr	r3, [r7, #108]	; 0x6c
 c0037a4:	3304      	adds	r3, #4
 c0037a6:	66fb      	str	r3, [r7, #108]	; 0x6c
      *(uint32_t *)(msgdigest) = __REV(HASH->HR[2]);
 c0037a8:	4b42      	ldr	r3, [pc, #264]	; (c0038b4 <HASH_GetDigest+0x244>)
 c0037aa:	695a      	ldr	r2, [r3, #20]
 c0037ac:	6efb      	ldr	r3, [r7, #108]	; 0x6c
 c0037ae:	637a      	str	r2, [r7, #52]	; 0x34
 c0037b0:	6b7a      	ldr	r2, [r7, #52]	; 0x34
 c0037b2:	ba12      	rev	r2, r2
 c0037b4:	601a      	str	r2, [r3, #0]
      msgdigest += 4U;
 c0037b6:	6efb      	ldr	r3, [r7, #108]	; 0x6c
 c0037b8:	3304      	adds	r3, #4
 c0037ba:	66fb      	str	r3, [r7, #108]	; 0x6c
      *(uint32_t *)(msgdigest) = __REV(HASH->HR[3]);
 c0037bc:	4b3d      	ldr	r3, [pc, #244]	; (c0038b4 <HASH_GetDigest+0x244>)
 c0037be:	699a      	ldr	r2, [r3, #24]
 c0037c0:	6efb      	ldr	r3, [r7, #108]	; 0x6c
 c0037c2:	63ba      	str	r2, [r7, #56]	; 0x38
 c0037c4:	6bba      	ldr	r2, [r7, #56]	; 0x38
 c0037c6:	ba12      	rev	r2, r2
 c0037c8:	601a      	str	r2, [r3, #0]
      msgdigest += 4U;
 c0037ca:	6efb      	ldr	r3, [r7, #108]	; 0x6c
 c0037cc:	3304      	adds	r3, #4
 c0037ce:	66fb      	str	r3, [r7, #108]	; 0x6c
      *(uint32_t *)(msgdigest) = __REV(HASH->HR[4]);
 c0037d0:	4b38      	ldr	r3, [pc, #224]	; (c0038b4 <HASH_GetDigest+0x244>)
 c0037d2:	69da      	ldr	r2, [r3, #28]
 c0037d4:	6efb      	ldr	r3, [r7, #108]	; 0x6c
 c0037d6:	63fa      	str	r2, [r7, #60]	; 0x3c
 c0037d8:	6bfa      	ldr	r2, [r7, #60]	; 0x3c
 c0037da:	ba12      	rev	r2, r2
 c0037dc:	601a      	str	r2, [r3, #0]
      msgdigest += 4U;
 c0037de:	6efb      	ldr	r3, [r7, #108]	; 0x6c
 c0037e0:	3304      	adds	r3, #4
 c0037e2:	66fb      	str	r3, [r7, #108]	; 0x6c
      *(uint32_t *)(msgdigest) = __REV(HASH_DIGEST->HR[5]);
 c0037e4:	4b34      	ldr	r3, [pc, #208]	; (c0038b8 <HASH_GetDigest+0x248>)
 c0037e6:	695a      	ldr	r2, [r3, #20]
 c0037e8:	6efb      	ldr	r3, [r7, #108]	; 0x6c
 c0037ea:	643a      	str	r2, [r7, #64]	; 0x40
 c0037ec:	6c3a      	ldr	r2, [r7, #64]	; 0x40
 c0037ee:	ba12      	rev	r2, r2
 c0037f0:	601a      	str	r2, [r3, #0]
      msgdigest += 4U;
 c0037f2:	6efb      	ldr	r3, [r7, #108]	; 0x6c
 c0037f4:	3304      	adds	r3, #4
 c0037f6:	66fb      	str	r3, [r7, #108]	; 0x6c
      *(uint32_t *)(msgdigest) = __REV(HASH_DIGEST->HR[6]);
 c0037f8:	4b2f      	ldr	r3, [pc, #188]	; (c0038b8 <HASH_GetDigest+0x248>)
 c0037fa:	699a      	ldr	r2, [r3, #24]
 c0037fc:	6efb      	ldr	r3, [r7, #108]	; 0x6c
 c0037fe:	647a      	str	r2, [r7, #68]	; 0x44
 c003800:	6c7a      	ldr	r2, [r7, #68]	; 0x44
 c003802:	ba12      	rev	r2, r2
 c003804:	601a      	str	r2, [r3, #0]
      break;
 c003806:	e04e      	b.n	c0038a6 <HASH_GetDigest+0x236>
    case 32:   /* SHA256 */
      *(uint32_t *)(msgdigest) = __REV(HASH->HR[0]);
 c003808:	4b2a      	ldr	r3, [pc, #168]	; (c0038b4 <HASH_GetDigest+0x244>)
 c00380a:	68da      	ldr	r2, [r3, #12]
 c00380c:	6efb      	ldr	r3, [r7, #108]	; 0x6c
 c00380e:	60fa      	str	r2, [r7, #12]
 c003810:	68fa      	ldr	r2, [r7, #12]
 c003812:	ba12      	rev	r2, r2
 c003814:	601a      	str	r2, [r3, #0]
      msgdigest += 4U;
 c003816:	6efb      	ldr	r3, [r7, #108]	; 0x6c
 c003818:	3304      	adds	r3, #4
 c00381a:	66fb      	str	r3, [r7, #108]	; 0x6c
      *(uint32_t *)(msgdigest) = __REV(HASH->HR[1]);
 c00381c:	4b25      	ldr	r3, [pc, #148]	; (c0038b4 <HASH_GetDigest+0x244>)
 c00381e:	691a      	ldr	r2, [r3, #16]
 c003820:	6efb      	ldr	r3, [r7, #108]	; 0x6c
 c003822:	613a      	str	r2, [r7, #16]
 c003824:	693a      	ldr	r2, [r7, #16]
 c003826:	ba12      	rev	r2, r2
 c003828:	601a      	str	r2, [r3, #0]
      msgdigest += 4U;
 c00382a:	6efb      	ldr	r3, [r7, #108]	; 0x6c
 c00382c:	3304      	adds	r3, #4
 c00382e:	66fb      	str	r3, [r7, #108]	; 0x6c
      *(uint32_t *)(msgdigest) = __REV(HASH->HR[2]);
 c003830:	4b20      	ldr	r3, [pc, #128]	; (c0038b4 <HASH_GetDigest+0x244>)
 c003832:	695a      	ldr	r2, [r3, #20]
 c003834:	6efb      	ldr	r3, [r7, #108]	; 0x6c
 c003836:	617a      	str	r2, [r7, #20]
 c003838:	697a      	ldr	r2, [r7, #20]
 c00383a:	ba12      	rev	r2, r2
 c00383c:	601a      	str	r2, [r3, #0]
      msgdigest += 4U;
 c00383e:	6efb      	ldr	r3, [r7, #108]	; 0x6c
 c003840:	3304      	adds	r3, #4
 c003842:	66fb      	str	r3, [r7, #108]	; 0x6c
      *(uint32_t *)(msgdigest) = __REV(HASH->HR[3]);
 c003844:	4b1b      	ldr	r3, [pc, #108]	; (c0038b4 <HASH_GetDigest+0x244>)
 c003846:	699a      	ldr	r2, [r3, #24]
 c003848:	6efb      	ldr	r3, [r7, #108]	; 0x6c
 c00384a:	61ba      	str	r2, [r7, #24]
 c00384c:	69ba      	ldr	r2, [r7, #24]
 c00384e:	ba12      	rev	r2, r2
 c003850:	601a      	str	r2, [r3, #0]
      msgdigest += 4U;
 c003852:	6efb      	ldr	r3, [r7, #108]	; 0x6c
 c003854:	3304      	adds	r3, #4
 c003856:	66fb      	str	r3, [r7, #108]	; 0x6c
      *(uint32_t *)(msgdigest) = __REV(HASH->HR[4]);
 c003858:	4b16      	ldr	r3, [pc, #88]	; (c0038b4 <HASH_GetDigest+0x244>)
 c00385a:	69da      	ldr	r2, [r3, #28]
 c00385c:	6efb      	ldr	r3, [r7, #108]	; 0x6c
 c00385e:	61fa      	str	r2, [r7, #28]
 c003860:	69fa      	ldr	r2, [r7, #28]
 c003862:	ba12      	rev	r2, r2
 c003864:	601a      	str	r2, [r3, #0]
      msgdigest += 4U;
 c003866:	6efb      	ldr	r3, [r7, #108]	; 0x6c
 c003868:	3304      	adds	r3, #4
 c00386a:	66fb      	str	r3, [r7, #108]	; 0x6c
      *(uint32_t *)(msgdigest) = __REV(HASH_DIGEST->HR[5]);
 c00386c:	4b12      	ldr	r3, [pc, #72]	; (c0038b8 <HASH_GetDigest+0x248>)
 c00386e:	695a      	ldr	r2, [r3, #20]
 c003870:	6efb      	ldr	r3, [r7, #108]	; 0x6c
 c003872:	623a      	str	r2, [r7, #32]
 c003874:	6a3a      	ldr	r2, [r7, #32]
 c003876:	ba12      	rev	r2, r2
 c003878:	601a      	str	r2, [r3, #0]
      msgdigest += 4U;
 c00387a:	6efb      	ldr	r3, [r7, #108]	; 0x6c
 c00387c:	3304      	adds	r3, #4
 c00387e:	66fb      	str	r3, [r7, #108]	; 0x6c
      *(uint32_t *)(msgdigest) = __REV(HASH_DIGEST->HR[6]);
 c003880:	4b0d      	ldr	r3, [pc, #52]	; (c0038b8 <HASH_GetDigest+0x248>)
 c003882:	699a      	ldr	r2, [r3, #24]
 c003884:	6efb      	ldr	r3, [r7, #108]	; 0x6c
 c003886:	627a      	str	r2, [r7, #36]	; 0x24
 c003888:	6a7a      	ldr	r2, [r7, #36]	; 0x24
 c00388a:	ba12      	rev	r2, r2
 c00388c:	601a      	str	r2, [r3, #0]
      msgdigest += 4U;
 c00388e:	6efb      	ldr	r3, [r7, #108]	; 0x6c
 c003890:	3304      	adds	r3, #4
 c003892:	66fb      	str	r3, [r7, #108]	; 0x6c
      *(uint32_t *)(msgdigest) = __REV(HASH_DIGEST->HR[7]);
 c003894:	4b08      	ldr	r3, [pc, #32]	; (c0038b8 <HASH_GetDigest+0x248>)
 c003896:	69da      	ldr	r2, [r3, #28]
 c003898:	6efb      	ldr	r3, [r7, #108]	; 0x6c
 c00389a:	62ba      	str	r2, [r7, #40]	; 0x28
 c00389c:	6aba      	ldr	r2, [r7, #40]	; 0x28
 c00389e:	ba12      	rev	r2, r2
 c0038a0:	601a      	str	r2, [r3, #0]
      break;
 c0038a2:	e000      	b.n	c0038a6 <HASH_GetDigest+0x236>
    default:
      break;
 c0038a4:	bf00      	nop
  }
}
 c0038a6:	bf00      	nop
 c0038a8:	3774      	adds	r7, #116	; 0x74
 c0038aa:	46bd      	mov	sp, r7
 c0038ac:	f85d 7b04 	ldr.w	r7, [sp], #4
 c0038b0:	4770      	bx	lr
 c0038b2:	bf00      	nop
 c0038b4:	520c0400 	.word	0x520c0400
 c0038b8:	520c0710 	.word	0x520c0710

0c0038bc <HASH_WaitOnFlagUntilTimeout>:
  * @param  Timeout Timeout duration.
  * @retval HAL status
  */
static HAL_StatusTypeDef HASH_WaitOnFlagUntilTimeout(HASH_HandleTypeDef *hhash, uint32_t Flag, FlagStatus Status,
                                                     uint32_t Timeout)
{
 c0038bc:	b580      	push	{r7, lr}
 c0038be:	b086      	sub	sp, #24
 c0038c0:	af00      	add	r7, sp, #0
 c0038c2:	60f8      	str	r0, [r7, #12]
 c0038c4:	60b9      	str	r1, [r7, #8]
 c0038c6:	603b      	str	r3, [r7, #0]
 c0038c8:	4613      	mov	r3, r2
 c0038ca:	71fb      	strb	r3, [r7, #7]
  uint32_t tickstart = HAL_GetTick();
 c0038cc:	f7fe fdea 	bl	c0024a4 <HAL_GetTick>
 c0038d0:	6178      	str	r0, [r7, #20]

  /* Wait until flag is set */
  if (Status == RESET)
 c0038d2:	79fb      	ldrb	r3, [r7, #7]
 c0038d4:	2b00      	cmp	r3, #0
 c0038d6:	d155      	bne.n	c003984 <HASH_WaitOnFlagUntilTimeout+0xc8>
  {
    while (__HAL_HASH_GET_FLAG(Flag) == RESET)
 c0038d8:	e01c      	b.n	c003914 <HASH_WaitOnFlagUntilTimeout+0x58>
    {
      /* Check for the Timeout */
      if (Timeout != HAL_MAX_DELAY)
 c0038da:	683b      	ldr	r3, [r7, #0]
 c0038dc:	f1b3 3fff 	cmp.w	r3, #4294967295
 c0038e0:	d018      	beq.n	c003914 <HASH_WaitOnFlagUntilTimeout+0x58>
      {
        if (((HAL_GetTick() - tickstart) > Timeout) || (Timeout == 0U))
 c0038e2:	f7fe fddf 	bl	c0024a4 <HAL_GetTick>
 c0038e6:	4602      	mov	r2, r0
 c0038e8:	697b      	ldr	r3, [r7, #20]
 c0038ea:	1ad3      	subs	r3, r2, r3
 c0038ec:	683a      	ldr	r2, [r7, #0]
 c0038ee:	429a      	cmp	r2, r3
 c0038f0:	d302      	bcc.n	c0038f8 <HASH_WaitOnFlagUntilTimeout+0x3c>
 c0038f2:	683b      	ldr	r3, [r7, #0]
 c0038f4:	2b00      	cmp	r3, #0
 c0038f6:	d10d      	bne.n	c003914 <HASH_WaitOnFlagUntilTimeout+0x58>
        {
          /* Set State to Ready to be able to restart later on */
          hhash->State  = HAL_HASH_STATE_READY;
 c0038f8:	68fb      	ldr	r3, [r7, #12]
 c0038fa:	2201      	movs	r2, #1
 c0038fc:	f883 2035 	strb.w	r2, [r3, #53]	; 0x35
          /* Store time out issue in handle status */
          hhash->Status = HAL_TIMEOUT;
 c003900:	68fb      	ldr	r3, [r7, #12]
 c003902:	2203      	movs	r2, #3
 c003904:	f883 202c 	strb.w	r2, [r3, #44]	; 0x2c

          /* Process Unlocked */
          __HAL_UNLOCK(hhash);
 c003908:	68fb      	ldr	r3, [r7, #12]
 c00390a:	2200      	movs	r2, #0
 c00390c:	f883 2034 	strb.w	r2, [r3, #52]	; 0x34

          return HAL_TIMEOUT;
 c003910:	2303      	movs	r3, #3
 c003912:	e052      	b.n	c0039ba <HASH_WaitOnFlagUntilTimeout+0xfe>
    while (__HAL_HASH_GET_FLAG(Flag) == RESET)
 c003914:	68bb      	ldr	r3, [r7, #8]
 c003916:	2b08      	cmp	r3, #8
 c003918:	d90a      	bls.n	c003930 <HASH_WaitOnFlagUntilTimeout+0x74>
 c00391a:	4b2a      	ldr	r3, [pc, #168]	; (c0039c4 <HASH_WaitOnFlagUntilTimeout+0x108>)
 c00391c:	681a      	ldr	r2, [r3, #0]
 c00391e:	68bb      	ldr	r3, [r7, #8]
 c003920:	4013      	ands	r3, r2
 c003922:	68ba      	ldr	r2, [r7, #8]
 c003924:	429a      	cmp	r2, r3
 c003926:	bf14      	ite	ne
 c003928:	2301      	movne	r3, #1
 c00392a:	2300      	moveq	r3, #0
 c00392c:	b2db      	uxtb	r3, r3
 c00392e:	e009      	b.n	c003944 <HASH_WaitOnFlagUntilTimeout+0x88>
 c003930:	4b24      	ldr	r3, [pc, #144]	; (c0039c4 <HASH_WaitOnFlagUntilTimeout+0x108>)
 c003932:	6a5a      	ldr	r2, [r3, #36]	; 0x24
 c003934:	68bb      	ldr	r3, [r7, #8]
 c003936:	4013      	ands	r3, r2
 c003938:	68ba      	ldr	r2, [r7, #8]
 c00393a:	429a      	cmp	r2, r3
 c00393c:	bf14      	ite	ne
 c00393e:	2301      	movne	r3, #1
 c003940:	2300      	moveq	r3, #0
 c003942:	b2db      	uxtb	r3, r3
 c003944:	2b00      	cmp	r3, #0
 c003946:	d1c8      	bne.n	c0038da <HASH_WaitOnFlagUntilTimeout+0x1e>
 c003948:	e036      	b.n	c0039b8 <HASH_WaitOnFlagUntilTimeout+0xfc>
  else
  {
    while (__HAL_HASH_GET_FLAG(Flag) != RESET)
    {
      /* Check for the Timeout */
      if (Timeout != HAL_MAX_DELAY)
 c00394a:	683b      	ldr	r3, [r7, #0]
 c00394c:	f1b3 3fff 	cmp.w	r3, #4294967295
 c003950:	d018      	beq.n	c003984 <HASH_WaitOnFlagUntilTimeout+0xc8>
      {
        if (((HAL_GetTick() - tickstart) > Timeout) || (Timeout == 0U))
 c003952:	f7fe fda7 	bl	c0024a4 <HAL_GetTick>
 c003956:	4602      	mov	r2, r0
 c003958:	697b      	ldr	r3, [r7, #20]
 c00395a:	1ad3      	subs	r3, r2, r3
 c00395c:	683a      	ldr	r2, [r7, #0]
 c00395e:	429a      	cmp	r2, r3
 c003960:	d302      	bcc.n	c003968 <HASH_WaitOnFlagUntilTimeout+0xac>
 c003962:	683b      	ldr	r3, [r7, #0]
 c003964:	2b00      	cmp	r3, #0
 c003966:	d10d      	bne.n	c003984 <HASH_WaitOnFlagUntilTimeout+0xc8>
        {
          /* Set State to Ready to be able to restart later on */
          hhash->State  = HAL_HASH_STATE_READY;
 c003968:	68fb      	ldr	r3, [r7, #12]
 c00396a:	2201      	movs	r2, #1
 c00396c:	f883 2035 	strb.w	r2, [r3, #53]	; 0x35
          /* Store time out issue in handle status */
          hhash->Status = HAL_TIMEOUT;
 c003970:	68fb      	ldr	r3, [r7, #12]
 c003972:	2203      	movs	r2, #3
 c003974:	f883 202c 	strb.w	r2, [r3, #44]	; 0x2c

          /* Process Unlocked */
          __HAL_UNLOCK(hhash);
 c003978:	68fb      	ldr	r3, [r7, #12]
 c00397a:	2200      	movs	r2, #0
 c00397c:	f883 2034 	strb.w	r2, [r3, #52]	; 0x34

          return HAL_TIMEOUT;
 c003980:	2303      	movs	r3, #3
 c003982:	e01a      	b.n	c0039ba <HASH_WaitOnFlagUntilTimeout+0xfe>
    while (__HAL_HASH_GET_FLAG(Flag) != RESET)
 c003984:	68bb      	ldr	r3, [r7, #8]
 c003986:	2b08      	cmp	r3, #8
 c003988:	d90a      	bls.n	c0039a0 <HASH_WaitOnFlagUntilTimeout+0xe4>
 c00398a:	4b0e      	ldr	r3, [pc, #56]	; (c0039c4 <HASH_WaitOnFlagUntilTimeout+0x108>)
 c00398c:	681a      	ldr	r2, [r3, #0]
 c00398e:	68bb      	ldr	r3, [r7, #8]
 c003990:	4013      	ands	r3, r2
 c003992:	68ba      	ldr	r2, [r7, #8]
 c003994:	429a      	cmp	r2, r3
 c003996:	bf0c      	ite	eq
 c003998:	2301      	moveq	r3, #1
 c00399a:	2300      	movne	r3, #0
 c00399c:	b2db      	uxtb	r3, r3
 c00399e:	e009      	b.n	c0039b4 <HASH_WaitOnFlagUntilTimeout+0xf8>
 c0039a0:	4b08      	ldr	r3, [pc, #32]	; (c0039c4 <HASH_WaitOnFlagUntilTimeout+0x108>)
 c0039a2:	6a5a      	ldr	r2, [r3, #36]	; 0x24
 c0039a4:	68bb      	ldr	r3, [r7, #8]
 c0039a6:	4013      	ands	r3, r2
 c0039a8:	68ba      	ldr	r2, [r7, #8]
 c0039aa:	429a      	cmp	r2, r3
 c0039ac:	bf0c      	ite	eq
 c0039ae:	2301      	moveq	r3, #1
 c0039b0:	2300      	movne	r3, #0
 c0039b2:	b2db      	uxtb	r3, r3
 c0039b4:	2b00      	cmp	r3, #0
 c0039b6:	d1c8      	bne.n	c00394a <HASH_WaitOnFlagUntilTimeout+0x8e>
        }
      }
    }
  }
  return HAL_OK;
 c0039b8:	2300      	movs	r3, #0
}
 c0039ba:	4618      	mov	r0, r3
 c0039bc:	3718      	adds	r7, #24
 c0039be:	46bd      	mov	sp, r7
 c0039c0:	bd80      	pop	{r7, pc}
 c0039c2:	bf00      	nop
 c0039c4:	520c0400 	.word	0x520c0400

0c0039c8 <HASH_Start>:
  * @param  Algorithm HASH algorithm.
  * @retval HAL status
  */
HAL_StatusTypeDef HASH_Start(HASH_HandleTypeDef *hhash, uint8_t *pInBuffer, uint32_t Size, uint8_t *pOutBuffer,
                             uint32_t Timeout, uint32_t Algorithm)
{
 c0039c8:	b580      	push	{r7, lr}
 c0039ca:	b088      	sub	sp, #32
 c0039cc:	af00      	add	r7, sp, #0
 c0039ce:	60f8      	str	r0, [r7, #12]
 c0039d0:	60b9      	str	r1, [r7, #8]
 c0039d2:	607a      	str	r2, [r7, #4]
 c0039d4:	603b      	str	r3, [r7, #0]
  uint8_t *pInBuffer_tmp;  /* input data address, input parameter of HASH_WriteData()         */
  uint32_t Size_tmp; /* input data size (in bytes), input parameter of HASH_WriteData() */
  HAL_HASH_StateTypeDef State_tmp = hhash->State;
 c0039d6:	68fb      	ldr	r3, [r7, #12]
 c0039d8:	f893 3035 	ldrb.w	r3, [r3, #53]	; 0x35
 c0039dc:	75fb      	strb	r3, [r7, #23]


  /* Initiate HASH processing in case of start or resumption */
  if ((State_tmp == HAL_HASH_STATE_READY) || (State_tmp == HAL_HASH_STATE_SUSPENDED))
 c0039de:	7dfb      	ldrb	r3, [r7, #23]
 c0039e0:	2b01      	cmp	r3, #1
 c0039e2:	d003      	beq.n	c0039ec <HASH_Start+0x24>
 c0039e4:	7dfb      	ldrb	r3, [r7, #23]
 c0039e6:	2b08      	cmp	r3, #8
 c0039e8:	f040 80c7 	bne.w	c003b7a <HASH_Start+0x1b2>
  {
    /* Check input parameters */
    if ((pInBuffer == NULL) || (pOutBuffer == NULL))
 c0039ec:	68bb      	ldr	r3, [r7, #8]
 c0039ee:	2b00      	cmp	r3, #0
 c0039f0:	d002      	beq.n	c0039f8 <HASH_Start+0x30>
 c0039f2:	683b      	ldr	r3, [r7, #0]
 c0039f4:	2b00      	cmp	r3, #0
 c0039f6:	d105      	bne.n	c003a04 <HASH_Start+0x3c>
    {
      hhash->State = HAL_HASH_STATE_READY;
 c0039f8:	68fb      	ldr	r3, [r7, #12]
 c0039fa:	2201      	movs	r2, #1
 c0039fc:	f883 2035 	strb.w	r2, [r3, #53]	; 0x35
      return  HAL_ERROR;
 c003a00:	2301      	movs	r3, #1
 c003a02:	e0bb      	b.n	c003b7c <HASH_Start+0x1b4>
    }

    /* Process Locked */
    __HAL_LOCK(hhash);
 c003a04:	68fb      	ldr	r3, [r7, #12]
 c003a06:	f893 3034 	ldrb.w	r3, [r3, #52]	; 0x34
 c003a0a:	2b01      	cmp	r3, #1
 c003a0c:	d101      	bne.n	c003a12 <HASH_Start+0x4a>
 c003a0e:	2302      	movs	r3, #2
 c003a10:	e0b4      	b.n	c003b7c <HASH_Start+0x1b4>
 c003a12:	68fb      	ldr	r3, [r7, #12]
 c003a14:	2201      	movs	r2, #1
 c003a16:	f883 2034 	strb.w	r2, [r3, #52]	; 0x34

    /* Check if initialization phase has not been already performed */
    if (hhash->Phase == HAL_HASH_PHASE_READY)
 c003a1a:	68fb      	ldr	r3, [r7, #12]
 c003a1c:	f893 302d 	ldrb.w	r3, [r3, #45]	; 0x2d
 c003a20:	2b01      	cmp	r3, #1
 c003a22:	d123      	bne.n	c003a6c <HASH_Start+0xa4>
    {
      /* Change the HASH state */
      hhash->State = HAL_HASH_STATE_BUSY;
 c003a24:	68fb      	ldr	r3, [r7, #12]
 c003a26:	2202      	movs	r2, #2
 c003a28:	f883 2035 	strb.w	r2, [r3, #53]	; 0x35

      /* Select the HASH algorithm, clear HMAC mode and long key selection bit, reset the HASH processor core */
      MODIFY_REG(HASH->CR, HASH_CR_LKEY | HASH_CR_ALGO | HASH_CR_MODE | HASH_CR_INIT, Algorithm | HASH_CR_INIT);
 c003a2c:	4b55      	ldr	r3, [pc, #340]	; (c003b84 <HASH_Start+0x1bc>)
 c003a2e:	681b      	ldr	r3, [r3, #0]
 c003a30:	f423 23a0 	bic.w	r3, r3, #327680	; 0x50000
 c003a34:	f023 03c4 	bic.w	r3, r3, #196	; 0xc4
 c003a38:	6afa      	ldr	r2, [r7, #44]	; 0x2c
 c003a3a:	4313      	orrs	r3, r2
 c003a3c:	4a51      	ldr	r2, [pc, #324]	; (c003b84 <HASH_Start+0x1bc>)
 c003a3e:	f043 0304 	orr.w	r3, r3, #4
 c003a42:	6013      	str	r3, [r2, #0]

      /* Configure the number of valid bits in last word of the message */
      __HAL_HASH_SET_NBVALIDBITS(Size);
 c003a44:	4b4f      	ldr	r3, [pc, #316]	; (c003b84 <HASH_Start+0x1bc>)
 c003a46:	689b      	ldr	r3, [r3, #8]
 c003a48:	f023 021f 	bic.w	r2, r3, #31
 c003a4c:	687b      	ldr	r3, [r7, #4]
 c003a4e:	f003 0303 	and.w	r3, r3, #3
 c003a52:	00db      	lsls	r3, r3, #3
 c003a54:	494b      	ldr	r1, [pc, #300]	; (c003b84 <HASH_Start+0x1bc>)
 c003a56:	4313      	orrs	r3, r2
 c003a58:	608b      	str	r3, [r1, #8]

      /* pInBuffer_tmp and Size_tmp are initialized to be used afterwards as
      input parameters of HASH_WriteData() */
      pInBuffer_tmp = pInBuffer;   /* pInBuffer_tmp is set to the input data address */
 c003a5a:	68bb      	ldr	r3, [r7, #8]
 c003a5c:	61fb      	str	r3, [r7, #28]
      Size_tmp = Size;             /* Size_tmp contains the input data size in bytes */
 c003a5e:	687b      	ldr	r3, [r7, #4]
 c003a60:	61bb      	str	r3, [r7, #24]

      /* Set the phase */
      hhash->Phase = HAL_HASH_PHASE_PROCESS;
 c003a62:	68fb      	ldr	r3, [r7, #12]
 c003a64:	2202      	movs	r2, #2
 c003a66:	f883 202d 	strb.w	r2, [r3, #45]	; 0x2d
 c003a6a:	e02f      	b.n	c003acc <HASH_Start+0x104>
    }
    else if (hhash->Phase == HAL_HASH_PHASE_PROCESS)
 c003a6c:	68fb      	ldr	r3, [r7, #12]
 c003a6e:	f893 302d 	ldrb.w	r3, [r3, #45]	; 0x2d
 c003a72:	2b02      	cmp	r3, #2
 c003a74:	d120      	bne.n	c003ab8 <HASH_Start+0xf0>
    {
      /* if the Peripheral has already been initialized, two cases are possible */

      /* Process resumption time ... */
      if (hhash->State == HAL_HASH_STATE_SUSPENDED)
 c003a76:	68fb      	ldr	r3, [r7, #12]
 c003a78:	f893 3035 	ldrb.w	r3, [r3, #53]	; 0x35
 c003a7c:	b2db      	uxtb	r3, r3
 c003a7e:	2b08      	cmp	r3, #8
 c003a80:	d106      	bne.n	c003a90 <HASH_Start+0xc8>
      {
        /* Since this is resumption, pInBuffer_tmp and Size_tmp are not set
        to the API input parameters but to those saved beforehand by HASH_WriteData()
        when the processing was suspended */
        pInBuffer_tmp = hhash->pHashInBuffPtr;
 c003a82:	68fb      	ldr	r3, [r7, #12]
 c003a84:	68db      	ldr	r3, [r3, #12]
 c003a86:	61fb      	str	r3, [r7, #28]
        Size_tmp = hhash->HashInCount;
 c003a88:	68fb      	ldr	r3, [r7, #12]
 c003a8a:	6a1b      	ldr	r3, [r3, #32]
 c003a8c:	61bb      	str	r3, [r7, #24]
 c003a8e:	e00e      	b.n	c003aae <HASH_Start+0xe6>
      /* ... or multi-buffer HASH processing end */
      else
      {
        /* pInBuffer_tmp and Size_tmp are initialized to be used afterwards as
        input parameters of HASH_WriteData() */
        pInBuffer_tmp = pInBuffer;
 c003a90:	68bb      	ldr	r3, [r7, #8]
 c003a92:	61fb      	str	r3, [r7, #28]
        Size_tmp = Size;
 c003a94:	687b      	ldr	r3, [r7, #4]
 c003a96:	61bb      	str	r3, [r7, #24]
        /* Configure the number of valid bits in last word of the message */
        __HAL_HASH_SET_NBVALIDBITS(Size);
 c003a98:	4b3a      	ldr	r3, [pc, #232]	; (c003b84 <HASH_Start+0x1bc>)
 c003a9a:	689b      	ldr	r3, [r3, #8]
 c003a9c:	f023 021f 	bic.w	r2, r3, #31
 c003aa0:	687b      	ldr	r3, [r7, #4]
 c003aa2:	f003 0303 	and.w	r3, r3, #3
 c003aa6:	00db      	lsls	r3, r3, #3
 c003aa8:	4936      	ldr	r1, [pc, #216]	; (c003b84 <HASH_Start+0x1bc>)
 c003aaa:	4313      	orrs	r3, r2
 c003aac:	608b      	str	r3, [r1, #8]
      }
      /* Change the HASH state */
      hhash->State = HAL_HASH_STATE_BUSY;
 c003aae:	68fb      	ldr	r3, [r7, #12]
 c003ab0:	2202      	movs	r2, #2
 c003ab2:	f883 2035 	strb.w	r2, [r3, #53]	; 0x35
 c003ab6:	e009      	b.n	c003acc <HASH_Start+0x104>
    }
    else
    {
      /* Phase error */
      hhash->State = HAL_HASH_STATE_READY;
 c003ab8:	68fb      	ldr	r3, [r7, #12]
 c003aba:	2201      	movs	r2, #1
 c003abc:	f883 2035 	strb.w	r2, [r3, #53]	; 0x35

      /* Process Unlocked */
      __HAL_UNLOCK(hhash);
 c003ac0:	68fb      	ldr	r3, [r7, #12]
 c003ac2:	2200      	movs	r2, #0
 c003ac4:	f883 2034 	strb.w	r2, [r3, #52]	; 0x34

      /* Return function status */
      return HAL_ERROR;
 c003ac8:	2301      	movs	r3, #1
 c003aca:	e057      	b.n	c003b7c <HASH_Start+0x1b4>
    }


    /* Write input buffer in Data register */
    hhash->Status = HASH_WriteData(hhash, pInBuffer_tmp, Size_tmp);
 c003acc:	69ba      	ldr	r2, [r7, #24]
 c003ace:	69f9      	ldr	r1, [r7, #28]
 c003ad0:	68f8      	ldr	r0, [r7, #12]
 c003ad2:	f7ff fd5d 	bl	c003590 <HASH_WriteData>
 c003ad6:	4603      	mov	r3, r0
 c003ad8:	461a      	mov	r2, r3
 c003ada:	68fb      	ldr	r3, [r7, #12]
 c003adc:	f883 202c 	strb.w	r2, [r3, #44]	; 0x2c
    if (hhash->Status != HAL_OK)
 c003ae0:	68fb      	ldr	r3, [r7, #12]
 c003ae2:	f893 302c 	ldrb.w	r3, [r3, #44]	; 0x2c
 c003ae6:	2b00      	cmp	r3, #0
 c003ae8:	d003      	beq.n	c003af2 <HASH_Start+0x12a>
    {
      return hhash->Status;
 c003aea:	68fb      	ldr	r3, [r7, #12]
 c003aec:	f893 302c 	ldrb.w	r3, [r3, #44]	; 0x2c
 c003af0:	e044      	b.n	c003b7c <HASH_Start+0x1b4>
    }

    /* If the process has not been suspended, carry on to digest calculation */
    if (hhash->State != HAL_HASH_STATE_SUSPENDED)
 c003af2:	68fb      	ldr	r3, [r7, #12]
 c003af4:	f893 3035 	ldrb.w	r3, [r3, #53]	; 0x35
 c003af8:	b2db      	uxtb	r3, r3
 c003afa:	2b08      	cmp	r3, #8
 c003afc:	d037      	beq.n	c003b6e <HASH_Start+0x1a6>
    {
      /* Start the Digest calculation */
      __HAL_HASH_START_DIGEST();
 c003afe:	4b21      	ldr	r3, [pc, #132]	; (c003b84 <HASH_Start+0x1bc>)
 c003b00:	689b      	ldr	r3, [r3, #8]
 c003b02:	4a20      	ldr	r2, [pc, #128]	; (c003b84 <HASH_Start+0x1bc>)
 c003b04:	f443 7380 	orr.w	r3, r3, #256	; 0x100
 c003b08:	6093      	str	r3, [r2, #8]

      /* Wait for DCIS flag to be set */
      if (HASH_WaitOnFlagUntilTimeout(hhash, HASH_FLAG_DCIS, RESET, Timeout) != HAL_OK)
 c003b0a:	6abb      	ldr	r3, [r7, #40]	; 0x28
 c003b0c:	2200      	movs	r2, #0
 c003b0e:	2102      	movs	r1, #2
 c003b10:	68f8      	ldr	r0, [r7, #12]
 c003b12:	f7ff fed3 	bl	c0038bc <HASH_WaitOnFlagUntilTimeout>
 c003b16:	4603      	mov	r3, r0
 c003b18:	2b00      	cmp	r3, #0
 c003b1a:	d001      	beq.n	c003b20 <HASH_Start+0x158>
      {
        return HAL_TIMEOUT;
 c003b1c:	2303      	movs	r3, #3
 c003b1e:	e02d      	b.n	c003b7c <HASH_Start+0x1b4>
      }

      /* Read the message digest */
      HASH_GetDigest(pOutBuffer, HASH_DIGEST_LENGTH());
 c003b20:	4b18      	ldr	r3, [pc, #96]	; (c003b84 <HASH_Start+0x1bc>)
 c003b22:	681a      	ldr	r2, [r3, #0]
 c003b24:	4b18      	ldr	r3, [pc, #96]	; (c003b88 <HASH_Start+0x1c0>)
 c003b26:	4013      	ands	r3, r2
 c003b28:	2b00      	cmp	r3, #0
 c003b2a:	d013      	beq.n	c003b54 <HASH_Start+0x18c>
 c003b2c:	4b15      	ldr	r3, [pc, #84]	; (c003b84 <HASH_Start+0x1bc>)
 c003b2e:	681a      	ldr	r2, [r3, #0]
 c003b30:	4b15      	ldr	r3, [pc, #84]	; (c003b88 <HASH_Start+0x1c0>)
 c003b32:	4013      	ands	r3, r2
 c003b34:	f5b3 2f80 	cmp.w	r3, #262144	; 0x40000
 c003b38:	d00a      	beq.n	c003b50 <HASH_Start+0x188>
 c003b3a:	4b12      	ldr	r3, [pc, #72]	; (c003b84 <HASH_Start+0x1bc>)
 c003b3c:	681a      	ldr	r2, [r3, #0]
 c003b3e:	4b12      	ldr	r3, [pc, #72]	; (c003b88 <HASH_Start+0x1c0>)
 c003b40:	4013      	ands	r3, r2
 c003b42:	4a11      	ldr	r2, [pc, #68]	; (c003b88 <HASH_Start+0x1c0>)
 c003b44:	4293      	cmp	r3, r2
 c003b46:	d101      	bne.n	c003b4c <HASH_Start+0x184>
 c003b48:	2320      	movs	r3, #32
 c003b4a:	e004      	b.n	c003b56 <HASH_Start+0x18e>
 c003b4c:	2310      	movs	r3, #16
 c003b4e:	e002      	b.n	c003b56 <HASH_Start+0x18e>
 c003b50:	231c      	movs	r3, #28
 c003b52:	e000      	b.n	c003b56 <HASH_Start+0x18e>
 c003b54:	2314      	movs	r3, #20
 c003b56:	4619      	mov	r1, r3
 c003b58:	6838      	ldr	r0, [r7, #0]
 c003b5a:	f7ff fd89 	bl	c003670 <HASH_GetDigest>

      /* Change the HASH state */
      hhash->State = HAL_HASH_STATE_READY;
 c003b5e:	68fb      	ldr	r3, [r7, #12]
 c003b60:	2201      	movs	r2, #1
 c003b62:	f883 2035 	strb.w	r2, [r3, #53]	; 0x35

      /* Reset HASH state machine */
      hhash->Phase = HAL_HASH_PHASE_READY;
 c003b66:	68fb      	ldr	r3, [r7, #12]
 c003b68:	2201      	movs	r2, #1
 c003b6a:	f883 202d 	strb.w	r2, [r3, #45]	; 0x2d

    }

    /* Process Unlocked */
    __HAL_UNLOCK(hhash);
 c003b6e:	68fb      	ldr	r3, [r7, #12]
 c003b70:	2200      	movs	r2, #0
 c003b72:	f883 2034 	strb.w	r2, [r3, #52]	; 0x34

    /* Return function status */
    return HAL_OK;
 c003b76:	2300      	movs	r3, #0
 c003b78:	e000      	b.n	c003b7c <HASH_Start+0x1b4>

  }
  else
  {
    return HAL_BUSY;
 c003b7a:	2302      	movs	r3, #2
  }
}
 c003b7c:	4618      	mov	r0, r3
 c003b7e:	3720      	adds	r7, #32
 c003b80:	46bd      	mov	sp, r7
 c003b82:	bd80      	pop	{r7, pc}
 c003b84:	520c0400 	.word	0x520c0400
 c003b88:	00040080 	.word	0x00040080

0c003b8c <HAL_ICACHE_ConfigAssociativityMode>:
  *            @arg ICACHE_1WAY   1-way cache (direct mapped cache)
  *            @arg ICACHE_2WAYS  2-ways set associative cache (default)
  * @retval HAL status (HAL_OK/HAL_ERROR)
  */
HAL_StatusTypeDef HAL_ICACHE_ConfigAssociativityMode(uint32_t AssociativityMode)
{
 c003b8c:	b480      	push	{r7}
 c003b8e:	b085      	sub	sp, #20
 c003b90:	af00      	add	r7, sp, #0
 c003b92:	6078      	str	r0, [r7, #4]
  HAL_StatusTypeDef status = HAL_OK;
 c003b94:	2300      	movs	r3, #0
 c003b96:	73fb      	strb	r3, [r7, #15]

  /* Check the parameters */
  assert_param(IS_ICACHE_ASSOCIATIVITY_MODE(AssociativityMode));

  /* Check cache is not enabled */
  if (READ_BIT(ICACHE->CR, ICACHE_CR_EN) != 0U)
 c003b98:	4b0b      	ldr	r3, [pc, #44]	; (c003bc8 <HAL_ICACHE_ConfigAssociativityMode+0x3c>)
 c003b9a:	681b      	ldr	r3, [r3, #0]
 c003b9c:	f003 0301 	and.w	r3, r3, #1
 c003ba0:	2b00      	cmp	r3, #0
 c003ba2:	d002      	beq.n	c003baa <HAL_ICACHE_ConfigAssociativityMode+0x1e>
  {
    status = HAL_ERROR;
 c003ba4:	2301      	movs	r3, #1
 c003ba6:	73fb      	strb	r3, [r7, #15]
 c003ba8:	e007      	b.n	c003bba <HAL_ICACHE_ConfigAssociativityMode+0x2e>
  }
  else
  {
    MODIFY_REG(ICACHE->CR, ICACHE_CR_WAYSEL, AssociativityMode);
 c003baa:	4b07      	ldr	r3, [pc, #28]	; (c003bc8 <HAL_ICACHE_ConfigAssociativityMode+0x3c>)
 c003bac:	681b      	ldr	r3, [r3, #0]
 c003bae:	f023 0204 	bic.w	r2, r3, #4
 c003bb2:	4905      	ldr	r1, [pc, #20]	; (c003bc8 <HAL_ICACHE_ConfigAssociativityMode+0x3c>)
 c003bb4:	687b      	ldr	r3, [r7, #4]
 c003bb6:	4313      	orrs	r3, r2
 c003bb8:	600b      	str	r3, [r1, #0]
  }

  return status;
 c003bba:	7bfb      	ldrb	r3, [r7, #15]
}
 c003bbc:	4618      	mov	r0, r3
 c003bbe:	3714      	adds	r7, #20
 c003bc0:	46bd      	mov	sp, r7
 c003bc2:	f85d 7b04 	ldr.w	r7, [sp], #4
 c003bc6:	4770      	bx	lr
 c003bc8:	50030400 	.word	0x50030400

0c003bcc <HAL_ICACHE_Enable>:
  *         cache operation. The Instruction Cache is bypassed until the
  *         cache operation completes.
  * @retval HAL status (HAL_OK)
  */
HAL_StatusTypeDef HAL_ICACHE_Enable(void)
{
 c003bcc:	b480      	push	{r7}
 c003bce:	af00      	add	r7, sp, #0
  SET_BIT(ICACHE->CR, ICACHE_CR_EN);
 c003bd0:	4b05      	ldr	r3, [pc, #20]	; (c003be8 <HAL_ICACHE_Enable+0x1c>)
 c003bd2:	681b      	ldr	r3, [r3, #0]
 c003bd4:	4a04      	ldr	r2, [pc, #16]	; (c003be8 <HAL_ICACHE_Enable+0x1c>)
 c003bd6:	f043 0301 	orr.w	r3, r3, #1
 c003bda:	6013      	str	r3, [r2, #0]

  return HAL_OK;
 c003bdc:	2300      	movs	r3, #0
}
 c003bde:	4618      	mov	r0, r3
 c003be0:	46bd      	mov	sp, r7
 c003be2:	f85d 7b04 	ldr.w	r7, [sp], #4
 c003be6:	4770      	bx	lr
 c003be8:	50030400 	.word	0x50030400

0c003bec <HAL_IWDG_Init>:
  * @param  hiwdg  pointer to a IWDG_HandleTypeDef structure that contains
  *                the configuration information for the specified IWDG module.
  * @retval HAL status
  */
HAL_StatusTypeDef HAL_IWDG_Init(IWDG_HandleTypeDef *hiwdg)
{
 c003bec:	b580      	push	{r7, lr}
 c003bee:	b084      	sub	sp, #16
 c003bf0:	af00      	add	r7, sp, #0
 c003bf2:	6078      	str	r0, [r7, #4]
  uint32_t tickstart;

  /* Check the IWDG handle allocation */
  if (hiwdg == NULL)
 c003bf4:	687b      	ldr	r3, [r7, #4]
 c003bf6:	2b00      	cmp	r3, #0
 c003bf8:	d101      	bne.n	c003bfe <HAL_IWDG_Init+0x12>
  {
    return HAL_ERROR;
 c003bfa:	2301      	movs	r3, #1
 c003bfc:	e041      	b.n	c003c82 <HAL_IWDG_Init+0x96>
  assert_param(IS_IWDG_PRESCALER(hiwdg->Init.Prescaler));
  assert_param(IS_IWDG_RELOAD(hiwdg->Init.Reload));
  assert_param(IS_IWDG_WINDOW(hiwdg->Init.Window));

  /* Enable IWDG. LSI is turned on automatically */
  __HAL_IWDG_START(hiwdg);
 c003bfe:	687b      	ldr	r3, [r7, #4]
 c003c00:	681b      	ldr	r3, [r3, #0]
 c003c02:	f64c 42cc 	movw	r2, #52428	; 0xcccc
 c003c06:	601a      	str	r2, [r3, #0]

  /* Enable write access to IWDG_PR, IWDG_RLR and IWDG_WINR registers by writing
  0x5555 in KR */
  IWDG_ENABLE_WRITE_ACCESS(hiwdg);
 c003c08:	687b      	ldr	r3, [r7, #4]
 c003c0a:	681b      	ldr	r3, [r3, #0]
 c003c0c:	f245 5255 	movw	r2, #21845	; 0x5555
 c003c10:	601a      	str	r2, [r3, #0]

  /* Write to IWDG registers the Prescaler & Reload values to work with */
  hiwdg->Instance->PR = hiwdg->Init.Prescaler;
 c003c12:	687b      	ldr	r3, [r7, #4]
 c003c14:	681b      	ldr	r3, [r3, #0]
 c003c16:	687a      	ldr	r2, [r7, #4]
 c003c18:	6852      	ldr	r2, [r2, #4]
 c003c1a:	605a      	str	r2, [r3, #4]
  hiwdg->Instance->RLR = hiwdg->Init.Reload;
 c003c1c:	687b      	ldr	r3, [r7, #4]
 c003c1e:	681b      	ldr	r3, [r3, #0]
 c003c20:	687a      	ldr	r2, [r7, #4]
 c003c22:	6892      	ldr	r2, [r2, #8]
 c003c24:	609a      	str	r2, [r3, #8]

  /* Check pending flag, if previous update not done, return timeout */
  tickstart = HAL_GetTick();
 c003c26:	f7fe fc3d 	bl	c0024a4 <HAL_GetTick>
 c003c2a:	60f8      	str	r0, [r7, #12]

  /* Wait for register to be updated */
  while ((hiwdg->Instance->SR & IWDG_KERNEL_UPDATE_FLAGS) != 0x00u)
 c003c2c:	e00f      	b.n	c003c4e <HAL_IWDG_Init+0x62>
  {
    if ((HAL_GetTick() - tickstart) > HAL_IWDG_DEFAULT_TIMEOUT)
 c003c2e:	f7fe fc39 	bl	c0024a4 <HAL_GetTick>
 c003c32:	4602      	mov	r2, r0
 c003c34:	68fb      	ldr	r3, [r7, #12]
 c003c36:	1ad3      	subs	r3, r2, r3
 c003c38:	2b30      	cmp	r3, #48	; 0x30
 c003c3a:	d908      	bls.n	c003c4e <HAL_IWDG_Init+0x62>
    {
      if ((hiwdg->Instance->SR & IWDG_KERNEL_UPDATE_FLAGS) != 0x00u)
 c003c3c:	687b      	ldr	r3, [r7, #4]
 c003c3e:	681b      	ldr	r3, [r3, #0]
 c003c40:	68db      	ldr	r3, [r3, #12]
 c003c42:	f003 0307 	and.w	r3, r3, #7
 c003c46:	2b00      	cmp	r3, #0
 c003c48:	d001      	beq.n	c003c4e <HAL_IWDG_Init+0x62>
      {
        return HAL_TIMEOUT;
 c003c4a:	2303      	movs	r3, #3
 c003c4c:	e019      	b.n	c003c82 <HAL_IWDG_Init+0x96>
  while ((hiwdg->Instance->SR & IWDG_KERNEL_UPDATE_FLAGS) != 0x00u)
 c003c4e:	687b      	ldr	r3, [r7, #4]
 c003c50:	681b      	ldr	r3, [r3, #0]
 c003c52:	68db      	ldr	r3, [r3, #12]
 c003c54:	f003 0307 	and.w	r3, r3, #7
 c003c58:	2b00      	cmp	r3, #0
 c003c5a:	d1e8      	bne.n	c003c2e <HAL_IWDG_Init+0x42>
    }
  }

  /* If window parameter is different than current value, modify window
  register */
  if (hiwdg->Instance->WINR != hiwdg->Init.Window)
 c003c5c:	687b      	ldr	r3, [r7, #4]
 c003c5e:	681b      	ldr	r3, [r3, #0]
 c003c60:	691a      	ldr	r2, [r3, #16]
 c003c62:	687b      	ldr	r3, [r7, #4]
 c003c64:	68db      	ldr	r3, [r3, #12]
 c003c66:	429a      	cmp	r2, r3
 c003c68:	d005      	beq.n	c003c76 <HAL_IWDG_Init+0x8a>
  {
    /* Write to IWDG WINR the IWDG_Window value to compare with. In any case,
    even if window feature is disabled, Watchdog will be reloaded by writing
    windows register */
    hiwdg->Instance->WINR = hiwdg->Init.Window;
 c003c6a:	687b      	ldr	r3, [r7, #4]
 c003c6c:	681b      	ldr	r3, [r3, #0]
 c003c6e:	687a      	ldr	r2, [r7, #4]
 c003c70:	68d2      	ldr	r2, [r2, #12]
 c003c72:	611a      	str	r2, [r3, #16]
 c003c74:	e004      	b.n	c003c80 <HAL_IWDG_Init+0x94>
  }
  else
  {
    /* Reload IWDG counter with value defined in the reload register */
    __HAL_IWDG_RELOAD_COUNTER(hiwdg);
 c003c76:	687b      	ldr	r3, [r7, #4]
 c003c78:	681b      	ldr	r3, [r3, #0]
 c003c7a:	f64a 22aa 	movw	r2, #43690	; 0xaaaa
 c003c7e:	601a      	str	r2, [r3, #0]
  }

  /* Return function status */
  return HAL_OK;
 c003c80:	2300      	movs	r3, #0
}
 c003c82:	4618      	mov	r0, r3
 c003c84:	3710      	adds	r7, #16
 c003c86:	46bd      	mov	sp, r7
 c003c88:	bd80      	pop	{r7, pc}

0c003c8a <HAL_IWDG_Refresh>:
  * @param  hiwdg  pointer to a IWDG_HandleTypeDef structure that contains
  *                the configuration information for the specified IWDG module.
  * @retval HAL status
  */
HAL_StatusTypeDef HAL_IWDG_Refresh(IWDG_HandleTypeDef *hiwdg)
{
 c003c8a:	b480      	push	{r7}
 c003c8c:	b083      	sub	sp, #12
 c003c8e:	af00      	add	r7, sp, #0
 c003c90:	6078      	str	r0, [r7, #4]
  /* Reload IWDG counter with value defined in the reload register */
  __HAL_IWDG_RELOAD_COUNTER(hiwdg);
 c003c92:	687b      	ldr	r3, [r7, #4]
 c003c94:	681b      	ldr	r3, [r3, #0]
 c003c96:	f64a 22aa 	movw	r2, #43690	; 0xaaaa
 c003c9a:	601a      	str	r2, [r3, #0]

  /* Return function status */
  return HAL_OK;
 c003c9c:	2300      	movs	r3, #0
}
 c003c9e:	4618      	mov	r0, r3
 c003ca0:	370c      	adds	r7, #12
 c003ca2:	46bd      	mov	sp, r7
 c003ca4:	f85d 7b04 	ldr.w	r7, [sp], #4
 c003ca8:	4770      	bx	lr
	...

0c003cac <HAL_PWREx_GetVoltageRange>:
/**
  * @brief Return Voltage Scaling Range.
  * @retval VOS bit field (PWR_REGULATOR_VOLTAGE_SCALE0, PWR_REGULATOR_VOLTAGE_SCALE1 or PWR_REGULATOR_VOLTAGE_SCALE2)
  */
uint32_t HAL_PWREx_GetVoltageRange(void)
{
 c003cac:	b480      	push	{r7}
 c003cae:	af00      	add	r7, sp, #0
  return (PWR->CR1 & PWR_CR1_VOS);
 c003cb0:	4b04      	ldr	r3, [pc, #16]	; (c003cc4 <HAL_PWREx_GetVoltageRange+0x18>)
 c003cb2:	681b      	ldr	r3, [r3, #0]
 c003cb4:	f403 63c0 	and.w	r3, r3, #1536	; 0x600
}
 c003cb8:	4618      	mov	r0, r3
 c003cba:	46bd      	mov	sp, r7
 c003cbc:	f85d 7b04 	ldr.w	r7, [sp], #4
 c003cc0:	4770      	bx	lr
 c003cc2:	bf00      	nop
 c003cc4:	50007000 	.word	0x50007000

0c003cc8 <HAL_PWREx_ControlVoltageScaling>:
  * @note  The VOS shall NOT be changed in LP Mode of if LP mode is asked.
  * @note  The function shall not be called in Low-power run mode (meaningless and misleading).
  * @retval HAL Status
  */
HAL_StatusTypeDef HAL_PWREx_ControlVoltageScaling(uint32_t VoltageScaling)
{
 c003cc8:	b580      	push	{r7, lr}
 c003cca:	b084      	sub	sp, #16
 c003ccc:	af00      	add	r7, sp, #0
 c003cce:	6078      	str	r0, [r7, #4]
  uint32_t wait_loop_index;

  assert_param(IS_PWR_VOLTAGE_SCALING_RANGE(VoltageScaling));

  uint32_t vos_old = READ_BIT(PWR->CR1, PWR_CR1_VOS);
 c003cd0:	4b27      	ldr	r3, [pc, #156]	; (c003d70 <HAL_PWREx_ControlVoltageScaling+0xa8>)
 c003cd2:	681b      	ldr	r3, [r3, #0]
 c003cd4:	f403 63c0 	and.w	r3, r3, #1536	; 0x600
 c003cd8:	60bb      	str	r3, [r7, #8]

  /* VOS shall not be changed in LP Mode            */
  /* or if LP Mode is asked but not yet established */
  if (HAL_PWREx_SMPS_GetEffectiveMode() == PWR_SMPS_LOW_POWER)
 c003cda:	f000 f871 	bl	c003dc0 <HAL_PWREx_SMPS_GetEffectiveMode>
 c003cde:	4603      	mov	r3, r0
 c003ce0:	f5b3 4f00 	cmp.w	r3, #32768	; 0x8000
 c003ce4:	d101      	bne.n	c003cea <HAL_PWREx_ControlVoltageScaling+0x22>
  {
    return HAL_ERROR;
 c003ce6:	2301      	movs	r3, #1
 c003ce8:	e03e      	b.n	c003d68 <HAL_PWREx_ControlVoltageScaling+0xa0>
  }
  if (READ_BIT(PWR->CR4, PWR_CR4_SMPSLPEN) == PWR_CR4_SMPSLPEN)
 c003cea:	4b21      	ldr	r3, [pc, #132]	; (c003d70 <HAL_PWREx_ControlVoltageScaling+0xa8>)
 c003cec:	68db      	ldr	r3, [r3, #12]
 c003cee:	f403 4300 	and.w	r3, r3, #32768	; 0x8000
 c003cf2:	f5b3 4f00 	cmp.w	r3, #32768	; 0x8000
 c003cf6:	d101      	bne.n	c003cfc <HAL_PWREx_ControlVoltageScaling+0x34>
  {
    return HAL_ERROR;
 c003cf8:	2301      	movs	r3, #1
 c003cfa:	e035      	b.n	c003d68 <HAL_PWREx_ControlVoltageScaling+0xa0>
  }

  /* No change, nothing to do */
  if (vos_old == VoltageScaling)
 c003cfc:	68ba      	ldr	r2, [r7, #8]
 c003cfe:	687b      	ldr	r3, [r7, #4]
 c003d00:	429a      	cmp	r2, r3
 c003d02:	d101      	bne.n	c003d08 <HAL_PWREx_ControlVoltageScaling+0x40>
  {
    return HAL_OK;
 c003d04:	2300      	movs	r3, #0
 c003d06:	e02f      	b.n	c003d68 <HAL_PWREx_ControlVoltageScaling+0xa0>
  }

  MODIFY_REG(PWR->CR1, PWR_CR1_VOS, VoltageScaling);
 c003d08:	4b19      	ldr	r3, [pc, #100]	; (c003d70 <HAL_PWREx_ControlVoltageScaling+0xa8>)
 c003d0a:	681b      	ldr	r3, [r3, #0]
 c003d0c:	f423 62c0 	bic.w	r2, r3, #1536	; 0x600
 c003d10:	4917      	ldr	r1, [pc, #92]	; (c003d70 <HAL_PWREx_ControlVoltageScaling+0xa8>)
 c003d12:	687b      	ldr	r3, [r7, #4]
 c003d14:	4313      	orrs	r3, r2
 c003d16:	600b      	str	r3, [r1, #0]

  /* Wait until VOSF is cleared */
  /* and at least one iteration loop */
  wait_loop_index = ((PWR_VOSF_SETTING_DELAY_VALUE * (SystemCoreClock / 100000U)) / 10U) + 1U;
 c003d18:	4b16      	ldr	r3, [pc, #88]	; (c003d74 <HAL_PWREx_ControlVoltageScaling+0xac>)
 c003d1a:	681b      	ldr	r3, [r3, #0]
 c003d1c:	095b      	lsrs	r3, r3, #5
 c003d1e:	4a16      	ldr	r2, [pc, #88]	; (c003d78 <HAL_PWREx_ControlVoltageScaling+0xb0>)
 c003d20:	fba2 2303 	umull	r2, r3, r2, r3
 c003d24:	09db      	lsrs	r3, r3, #7
 c003d26:	2232      	movs	r2, #50	; 0x32
 c003d28:	fb02 f303 	mul.w	r3, r2, r3
 c003d2c:	4a13      	ldr	r2, [pc, #76]	; (c003d7c <HAL_PWREx_ControlVoltageScaling+0xb4>)
 c003d2e:	fba2 2303 	umull	r2, r3, r2, r3
 c003d32:	08db      	lsrs	r3, r3, #3
 c003d34:	3301      	adds	r3, #1
 c003d36:	60fb      	str	r3, [r7, #12]

  while ((HAL_IS_BIT_SET(PWR->SR2, PWR_SR2_VOSF)) && (wait_loop_index != 0U))
 c003d38:	e002      	b.n	c003d40 <HAL_PWREx_ControlVoltageScaling+0x78>
  {
    wait_loop_index--;
 c003d3a:	68fb      	ldr	r3, [r7, #12]
 c003d3c:	3b01      	subs	r3, #1
 c003d3e:	60fb      	str	r3, [r7, #12]
  while ((HAL_IS_BIT_SET(PWR->SR2, PWR_SR2_VOSF)) && (wait_loop_index != 0U))
 c003d40:	4b0b      	ldr	r3, [pc, #44]	; (c003d70 <HAL_PWREx_ControlVoltageScaling+0xa8>)
 c003d42:	695b      	ldr	r3, [r3, #20]
 c003d44:	f403 6380 	and.w	r3, r3, #1024	; 0x400
 c003d48:	f5b3 6f80 	cmp.w	r3, #1024	; 0x400
 c003d4c:	d102      	bne.n	c003d54 <HAL_PWREx_ControlVoltageScaling+0x8c>
 c003d4e:	68fb      	ldr	r3, [r7, #12]
 c003d50:	2b00      	cmp	r3, #0
 c003d52:	d1f2      	bne.n	c003d3a <HAL_PWREx_ControlVoltageScaling+0x72>
  }

  if (HAL_IS_BIT_SET(PWR->SR2, PWR_SR2_VOSF))
 c003d54:	4b06      	ldr	r3, [pc, #24]	; (c003d70 <HAL_PWREx_ControlVoltageScaling+0xa8>)
 c003d56:	695b      	ldr	r3, [r3, #20]
 c003d58:	f403 6380 	and.w	r3, r3, #1024	; 0x400
 c003d5c:	f5b3 6f80 	cmp.w	r3, #1024	; 0x400
 c003d60:	d101      	bne.n	c003d66 <HAL_PWREx_ControlVoltageScaling+0x9e>
  {
    return HAL_TIMEOUT;
 c003d62:	2303      	movs	r3, #3
 c003d64:	e000      	b.n	c003d68 <HAL_PWREx_ControlVoltageScaling+0xa0>
  }

  return HAL_OK;
 c003d66:	2300      	movs	r3, #0
}
 c003d68:	4618      	mov	r0, r3
 c003d6a:	3710      	adds	r7, #16
 c003d6c:	46bd      	mov	sp, r7
 c003d6e:	bd80      	pop	{r7, pc}
 c003d70:	50007000 	.word	0x50007000
 c003d74:	300000f8 	.word	0x300000f8
 c003d78:	0a7c5ac5 	.word	0x0a7c5ac5
 c003d7c:	cccccccd 	.word	0xcccccccd

0c003d80 <HAL_PWREx_EnableVddIO2>:
  * @brief Enable VDDIO2 supply.
  * @note  Remove VDDIO2 electrical and logical isolation, once VDDIO2 supply is present.
  * @retval None
  */
void HAL_PWREx_EnableVddIO2(void)
{
 c003d80:	b480      	push	{r7}
 c003d82:	af00      	add	r7, sp, #0
  SET_BIT(PWR->CR2, PWR_CR2_IOSV);
 c003d84:	4b05      	ldr	r3, [pc, #20]	; (c003d9c <HAL_PWREx_EnableVddIO2+0x1c>)
 c003d86:	685b      	ldr	r3, [r3, #4]
 c003d88:	4a04      	ldr	r2, [pc, #16]	; (c003d9c <HAL_PWREx_EnableVddIO2+0x1c>)
 c003d8a:	f443 7300 	orr.w	r3, r3, #512	; 0x200
 c003d8e:	6053      	str	r3, [r2, #4]
}
 c003d90:	bf00      	nop
 c003d92:	46bd      	mov	sp, r7
 c003d94:	f85d 7b04 	ldr.w	r7, [sp], #4
 c003d98:	4770      	bx	lr
 c003d9a:	bf00      	nop
 c003d9c:	50007000 	.word	0x50007000

0c003da0 <HAL_PWREx_DisableUCPDDeadBattery>:
  *       or to hand over control to the UCPD (which should therefore be
  *       initialized before doing the disable).
  * @retval None
  */
void HAL_PWREx_DisableUCPDDeadBattery(void)
{
 c003da0:	b480      	push	{r7}
 c003da2:	af00      	add	r7, sp, #0
  /* Write 1 to disable the USB Type-C dead battery pull-down behavior */
  SET_BIT(PWR->CR3, PWR_CR3_UCPD_DBDIS);
 c003da4:	4b05      	ldr	r3, [pc, #20]	; (c003dbc <HAL_PWREx_DisableUCPDDeadBattery+0x1c>)
 c003da6:	689b      	ldr	r3, [r3, #8]
 c003da8:	4a04      	ldr	r2, [pc, #16]	; (c003dbc <HAL_PWREx_DisableUCPDDeadBattery+0x1c>)
 c003daa:	f443 4380 	orr.w	r3, r3, #16384	; 0x4000
 c003dae:	6093      	str	r3, [r2, #8]
}
 c003db0:	bf00      	nop
 c003db2:	46bd      	mov	sp, r7
 c003db4:	f85d 7b04 	ldr.w	r7, [sp], #4
 c003db8:	4770      	bx	lr
 c003dba:	bf00      	nop
 c003dbc:	50007000 	.word	0x50007000

0c003dc0 <HAL_PWREx_SMPS_GetEffectiveMode>:
  *         @arg @ref PWR_SMPS_HIGH_POWER    SMPS step down converter in high-power mode (default)
  *         @arg @ref PWR_SMPS_LOW_POWER     SMPS step down converter in low-power mode
  *         @arg @ref PWR_SMPS_BYPASS        SMPS step down converter in bypass mode
  */
uint32_t HAL_PWREx_SMPS_GetEffectiveMode(void)
{
 c003dc0:	b480      	push	{r7}
 c003dc2:	b083      	sub	sp, #12
 c003dc4:	af00      	add	r7, sp, #0
  uint32_t mode;
  uint32_t pwr_sr1;

  pwr_sr1 = READ_REG(PWR->SR1);
 c003dc6:	4b0f      	ldr	r3, [pc, #60]	; (c003e04 <HAL_PWREx_SMPS_GetEffectiveMode+0x44>)
 c003dc8:	691b      	ldr	r3, [r3, #16]
 c003dca:	603b      	str	r3, [r7, #0]
  if (READ_BIT(pwr_sr1, PWR_SR1_SMPSBYPRDY) != 0U)
 c003dcc:	683b      	ldr	r3, [r7, #0]
 c003dce:	f403 5380 	and.w	r3, r3, #4096	; 0x1000
 c003dd2:	2b00      	cmp	r3, #0
 c003dd4:	d003      	beq.n	c003dde <HAL_PWREx_SMPS_GetEffectiveMode+0x1e>
  {
    mode = PWR_SMPS_BYPASS;
 c003dd6:	f44f 5380 	mov.w	r3, #4096	; 0x1000
 c003dda:	607b      	str	r3, [r7, #4]
 c003ddc:	e00a      	b.n	c003df4 <HAL_PWREx_SMPS_GetEffectiveMode+0x34>
  }
  else if (READ_BIT(pwr_sr1, PWR_SR1_SMPSHPRDY) == 0U)
 c003dde:	683b      	ldr	r3, [r7, #0]
 c003de0:	f403 4300 	and.w	r3, r3, #32768	; 0x8000
 c003de4:	2b00      	cmp	r3, #0
 c003de6:	d103      	bne.n	c003df0 <HAL_PWREx_SMPS_GetEffectiveMode+0x30>
  {
    mode = PWR_SMPS_LOW_POWER;
 c003de8:	f44f 4300 	mov.w	r3, #32768	; 0x8000
 c003dec:	607b      	str	r3, [r7, #4]
 c003dee:	e001      	b.n	c003df4 <HAL_PWREx_SMPS_GetEffectiveMode+0x34>
  }
  else
  {
    mode = PWR_SMPS_HIGH_POWER;
 c003df0:	2300      	movs	r3, #0
 c003df2:	607b      	str	r3, [r7, #4]
  }

  return mode;
 c003df4:	687b      	ldr	r3, [r7, #4]
}
 c003df6:	4618      	mov	r0, r3
 c003df8:	370c      	adds	r7, #12
 c003dfa:	46bd      	mov	sp, r7
 c003dfc:	f85d 7b04 	ldr.w	r7, [sp], #4
 c003e00:	4770      	bx	lr
 c003e02:	bf00      	nop
 c003e04:	50007000 	.word	0x50007000

0c003e08 <HAL_RCC_OscConfig>:
  *         and is updated by this function in case of simple MSI range update when MSI
  *         used as system clock.
  * @retval HAL status
  */
HAL_StatusTypeDef HAL_RCC_OscConfig(RCC_OscInitTypeDef  *RCC_OscInitStruct)
{
 c003e08:	b580      	push	{r7, lr}
 c003e0a:	b088      	sub	sp, #32
 c003e0c:	af00      	add	r7, sp, #0
 c003e0e:	6078      	str	r0, [r7, #4]
  uint32_t tickstart;
  HAL_StatusTypeDef status;
  uint32_t sysclk_source, pll_config;

  /* Check Null pointer */
  if (RCC_OscInitStruct == NULL)
 c003e10:	687b      	ldr	r3, [r7, #4]
 c003e12:	2b00      	cmp	r3, #0
 c003e14:	d102      	bne.n	c003e1c <HAL_RCC_OscConfig+0x14>
  {
    return HAL_ERROR;
 c003e16:	2301      	movs	r3, #1
 c003e18:	f000 bcc2 	b.w	c0047a0 <HAL_RCC_OscConfig+0x998>
  }

  /* Check the parameters */
  assert_param(IS_RCC_OSCILLATORTYPE(RCC_OscInitStruct->OscillatorType));

  sysclk_source = __HAL_RCC_GET_SYSCLK_SOURCE();
 c003e1c:	4b99      	ldr	r3, [pc, #612]	; (c004084 <HAL_RCC_OscConfig+0x27c>)
 c003e1e:	689b      	ldr	r3, [r3, #8]
 c003e20:	f003 030c 	and.w	r3, r3, #12
 c003e24:	61bb      	str	r3, [r7, #24]
  pll_config = __HAL_RCC_GET_PLL_OSCSOURCE();
 c003e26:	4b97      	ldr	r3, [pc, #604]	; (c004084 <HAL_RCC_OscConfig+0x27c>)
 c003e28:	68db      	ldr	r3, [r3, #12]
 c003e2a:	f003 0303 	and.w	r3, r3, #3
 c003e2e:	617b      	str	r3, [r7, #20]

  /*----------------------------- MSI Configuration --------------------------*/
  if (((RCC_OscInitStruct->OscillatorType) & RCC_OSCILLATORTYPE_MSI) == RCC_OSCILLATORTYPE_MSI)
 c003e30:	687b      	ldr	r3, [r7, #4]
 c003e32:	681b      	ldr	r3, [r3, #0]
 c003e34:	f003 0310 	and.w	r3, r3, #16
 c003e38:	2b00      	cmp	r3, #0
 c003e3a:	f000 80e9 	beq.w	c004010 <HAL_RCC_OscConfig+0x208>
    assert_param(IS_RCC_MSI(RCC_OscInitStruct->MSIState));
    assert_param(IS_RCC_MSICALIBRATION_VALUE(RCC_OscInitStruct->MSICalibrationValue));
    assert_param(IS_RCC_MSI_CLOCK_RANGE(RCC_OscInitStruct->MSIClockRange));

    /* Check if MSI is used as system clock or as PLL source when PLL is selected as system clock */
    if ((sysclk_source == RCC_SYSCLKSOURCE_STATUS_MSI) ||
 c003e3e:	69bb      	ldr	r3, [r7, #24]
 c003e40:	2b00      	cmp	r3, #0
 c003e42:	d006      	beq.n	c003e52 <HAL_RCC_OscConfig+0x4a>
 c003e44:	69bb      	ldr	r3, [r7, #24]
 c003e46:	2b0c      	cmp	r3, #12
 c003e48:	f040 8083 	bne.w	c003f52 <HAL_RCC_OscConfig+0x14a>
        ((sysclk_source == RCC_SYSCLKSOURCE_STATUS_PLLCLK) && (pll_config == RCC_PLLSOURCE_MSI)))
 c003e4c:	697b      	ldr	r3, [r7, #20]
 c003e4e:	2b01      	cmp	r3, #1
 c003e50:	d17f      	bne.n	c003f52 <HAL_RCC_OscConfig+0x14a>
    {
      if ((READ_BIT(RCC->CR, RCC_CR_MSIRDY) != 0U) && (RCC_OscInitStruct->MSIState == RCC_MSI_OFF))
 c003e52:	4b8c      	ldr	r3, [pc, #560]	; (c004084 <HAL_RCC_OscConfig+0x27c>)
 c003e54:	681b      	ldr	r3, [r3, #0]
 c003e56:	f003 0302 	and.w	r3, r3, #2
 c003e5a:	2b00      	cmp	r3, #0
 c003e5c:	d006      	beq.n	c003e6c <HAL_RCC_OscConfig+0x64>
 c003e5e:	687b      	ldr	r3, [r7, #4]
 c003e60:	69db      	ldr	r3, [r3, #28]
 c003e62:	2b00      	cmp	r3, #0
 c003e64:	d102      	bne.n	c003e6c <HAL_RCC_OscConfig+0x64>
      {
        return HAL_ERROR;
 c003e66:	2301      	movs	r3, #1
 c003e68:	f000 bc9a 	b.w	c0047a0 <HAL_RCC_OscConfig+0x998>
      else
      {
        /* To correctly read data from FLASH memory, the number of wait states (LATENCY)
           must be correctly programmed according to the frequency of the CPU clock
           (HCLK) and the supply voltage of the device. */
        if (RCC_OscInitStruct->MSIClockRange > __HAL_RCC_GET_MSI_RANGE())
 c003e6c:	687b      	ldr	r3, [r7, #4]
 c003e6e:	6a5a      	ldr	r2, [r3, #36]	; 0x24
 c003e70:	4b84      	ldr	r3, [pc, #528]	; (c004084 <HAL_RCC_OscConfig+0x27c>)
 c003e72:	681b      	ldr	r3, [r3, #0]
 c003e74:	f003 0308 	and.w	r3, r3, #8
 c003e78:	2b00      	cmp	r3, #0
 c003e7a:	d004      	beq.n	c003e86 <HAL_RCC_OscConfig+0x7e>
 c003e7c:	4b81      	ldr	r3, [pc, #516]	; (c004084 <HAL_RCC_OscConfig+0x27c>)
 c003e7e:	681b      	ldr	r3, [r3, #0]
 c003e80:	f003 03f0 	and.w	r3, r3, #240	; 0xf0
 c003e84:	e005      	b.n	c003e92 <HAL_RCC_OscConfig+0x8a>
 c003e86:	4b7f      	ldr	r3, [pc, #508]	; (c004084 <HAL_RCC_OscConfig+0x27c>)
 c003e88:	f8d3 3094 	ldr.w	r3, [r3, #148]	; 0x94
 c003e8c:	091b      	lsrs	r3, r3, #4
 c003e8e:	f003 03f0 	and.w	r3, r3, #240	; 0xf0
 c003e92:	4293      	cmp	r3, r2
 c003e94:	d224      	bcs.n	c003ee0 <HAL_RCC_OscConfig+0xd8>
        {
          /* First increase number of wait states update if necessary */
          if (RCC_SetFlashLatencyFromMSIRange(RCC_OscInitStruct->MSIClockRange) != HAL_OK)
 c003e96:	687b      	ldr	r3, [r7, #4]
 c003e98:	6a5b      	ldr	r3, [r3, #36]	; 0x24
 c003e9a:	4618      	mov	r0, r3
 c003e9c:	f000 fe9c 	bl	c004bd8 <RCC_SetFlashLatencyFromMSIRange>
 c003ea0:	4603      	mov	r3, r0
 c003ea2:	2b00      	cmp	r3, #0
 c003ea4:	d002      	beq.n	c003eac <HAL_RCC_OscConfig+0xa4>
          {
            return HAL_ERROR;
 c003ea6:	2301      	movs	r3, #1
 c003ea8:	f000 bc7a 	b.w	c0047a0 <HAL_RCC_OscConfig+0x998>
          }

          /* Selects the Multiple Speed oscillator (MSI) clock range .*/
          __HAL_RCC_MSI_RANGE_CONFIG(RCC_OscInitStruct->MSIClockRange);
 c003eac:	4b75      	ldr	r3, [pc, #468]	; (c004084 <HAL_RCC_OscConfig+0x27c>)
 c003eae:	681b      	ldr	r3, [r3, #0]
 c003eb0:	4a74      	ldr	r2, [pc, #464]	; (c004084 <HAL_RCC_OscConfig+0x27c>)
 c003eb2:	f043 0308 	orr.w	r3, r3, #8
 c003eb6:	6013      	str	r3, [r2, #0]
 c003eb8:	4b72      	ldr	r3, [pc, #456]	; (c004084 <HAL_RCC_OscConfig+0x27c>)
 c003eba:	681b      	ldr	r3, [r3, #0]
 c003ebc:	f023 02f0 	bic.w	r2, r3, #240	; 0xf0
 c003ec0:	687b      	ldr	r3, [r7, #4]
 c003ec2:	6a5b      	ldr	r3, [r3, #36]	; 0x24
 c003ec4:	496f      	ldr	r1, [pc, #444]	; (c004084 <HAL_RCC_OscConfig+0x27c>)
 c003ec6:	4313      	orrs	r3, r2
 c003ec8:	600b      	str	r3, [r1, #0]
          /* Adjusts the Multiple Speed oscillator (MSI) calibration value.*/
          __HAL_RCC_MSI_CALIBRATIONVALUE_ADJUST(RCC_OscInitStruct->MSICalibrationValue);
 c003eca:	4b6e      	ldr	r3, [pc, #440]	; (c004084 <HAL_RCC_OscConfig+0x27c>)
 c003ecc:	685b      	ldr	r3, [r3, #4]
 c003ece:	f423 427f 	bic.w	r2, r3, #65280	; 0xff00
 c003ed2:	687b      	ldr	r3, [r7, #4]
 c003ed4:	6a1b      	ldr	r3, [r3, #32]
 c003ed6:	021b      	lsls	r3, r3, #8
 c003ed8:	496a      	ldr	r1, [pc, #424]	; (c004084 <HAL_RCC_OscConfig+0x27c>)
 c003eda:	4313      	orrs	r3, r2
 c003edc:	604b      	str	r3, [r1, #4]
 c003ede:	e026      	b.n	c003f2e <HAL_RCC_OscConfig+0x126>
        }
        else
        {
          /* Else, keep current flash latency while decreasing applies */
          /* Selects the Multiple Speed oscillator (MSI) clock range .*/
          __HAL_RCC_MSI_RANGE_CONFIG(RCC_OscInitStruct->MSIClockRange);
 c003ee0:	4b68      	ldr	r3, [pc, #416]	; (c004084 <HAL_RCC_OscConfig+0x27c>)
 c003ee2:	681b      	ldr	r3, [r3, #0]
 c003ee4:	4a67      	ldr	r2, [pc, #412]	; (c004084 <HAL_RCC_OscConfig+0x27c>)
 c003ee6:	f043 0308 	orr.w	r3, r3, #8
 c003eea:	6013      	str	r3, [r2, #0]
 c003eec:	4b65      	ldr	r3, [pc, #404]	; (c004084 <HAL_RCC_OscConfig+0x27c>)
 c003eee:	681b      	ldr	r3, [r3, #0]
 c003ef0:	f023 02f0 	bic.w	r2, r3, #240	; 0xf0
 c003ef4:	687b      	ldr	r3, [r7, #4]
 c003ef6:	6a5b      	ldr	r3, [r3, #36]	; 0x24
 c003ef8:	4962      	ldr	r1, [pc, #392]	; (c004084 <HAL_RCC_OscConfig+0x27c>)
 c003efa:	4313      	orrs	r3, r2
 c003efc:	600b      	str	r3, [r1, #0]
          /* Adjusts the Multiple Speed oscillator (MSI) calibration value.*/
          __HAL_RCC_MSI_CALIBRATIONVALUE_ADJUST(RCC_OscInitStruct->MSICalibrationValue);
 c003efe:	4b61      	ldr	r3, [pc, #388]	; (c004084 <HAL_RCC_OscConfig+0x27c>)
 c003f00:	685b      	ldr	r3, [r3, #4]
 c003f02:	f423 427f 	bic.w	r2, r3, #65280	; 0xff00
 c003f06:	687b      	ldr	r3, [r7, #4]
 c003f08:	6a1b      	ldr	r3, [r3, #32]
 c003f0a:	021b      	lsls	r3, r3, #8
 c003f0c:	495d      	ldr	r1, [pc, #372]	; (c004084 <HAL_RCC_OscConfig+0x27c>)
 c003f0e:	4313      	orrs	r3, r2
 c003f10:	604b      	str	r3, [r1, #4]

          /* Decrease number of wait states update if necessary */
          /* Only possible when MSI is the System clock source  */
          if (sysclk_source == RCC_SYSCLKSOURCE_STATUS_MSI)
 c003f12:	69bb      	ldr	r3, [r7, #24]
 c003f14:	2b00      	cmp	r3, #0
 c003f16:	d10a      	bne.n	c003f2e <HAL_RCC_OscConfig+0x126>
          {
            if (RCC_SetFlashLatencyFromMSIRange(RCC_OscInitStruct->MSIClockRange) != HAL_OK)
 c003f18:	687b      	ldr	r3, [r7, #4]
 c003f1a:	6a5b      	ldr	r3, [r3, #36]	; 0x24
 c003f1c:	4618      	mov	r0, r3
 c003f1e:	f000 fe5b 	bl	c004bd8 <RCC_SetFlashLatencyFromMSIRange>
 c003f22:	4603      	mov	r3, r0
 c003f24:	2b00      	cmp	r3, #0
 c003f26:	d002      	beq.n	c003f2e <HAL_RCC_OscConfig+0x126>
            {
              return HAL_ERROR;
 c003f28:	2301      	movs	r3, #1
 c003f2a:	f000 bc39 	b.w	c0047a0 <HAL_RCC_OscConfig+0x998>
            }
          }
        }

        /* Update the SystemCoreClock global variable */
        SystemCoreClock = HAL_RCC_GetHCLKFreq();
 c003f2e:	f000 fe17 	bl	c004b60 <HAL_RCC_GetHCLKFreq>
 c003f32:	4603      	mov	r3, r0
 c003f34:	4a54      	ldr	r2, [pc, #336]	; (c004088 <HAL_RCC_OscConfig+0x280>)
 c003f36:	6013      	str	r3, [r2, #0]

        /* Configure the source of time base considering new system clocks settings*/
        status = HAL_InitTick(uwTickPrio);
 c003f38:	4b54      	ldr	r3, [pc, #336]	; (c00408c <HAL_RCC_OscConfig+0x284>)
 c003f3a:	681b      	ldr	r3, [r3, #0]
 c003f3c:	4618      	mov	r0, r3
 c003f3e:	f7fe fa61 	bl	c002404 <HAL_InitTick>
 c003f42:	4603      	mov	r3, r0
 c003f44:	73fb      	strb	r3, [r7, #15]
        if (status != HAL_OK)
 c003f46:	7bfb      	ldrb	r3, [r7, #15]
 c003f48:	2b00      	cmp	r3, #0
 c003f4a:	d060      	beq.n	c00400e <HAL_RCC_OscConfig+0x206>
        {
          return status;
 c003f4c:	7bfb      	ldrb	r3, [r7, #15]
 c003f4e:	f000 bc27 	b.w	c0047a0 <HAL_RCC_OscConfig+0x998>
      }
    }
    else
    {
      /* Check the MSI State */
      if (RCC_OscInitStruct->MSIState != RCC_MSI_OFF)
 c003f52:	687b      	ldr	r3, [r7, #4]
 c003f54:	69db      	ldr	r3, [r3, #28]
 c003f56:	2b00      	cmp	r3, #0
 c003f58:	d039      	beq.n	c003fce <HAL_RCC_OscConfig+0x1c6>
      {
        /* Enable the Internal High Speed oscillator (MSI). */
        __HAL_RCC_MSI_ENABLE();
 c003f5a:	4b4a      	ldr	r3, [pc, #296]	; (c004084 <HAL_RCC_OscConfig+0x27c>)
 c003f5c:	681b      	ldr	r3, [r3, #0]
 c003f5e:	4a49      	ldr	r2, [pc, #292]	; (c004084 <HAL_RCC_OscConfig+0x27c>)
 c003f60:	f043 0301 	orr.w	r3, r3, #1
 c003f64:	6013      	str	r3, [r2, #0]

        /* Get timeout */
        tickstart = HAL_GetTick();
 c003f66:	f7fe fa9d 	bl	c0024a4 <HAL_GetTick>
 c003f6a:	6138      	str	r0, [r7, #16]

        /* Wait till MSI is ready */
        while (READ_BIT(RCC->CR, RCC_CR_MSIRDY) == 0U)
 c003f6c:	e00f      	b.n	c003f8e <HAL_RCC_OscConfig+0x186>
        {
          if ((HAL_GetTick() - tickstart) > MSI_TIMEOUT_VALUE)
 c003f6e:	f7fe fa99 	bl	c0024a4 <HAL_GetTick>
 c003f72:	4602      	mov	r2, r0
 c003f74:	693b      	ldr	r3, [r7, #16]
 c003f76:	1ad3      	subs	r3, r2, r3
 c003f78:	2b02      	cmp	r3, #2
 c003f7a:	d908      	bls.n	c003f8e <HAL_RCC_OscConfig+0x186>
          {
            /* New check to avoid false timeout detection in case of preemption */
            if (READ_BIT(RCC->CR, RCC_CR_MSIRDY) == 0U)
 c003f7c:	4b41      	ldr	r3, [pc, #260]	; (c004084 <HAL_RCC_OscConfig+0x27c>)
 c003f7e:	681b      	ldr	r3, [r3, #0]
 c003f80:	f003 0302 	and.w	r3, r3, #2
 c003f84:	2b00      	cmp	r3, #0
 c003f86:	d102      	bne.n	c003f8e <HAL_RCC_OscConfig+0x186>
            {
              return HAL_TIMEOUT;
 c003f88:	2303      	movs	r3, #3
 c003f8a:	f000 bc09 	b.w	c0047a0 <HAL_RCC_OscConfig+0x998>
        while (READ_BIT(RCC->CR, RCC_CR_MSIRDY) == 0U)
 c003f8e:	4b3d      	ldr	r3, [pc, #244]	; (c004084 <HAL_RCC_OscConfig+0x27c>)
 c003f90:	681b      	ldr	r3, [r3, #0]
 c003f92:	f003 0302 	and.w	r3, r3, #2
 c003f96:	2b00      	cmp	r3, #0
 c003f98:	d0e9      	beq.n	c003f6e <HAL_RCC_OscConfig+0x166>
            }
          }
        }
        /* Selects the Multiple Speed oscillator (MSI) clock range .*/
        __HAL_RCC_MSI_RANGE_CONFIG(RCC_OscInitStruct->MSIClockRange);
 c003f9a:	4b3a      	ldr	r3, [pc, #232]	; (c004084 <HAL_RCC_OscConfig+0x27c>)
 c003f9c:	681b      	ldr	r3, [r3, #0]
 c003f9e:	4a39      	ldr	r2, [pc, #228]	; (c004084 <HAL_RCC_OscConfig+0x27c>)
 c003fa0:	f043 0308 	orr.w	r3, r3, #8
 c003fa4:	6013      	str	r3, [r2, #0]
 c003fa6:	4b37      	ldr	r3, [pc, #220]	; (c004084 <HAL_RCC_OscConfig+0x27c>)
 c003fa8:	681b      	ldr	r3, [r3, #0]
 c003faa:	f023 02f0 	bic.w	r2, r3, #240	; 0xf0
 c003fae:	687b      	ldr	r3, [r7, #4]
 c003fb0:	6a5b      	ldr	r3, [r3, #36]	; 0x24
 c003fb2:	4934      	ldr	r1, [pc, #208]	; (c004084 <HAL_RCC_OscConfig+0x27c>)
 c003fb4:	4313      	orrs	r3, r2
 c003fb6:	600b      	str	r3, [r1, #0]
        /* Adjusts the Multiple Speed oscillator (MSI) calibration value.*/
        __HAL_RCC_MSI_CALIBRATIONVALUE_ADJUST(RCC_OscInitStruct->MSICalibrationValue);
 c003fb8:	4b32      	ldr	r3, [pc, #200]	; (c004084 <HAL_RCC_OscConfig+0x27c>)
 c003fba:	685b      	ldr	r3, [r3, #4]
 c003fbc:	f423 427f 	bic.w	r2, r3, #65280	; 0xff00
 c003fc0:	687b      	ldr	r3, [r7, #4]
 c003fc2:	6a1b      	ldr	r3, [r3, #32]
 c003fc4:	021b      	lsls	r3, r3, #8
 c003fc6:	492f      	ldr	r1, [pc, #188]	; (c004084 <HAL_RCC_OscConfig+0x27c>)
 c003fc8:	4313      	orrs	r3, r2
 c003fca:	604b      	str	r3, [r1, #4]
 c003fcc:	e020      	b.n	c004010 <HAL_RCC_OscConfig+0x208>

      }
      else
      {
        /* Disable the Internal High Speed oscillator (MSI). */
        __HAL_RCC_MSI_DISABLE();
 c003fce:	4b2d      	ldr	r3, [pc, #180]	; (c004084 <HAL_RCC_OscConfig+0x27c>)
 c003fd0:	681b      	ldr	r3, [r3, #0]
 c003fd2:	4a2c      	ldr	r2, [pc, #176]	; (c004084 <HAL_RCC_OscConfig+0x27c>)
 c003fd4:	f023 0301 	bic.w	r3, r3, #1
 c003fd8:	6013      	str	r3, [r2, #0]

        /* Get timeout */
        tickstart = HAL_GetTick();
 c003fda:	f7fe fa63 	bl	c0024a4 <HAL_GetTick>
 c003fde:	6138      	str	r0, [r7, #16]

        /* Wait till MSI is ready */
        while (READ_BIT(RCC->CR, RCC_CR_MSIRDY) != 0U)
 c003fe0:	e00e      	b.n	c004000 <HAL_RCC_OscConfig+0x1f8>
        {
          if ((HAL_GetTick() - tickstart) > MSI_TIMEOUT_VALUE)
 c003fe2:	f7fe fa5f 	bl	c0024a4 <HAL_GetTick>
 c003fe6:	4602      	mov	r2, r0
 c003fe8:	693b      	ldr	r3, [r7, #16]
 c003fea:	1ad3      	subs	r3, r2, r3
 c003fec:	2b02      	cmp	r3, #2
 c003fee:	d907      	bls.n	c004000 <HAL_RCC_OscConfig+0x1f8>
          {
            /* New check to avoid false timeout detection in case of preemption */
            if (READ_BIT(RCC->CR, RCC_CR_MSIRDY) != 0U)
 c003ff0:	4b24      	ldr	r3, [pc, #144]	; (c004084 <HAL_RCC_OscConfig+0x27c>)
 c003ff2:	681b      	ldr	r3, [r3, #0]
 c003ff4:	f003 0302 	and.w	r3, r3, #2
 c003ff8:	2b00      	cmp	r3, #0
 c003ffa:	d001      	beq.n	c004000 <HAL_RCC_OscConfig+0x1f8>
            {
              return HAL_TIMEOUT;
 c003ffc:	2303      	movs	r3, #3
 c003ffe:	e3cf      	b.n	c0047a0 <HAL_RCC_OscConfig+0x998>
        while (READ_BIT(RCC->CR, RCC_CR_MSIRDY) != 0U)
 c004000:	4b20      	ldr	r3, [pc, #128]	; (c004084 <HAL_RCC_OscConfig+0x27c>)
 c004002:	681b      	ldr	r3, [r3, #0]
 c004004:	f003 0302 	and.w	r3, r3, #2
 c004008:	2b00      	cmp	r3, #0
 c00400a:	d1ea      	bne.n	c003fe2 <HAL_RCC_OscConfig+0x1da>
 c00400c:	e000      	b.n	c004010 <HAL_RCC_OscConfig+0x208>
      if ((READ_BIT(RCC->CR, RCC_CR_MSIRDY) != 0U) && (RCC_OscInitStruct->MSIState == RCC_MSI_OFF))
 c00400e:	bf00      	nop
        }
      }
    }
  }
  /*------------------------------- HSE Configuration ------------------------*/
  if (((RCC_OscInitStruct->OscillatorType) & RCC_OSCILLATORTYPE_HSE) == RCC_OSCILLATORTYPE_HSE)
 c004010:	687b      	ldr	r3, [r7, #4]
 c004012:	681b      	ldr	r3, [r3, #0]
 c004014:	f003 0301 	and.w	r3, r3, #1
 c004018:	2b00      	cmp	r3, #0
 c00401a:	d07e      	beq.n	c00411a <HAL_RCC_OscConfig+0x312>
  {
    /* Check the parameters */
    assert_param(IS_RCC_HSE(RCC_OscInitStruct->HSEState));

    /* When the HSE is used as system clock or clock source for PLL in these cases it is not allowed to be disabled */
    if ((sysclk_source == RCC_SYSCLKSOURCE_STATUS_HSE) ||
 c00401c:	69bb      	ldr	r3, [r7, #24]
 c00401e:	2b08      	cmp	r3, #8
 c004020:	d005      	beq.n	c00402e <HAL_RCC_OscConfig+0x226>
 c004022:	69bb      	ldr	r3, [r7, #24]
 c004024:	2b0c      	cmp	r3, #12
 c004026:	d10e      	bne.n	c004046 <HAL_RCC_OscConfig+0x23e>
        ((sysclk_source == RCC_SYSCLKSOURCE_STATUS_PLLCLK) && (pll_config == RCC_PLLSOURCE_HSE)))
 c004028:	697b      	ldr	r3, [r7, #20]
 c00402a:	2b03      	cmp	r3, #3
 c00402c:	d10b      	bne.n	c004046 <HAL_RCC_OscConfig+0x23e>
    {
      if ((READ_BIT(RCC->CR, RCC_CR_HSERDY) != 0U) && (RCC_OscInitStruct->HSEState == RCC_HSE_OFF))
 c00402e:	4b15      	ldr	r3, [pc, #84]	; (c004084 <HAL_RCC_OscConfig+0x27c>)
 c004030:	681b      	ldr	r3, [r3, #0]
 c004032:	f403 3300 	and.w	r3, r3, #131072	; 0x20000
 c004036:	2b00      	cmp	r3, #0
 c004038:	d06e      	beq.n	c004118 <HAL_RCC_OscConfig+0x310>
 c00403a:	687b      	ldr	r3, [r7, #4]
 c00403c:	685b      	ldr	r3, [r3, #4]
 c00403e:	2b00      	cmp	r3, #0
 c004040:	d16a      	bne.n	c004118 <HAL_RCC_OscConfig+0x310>
      {
        return HAL_ERROR;
 c004042:	2301      	movs	r3, #1
 c004044:	e3ac      	b.n	c0047a0 <HAL_RCC_OscConfig+0x998>
      }
    }
    else
    {
      /* Set the new HSE configuration ---------------------------------------*/
      __HAL_RCC_HSE_CONFIG(RCC_OscInitStruct->HSEState);
 c004046:	687b      	ldr	r3, [r7, #4]
 c004048:	685b      	ldr	r3, [r3, #4]
 c00404a:	f5b3 3f80 	cmp.w	r3, #65536	; 0x10000
 c00404e:	d106      	bne.n	c00405e <HAL_RCC_OscConfig+0x256>
 c004050:	4b0c      	ldr	r3, [pc, #48]	; (c004084 <HAL_RCC_OscConfig+0x27c>)
 c004052:	681b      	ldr	r3, [r3, #0]
 c004054:	4a0b      	ldr	r2, [pc, #44]	; (c004084 <HAL_RCC_OscConfig+0x27c>)
 c004056:	f443 3380 	orr.w	r3, r3, #65536	; 0x10000
 c00405a:	6013      	str	r3, [r2, #0]
 c00405c:	e024      	b.n	c0040a8 <HAL_RCC_OscConfig+0x2a0>
 c00405e:	687b      	ldr	r3, [r7, #4]
 c004060:	685b      	ldr	r3, [r3, #4]
 c004062:	f5b3 2fa0 	cmp.w	r3, #327680	; 0x50000
 c004066:	d113      	bne.n	c004090 <HAL_RCC_OscConfig+0x288>
 c004068:	4b06      	ldr	r3, [pc, #24]	; (c004084 <HAL_RCC_OscConfig+0x27c>)
 c00406a:	681b      	ldr	r3, [r3, #0]
 c00406c:	4a05      	ldr	r2, [pc, #20]	; (c004084 <HAL_RCC_OscConfig+0x27c>)
 c00406e:	f443 2380 	orr.w	r3, r3, #262144	; 0x40000
 c004072:	6013      	str	r3, [r2, #0]
 c004074:	4b03      	ldr	r3, [pc, #12]	; (c004084 <HAL_RCC_OscConfig+0x27c>)
 c004076:	681b      	ldr	r3, [r3, #0]
 c004078:	4a02      	ldr	r2, [pc, #8]	; (c004084 <HAL_RCC_OscConfig+0x27c>)
 c00407a:	f443 3380 	orr.w	r3, r3, #65536	; 0x10000
 c00407e:	6013      	str	r3, [r2, #0]
 c004080:	e012      	b.n	c0040a8 <HAL_RCC_OscConfig+0x2a0>
 c004082:	bf00      	nop
 c004084:	50021000 	.word	0x50021000
 c004088:	300000f8 	.word	0x300000f8
 c00408c:	300000fc 	.word	0x300000fc
 c004090:	4b8b      	ldr	r3, [pc, #556]	; (c0042c0 <HAL_RCC_OscConfig+0x4b8>)
 c004092:	681b      	ldr	r3, [r3, #0]
 c004094:	4a8a      	ldr	r2, [pc, #552]	; (c0042c0 <HAL_RCC_OscConfig+0x4b8>)
 c004096:	f423 3380 	bic.w	r3, r3, #65536	; 0x10000
 c00409a:	6013      	str	r3, [r2, #0]
 c00409c:	4b88      	ldr	r3, [pc, #544]	; (c0042c0 <HAL_RCC_OscConfig+0x4b8>)
 c00409e:	681b      	ldr	r3, [r3, #0]
 c0040a0:	4a87      	ldr	r2, [pc, #540]	; (c0042c0 <HAL_RCC_OscConfig+0x4b8>)
 c0040a2:	f423 2380 	bic.w	r3, r3, #262144	; 0x40000
 c0040a6:	6013      	str	r3, [r2, #0]

      /* Check the HSE State */
      if (RCC_OscInitStruct->HSEState != RCC_HSE_OFF)
 c0040a8:	687b      	ldr	r3, [r7, #4]
 c0040aa:	685b      	ldr	r3, [r3, #4]
 c0040ac:	2b00      	cmp	r3, #0
 c0040ae:	d019      	beq.n	c0040e4 <HAL_RCC_OscConfig+0x2dc>
      {
        /* Get Start Tick*/
        tickstart = HAL_GetTick();
 c0040b0:	f7fe f9f8 	bl	c0024a4 <HAL_GetTick>
 c0040b4:	6138      	str	r0, [r7, #16]

        /* Wait till HSE is ready */
        while (READ_BIT(RCC->CR, RCC_CR_HSERDY) == 0U)
 c0040b6:	e00e      	b.n	c0040d6 <HAL_RCC_OscConfig+0x2ce>
        {
          if ((HAL_GetTick() - tickstart) > HSE_TIMEOUT_VALUE)
 c0040b8:	f7fe f9f4 	bl	c0024a4 <HAL_GetTick>
 c0040bc:	4602      	mov	r2, r0
 c0040be:	693b      	ldr	r3, [r7, #16]
 c0040c0:	1ad3      	subs	r3, r2, r3
 c0040c2:	2b64      	cmp	r3, #100	; 0x64
 c0040c4:	d907      	bls.n	c0040d6 <HAL_RCC_OscConfig+0x2ce>
          {
            /* New check to avoid false timeout detection in case of preemption */
            if (READ_BIT(RCC->CR, RCC_CR_HSERDY) == 0U)
 c0040c6:	4b7e      	ldr	r3, [pc, #504]	; (c0042c0 <HAL_RCC_OscConfig+0x4b8>)
 c0040c8:	681b      	ldr	r3, [r3, #0]
 c0040ca:	f403 3300 	and.w	r3, r3, #131072	; 0x20000
 c0040ce:	2b00      	cmp	r3, #0
 c0040d0:	d101      	bne.n	c0040d6 <HAL_RCC_OscConfig+0x2ce>
            {
              return HAL_TIMEOUT;
 c0040d2:	2303      	movs	r3, #3
 c0040d4:	e364      	b.n	c0047a0 <HAL_RCC_OscConfig+0x998>
        while (READ_BIT(RCC->CR, RCC_CR_HSERDY) == 0U)
 c0040d6:	4b7a      	ldr	r3, [pc, #488]	; (c0042c0 <HAL_RCC_OscConfig+0x4b8>)
 c0040d8:	681b      	ldr	r3, [r3, #0]
 c0040da:	f403 3300 	and.w	r3, r3, #131072	; 0x20000
 c0040de:	2b00      	cmp	r3, #0
 c0040e0:	d0ea      	beq.n	c0040b8 <HAL_RCC_OscConfig+0x2b0>
 c0040e2:	e01a      	b.n	c00411a <HAL_RCC_OscConfig+0x312>
        }
      }
      else
      {
        /* Get Start Tick*/
        tickstart = HAL_GetTick();
 c0040e4:	f7fe f9de 	bl	c0024a4 <HAL_GetTick>
 c0040e8:	6138      	str	r0, [r7, #16]

        /* Wait till HSE is disabled */
        while (READ_BIT(RCC->CR, RCC_CR_HSERDY) != 0U)
 c0040ea:	e00e      	b.n	c00410a <HAL_RCC_OscConfig+0x302>
        {
          if ((HAL_GetTick() - tickstart) > HSE_TIMEOUT_VALUE)
 c0040ec:	f7fe f9da 	bl	c0024a4 <HAL_GetTick>
 c0040f0:	4602      	mov	r2, r0
 c0040f2:	693b      	ldr	r3, [r7, #16]
 c0040f4:	1ad3      	subs	r3, r2, r3
 c0040f6:	2b64      	cmp	r3, #100	; 0x64
 c0040f8:	d907      	bls.n	c00410a <HAL_RCC_OscConfig+0x302>
          {
            /* New check to avoid false timeout detection in case of preemption */
            if (READ_BIT(RCC->CR, RCC_CR_HSERDY) != 0U)
 c0040fa:	4b71      	ldr	r3, [pc, #452]	; (c0042c0 <HAL_RCC_OscConfig+0x4b8>)
 c0040fc:	681b      	ldr	r3, [r3, #0]
 c0040fe:	f403 3300 	and.w	r3, r3, #131072	; 0x20000
 c004102:	2b00      	cmp	r3, #0
 c004104:	d001      	beq.n	c00410a <HAL_RCC_OscConfig+0x302>
            {
              return HAL_TIMEOUT;
 c004106:	2303      	movs	r3, #3
 c004108:	e34a      	b.n	c0047a0 <HAL_RCC_OscConfig+0x998>
        while (READ_BIT(RCC->CR, RCC_CR_HSERDY) != 0U)
 c00410a:	4b6d      	ldr	r3, [pc, #436]	; (c0042c0 <HAL_RCC_OscConfig+0x4b8>)
 c00410c:	681b      	ldr	r3, [r3, #0]
 c00410e:	f403 3300 	and.w	r3, r3, #131072	; 0x20000
 c004112:	2b00      	cmp	r3, #0
 c004114:	d1ea      	bne.n	c0040ec <HAL_RCC_OscConfig+0x2e4>
 c004116:	e000      	b.n	c00411a <HAL_RCC_OscConfig+0x312>
      if ((READ_BIT(RCC->CR, RCC_CR_HSERDY) != 0U) && (RCC_OscInitStruct->HSEState == RCC_HSE_OFF))
 c004118:	bf00      	nop
        }
      }
    }
  }
  /*----------------------------- HSI Configuration --------------------------*/
  if (((RCC_OscInitStruct->OscillatorType) & RCC_OSCILLATORTYPE_HSI) == RCC_OSCILLATORTYPE_HSI)
 c00411a:	687b      	ldr	r3, [r7, #4]
 c00411c:	681b      	ldr	r3, [r3, #0]
 c00411e:	f003 0302 	and.w	r3, r3, #2
 c004122:	2b00      	cmp	r3, #0
 c004124:	d06c      	beq.n	c004200 <HAL_RCC_OscConfig+0x3f8>
    /* Check the parameters */
    assert_param(IS_RCC_HSI(RCC_OscInitStruct->HSIState));
    assert_param(IS_RCC_HSI_CALIBRATION_VALUE(RCC_OscInitStruct->HSICalibrationValue));

    /* Check if HSI is used as system clock or as PLL source when PLL is selected as system clock */
    if ((sysclk_source == RCC_SYSCLKSOURCE_STATUS_HSI) ||
 c004126:	69bb      	ldr	r3, [r7, #24]
 c004128:	2b04      	cmp	r3, #4
 c00412a:	d005      	beq.n	c004138 <HAL_RCC_OscConfig+0x330>
 c00412c:	69bb      	ldr	r3, [r7, #24]
 c00412e:	2b0c      	cmp	r3, #12
 c004130:	d119      	bne.n	c004166 <HAL_RCC_OscConfig+0x35e>
        ((sysclk_source == RCC_SYSCLKSOURCE_STATUS_PLLCLK) && (pll_config == RCC_PLLSOURCE_HSI)))
 c004132:	697b      	ldr	r3, [r7, #20]
 c004134:	2b02      	cmp	r3, #2
 c004136:	d116      	bne.n	c004166 <HAL_RCC_OscConfig+0x35e>
    {
      /* When HSI is used as system clock it will not be disabled */
      if ((READ_BIT(RCC->CR, RCC_CR_HSIRDY) != 0U) && (RCC_OscInitStruct->HSIState == RCC_HSI_OFF))
 c004138:	4b61      	ldr	r3, [pc, #388]	; (c0042c0 <HAL_RCC_OscConfig+0x4b8>)
 c00413a:	681b      	ldr	r3, [r3, #0]
 c00413c:	f403 6380 	and.w	r3, r3, #1024	; 0x400
 c004140:	2b00      	cmp	r3, #0
 c004142:	d005      	beq.n	c004150 <HAL_RCC_OscConfig+0x348>
 c004144:	687b      	ldr	r3, [r7, #4]
 c004146:	68db      	ldr	r3, [r3, #12]
 c004148:	2b00      	cmp	r3, #0
 c00414a:	d101      	bne.n	c004150 <HAL_RCC_OscConfig+0x348>
      {
        return HAL_ERROR;
 c00414c:	2301      	movs	r3, #1
 c00414e:	e327      	b.n	c0047a0 <HAL_RCC_OscConfig+0x998>
      }
      /* Otherwise, just the calibration is allowed */
      else
      {
        /* Adjusts the Internal High Speed oscillator (HSI) calibration value.*/
        __HAL_RCC_HSI_CALIBRATIONVALUE_ADJUST(RCC_OscInitStruct->HSICalibrationValue);
 c004150:	4b5b      	ldr	r3, [pc, #364]	; (c0042c0 <HAL_RCC_OscConfig+0x4b8>)
 c004152:	685b      	ldr	r3, [r3, #4]
 c004154:	f023 42fe 	bic.w	r2, r3, #2130706432	; 0x7f000000
 c004158:	687b      	ldr	r3, [r7, #4]
 c00415a:	691b      	ldr	r3, [r3, #16]
 c00415c:	061b      	lsls	r3, r3, #24
 c00415e:	4958      	ldr	r1, [pc, #352]	; (c0042c0 <HAL_RCC_OscConfig+0x4b8>)
 c004160:	4313      	orrs	r3, r2
 c004162:	604b      	str	r3, [r1, #4]
      if ((READ_BIT(RCC->CR, RCC_CR_HSIRDY) != 0U) && (RCC_OscInitStruct->HSIState == RCC_HSI_OFF))
 c004164:	e04c      	b.n	c004200 <HAL_RCC_OscConfig+0x3f8>
      }
    }
    else
    {
      /* Check the HSI State */
      if (RCC_OscInitStruct->HSIState != RCC_HSI_OFF)
 c004166:	687b      	ldr	r3, [r7, #4]
 c004168:	68db      	ldr	r3, [r3, #12]
 c00416a:	2b00      	cmp	r3, #0
 c00416c:	d029      	beq.n	c0041c2 <HAL_RCC_OscConfig+0x3ba>
      {
        /* Enable the Internal High Speed oscillator (HSI). */
        __HAL_RCC_HSI_ENABLE();
 c00416e:	4b54      	ldr	r3, [pc, #336]	; (c0042c0 <HAL_RCC_OscConfig+0x4b8>)
 c004170:	681b      	ldr	r3, [r3, #0]
 c004172:	4a53      	ldr	r2, [pc, #332]	; (c0042c0 <HAL_RCC_OscConfig+0x4b8>)
 c004174:	f443 7380 	orr.w	r3, r3, #256	; 0x100
 c004178:	6013      	str	r3, [r2, #0]

        /* Get Start Tick*/
        tickstart = HAL_GetTick();
 c00417a:	f7fe f993 	bl	c0024a4 <HAL_GetTick>
 c00417e:	6138      	str	r0, [r7, #16]

        /* Wait till HSI is ready */
        while (READ_BIT(RCC->CR, RCC_CR_HSIRDY) == 0U)
 c004180:	e00e      	b.n	c0041a0 <HAL_RCC_OscConfig+0x398>
        {
          if ((HAL_GetTick() - tickstart) > HSI_TIMEOUT_VALUE)
 c004182:	f7fe f98f 	bl	c0024a4 <HAL_GetTick>
 c004186:	4602      	mov	r2, r0
 c004188:	693b      	ldr	r3, [r7, #16]
 c00418a:	1ad3      	subs	r3, r2, r3
 c00418c:	2b02      	cmp	r3, #2
 c00418e:	d907      	bls.n	c0041a0 <HAL_RCC_OscConfig+0x398>
          {
            /* New check to avoid false timeout detection in case of preemption */
            if (READ_BIT(RCC->CR, RCC_CR_HSIRDY) == 0U)
 c004190:	4b4b      	ldr	r3, [pc, #300]	; (c0042c0 <HAL_RCC_OscConfig+0x4b8>)
 c004192:	681b      	ldr	r3, [r3, #0]
 c004194:	f403 6380 	and.w	r3, r3, #1024	; 0x400
 c004198:	2b00      	cmp	r3, #0
 c00419a:	d101      	bne.n	c0041a0 <HAL_RCC_OscConfig+0x398>
            {
              return HAL_TIMEOUT;
 c00419c:	2303      	movs	r3, #3
 c00419e:	e2ff      	b.n	c0047a0 <HAL_RCC_OscConfig+0x998>
        while (READ_BIT(RCC->CR, RCC_CR_HSIRDY) == 0U)
 c0041a0:	4b47      	ldr	r3, [pc, #284]	; (c0042c0 <HAL_RCC_OscConfig+0x4b8>)
 c0041a2:	681b      	ldr	r3, [r3, #0]
 c0041a4:	f403 6380 	and.w	r3, r3, #1024	; 0x400
 c0041a8:	2b00      	cmp	r3, #0
 c0041aa:	d0ea      	beq.n	c004182 <HAL_RCC_OscConfig+0x37a>
            }
          }
        }

        /* Adjusts the Internal High Speed oscillator (HSI) calibration value.*/
        __HAL_RCC_HSI_CALIBRATIONVALUE_ADJUST(RCC_OscInitStruct->HSICalibrationValue);
 c0041ac:	4b44      	ldr	r3, [pc, #272]	; (c0042c0 <HAL_RCC_OscConfig+0x4b8>)
 c0041ae:	685b      	ldr	r3, [r3, #4]
 c0041b0:	f023 42fe 	bic.w	r2, r3, #2130706432	; 0x7f000000
 c0041b4:	687b      	ldr	r3, [r7, #4]
 c0041b6:	691b      	ldr	r3, [r3, #16]
 c0041b8:	061b      	lsls	r3, r3, #24
 c0041ba:	4941      	ldr	r1, [pc, #260]	; (c0042c0 <HAL_RCC_OscConfig+0x4b8>)
 c0041bc:	4313      	orrs	r3, r2
 c0041be:	604b      	str	r3, [r1, #4]
 c0041c0:	e01e      	b.n	c004200 <HAL_RCC_OscConfig+0x3f8>
      }
      else
      {
        /* Disable the Internal High Speed oscillator (HSI). */
        __HAL_RCC_HSI_DISABLE();
 c0041c2:	4b3f      	ldr	r3, [pc, #252]	; (c0042c0 <HAL_RCC_OscConfig+0x4b8>)
 c0041c4:	681b      	ldr	r3, [r3, #0]
 c0041c6:	4a3e      	ldr	r2, [pc, #248]	; (c0042c0 <HAL_RCC_OscConfig+0x4b8>)
 c0041c8:	f423 7380 	bic.w	r3, r3, #256	; 0x100
 c0041cc:	6013      	str	r3, [r2, #0]

        /* Get Start Tick*/
        tickstart = HAL_GetTick();
 c0041ce:	f7fe f969 	bl	c0024a4 <HAL_GetTick>
 c0041d2:	6138      	str	r0, [r7, #16]

        /* Wait till HSI is disabled */
        while (READ_BIT(RCC->CR, RCC_CR_HSIRDY) != 0U)
 c0041d4:	e00e      	b.n	c0041f4 <HAL_RCC_OscConfig+0x3ec>
        {
          if ((HAL_GetTick() - tickstart) > HSI_TIMEOUT_VALUE)
 c0041d6:	f7fe f965 	bl	c0024a4 <HAL_GetTick>
 c0041da:	4602      	mov	r2, r0
 c0041dc:	693b      	ldr	r3, [r7, #16]
 c0041de:	1ad3      	subs	r3, r2, r3
 c0041e0:	2b02      	cmp	r3, #2
 c0041e2:	d907      	bls.n	c0041f4 <HAL_RCC_OscConfig+0x3ec>
          {
            /* New check to avoid false timeout detection in case of preemption */
            if (READ_BIT(RCC->CR, RCC_CR_HSIRDY) != 0U)
 c0041e4:	4b36      	ldr	r3, [pc, #216]	; (c0042c0 <HAL_RCC_OscConfig+0x4b8>)
 c0041e6:	681b      	ldr	r3, [r3, #0]
 c0041e8:	f403 6380 	and.w	r3, r3, #1024	; 0x400
 c0041ec:	2b00      	cmp	r3, #0
 c0041ee:	d001      	beq.n	c0041f4 <HAL_RCC_OscConfig+0x3ec>
            {
              return HAL_TIMEOUT;
 c0041f0:	2303      	movs	r3, #3
 c0041f2:	e2d5      	b.n	c0047a0 <HAL_RCC_OscConfig+0x998>
        while (READ_BIT(RCC->CR, RCC_CR_HSIRDY) != 0U)
 c0041f4:	4b32      	ldr	r3, [pc, #200]	; (c0042c0 <HAL_RCC_OscConfig+0x4b8>)
 c0041f6:	681b      	ldr	r3, [r3, #0]
 c0041f8:	f403 6380 	and.w	r3, r3, #1024	; 0x400
 c0041fc:	2b00      	cmp	r3, #0
 c0041fe:	d1ea      	bne.n	c0041d6 <HAL_RCC_OscConfig+0x3ce>
        }
      }
    }
  }
  /*------------------------------ LSI Configuration -------------------------*/
  if (((RCC_OscInitStruct->OscillatorType) & RCC_OSCILLATORTYPE_LSI) == RCC_OSCILLATORTYPE_LSI)
 c004200:	687b      	ldr	r3, [r7, #4]
 c004202:	681b      	ldr	r3, [r3, #0]
 c004204:	f003 0308 	and.w	r3, r3, #8
 c004208:	2b00      	cmp	r3, #0
 c00420a:	d062      	beq.n	c0042d2 <HAL_RCC_OscConfig+0x4ca>
  {
    /* Check the parameters */
    assert_param(IS_RCC_LSI(RCC_OscInitStruct->LSIState));

    /* Check the LSI State */
    if (RCC_OscInitStruct->LSIState != RCC_LSI_OFF)
 c00420c:	687b      	ldr	r3, [r7, #4]
 c00420e:	695b      	ldr	r3, [r3, #20]
 c004210:	2b00      	cmp	r3, #0
 c004212:	d038      	beq.n	c004286 <HAL_RCC_OscConfig+0x47e>
    {
      /* Apply prescaler value */
      if (RCC_OscInitStruct->LSIDiv == RCC_LSI_DIV1)
 c004214:	687b      	ldr	r3, [r7, #4]
 c004216:	699b      	ldr	r3, [r3, #24]
 c004218:	2b00      	cmp	r3, #0
 c00421a:	d108      	bne.n	c00422e <HAL_RCC_OscConfig+0x426>
      {
        CLEAR_BIT(RCC->CSR, RCC_CSR_LSIPRE);
 c00421c:	4b28      	ldr	r3, [pc, #160]	; (c0042c0 <HAL_RCC_OscConfig+0x4b8>)
 c00421e:	f8d3 3094 	ldr.w	r3, [r3, #148]	; 0x94
 c004222:	4a27      	ldr	r2, [pc, #156]	; (c0042c0 <HAL_RCC_OscConfig+0x4b8>)
 c004224:	f023 0310 	bic.w	r3, r3, #16
 c004228:	f8c2 3094 	str.w	r3, [r2, #148]	; 0x94
 c00422c:	e007      	b.n	c00423e <HAL_RCC_OscConfig+0x436>
      }
      else
      {
        SET_BIT(RCC->CSR, RCC_CSR_LSIPRE);
 c00422e:	4b24      	ldr	r3, [pc, #144]	; (c0042c0 <HAL_RCC_OscConfig+0x4b8>)
 c004230:	f8d3 3094 	ldr.w	r3, [r3, #148]	; 0x94
 c004234:	4a22      	ldr	r2, [pc, #136]	; (c0042c0 <HAL_RCC_OscConfig+0x4b8>)
 c004236:	f043 0310 	orr.w	r3, r3, #16
 c00423a:	f8c2 3094 	str.w	r3, [r2, #148]	; 0x94
      }

      /* Enable the Internal Low Speed oscillator (LSI). */
      __HAL_RCC_LSI_ENABLE();
 c00423e:	4b20      	ldr	r3, [pc, #128]	; (c0042c0 <HAL_RCC_OscConfig+0x4b8>)
 c004240:	f8d3 3094 	ldr.w	r3, [r3, #148]	; 0x94
 c004244:	4a1e      	ldr	r2, [pc, #120]	; (c0042c0 <HAL_RCC_OscConfig+0x4b8>)
 c004246:	f043 0301 	orr.w	r3, r3, #1
 c00424a:	f8c2 3094 	str.w	r3, [r2, #148]	; 0x94

      /* Get Start Tick*/
      tickstart = HAL_GetTick();
 c00424e:	f7fe f929 	bl	c0024a4 <HAL_GetTick>
 c004252:	6138      	str	r0, [r7, #16]

      /* Wait till LSI is ready */
      while (READ_BIT(RCC->CSR, RCC_CSR_LSIRDY) == 0U)
 c004254:	e00f      	b.n	c004276 <HAL_RCC_OscConfig+0x46e>
      {
        if ((HAL_GetTick() - tickstart) > LSI_TIMEOUT_VALUE)
 c004256:	f7fe f925 	bl	c0024a4 <HAL_GetTick>
 c00425a:	4602      	mov	r2, r0
 c00425c:	693b      	ldr	r3, [r7, #16]
 c00425e:	1ad3      	subs	r3, r2, r3
 c004260:	2b07      	cmp	r3, #7
 c004262:	d908      	bls.n	c004276 <HAL_RCC_OscConfig+0x46e>
        {
          /* New check to avoid false timeout detection in case of preemption */
          if (READ_BIT(RCC->CSR, RCC_CSR_LSIRDY) == 0U)
 c004264:	4b16      	ldr	r3, [pc, #88]	; (c0042c0 <HAL_RCC_OscConfig+0x4b8>)
 c004266:	f8d3 3094 	ldr.w	r3, [r3, #148]	; 0x94
 c00426a:	f003 0302 	and.w	r3, r3, #2
 c00426e:	2b00      	cmp	r3, #0
 c004270:	d101      	bne.n	c004276 <HAL_RCC_OscConfig+0x46e>
          {
            return HAL_TIMEOUT;
 c004272:	2303      	movs	r3, #3
 c004274:	e294      	b.n	c0047a0 <HAL_RCC_OscConfig+0x998>
      while (READ_BIT(RCC->CSR, RCC_CSR_LSIRDY) == 0U)
 c004276:	4b12      	ldr	r3, [pc, #72]	; (c0042c0 <HAL_RCC_OscConfig+0x4b8>)
 c004278:	f8d3 3094 	ldr.w	r3, [r3, #148]	; 0x94
 c00427c:	f003 0302 	and.w	r3, r3, #2
 c004280:	2b00      	cmp	r3, #0
 c004282:	d0e8      	beq.n	c004256 <HAL_RCC_OscConfig+0x44e>
 c004284:	e025      	b.n	c0042d2 <HAL_RCC_OscConfig+0x4ca>
      }
    }
    else
    {
      /* Disable the Internal Low Speed oscillator (LSI). */
      __HAL_RCC_LSI_DISABLE();
 c004286:	4b0e      	ldr	r3, [pc, #56]	; (c0042c0 <HAL_RCC_OscConfig+0x4b8>)
 c004288:	f8d3 3094 	ldr.w	r3, [r3, #148]	; 0x94
 c00428c:	4a0c      	ldr	r2, [pc, #48]	; (c0042c0 <HAL_RCC_OscConfig+0x4b8>)
 c00428e:	f023 0301 	bic.w	r3, r3, #1
 c004292:	f8c2 3094 	str.w	r3, [r2, #148]	; 0x94

      /* Get Start Tick*/
      tickstart = HAL_GetTick();
 c004296:	f7fe f905 	bl	c0024a4 <HAL_GetTick>
 c00429a:	6138      	str	r0, [r7, #16]

      /* Wait till LSI is disabled */
      while (READ_BIT(RCC->CSR, RCC_CSR_LSIRDY) != 0U)
 c00429c:	e012      	b.n	c0042c4 <HAL_RCC_OscConfig+0x4bc>
      {
        if ((HAL_GetTick() - tickstart) > LSI_TIMEOUT_VALUE)
 c00429e:	f7fe f901 	bl	c0024a4 <HAL_GetTick>
 c0042a2:	4602      	mov	r2, r0
 c0042a4:	693b      	ldr	r3, [r7, #16]
 c0042a6:	1ad3      	subs	r3, r2, r3
 c0042a8:	2b07      	cmp	r3, #7
 c0042aa:	d90b      	bls.n	c0042c4 <HAL_RCC_OscConfig+0x4bc>
        {
          /* New check to avoid false timeout detection in case of preemption */
          if (READ_BIT(RCC->CSR, RCC_CSR_LSIRDY) != 0U)
 c0042ac:	4b04      	ldr	r3, [pc, #16]	; (c0042c0 <HAL_RCC_OscConfig+0x4b8>)
 c0042ae:	f8d3 3094 	ldr.w	r3, [r3, #148]	; 0x94
 c0042b2:	f003 0302 	and.w	r3, r3, #2
 c0042b6:	2b00      	cmp	r3, #0
 c0042b8:	d004      	beq.n	c0042c4 <HAL_RCC_OscConfig+0x4bc>
          {
            return HAL_TIMEOUT;
 c0042ba:	2303      	movs	r3, #3
 c0042bc:	e270      	b.n	c0047a0 <HAL_RCC_OscConfig+0x998>
 c0042be:	bf00      	nop
 c0042c0:	50021000 	.word	0x50021000
      while (READ_BIT(RCC->CSR, RCC_CSR_LSIRDY) != 0U)
 c0042c4:	4ba8      	ldr	r3, [pc, #672]	; (c004568 <HAL_RCC_OscConfig+0x760>)
 c0042c6:	f8d3 3094 	ldr.w	r3, [r3, #148]	; 0x94
 c0042ca:	f003 0302 	and.w	r3, r3, #2
 c0042ce:	2b00      	cmp	r3, #0
 c0042d0:	d1e5      	bne.n	c00429e <HAL_RCC_OscConfig+0x496>
        }
      }
    }
  }
  /*------------------------------ LSE Configuration -------------------------*/
  if (((RCC_OscInitStruct->OscillatorType) & RCC_OSCILLATORTYPE_LSE) == RCC_OSCILLATORTYPE_LSE)
 c0042d2:	687b      	ldr	r3, [r7, #4]
 c0042d4:	681b      	ldr	r3, [r3, #0]
 c0042d6:	f003 0304 	and.w	r3, r3, #4
 c0042da:	2b00      	cmp	r3, #0
 c0042dc:	f000 812d 	beq.w	c00453a <HAL_RCC_OscConfig+0x732>
  {
    FlagStatus       pwrclkchanged = RESET;
 c0042e0:	2300      	movs	r3, #0
 c0042e2:	77fb      	strb	r3, [r7, #31]
    /* Check the parameters */
    assert_param(IS_RCC_LSE(RCC_OscInitStruct->LSEState));

    /* Update LSE configuration in Backup Domain control register    */
    /* Requires to enable write access to Backup Domain of necessary */
    if (HAL_IS_BIT_CLR(RCC->APB1ENR1, RCC_APB1ENR1_PWREN))
 c0042e4:	4ba0      	ldr	r3, [pc, #640]	; (c004568 <HAL_RCC_OscConfig+0x760>)
 c0042e6:	6d9b      	ldr	r3, [r3, #88]	; 0x58
 c0042e8:	f003 5380 	and.w	r3, r3, #268435456	; 0x10000000
 c0042ec:	2b00      	cmp	r3, #0
 c0042ee:	d10d      	bne.n	c00430c <HAL_RCC_OscConfig+0x504>
    {
      __HAL_RCC_PWR_CLK_ENABLE();
 c0042f0:	4b9d      	ldr	r3, [pc, #628]	; (c004568 <HAL_RCC_OscConfig+0x760>)
 c0042f2:	6d9b      	ldr	r3, [r3, #88]	; 0x58
 c0042f4:	4a9c      	ldr	r2, [pc, #624]	; (c004568 <HAL_RCC_OscConfig+0x760>)
 c0042f6:	f043 5380 	orr.w	r3, r3, #268435456	; 0x10000000
 c0042fa:	6593      	str	r3, [r2, #88]	; 0x58
 c0042fc:	4b9a      	ldr	r3, [pc, #616]	; (c004568 <HAL_RCC_OscConfig+0x760>)
 c0042fe:	6d9b      	ldr	r3, [r3, #88]	; 0x58
 c004300:	f003 5380 	and.w	r3, r3, #268435456	; 0x10000000
 c004304:	60bb      	str	r3, [r7, #8]
 c004306:	68bb      	ldr	r3, [r7, #8]
      pwrclkchanged = SET;
 c004308:	2301      	movs	r3, #1
 c00430a:	77fb      	strb	r3, [r7, #31]
    }

    if (HAL_IS_BIT_CLR(PWR->CR1, PWR_CR1_DBP))
 c00430c:	4b97      	ldr	r3, [pc, #604]	; (c00456c <HAL_RCC_OscConfig+0x764>)
 c00430e:	681b      	ldr	r3, [r3, #0]
 c004310:	f403 7380 	and.w	r3, r3, #256	; 0x100
 c004314:	2b00      	cmp	r3, #0
 c004316:	d11e      	bne.n	c004356 <HAL_RCC_OscConfig+0x54e>
    {
      /* Enable write access to Backup domain */
      SET_BIT(PWR->CR1, PWR_CR1_DBP);
 c004318:	4b94      	ldr	r3, [pc, #592]	; (c00456c <HAL_RCC_OscConfig+0x764>)
 c00431a:	681b      	ldr	r3, [r3, #0]
 c00431c:	4a93      	ldr	r2, [pc, #588]	; (c00456c <HAL_RCC_OscConfig+0x764>)
 c00431e:	f443 7380 	orr.w	r3, r3, #256	; 0x100
 c004322:	6013      	str	r3, [r2, #0]

      /* Wait for Backup domain Write protection disable */
      tickstart = HAL_GetTick();
 c004324:	f7fe f8be 	bl	c0024a4 <HAL_GetTick>
 c004328:	6138      	str	r0, [r7, #16]

      while (HAL_IS_BIT_CLR(PWR->CR1, PWR_CR1_DBP))
 c00432a:	e00e      	b.n	c00434a <HAL_RCC_OscConfig+0x542>
      {
        if ((HAL_GetTick() - tickstart) > RCC_DBP_TIMEOUT_VALUE)
 c00432c:	f7fe f8ba 	bl	c0024a4 <HAL_GetTick>
 c004330:	4602      	mov	r2, r0
 c004332:	693b      	ldr	r3, [r7, #16]
 c004334:	1ad3      	subs	r3, r2, r3
 c004336:	2b02      	cmp	r3, #2
 c004338:	d907      	bls.n	c00434a <HAL_RCC_OscConfig+0x542>
        {
          /* New check to avoid false timeout detection in case of preemption */
          if (HAL_IS_BIT_CLR(PWR->CR1, PWR_CR1_DBP))
 c00433a:	4b8c      	ldr	r3, [pc, #560]	; (c00456c <HAL_RCC_OscConfig+0x764>)
 c00433c:	681b      	ldr	r3, [r3, #0]
 c00433e:	f403 7380 	and.w	r3, r3, #256	; 0x100
 c004342:	2b00      	cmp	r3, #0
 c004344:	d101      	bne.n	c00434a <HAL_RCC_OscConfig+0x542>
          {
            return HAL_TIMEOUT;
 c004346:	2303      	movs	r3, #3
 c004348:	e22a      	b.n	c0047a0 <HAL_RCC_OscConfig+0x998>
      while (HAL_IS_BIT_CLR(PWR->CR1, PWR_CR1_DBP))
 c00434a:	4b88      	ldr	r3, [pc, #544]	; (c00456c <HAL_RCC_OscConfig+0x764>)
 c00434c:	681b      	ldr	r3, [r3, #0]
 c00434e:	f403 7380 	and.w	r3, r3, #256	; 0x100
 c004352:	2b00      	cmp	r3, #0
 c004354:	d0ea      	beq.n	c00432c <HAL_RCC_OscConfig+0x524>
        }
      }
    }

    /* Set the new LSE configuration -----------------------------------------*/
    if ((RCC_OscInitStruct->LSEState & RCC_BDCR_LSEON) != 0U)
 c004356:	687b      	ldr	r3, [r7, #4]
 c004358:	689b      	ldr	r3, [r3, #8]
 c00435a:	f003 0301 	and.w	r3, r3, #1
 c00435e:	2b00      	cmp	r3, #0
 c004360:	d01f      	beq.n	c0043a2 <HAL_RCC_OscConfig+0x59a>
    {
      if ((RCC_OscInitStruct->LSEState & RCC_BDCR_LSEBYP) != 0U)
 c004362:	687b      	ldr	r3, [r7, #4]
 c004364:	689b      	ldr	r3, [r3, #8]
 c004366:	f003 0304 	and.w	r3, r3, #4
 c00436a:	2b00      	cmp	r3, #0
 c00436c:	d010      	beq.n	c004390 <HAL_RCC_OscConfig+0x588>
      {
        /* LSE oscillator bypass enable */
        SET_BIT(RCC->BDCR, RCC_BDCR_LSEBYP);
 c00436e:	4b7e      	ldr	r3, [pc, #504]	; (c004568 <HAL_RCC_OscConfig+0x760>)
 c004370:	f8d3 3090 	ldr.w	r3, [r3, #144]	; 0x90
 c004374:	4a7c      	ldr	r2, [pc, #496]	; (c004568 <HAL_RCC_OscConfig+0x760>)
 c004376:	f043 0304 	orr.w	r3, r3, #4
 c00437a:	f8c2 3090 	str.w	r3, [r2, #144]	; 0x90
        SET_BIT(RCC->BDCR, RCC_BDCR_LSEON);
 c00437e:	4b7a      	ldr	r3, [pc, #488]	; (c004568 <HAL_RCC_OscConfig+0x760>)
 c004380:	f8d3 3090 	ldr.w	r3, [r3, #144]	; 0x90
 c004384:	4a78      	ldr	r2, [pc, #480]	; (c004568 <HAL_RCC_OscConfig+0x760>)
 c004386:	f043 0301 	orr.w	r3, r3, #1
 c00438a:	f8c2 3090 	str.w	r3, [r2, #144]	; 0x90
 c00438e:	e018      	b.n	c0043c2 <HAL_RCC_OscConfig+0x5ba>
      }
      else
      {
        /* LSE oscillator enable */
        SET_BIT(RCC->BDCR, RCC_BDCR_LSEON);
 c004390:	4b75      	ldr	r3, [pc, #468]	; (c004568 <HAL_RCC_OscConfig+0x760>)
 c004392:	f8d3 3090 	ldr.w	r3, [r3, #144]	; 0x90
 c004396:	4a74      	ldr	r2, [pc, #464]	; (c004568 <HAL_RCC_OscConfig+0x760>)
 c004398:	f043 0301 	orr.w	r3, r3, #1
 c00439c:	f8c2 3090 	str.w	r3, [r2, #144]	; 0x90
 c0043a0:	e00f      	b.n	c0043c2 <HAL_RCC_OscConfig+0x5ba>
      }
    }
    else
    {
      CLEAR_BIT(RCC->BDCR, RCC_BDCR_LSEON);
 c0043a2:	4b71      	ldr	r3, [pc, #452]	; (c004568 <HAL_RCC_OscConfig+0x760>)
 c0043a4:	f8d3 3090 	ldr.w	r3, [r3, #144]	; 0x90
 c0043a8:	4a6f      	ldr	r2, [pc, #444]	; (c004568 <HAL_RCC_OscConfig+0x760>)
 c0043aa:	f023 0301 	bic.w	r3, r3, #1
 c0043ae:	f8c2 3090 	str.w	r3, [r2, #144]	; 0x90
      CLEAR_BIT(RCC->BDCR, RCC_BDCR_LSEBYP);
 c0043b2:	4b6d      	ldr	r3, [pc, #436]	; (c004568 <HAL_RCC_OscConfig+0x760>)
 c0043b4:	f8d3 3090 	ldr.w	r3, [r3, #144]	; 0x90
 c0043b8:	4a6b      	ldr	r2, [pc, #428]	; (c004568 <HAL_RCC_OscConfig+0x760>)
 c0043ba:	f023 0304 	bic.w	r3, r3, #4
 c0043be:	f8c2 3090 	str.w	r3, [r2, #144]	; 0x90
    }

    /* Check the LSE State */
    if (RCC_OscInitStruct->LSEState != RCC_LSE_OFF)
 c0043c2:	687b      	ldr	r3, [r7, #4]
 c0043c4:	689b      	ldr	r3, [r3, #8]
 c0043c6:	2b00      	cmp	r3, #0
 c0043c8:	d068      	beq.n	c00449c <HAL_RCC_OscConfig+0x694>
    {
      /* Get Start Tick*/
      tickstart = HAL_GetTick();
 c0043ca:	f7fe f86b 	bl	c0024a4 <HAL_GetTick>
 c0043ce:	6138      	str	r0, [r7, #16]

      /* Wait till LSE is ready */
      while (READ_BIT(RCC->BDCR, RCC_BDCR_LSERDY) == 0U)
 c0043d0:	e011      	b.n	c0043f6 <HAL_RCC_OscConfig+0x5ee>
      {
        if ((HAL_GetTick() - tickstart) > RCC_LSE_TIMEOUT_VALUE)
 c0043d2:	f7fe f867 	bl	c0024a4 <HAL_GetTick>
 c0043d6:	4602      	mov	r2, r0
 c0043d8:	693b      	ldr	r3, [r7, #16]
 c0043da:	1ad3      	subs	r3, r2, r3
 c0043dc:	f241 3288 	movw	r2, #5000	; 0x1388
 c0043e0:	4293      	cmp	r3, r2
 c0043e2:	d908      	bls.n	c0043f6 <HAL_RCC_OscConfig+0x5ee>
        {
          /* New check to avoid false timeout detection in case of preemption */
          if (READ_BIT(RCC->BDCR, RCC_BDCR_LSERDY) == 0U)
 c0043e4:	4b60      	ldr	r3, [pc, #384]	; (c004568 <HAL_RCC_OscConfig+0x760>)
 c0043e6:	f8d3 3090 	ldr.w	r3, [r3, #144]	; 0x90
 c0043ea:	f003 0302 	and.w	r3, r3, #2
 c0043ee:	2b00      	cmp	r3, #0
 c0043f0:	d101      	bne.n	c0043f6 <HAL_RCC_OscConfig+0x5ee>
          {
            return HAL_TIMEOUT;
 c0043f2:	2303      	movs	r3, #3
 c0043f4:	e1d4      	b.n	c0047a0 <HAL_RCC_OscConfig+0x998>
      while (READ_BIT(RCC->BDCR, RCC_BDCR_LSERDY) == 0U)
 c0043f6:	4b5c      	ldr	r3, [pc, #368]	; (c004568 <HAL_RCC_OscConfig+0x760>)
 c0043f8:	f8d3 3090 	ldr.w	r3, [r3, #144]	; 0x90
 c0043fc:	f003 0302 	and.w	r3, r3, #2
 c004400:	2b00      	cmp	r3, #0
 c004402:	d0e6      	beq.n	c0043d2 <HAL_RCC_OscConfig+0x5ca>
          }
        }
      }

      /* Enable LSESYS additionally if requested */
      if ((RCC_OscInitStruct->LSEState & RCC_BDCR_LSESYSEN) != 0U)
 c004404:	687b      	ldr	r3, [r7, #4]
 c004406:	689b      	ldr	r3, [r3, #8]
 c004408:	f003 0380 	and.w	r3, r3, #128	; 0x80
 c00440c:	2b00      	cmp	r3, #0
 c00440e:	d022      	beq.n	c004456 <HAL_RCC_OscConfig+0x64e>
      {
        SET_BIT(RCC->BDCR, RCC_BDCR_LSESYSEN);
 c004410:	4b55      	ldr	r3, [pc, #340]	; (c004568 <HAL_RCC_OscConfig+0x760>)
 c004412:	f8d3 3090 	ldr.w	r3, [r3, #144]	; 0x90
 c004416:	4a54      	ldr	r2, [pc, #336]	; (c004568 <HAL_RCC_OscConfig+0x760>)
 c004418:	f043 0380 	orr.w	r3, r3, #128	; 0x80
 c00441c:	f8c2 3090 	str.w	r3, [r2, #144]	; 0x90

        /* Wait till LSESYS is ready */
        while (READ_BIT(RCC->BDCR, RCC_BDCR_LSESYSRDY) == 0U)
 c004420:	e011      	b.n	c004446 <HAL_RCC_OscConfig+0x63e>
        {
          if ((HAL_GetTick() - tickstart) > RCC_LSE_TIMEOUT_VALUE)
 c004422:	f7fe f83f 	bl	c0024a4 <HAL_GetTick>
 c004426:	4602      	mov	r2, r0
 c004428:	693b      	ldr	r3, [r7, #16]
 c00442a:	1ad3      	subs	r3, r2, r3
 c00442c:	f241 3288 	movw	r2, #5000	; 0x1388
 c004430:	4293      	cmp	r3, r2
 c004432:	d908      	bls.n	c004446 <HAL_RCC_OscConfig+0x63e>
          {
            /* New check to avoid false timeout detection in case of preemption */
            if (READ_BIT(RCC->BDCR, RCC_BDCR_LSESYSRDY) == 0U)
 c004434:	4b4c      	ldr	r3, [pc, #304]	; (c004568 <HAL_RCC_OscConfig+0x760>)
 c004436:	f8d3 3090 	ldr.w	r3, [r3, #144]	; 0x90
 c00443a:	f403 6300 	and.w	r3, r3, #2048	; 0x800
 c00443e:	2b00      	cmp	r3, #0
 c004440:	d101      	bne.n	c004446 <HAL_RCC_OscConfig+0x63e>
            {
              return HAL_TIMEOUT;
 c004442:	2303      	movs	r3, #3
 c004444:	e1ac      	b.n	c0047a0 <HAL_RCC_OscConfig+0x998>
        while (READ_BIT(RCC->BDCR, RCC_BDCR_LSESYSRDY) == 0U)
 c004446:	4b48      	ldr	r3, [pc, #288]	; (c004568 <HAL_RCC_OscConfig+0x760>)
 c004448:	f8d3 3090 	ldr.w	r3, [r3, #144]	; 0x90
 c00444c:	f403 6300 	and.w	r3, r3, #2048	; 0x800
 c004450:	2b00      	cmp	r3, #0
 c004452:	d0e6      	beq.n	c004422 <HAL_RCC_OscConfig+0x61a>
 c004454:	e068      	b.n	c004528 <HAL_RCC_OscConfig+0x720>
        }
      }
      else
      {
        /* Make sure LSESYSEN/LSESYSRDY are reset */
        CLEAR_BIT(RCC->BDCR, RCC_BDCR_LSESYSEN);
 c004456:	4b44      	ldr	r3, [pc, #272]	; (c004568 <HAL_RCC_OscConfig+0x760>)
 c004458:	f8d3 3090 	ldr.w	r3, [r3, #144]	; 0x90
 c00445c:	4a42      	ldr	r2, [pc, #264]	; (c004568 <HAL_RCC_OscConfig+0x760>)
 c00445e:	f023 0380 	bic.w	r3, r3, #128	; 0x80
 c004462:	f8c2 3090 	str.w	r3, [r2, #144]	; 0x90

        /* Wait till LSESYSRDY is cleared */
        while (READ_BIT(RCC->BDCR, RCC_BDCR_LSESYSRDY) != 0U)
 c004466:	e011      	b.n	c00448c <HAL_RCC_OscConfig+0x684>
        {
          if ((HAL_GetTick() - tickstart) > RCC_LSE_TIMEOUT_VALUE)
 c004468:	f7fe f81c 	bl	c0024a4 <HAL_GetTick>
 c00446c:	4602      	mov	r2, r0
 c00446e:	693b      	ldr	r3, [r7, #16]
 c004470:	1ad3      	subs	r3, r2, r3
 c004472:	f241 3288 	movw	r2, #5000	; 0x1388
 c004476:	4293      	cmp	r3, r2
 c004478:	d908      	bls.n	c00448c <HAL_RCC_OscConfig+0x684>
          {
            /* New check to avoid false timeout detection in case of preemption */
            if (READ_BIT(RCC->BDCR, RCC_BDCR_LSESYSRDY) != 0U)
 c00447a:	4b3b      	ldr	r3, [pc, #236]	; (c004568 <HAL_RCC_OscConfig+0x760>)
 c00447c:	f8d3 3090 	ldr.w	r3, [r3, #144]	; 0x90
 c004480:	f403 6300 	and.w	r3, r3, #2048	; 0x800
 c004484:	2b00      	cmp	r3, #0
 c004486:	d001      	beq.n	c00448c <HAL_RCC_OscConfig+0x684>
            {
              return HAL_TIMEOUT;
 c004488:	2303      	movs	r3, #3
 c00448a:	e189      	b.n	c0047a0 <HAL_RCC_OscConfig+0x998>
        while (READ_BIT(RCC->BDCR, RCC_BDCR_LSESYSRDY) != 0U)
 c00448c:	4b36      	ldr	r3, [pc, #216]	; (c004568 <HAL_RCC_OscConfig+0x760>)
 c00448e:	f8d3 3090 	ldr.w	r3, [r3, #144]	; 0x90
 c004492:	f403 6300 	and.w	r3, r3, #2048	; 0x800
 c004496:	2b00      	cmp	r3, #0
 c004498:	d1e6      	bne.n	c004468 <HAL_RCC_OscConfig+0x660>
 c00449a:	e045      	b.n	c004528 <HAL_RCC_OscConfig+0x720>
      }
    }
    else
    {
      /* Get Start Tick*/
      tickstart = HAL_GetTick();
 c00449c:	f7fe f802 	bl	c0024a4 <HAL_GetTick>
 c0044a0:	6138      	str	r0, [r7, #16]

      /* Wait till LSE is disabled */
      while (READ_BIT(RCC->BDCR, RCC_BDCR_LSERDY) != 0U)
 c0044a2:	e011      	b.n	c0044c8 <HAL_RCC_OscConfig+0x6c0>
      {
        if ((HAL_GetTick() - tickstart) > RCC_LSE_TIMEOUT_VALUE)
 c0044a4:	f7fd fffe 	bl	c0024a4 <HAL_GetTick>
 c0044a8:	4602      	mov	r2, r0
 c0044aa:	693b      	ldr	r3, [r7, #16]
 c0044ac:	1ad3      	subs	r3, r2, r3
 c0044ae:	f241 3288 	movw	r2, #5000	; 0x1388
 c0044b2:	4293      	cmp	r3, r2
 c0044b4:	d908      	bls.n	c0044c8 <HAL_RCC_OscConfig+0x6c0>
        {
          /* New check to avoid false timeout detection in case of preemption */
          if (READ_BIT(RCC->BDCR, RCC_BDCR_LSERDY) != 0U)
 c0044b6:	4b2c      	ldr	r3, [pc, #176]	; (c004568 <HAL_RCC_OscConfig+0x760>)
 c0044b8:	f8d3 3090 	ldr.w	r3, [r3, #144]	; 0x90
 c0044bc:	f003 0302 	and.w	r3, r3, #2
 c0044c0:	2b00      	cmp	r3, #0
 c0044c2:	d001      	beq.n	c0044c8 <HAL_RCC_OscConfig+0x6c0>
          {
            return HAL_TIMEOUT;
 c0044c4:	2303      	movs	r3, #3
 c0044c6:	e16b      	b.n	c0047a0 <HAL_RCC_OscConfig+0x998>
      while (READ_BIT(RCC->BDCR, RCC_BDCR_LSERDY) != 0U)
 c0044c8:	4b27      	ldr	r3, [pc, #156]	; (c004568 <HAL_RCC_OscConfig+0x760>)
 c0044ca:	f8d3 3090 	ldr.w	r3, [r3, #144]	; 0x90
 c0044ce:	f003 0302 	and.w	r3, r3, #2
 c0044d2:	2b00      	cmp	r3, #0
 c0044d4:	d1e6      	bne.n	c0044a4 <HAL_RCC_OscConfig+0x69c>
          }
        }
      }

      if (READ_BIT(RCC->BDCR, RCC_BDCR_LSESYSEN) != 0U)
 c0044d6:	4b24      	ldr	r3, [pc, #144]	; (c004568 <HAL_RCC_OscConfig+0x760>)
 c0044d8:	f8d3 3090 	ldr.w	r3, [r3, #144]	; 0x90
 c0044dc:	f003 0380 	and.w	r3, r3, #128	; 0x80
 c0044e0:	2b00      	cmp	r3, #0
 c0044e2:	d021      	beq.n	c004528 <HAL_RCC_OscConfig+0x720>
      {
        /* Reset LSESYSEN once LSE is disabled */
        CLEAR_BIT(RCC->BDCR, RCC_BDCR_LSESYSEN);
 c0044e4:	4b20      	ldr	r3, [pc, #128]	; (c004568 <HAL_RCC_OscConfig+0x760>)
 c0044e6:	f8d3 3090 	ldr.w	r3, [r3, #144]	; 0x90
 c0044ea:	4a1f      	ldr	r2, [pc, #124]	; (c004568 <HAL_RCC_OscConfig+0x760>)
 c0044ec:	f023 0380 	bic.w	r3, r3, #128	; 0x80
 c0044f0:	f8c2 3090 	str.w	r3, [r2, #144]	; 0x90

        /* Wait till LSESYSRDY is cleared */
        while (READ_BIT(RCC->BDCR, RCC_BDCR_LSESYSRDY) != 0U)
 c0044f4:	e011      	b.n	c00451a <HAL_RCC_OscConfig+0x712>
        {
          if ((HAL_GetTick() - tickstart) > RCC_LSE_TIMEOUT_VALUE)
 c0044f6:	f7fd ffd5 	bl	c0024a4 <HAL_GetTick>
 c0044fa:	4602      	mov	r2, r0
 c0044fc:	693b      	ldr	r3, [r7, #16]
 c0044fe:	1ad3      	subs	r3, r2, r3
 c004500:	f241 3288 	movw	r2, #5000	; 0x1388
 c004504:	4293      	cmp	r3, r2
 c004506:	d908      	bls.n	c00451a <HAL_RCC_OscConfig+0x712>
          {
            /* New check to avoid false timeout detection in case of preemption */
            if (READ_BIT(RCC->BDCR, RCC_BDCR_LSESYSRDY) != 0U)
 c004508:	4b17      	ldr	r3, [pc, #92]	; (c004568 <HAL_RCC_OscConfig+0x760>)
 c00450a:	f8d3 3090 	ldr.w	r3, [r3, #144]	; 0x90
 c00450e:	f403 6300 	and.w	r3, r3, #2048	; 0x800
 c004512:	2b00      	cmp	r3, #0
 c004514:	d001      	beq.n	c00451a <HAL_RCC_OscConfig+0x712>
            {
              return HAL_TIMEOUT;
 c004516:	2303      	movs	r3, #3
 c004518:	e142      	b.n	c0047a0 <HAL_RCC_OscConfig+0x998>
        while (READ_BIT(RCC->BDCR, RCC_BDCR_LSESYSRDY) != 0U)
 c00451a:	4b13      	ldr	r3, [pc, #76]	; (c004568 <HAL_RCC_OscConfig+0x760>)
 c00451c:	f8d3 3090 	ldr.w	r3, [r3, #144]	; 0x90
 c004520:	f403 6300 	and.w	r3, r3, #2048	; 0x800
 c004524:	2b00      	cmp	r3, #0
 c004526:	d1e6      	bne.n	c0044f6 <HAL_RCC_OscConfig+0x6ee>
        }
      }
    }

    /* Restore clock configuration if changed */
    if (pwrclkchanged == SET)
 c004528:	7ffb      	ldrb	r3, [r7, #31]
 c00452a:	2b01      	cmp	r3, #1
 c00452c:	d105      	bne.n	c00453a <HAL_RCC_OscConfig+0x732>
    {
      __HAL_RCC_PWR_CLK_DISABLE();
 c00452e:	4b0e      	ldr	r3, [pc, #56]	; (c004568 <HAL_RCC_OscConfig+0x760>)
 c004530:	6d9b      	ldr	r3, [r3, #88]	; 0x58
 c004532:	4a0d      	ldr	r2, [pc, #52]	; (c004568 <HAL_RCC_OscConfig+0x760>)
 c004534:	f023 5380 	bic.w	r3, r3, #268435456	; 0x10000000
 c004538:	6593      	str	r3, [r2, #88]	; 0x58
    }
  }
  /*------------------------------ HSI48 Configuration -----------------------*/
  if (((RCC_OscInitStruct->OscillatorType) & RCC_OSCILLATORTYPE_HSI48) == RCC_OSCILLATORTYPE_HSI48)
 c00453a:	687b      	ldr	r3, [r7, #4]
 c00453c:	681b      	ldr	r3, [r3, #0]
 c00453e:	f003 0320 	and.w	r3, r3, #32
 c004542:	2b00      	cmp	r3, #0
 c004544:	d04f      	beq.n	c0045e6 <HAL_RCC_OscConfig+0x7de>
  {
    /* Check the parameters */
    assert_param(IS_RCC_HSI48(RCC_OscInitStruct->HSI48State));

    /* Check the LSI State */
    if (RCC_OscInitStruct->HSI48State != RCC_HSI48_OFF)
 c004546:	687b      	ldr	r3, [r7, #4]
 c004548:	6a9b      	ldr	r3, [r3, #40]	; 0x28
 c00454a:	2b00      	cmp	r3, #0
 c00454c:	d028      	beq.n	c0045a0 <HAL_RCC_OscConfig+0x798>
    {
      /* Enable the Internal Low Speed oscillator (HSI48). */
      __HAL_RCC_HSI48_ENABLE();
 c00454e:	4b06      	ldr	r3, [pc, #24]	; (c004568 <HAL_RCC_OscConfig+0x760>)
 c004550:	f8d3 3098 	ldr.w	r3, [r3, #152]	; 0x98
 c004554:	4a04      	ldr	r2, [pc, #16]	; (c004568 <HAL_RCC_OscConfig+0x760>)
 c004556:	f043 0301 	orr.w	r3, r3, #1
 c00455a:	f8c2 3098 	str.w	r3, [r2, #152]	; 0x98

      /* Get Start Tick*/
      tickstart = HAL_GetTick();
 c00455e:	f7fd ffa1 	bl	c0024a4 <HAL_GetTick>
 c004562:	6138      	str	r0, [r7, #16]

      /* Wait till HSI48 is ready */
      while (READ_BIT(RCC->CRRCR, RCC_CRRCR_HSI48RDY) == 0U)
 c004564:	e014      	b.n	c004590 <HAL_RCC_OscConfig+0x788>
 c004566:	bf00      	nop
 c004568:	50021000 	.word	0x50021000
 c00456c:	50007000 	.word	0x50007000
      {
        if ((HAL_GetTick() - tickstart) > HSI48_TIMEOUT_VALUE)
 c004570:	f7fd ff98 	bl	c0024a4 <HAL_GetTick>
 c004574:	4602      	mov	r2, r0
 c004576:	693b      	ldr	r3, [r7, #16]
 c004578:	1ad3      	subs	r3, r2, r3
 c00457a:	2b02      	cmp	r3, #2
 c00457c:	d908      	bls.n	c004590 <HAL_RCC_OscConfig+0x788>
        {
          /* New check to avoid false timeout detection in case of preemption */
          if (READ_BIT(RCC->CRRCR, RCC_CRRCR_HSI48RDY) == 0U)
 c00457e:	4b8a      	ldr	r3, [pc, #552]	; (c0047a8 <HAL_RCC_OscConfig+0x9a0>)
 c004580:	f8d3 3098 	ldr.w	r3, [r3, #152]	; 0x98
 c004584:	f003 0302 	and.w	r3, r3, #2
 c004588:	2b00      	cmp	r3, #0
 c00458a:	d101      	bne.n	c004590 <HAL_RCC_OscConfig+0x788>
          {
            return HAL_TIMEOUT;
 c00458c:	2303      	movs	r3, #3
 c00458e:	e107      	b.n	c0047a0 <HAL_RCC_OscConfig+0x998>
      while (READ_BIT(RCC->CRRCR, RCC_CRRCR_HSI48RDY) == 0U)
 c004590:	4b85      	ldr	r3, [pc, #532]	; (c0047a8 <HAL_RCC_OscConfig+0x9a0>)
 c004592:	f8d3 3098 	ldr.w	r3, [r3, #152]	; 0x98
 c004596:	f003 0302 	and.w	r3, r3, #2
 c00459a:	2b00      	cmp	r3, #0
 c00459c:	d0e8      	beq.n	c004570 <HAL_RCC_OscConfig+0x768>
 c00459e:	e022      	b.n	c0045e6 <HAL_RCC_OscConfig+0x7de>
      }
    }
    else
    {
      /* Disable the Internal Low Speed oscillator (HSI48). */
      __HAL_RCC_HSI48_DISABLE();
 c0045a0:	4b81      	ldr	r3, [pc, #516]	; (c0047a8 <HAL_RCC_OscConfig+0x9a0>)
 c0045a2:	f8d3 3098 	ldr.w	r3, [r3, #152]	; 0x98
 c0045a6:	4a80      	ldr	r2, [pc, #512]	; (c0047a8 <HAL_RCC_OscConfig+0x9a0>)
 c0045a8:	f023 0301 	bic.w	r3, r3, #1
 c0045ac:	f8c2 3098 	str.w	r3, [r2, #152]	; 0x98

      /* Get Start Tick*/
      tickstart = HAL_GetTick();
 c0045b0:	f7fd ff78 	bl	c0024a4 <HAL_GetTick>
 c0045b4:	6138      	str	r0, [r7, #16]

      /* Wait till HSI48 is disabled */
      while (READ_BIT(RCC->CRRCR, RCC_CRRCR_HSI48RDY) != 0U)
 c0045b6:	e00f      	b.n	c0045d8 <HAL_RCC_OscConfig+0x7d0>
      {
        if ((HAL_GetTick() - tickstart) > HSI48_TIMEOUT_VALUE)
 c0045b8:	f7fd ff74 	bl	c0024a4 <HAL_GetTick>
 c0045bc:	4602      	mov	r2, r0
 c0045be:	693b      	ldr	r3, [r7, #16]
 c0045c0:	1ad3      	subs	r3, r2, r3
 c0045c2:	2b02      	cmp	r3, #2
 c0045c4:	d908      	bls.n	c0045d8 <HAL_RCC_OscConfig+0x7d0>
        {
          /* New check to avoid false timeout detection in case of preemption */
          if (READ_BIT(RCC->CRRCR, RCC_CRRCR_HSI48RDY) != 0U)
 c0045c6:	4b78      	ldr	r3, [pc, #480]	; (c0047a8 <HAL_RCC_OscConfig+0x9a0>)
 c0045c8:	f8d3 3098 	ldr.w	r3, [r3, #152]	; 0x98
 c0045cc:	f003 0302 	and.w	r3, r3, #2
 c0045d0:	2b00      	cmp	r3, #0
 c0045d2:	d001      	beq.n	c0045d8 <HAL_RCC_OscConfig+0x7d0>
          {
            return HAL_TIMEOUT;
 c0045d4:	2303      	movs	r3, #3
 c0045d6:	e0e3      	b.n	c0047a0 <HAL_RCC_OscConfig+0x998>
      while (READ_BIT(RCC->CRRCR, RCC_CRRCR_HSI48RDY) != 0U)
 c0045d8:	4b73      	ldr	r3, [pc, #460]	; (c0047a8 <HAL_RCC_OscConfig+0x9a0>)
 c0045da:	f8d3 3098 	ldr.w	r3, [r3, #152]	; 0x98
 c0045de:	f003 0302 	and.w	r3, r3, #2
 c0045e2:	2b00      	cmp	r3, #0
 c0045e4:	d1e8      	bne.n	c0045b8 <HAL_RCC_OscConfig+0x7b0>
  }
  /*-------------------------------- PLL Configuration -----------------------*/
  /* Check the parameters */
  assert_param(IS_RCC_PLL(RCC_OscInitStruct->PLL.PLLState));

  if (RCC_OscInitStruct->PLL.PLLState != RCC_PLL_NONE)
 c0045e6:	687b      	ldr	r3, [r7, #4]
 c0045e8:	6adb      	ldr	r3, [r3, #44]	; 0x2c
 c0045ea:	2b00      	cmp	r3, #0
 c0045ec:	f000 80d7 	beq.w	c00479e <HAL_RCC_OscConfig+0x996>
  {
    /* Check if the PLL is used as system clock or not */
    if (__HAL_RCC_GET_SYSCLK_SOURCE() != RCC_SYSCLKSOURCE_STATUS_PLLCLK)
 c0045f0:	4b6d      	ldr	r3, [pc, #436]	; (c0047a8 <HAL_RCC_OscConfig+0x9a0>)
 c0045f2:	689b      	ldr	r3, [r3, #8]
 c0045f4:	f003 030c 	and.w	r3, r3, #12
 c0045f8:	2b0c      	cmp	r3, #12
 c0045fa:	f000 8091 	beq.w	c004720 <HAL_RCC_OscConfig+0x918>
    {
      if (RCC_OscInitStruct->PLL.PLLState == RCC_PLL_ON)
 c0045fe:	687b      	ldr	r3, [r7, #4]
 c004600:	6adb      	ldr	r3, [r3, #44]	; 0x2c
 c004602:	2b02      	cmp	r3, #2
 c004604:	d166      	bne.n	c0046d4 <HAL_RCC_OscConfig+0x8cc>
        assert_param(IS_RCC_PLLP_VALUE(RCC_OscInitStruct->PLL.PLLP));
        assert_param(IS_RCC_PLLQ_VALUE(RCC_OscInitStruct->PLL.PLLQ));
        assert_param(IS_RCC_PLLR_VALUE(RCC_OscInitStruct->PLL.PLLR));

        /* Disable the main PLL. */
        __HAL_RCC_PLL_DISABLE();
 c004606:	4b68      	ldr	r3, [pc, #416]	; (c0047a8 <HAL_RCC_OscConfig+0x9a0>)
 c004608:	681b      	ldr	r3, [r3, #0]
 c00460a:	4a67      	ldr	r2, [pc, #412]	; (c0047a8 <HAL_RCC_OscConfig+0x9a0>)
 c00460c:	f023 7380 	bic.w	r3, r3, #16777216	; 0x1000000
 c004610:	6013      	str	r3, [r2, #0]

        /* Get Start Tick*/
        tickstart = HAL_GetTick();
 c004612:	f7fd ff47 	bl	c0024a4 <HAL_GetTick>
 c004616:	6138      	str	r0, [r7, #16]

        /* Wait till PLL is ready */
        while (READ_BIT(RCC->CR, RCC_CR_PLLRDY) != 0U)
 c004618:	e00e      	b.n	c004638 <HAL_RCC_OscConfig+0x830>
        {
          if ((HAL_GetTick() - tickstart) > PLL_TIMEOUT_VALUE)
 c00461a:	f7fd ff43 	bl	c0024a4 <HAL_GetTick>
 c00461e:	4602      	mov	r2, r0
 c004620:	693b      	ldr	r3, [r7, #16]
 c004622:	1ad3      	subs	r3, r2, r3
 c004624:	2b02      	cmp	r3, #2
 c004626:	d907      	bls.n	c004638 <HAL_RCC_OscConfig+0x830>
          {
            /* New check to avoid false timeout detection in case of preemption */
            if (READ_BIT(RCC->CR, RCC_CR_PLLRDY) != 0U)
 c004628:	4b5f      	ldr	r3, [pc, #380]	; (c0047a8 <HAL_RCC_OscConfig+0x9a0>)
 c00462a:	681b      	ldr	r3, [r3, #0]
 c00462c:	f003 7300 	and.w	r3, r3, #33554432	; 0x2000000
 c004630:	2b00      	cmp	r3, #0
 c004632:	d001      	beq.n	c004638 <HAL_RCC_OscConfig+0x830>
            {
              return HAL_TIMEOUT;
 c004634:	2303      	movs	r3, #3
 c004636:	e0b3      	b.n	c0047a0 <HAL_RCC_OscConfig+0x998>
        while (READ_BIT(RCC->CR, RCC_CR_PLLRDY) != 0U)
 c004638:	4b5b      	ldr	r3, [pc, #364]	; (c0047a8 <HAL_RCC_OscConfig+0x9a0>)
 c00463a:	681b      	ldr	r3, [r3, #0]
 c00463c:	f003 7300 	and.w	r3, r3, #33554432	; 0x2000000
 c004640:	2b00      	cmp	r3, #0
 c004642:	d1ea      	bne.n	c00461a <HAL_RCC_OscConfig+0x812>
            }
          }
        }

        /* Configure the main PLL clock source, multiplication and division factors. */
        __HAL_RCC_PLL_CONFIG(RCC_OscInitStruct->PLL.PLLSource,
 c004644:	4b58      	ldr	r3, [pc, #352]	; (c0047a8 <HAL_RCC_OscConfig+0x9a0>)
 c004646:	68da      	ldr	r2, [r3, #12]
 c004648:	4b58      	ldr	r3, [pc, #352]	; (c0047ac <HAL_RCC_OscConfig+0x9a4>)
 c00464a:	4013      	ands	r3, r2
 c00464c:	687a      	ldr	r2, [r7, #4]
 c00464e:	6b11      	ldr	r1, [r2, #48]	; 0x30
 c004650:	687a      	ldr	r2, [r7, #4]
 c004652:	6b52      	ldr	r2, [r2, #52]	; 0x34
 c004654:	3a01      	subs	r2, #1
 c004656:	0112      	lsls	r2, r2, #4
 c004658:	4311      	orrs	r1, r2
 c00465a:	687a      	ldr	r2, [r7, #4]
 c00465c:	6b92      	ldr	r2, [r2, #56]	; 0x38
 c00465e:	0212      	lsls	r2, r2, #8
 c004660:	4311      	orrs	r1, r2
 c004662:	687a      	ldr	r2, [r7, #4]
 c004664:	6c12      	ldr	r2, [r2, #64]	; 0x40
 c004666:	0852      	lsrs	r2, r2, #1
 c004668:	3a01      	subs	r2, #1
 c00466a:	0552      	lsls	r2, r2, #21
 c00466c:	4311      	orrs	r1, r2
 c00466e:	687a      	ldr	r2, [r7, #4]
 c004670:	6c52      	ldr	r2, [r2, #68]	; 0x44
 c004672:	0852      	lsrs	r2, r2, #1
 c004674:	3a01      	subs	r2, #1
 c004676:	0652      	lsls	r2, r2, #25
 c004678:	4311      	orrs	r1, r2
 c00467a:	687a      	ldr	r2, [r7, #4]
 c00467c:	6bd2      	ldr	r2, [r2, #60]	; 0x3c
 c00467e:	06d2      	lsls	r2, r2, #27
 c004680:	430a      	orrs	r2, r1
 c004682:	4949      	ldr	r1, [pc, #292]	; (c0047a8 <HAL_RCC_OscConfig+0x9a0>)
 c004684:	4313      	orrs	r3, r2
 c004686:	60cb      	str	r3, [r1, #12]
                             RCC_OscInitStruct->PLL.PLLP,
                             RCC_OscInitStruct->PLL.PLLQ,
                             RCC_OscInitStruct->PLL.PLLR);

        /* Enable the main PLL. */
        __HAL_RCC_PLL_ENABLE();
 c004688:	4b47      	ldr	r3, [pc, #284]	; (c0047a8 <HAL_RCC_OscConfig+0x9a0>)
 c00468a:	681b      	ldr	r3, [r3, #0]
 c00468c:	4a46      	ldr	r2, [pc, #280]	; (c0047a8 <HAL_RCC_OscConfig+0x9a0>)
 c00468e:	f043 7380 	orr.w	r3, r3, #16777216	; 0x1000000
 c004692:	6013      	str	r3, [r2, #0]

        /* Enable PLL System Clock output. */
        __HAL_RCC_PLLCLKOUT_ENABLE(RCC_PLL_SYSCLK);
 c004694:	4b44      	ldr	r3, [pc, #272]	; (c0047a8 <HAL_RCC_OscConfig+0x9a0>)
 c004696:	68db      	ldr	r3, [r3, #12]
 c004698:	4a43      	ldr	r2, [pc, #268]	; (c0047a8 <HAL_RCC_OscConfig+0x9a0>)
 c00469a:	f043 7380 	orr.w	r3, r3, #16777216	; 0x1000000
 c00469e:	60d3      	str	r3, [r2, #12]

        /* Get Start Tick*/
        tickstart = HAL_GetTick();
 c0046a0:	f7fd ff00 	bl	c0024a4 <HAL_GetTick>
 c0046a4:	6138      	str	r0, [r7, #16]

        /* Wait till PLL is ready */
        while (READ_BIT(RCC->CR, RCC_CR_PLLRDY) == 0U)
 c0046a6:	e00e      	b.n	c0046c6 <HAL_RCC_OscConfig+0x8be>
        {
          if ((HAL_GetTick() - tickstart) > PLL_TIMEOUT_VALUE)
 c0046a8:	f7fd fefc 	bl	c0024a4 <HAL_GetTick>
 c0046ac:	4602      	mov	r2, r0
 c0046ae:	693b      	ldr	r3, [r7, #16]
 c0046b0:	1ad3      	subs	r3, r2, r3
 c0046b2:	2b02      	cmp	r3, #2
 c0046b4:	d907      	bls.n	c0046c6 <HAL_RCC_OscConfig+0x8be>
          {
            /* New check to avoid false timeout detection in case of preemption */
            if (READ_BIT(RCC->CR, RCC_CR_PLLRDY) == 0U)
 c0046b6:	4b3c      	ldr	r3, [pc, #240]	; (c0047a8 <HAL_RCC_OscConfig+0x9a0>)
 c0046b8:	681b      	ldr	r3, [r3, #0]
 c0046ba:	f003 7300 	and.w	r3, r3, #33554432	; 0x2000000
 c0046be:	2b00      	cmp	r3, #0
 c0046c0:	d101      	bne.n	c0046c6 <HAL_RCC_OscConfig+0x8be>
            {
              return HAL_TIMEOUT;
 c0046c2:	2303      	movs	r3, #3
 c0046c4:	e06c      	b.n	c0047a0 <HAL_RCC_OscConfig+0x998>
        while (READ_BIT(RCC->CR, RCC_CR_PLLRDY) == 0U)
 c0046c6:	4b38      	ldr	r3, [pc, #224]	; (c0047a8 <HAL_RCC_OscConfig+0x9a0>)
 c0046c8:	681b      	ldr	r3, [r3, #0]
 c0046ca:	f003 7300 	and.w	r3, r3, #33554432	; 0x2000000
 c0046ce:	2b00      	cmp	r3, #0
 c0046d0:	d0ea      	beq.n	c0046a8 <HAL_RCC_OscConfig+0x8a0>
 c0046d2:	e064      	b.n	c00479e <HAL_RCC_OscConfig+0x996>
        }
      }
      else
      {
        /* Disable the main PLL. */
        __HAL_RCC_PLL_DISABLE();
 c0046d4:	4b34      	ldr	r3, [pc, #208]	; (c0047a8 <HAL_RCC_OscConfig+0x9a0>)
 c0046d6:	681b      	ldr	r3, [r3, #0]
 c0046d8:	4a33      	ldr	r2, [pc, #204]	; (c0047a8 <HAL_RCC_OscConfig+0x9a0>)
 c0046da:	f023 7380 	bic.w	r3, r3, #16777216	; 0x1000000
 c0046de:	6013      	str	r3, [r2, #0]

        /* Get Start Tick*/
        tickstart = HAL_GetTick();
 c0046e0:	f7fd fee0 	bl	c0024a4 <HAL_GetTick>
 c0046e4:	6138      	str	r0, [r7, #16]

        /* Wait till PLL is disabled */
        while (READ_BIT(RCC->CR, RCC_CR_PLLRDY) != 0U)
 c0046e6:	e00e      	b.n	c004706 <HAL_RCC_OscConfig+0x8fe>
        {
          if ((HAL_GetTick() - tickstart) > PLL_TIMEOUT_VALUE)
 c0046e8:	f7fd fedc 	bl	c0024a4 <HAL_GetTick>
 c0046ec:	4602      	mov	r2, r0
 c0046ee:	693b      	ldr	r3, [r7, #16]
 c0046f0:	1ad3      	subs	r3, r2, r3
 c0046f2:	2b02      	cmp	r3, #2
 c0046f4:	d907      	bls.n	c004706 <HAL_RCC_OscConfig+0x8fe>
          {
            /* New check to avoid false timeout detection in case of preemption */
            if (READ_BIT(RCC->CR, RCC_CR_PLLRDY) != 0U)
 c0046f6:	4b2c      	ldr	r3, [pc, #176]	; (c0047a8 <HAL_RCC_OscConfig+0x9a0>)
 c0046f8:	681b      	ldr	r3, [r3, #0]
 c0046fa:	f003 7300 	and.w	r3, r3, #33554432	; 0x2000000
 c0046fe:	2b00      	cmp	r3, #0
 c004700:	d001      	beq.n	c004706 <HAL_RCC_OscConfig+0x8fe>
            {
              return HAL_TIMEOUT;
 c004702:	2303      	movs	r3, #3
 c004704:	e04c      	b.n	c0047a0 <HAL_RCC_OscConfig+0x998>
        while (READ_BIT(RCC->CR, RCC_CR_PLLRDY) != 0U)
 c004706:	4b28      	ldr	r3, [pc, #160]	; (c0047a8 <HAL_RCC_OscConfig+0x9a0>)
 c004708:	681b      	ldr	r3, [r3, #0]
 c00470a:	f003 7300 	and.w	r3, r3, #33554432	; 0x2000000
 c00470e:	2b00      	cmp	r3, #0
 c004710:	d1ea      	bne.n	c0046e8 <HAL_RCC_OscConfig+0x8e0>
            }
          }
        }

        /* Unselect PLL clock source and disable outputs to save power */
        RCC->PLLCFGR &= ~(RCC_PLLCFGR_PLLSRC | RCC_PLL_SYSCLK | RCC_PLL_48M1CLK | RCC_PLL_SAI3CLK);
 c004712:	4b25      	ldr	r3, [pc, #148]	; (c0047a8 <HAL_RCC_OscConfig+0x9a0>)
 c004714:	68da      	ldr	r2, [r3, #12]
 c004716:	4924      	ldr	r1, [pc, #144]	; (c0047a8 <HAL_RCC_OscConfig+0x9a0>)
 c004718:	4b25      	ldr	r3, [pc, #148]	; (c0047b0 <HAL_RCC_OscConfig+0x9a8>)
 c00471a:	4013      	ands	r3, r2
 c00471c:	60cb      	str	r3, [r1, #12]
 c00471e:	e03e      	b.n	c00479e <HAL_RCC_OscConfig+0x996>
      }
    }
    else
    {
      /* Check if there is a request to disable the PLL used as System clock source */
      if (RCC_OscInitStruct->PLL.PLLState == RCC_PLL_OFF)
 c004720:	687b      	ldr	r3, [r7, #4]
 c004722:	6adb      	ldr	r3, [r3, #44]	; 0x2c
 c004724:	2b01      	cmp	r3, #1
 c004726:	d101      	bne.n	c00472c <HAL_RCC_OscConfig+0x924>
      {
        return HAL_ERROR;
 c004728:	2301      	movs	r3, #1
 c00472a:	e039      	b.n	c0047a0 <HAL_RCC_OscConfig+0x998>
      }
      else
      {
        pll_config = RCC->PLLCFGR;
 c00472c:	4b1e      	ldr	r3, [pc, #120]	; (c0047a8 <HAL_RCC_OscConfig+0x9a0>)
 c00472e:	68db      	ldr	r3, [r3, #12]
 c004730:	617b      	str	r3, [r7, #20]
        /* Do not return HAL_ERROR if request repeats the current configuration */
        if ((READ_BIT(pll_config, RCC_PLLCFGR_PLLSRC)  != RCC_OscInitStruct->PLL.PLLSource) ||
 c004732:	697b      	ldr	r3, [r7, #20]
 c004734:	f003 0203 	and.w	r2, r3, #3
 c004738:	687b      	ldr	r3, [r7, #4]
 c00473a:	6b1b      	ldr	r3, [r3, #48]	; 0x30
 c00473c:	429a      	cmp	r2, r3
 c00473e:	d12c      	bne.n	c00479a <HAL_RCC_OscConfig+0x992>
            (READ_BIT(pll_config, RCC_PLLCFGR_PLLM)    != ((RCC_OscInitStruct->PLL.PLLM - 1U) << RCC_PLLCFGR_PLLM_Pos)) ||
 c004740:	697b      	ldr	r3, [r7, #20]
 c004742:	f003 02f0 	and.w	r2, r3, #240	; 0xf0
 c004746:	687b      	ldr	r3, [r7, #4]
 c004748:	6b5b      	ldr	r3, [r3, #52]	; 0x34
 c00474a:	3b01      	subs	r3, #1
 c00474c:	011b      	lsls	r3, r3, #4
        if ((READ_BIT(pll_config, RCC_PLLCFGR_PLLSRC)  != RCC_OscInitStruct->PLL.PLLSource) ||
 c00474e:	429a      	cmp	r2, r3
 c004750:	d123      	bne.n	c00479a <HAL_RCC_OscConfig+0x992>
            (READ_BIT(pll_config, RCC_PLLCFGR_PLLN)    != (RCC_OscInitStruct->PLL.PLLN << RCC_PLLCFGR_PLLN_Pos)) ||
 c004752:	697b      	ldr	r3, [r7, #20]
 c004754:	f403 42fe 	and.w	r2, r3, #32512	; 0x7f00
 c004758:	687b      	ldr	r3, [r7, #4]
 c00475a:	6b9b      	ldr	r3, [r3, #56]	; 0x38
 c00475c:	021b      	lsls	r3, r3, #8
            (READ_BIT(pll_config, RCC_PLLCFGR_PLLM)    != ((RCC_OscInitStruct->PLL.PLLM - 1U) << RCC_PLLCFGR_PLLM_Pos)) ||
 c00475e:	429a      	cmp	r2, r3
 c004760:	d11b      	bne.n	c00479a <HAL_RCC_OscConfig+0x992>
            (READ_BIT(pll_config, RCC_PLLCFGR_PLLPDIV) != (RCC_OscInitStruct->PLL.PLLP << RCC_PLLCFGR_PLLPDIV_Pos)) ||
 c004762:	697b      	ldr	r3, [r7, #20]
 c004764:	f003 4278 	and.w	r2, r3, #4160749568	; 0xf8000000
 c004768:	687b      	ldr	r3, [r7, #4]
 c00476a:	6bdb      	ldr	r3, [r3, #60]	; 0x3c
 c00476c:	06db      	lsls	r3, r3, #27
            (READ_BIT(pll_config, RCC_PLLCFGR_PLLN)    != (RCC_OscInitStruct->PLL.PLLN << RCC_PLLCFGR_PLLN_Pos)) ||
 c00476e:	429a      	cmp	r2, r3
 c004770:	d113      	bne.n	c00479a <HAL_RCC_OscConfig+0x992>
            (READ_BIT(pll_config, RCC_PLLCFGR_PLLQ)    != ((((RCC_OscInitStruct->PLL.PLLQ) >> 1U) - 1U) << RCC_PLLCFGR_PLLQ_Pos)) ||
 c004772:	697b      	ldr	r3, [r7, #20]
 c004774:	f403 02c0 	and.w	r2, r3, #6291456	; 0x600000
 c004778:	687b      	ldr	r3, [r7, #4]
 c00477a:	6c1b      	ldr	r3, [r3, #64]	; 0x40
 c00477c:	085b      	lsrs	r3, r3, #1
 c00477e:	3b01      	subs	r3, #1
 c004780:	055b      	lsls	r3, r3, #21
            (READ_BIT(pll_config, RCC_PLLCFGR_PLLPDIV) != (RCC_OscInitStruct->PLL.PLLP << RCC_PLLCFGR_PLLPDIV_Pos)) ||
 c004782:	429a      	cmp	r2, r3
 c004784:	d109      	bne.n	c00479a <HAL_RCC_OscConfig+0x992>
            (READ_BIT(pll_config, RCC_PLLCFGR_PLLR)    != ((((RCC_OscInitStruct->PLL.PLLR) >> 1U) - 1U) << RCC_PLLCFGR_PLLR_Pos)))
 c004786:	697b      	ldr	r3, [r7, #20]
 c004788:	f003 62c0 	and.w	r2, r3, #100663296	; 0x6000000
 c00478c:	687b      	ldr	r3, [r7, #4]
 c00478e:	6c5b      	ldr	r3, [r3, #68]	; 0x44
 c004790:	085b      	lsrs	r3, r3, #1
 c004792:	3b01      	subs	r3, #1
 c004794:	065b      	lsls	r3, r3, #25
            (READ_BIT(pll_config, RCC_PLLCFGR_PLLQ)    != ((((RCC_OscInitStruct->PLL.PLLQ) >> 1U) - 1U) << RCC_PLLCFGR_PLLQ_Pos)) ||
 c004796:	429a      	cmp	r2, r3
 c004798:	d001      	beq.n	c00479e <HAL_RCC_OscConfig+0x996>
        {
          return HAL_ERROR;
 c00479a:	2301      	movs	r3, #1
 c00479c:	e000      	b.n	c0047a0 <HAL_RCC_OscConfig+0x998>
        }
      }
    }
  }

  return HAL_OK;
 c00479e:	2300      	movs	r3, #0
}
 c0047a0:	4618      	mov	r0, r3
 c0047a2:	3720      	adds	r7, #32
 c0047a4:	46bd      	mov	sp, r7
 c0047a6:	bd80      	pop	{r7, pc}
 c0047a8:	50021000 	.word	0x50021000
 c0047ac:	019f800c 	.word	0x019f800c
 c0047b0:	feeefffc 	.word	0xfeeefffc

0c0047b4 <HAL_RCC_ClockConfig>:
  *         HPRE[3:0] bits to ensure that HCLK not exceed the maximum allowed frequency
  *         (for more details refer to section above "Initialization/de-initialization functions")
  * @retval None
  */
HAL_StatusTypeDef HAL_RCC_ClockConfig(RCC_ClkInitTypeDef  *RCC_ClkInitStruct, uint32_t FLatency)
{
 c0047b4:	b580      	push	{r7, lr}
 c0047b6:	b086      	sub	sp, #24
 c0047b8:	af00      	add	r7, sp, #0
 c0047ba:	6078      	str	r0, [r7, #4]
 c0047bc:	6039      	str	r1, [r7, #0]
  uint32_t tickstart;
  uint32_t pllfreq;
  uint32_t hpre = RCC_SYSCLK_DIV1;
 c0047be:	2300      	movs	r3, #0
 c0047c0:	617b      	str	r3, [r7, #20]

  /* Check Null pointer */
  if (RCC_ClkInitStruct == NULL)
 c0047c2:	687b      	ldr	r3, [r7, #4]
 c0047c4:	2b00      	cmp	r3, #0
 c0047c6:	d101      	bne.n	c0047cc <HAL_RCC_ClockConfig+0x18>
  {
    return HAL_ERROR;
 c0047c8:	2301      	movs	r3, #1
 c0047ca:	e11c      	b.n	c004a06 <HAL_RCC_ClockConfig+0x252>
  /* To correctly read data from FLASH memory, the number of wait states (LATENCY)
    must be correctly programmed according to the frequency of the CPU clock
    (HCLK) and the supply voltage of the device. */

  /* Increasing the number of wait states because of higher CPU frequency */
  if (FLatency > __HAL_FLASH_GET_LATENCY())
 c0047cc:	4b90      	ldr	r3, [pc, #576]	; (c004a10 <HAL_RCC_ClockConfig+0x25c>)
 c0047ce:	681b      	ldr	r3, [r3, #0]
 c0047d0:	f003 030f 	and.w	r3, r3, #15
 c0047d4:	683a      	ldr	r2, [r7, #0]
 c0047d6:	429a      	cmp	r2, r3
 c0047d8:	d910      	bls.n	c0047fc <HAL_RCC_ClockConfig+0x48>
  {
    /* Program the new number of wait states to the LATENCY bits in the FLASH_ACR register */
    __HAL_FLASH_SET_LATENCY(FLatency);
 c0047da:	4b8d      	ldr	r3, [pc, #564]	; (c004a10 <HAL_RCC_ClockConfig+0x25c>)
 c0047dc:	681b      	ldr	r3, [r3, #0]
 c0047de:	f023 020f 	bic.w	r2, r3, #15
 c0047e2:	498b      	ldr	r1, [pc, #556]	; (c004a10 <HAL_RCC_ClockConfig+0x25c>)
 c0047e4:	683b      	ldr	r3, [r7, #0]
 c0047e6:	4313      	orrs	r3, r2
 c0047e8:	600b      	str	r3, [r1, #0]

    /* Check that the new number of wait states is taken into account to access the Flash
    memory by reading the FLASH_ACR register */
    if (__HAL_FLASH_GET_LATENCY() != FLatency)
 c0047ea:	4b89      	ldr	r3, [pc, #548]	; (c004a10 <HAL_RCC_ClockConfig+0x25c>)
 c0047ec:	681b      	ldr	r3, [r3, #0]
 c0047ee:	f003 030f 	and.w	r3, r3, #15
 c0047f2:	683a      	ldr	r2, [r7, #0]
 c0047f4:	429a      	cmp	r2, r3
 c0047f6:	d001      	beq.n	c0047fc <HAL_RCC_ClockConfig+0x48>
    {
      return HAL_ERROR;
 c0047f8:	2301      	movs	r3, #1
 c0047fa:	e104      	b.n	c004a06 <HAL_RCC_ClockConfig+0x252>
    }
  }

  /*----------------- HCLK Configuration prior to SYSCLK----------------------*/
  /* Apply higher HCLK prescaler request here to ensure CPU clock is not of of spec when SYSCLK is increased */
  if(((RCC_ClkInitStruct->ClockType) & RCC_CLOCKTYPE_HCLK) == RCC_CLOCKTYPE_HCLK)
 c0047fc:	687b      	ldr	r3, [r7, #4]
 c0047fe:	681b      	ldr	r3, [r3, #0]
 c004800:	f003 0302 	and.w	r3, r3, #2
 c004804:	2b00      	cmp	r3, #0
 c004806:	d010      	beq.n	c00482a <HAL_RCC_ClockConfig+0x76>
  {
    assert_param(IS_RCC_HCLK(RCC_ClkInitStruct->AHBCLKDivider));

    if(RCC_ClkInitStruct->AHBCLKDivider > READ_BIT(RCC->CFGR, RCC_CFGR_HPRE))
 c004808:	687b      	ldr	r3, [r7, #4]
 c00480a:	689a      	ldr	r2, [r3, #8]
 c00480c:	4b81      	ldr	r3, [pc, #516]	; (c004a14 <HAL_RCC_ClockConfig+0x260>)
 c00480e:	689b      	ldr	r3, [r3, #8]
 c004810:	f003 03f0 	and.w	r3, r3, #240	; 0xf0
 c004814:	429a      	cmp	r2, r3
 c004816:	d908      	bls.n	c00482a <HAL_RCC_ClockConfig+0x76>
    {
      MODIFY_REG(RCC->CFGR, RCC_CFGR_HPRE, RCC_ClkInitStruct->AHBCLKDivider);
 c004818:	4b7e      	ldr	r3, [pc, #504]	; (c004a14 <HAL_RCC_ClockConfig+0x260>)
 c00481a:	689b      	ldr	r3, [r3, #8]
 c00481c:	f023 02f0 	bic.w	r2, r3, #240	; 0xf0
 c004820:	687b      	ldr	r3, [r7, #4]
 c004822:	689b      	ldr	r3, [r3, #8]
 c004824:	497b      	ldr	r1, [pc, #492]	; (c004a14 <HAL_RCC_ClockConfig+0x260>)
 c004826:	4313      	orrs	r3, r2
 c004828:	608b      	str	r3, [r1, #8]
    }
  }

  /*------------------------- SYSCLK Configuration ---------------------------*/
  if (((RCC_ClkInitStruct->ClockType) & RCC_CLOCKTYPE_SYSCLK) == RCC_CLOCKTYPE_SYSCLK)
 c00482a:	687b      	ldr	r3, [r7, #4]
 c00482c:	681b      	ldr	r3, [r3, #0]
 c00482e:	f003 0301 	and.w	r3, r3, #1
 c004832:	2b00      	cmp	r3, #0
 c004834:	f000 8085 	beq.w	c004942 <HAL_RCC_ClockConfig+0x18e>
  {
    assert_param(IS_RCC_SYSCLKSOURCE(RCC_ClkInitStruct->SYSCLKSource));

    /* PLL is selected as System Clock Source */
    if (RCC_ClkInitStruct->SYSCLKSource == RCC_SYSCLKSOURCE_PLLCLK)
 c004838:	687b      	ldr	r3, [r7, #4]
 c00483a:	685b      	ldr	r3, [r3, #4]
 c00483c:	2b03      	cmp	r3, #3
 c00483e:	d11f      	bne.n	c004880 <HAL_RCC_ClockConfig+0xcc>
    {
      /* Check the PLL ready flag */
      if (READ_BIT(RCC->CR, RCC_CR_PLLRDY) == 0U)
 c004840:	4b74      	ldr	r3, [pc, #464]	; (c004a14 <HAL_RCC_ClockConfig+0x260>)
 c004842:	681b      	ldr	r3, [r3, #0]
 c004844:	f003 7300 	and.w	r3, r3, #33554432	; 0x2000000
 c004848:	2b00      	cmp	r3, #0
 c00484a:	d101      	bne.n	c004850 <HAL_RCC_ClockConfig+0x9c>
      {
        return HAL_ERROR;
 c00484c:	2301      	movs	r3, #1
 c00484e:	e0da      	b.n	c004a06 <HAL_RCC_ClockConfig+0x252>
      }

      /* Transition state management when selecting PLL as SYSCLK source and */
      /* target frequency above 80Mhz */
      /* Compute target PLL output frequency */
      pllfreq = RCC_GetSysClockFreqFromPLLSource();
 c004850:	f000 fa26 	bl	c004ca0 <RCC_GetSysClockFreqFromPLLSource>
 c004854:	6138      	str	r0, [r7, #16]

      /* Intermediate step with HCLK prescaler 2 necessary before to go over 80Mhz */
      if (pllfreq > 80000000U)
 c004856:	693b      	ldr	r3, [r7, #16]
 c004858:	4a6f      	ldr	r2, [pc, #444]	; (c004a18 <HAL_RCC_ClockConfig+0x264>)
 c00485a:	4293      	cmp	r3, r2
 c00485c:	d947      	bls.n	c0048ee <HAL_RCC_ClockConfig+0x13a>
      {
        /* If lowest HCLK prescaler, apply intermediate step with HCLK prescaler 2 necessary before to go over 80Mhz */
        if (READ_BIT(RCC->CFGR, RCC_CFGR_HPRE) == RCC_SYSCLK_DIV1)
 c00485e:	4b6d      	ldr	r3, [pc, #436]	; (c004a14 <HAL_RCC_ClockConfig+0x260>)
 c004860:	689b      	ldr	r3, [r3, #8]
 c004862:	f003 03f0 	and.w	r3, r3, #240	; 0xf0
 c004866:	2b00      	cmp	r3, #0
 c004868:	d141      	bne.n	c0048ee <HAL_RCC_ClockConfig+0x13a>
        {
          MODIFY_REG(RCC->CFGR, RCC_CFGR_HPRE, RCC_SYSCLK_DIV2);
 c00486a:	4b6a      	ldr	r3, [pc, #424]	; (c004a14 <HAL_RCC_ClockConfig+0x260>)
 c00486c:	689b      	ldr	r3, [r3, #8]
 c00486e:	f023 03f0 	bic.w	r3, r3, #240	; 0xf0
 c004872:	4a68      	ldr	r2, [pc, #416]	; (c004a14 <HAL_RCC_ClockConfig+0x260>)
 c004874:	f043 0380 	orr.w	r3, r3, #128	; 0x80
 c004878:	6093      	str	r3, [r2, #8]
          hpre = RCC_SYSCLK_DIV2;
 c00487a:	2380      	movs	r3, #128	; 0x80
 c00487c:	617b      	str	r3, [r7, #20]
 c00487e:	e036      	b.n	c0048ee <HAL_RCC_ClockConfig+0x13a>
      }
    }
    else
    {
      /* HSE is selected as System Clock Source */
      if (RCC_ClkInitStruct->SYSCLKSource == RCC_SYSCLKSOURCE_HSE)
 c004880:	687b      	ldr	r3, [r7, #4]
 c004882:	685b      	ldr	r3, [r3, #4]
 c004884:	2b02      	cmp	r3, #2
 c004886:	d107      	bne.n	c004898 <HAL_RCC_ClockConfig+0xe4>
      {
        /* Check the HSE ready flag */
        if (READ_BIT(RCC->CR, RCC_CR_HSERDY) == 0U)
 c004888:	4b62      	ldr	r3, [pc, #392]	; (c004a14 <HAL_RCC_ClockConfig+0x260>)
 c00488a:	681b      	ldr	r3, [r3, #0]
 c00488c:	f403 3300 	and.w	r3, r3, #131072	; 0x20000
 c004890:	2b00      	cmp	r3, #0
 c004892:	d115      	bne.n	c0048c0 <HAL_RCC_ClockConfig+0x10c>
        {
          return HAL_ERROR;
 c004894:	2301      	movs	r3, #1
 c004896:	e0b6      	b.n	c004a06 <HAL_RCC_ClockConfig+0x252>
        }
      }
      /* MSI is selected as System Clock Source */
      else if (RCC_ClkInitStruct->SYSCLKSource == RCC_SYSCLKSOURCE_MSI)
 c004898:	687b      	ldr	r3, [r7, #4]
 c00489a:	685b      	ldr	r3, [r3, #4]
 c00489c:	2b00      	cmp	r3, #0
 c00489e:	d107      	bne.n	c0048b0 <HAL_RCC_ClockConfig+0xfc>
      {
        /* Check the MSI ready flag */
        if (READ_BIT(RCC->CR, RCC_CR_MSIRDY) == 0U)
 c0048a0:	4b5c      	ldr	r3, [pc, #368]	; (c004a14 <HAL_RCC_ClockConfig+0x260>)
 c0048a2:	681b      	ldr	r3, [r3, #0]
 c0048a4:	f003 0302 	and.w	r3, r3, #2
 c0048a8:	2b00      	cmp	r3, #0
 c0048aa:	d109      	bne.n	c0048c0 <HAL_RCC_ClockConfig+0x10c>
        {
          return HAL_ERROR;
 c0048ac:	2301      	movs	r3, #1
 c0048ae:	e0aa      	b.n	c004a06 <HAL_RCC_ClockConfig+0x252>
      }
      /* HSI is selected as System Clock Source */
      else
      {
        /* Check the HSI ready flag */
        if (READ_BIT(RCC->CR, RCC_CR_HSIRDY) == 0U)
 c0048b0:	4b58      	ldr	r3, [pc, #352]	; (c004a14 <HAL_RCC_ClockConfig+0x260>)
 c0048b2:	681b      	ldr	r3, [r3, #0]
 c0048b4:	f403 6380 	and.w	r3, r3, #1024	; 0x400
 c0048b8:	2b00      	cmp	r3, #0
 c0048ba:	d101      	bne.n	c0048c0 <HAL_RCC_ClockConfig+0x10c>
        {
          return HAL_ERROR;
 c0048bc:	2301      	movs	r3, #1
 c0048be:	e0a2      	b.n	c004a06 <HAL_RCC_ClockConfig+0x252>
        }
      }

      /* Transition state management when when going down from PLL used as */
      /* SYSCLK source and frequency above 80Mhz */
      pllfreq = HAL_RCC_GetSysClockFreq();
 c0048c0:	f000 f8b0 	bl	c004a24 <HAL_RCC_GetSysClockFreq>
 c0048c4:	6138      	str	r0, [r7, #16]

      /* Intermediate step with HCLK prescaler 2 necessary before to go under 80Mhz */
      if (pllfreq > 80000000U)
 c0048c6:	693b      	ldr	r3, [r7, #16]
 c0048c8:	4a53      	ldr	r2, [pc, #332]	; (c004a18 <HAL_RCC_ClockConfig+0x264>)
 c0048ca:	4293      	cmp	r3, r2
 c0048cc:	d90f      	bls.n	c0048ee <HAL_RCC_ClockConfig+0x13a>
      {
        /* If lowest HCLK prescaler, apply intermediate step with HCLK prescaler 2 necessary before to go under 80Mhz */
        if(READ_BIT(RCC->CFGR, RCC_CFGR_HPRE) == RCC_SYSCLK_DIV1)
 c0048ce:	4b51      	ldr	r3, [pc, #324]	; (c004a14 <HAL_RCC_ClockConfig+0x260>)
 c0048d0:	689b      	ldr	r3, [r3, #8]
 c0048d2:	f003 03f0 	and.w	r3, r3, #240	; 0xf0
 c0048d6:	2b00      	cmp	r3, #0
 c0048d8:	d109      	bne.n	c0048ee <HAL_RCC_ClockConfig+0x13a>
        {
          MODIFY_REG(RCC->CFGR, RCC_CFGR_HPRE, RCC_SYSCLK_DIV2);
 c0048da:	4b4e      	ldr	r3, [pc, #312]	; (c004a14 <HAL_RCC_ClockConfig+0x260>)
 c0048dc:	689b      	ldr	r3, [r3, #8]
 c0048de:	f023 03f0 	bic.w	r3, r3, #240	; 0xf0
 c0048e2:	4a4c      	ldr	r2, [pc, #304]	; (c004a14 <HAL_RCC_ClockConfig+0x260>)
 c0048e4:	f043 0380 	orr.w	r3, r3, #128	; 0x80
 c0048e8:	6093      	str	r3, [r2, #8]
          hpre = RCC_SYSCLK_DIV2;
 c0048ea:	2380      	movs	r3, #128	; 0x80
 c0048ec:	617b      	str	r3, [r7, #20]
        }
      }
    }

    MODIFY_REG(RCC->CFGR, RCC_CFGR_SW, RCC_ClkInitStruct->SYSCLKSource);
 c0048ee:	4b49      	ldr	r3, [pc, #292]	; (c004a14 <HAL_RCC_ClockConfig+0x260>)
 c0048f0:	689b      	ldr	r3, [r3, #8]
 c0048f2:	f023 0203 	bic.w	r2, r3, #3
 c0048f6:	687b      	ldr	r3, [r7, #4]
 c0048f8:	685b      	ldr	r3, [r3, #4]
 c0048fa:	4946      	ldr	r1, [pc, #280]	; (c004a14 <HAL_RCC_ClockConfig+0x260>)
 c0048fc:	4313      	orrs	r3, r2
 c0048fe:	608b      	str	r3, [r1, #8]

    /* Get Start Tick*/
    tickstart = HAL_GetTick();
 c004900:	f7fd fdd0 	bl	c0024a4 <HAL_GetTick>
 c004904:	60f8      	str	r0, [r7, #12]

    while (__HAL_RCC_GET_SYSCLK_SOURCE() != (RCC_ClkInitStruct->SYSCLKSource << RCC_CFGR_SWS_Pos))
 c004906:	e013      	b.n	c004930 <HAL_RCC_ClockConfig+0x17c>
    {
      if ((HAL_GetTick() - tickstart) > CLOCKSWITCH_TIMEOUT_VALUE)
 c004908:	f7fd fdcc 	bl	c0024a4 <HAL_GetTick>
 c00490c:	4602      	mov	r2, r0
 c00490e:	68fb      	ldr	r3, [r7, #12]
 c004910:	1ad3      	subs	r3, r2, r3
 c004912:	f241 3288 	movw	r2, #5000	; 0x1388
 c004916:	4293      	cmp	r3, r2
 c004918:	d90a      	bls.n	c004930 <HAL_RCC_ClockConfig+0x17c>
      {
        /* New check to avoid false timeout detection in case of preemption */
        if (__HAL_RCC_GET_SYSCLK_SOURCE() != (RCC_ClkInitStruct->SYSCLKSource << RCC_CFGR_SWS_Pos))
 c00491a:	4b3e      	ldr	r3, [pc, #248]	; (c004a14 <HAL_RCC_ClockConfig+0x260>)
 c00491c:	689b      	ldr	r3, [r3, #8]
 c00491e:	f003 020c 	and.w	r2, r3, #12
 c004922:	687b      	ldr	r3, [r7, #4]
 c004924:	685b      	ldr	r3, [r3, #4]
 c004926:	009b      	lsls	r3, r3, #2
 c004928:	429a      	cmp	r2, r3
 c00492a:	d001      	beq.n	c004930 <HAL_RCC_ClockConfig+0x17c>
        {
          return HAL_TIMEOUT;
 c00492c:	2303      	movs	r3, #3
 c00492e:	e06a      	b.n	c004a06 <HAL_RCC_ClockConfig+0x252>
    while (__HAL_RCC_GET_SYSCLK_SOURCE() != (RCC_ClkInitStruct->SYSCLKSource << RCC_CFGR_SWS_Pos))
 c004930:	4b38      	ldr	r3, [pc, #224]	; (c004a14 <HAL_RCC_ClockConfig+0x260>)
 c004932:	689b      	ldr	r3, [r3, #8]
 c004934:	f003 020c 	and.w	r2, r3, #12
 c004938:	687b      	ldr	r3, [r7, #4]
 c00493a:	685b      	ldr	r3, [r3, #4]
 c00493c:	009b      	lsls	r3, r3, #2
 c00493e:	429a      	cmp	r2, r3
 c004940:	d1e2      	bne.n	c004908 <HAL_RCC_ClockConfig+0x154>
      }
    }
  }

  /* Is intermediate HCLK prescaler 2 applied internally, resume with HCLK prescaler 1 */
  if(hpre == RCC_SYSCLK_DIV2)
 c004942:	697b      	ldr	r3, [r7, #20]
 c004944:	2b80      	cmp	r3, #128	; 0x80
 c004946:	d105      	bne.n	c004954 <HAL_RCC_ClockConfig+0x1a0>
  {
    MODIFY_REG(RCC->CFGR, RCC_CFGR_HPRE, RCC_SYSCLK_DIV1);
 c004948:	4b32      	ldr	r3, [pc, #200]	; (c004a14 <HAL_RCC_ClockConfig+0x260>)
 c00494a:	689b      	ldr	r3, [r3, #8]
 c00494c:	4a31      	ldr	r2, [pc, #196]	; (c004a14 <HAL_RCC_ClockConfig+0x260>)
 c00494e:	f023 03f0 	bic.w	r3, r3, #240	; 0xf0
 c004952:	6093      	str	r3, [r2, #8]
  }

  /*----------------- HCLK Configuration after SYSCLK-------------------------*/
  /* Apply lower HCLK prescaler request here to ensure CPU clock is not of of spec when SYSCLK is set */
  if(((RCC_ClkInitStruct->ClockType) & RCC_CLOCKTYPE_HCLK) == RCC_CLOCKTYPE_HCLK)
 c004954:	687b      	ldr	r3, [r7, #4]
 c004956:	681b      	ldr	r3, [r3, #0]
 c004958:	f003 0302 	and.w	r3, r3, #2
 c00495c:	2b00      	cmp	r3, #0
 c00495e:	d010      	beq.n	c004982 <HAL_RCC_ClockConfig+0x1ce>
  {
    if(RCC_ClkInitStruct->AHBCLKDivider < READ_BIT(RCC->CFGR, RCC_CFGR_HPRE))
 c004960:	687b      	ldr	r3, [r7, #4]
 c004962:	689a      	ldr	r2, [r3, #8]
 c004964:	4b2b      	ldr	r3, [pc, #172]	; (c004a14 <HAL_RCC_ClockConfig+0x260>)
 c004966:	689b      	ldr	r3, [r3, #8]
 c004968:	f003 03f0 	and.w	r3, r3, #240	; 0xf0
 c00496c:	429a      	cmp	r2, r3
 c00496e:	d208      	bcs.n	c004982 <HAL_RCC_ClockConfig+0x1ce>
    {
      MODIFY_REG(RCC->CFGR, RCC_CFGR_HPRE, RCC_ClkInitStruct->AHBCLKDivider);
 c004970:	4b28      	ldr	r3, [pc, #160]	; (c004a14 <HAL_RCC_ClockConfig+0x260>)
 c004972:	689b      	ldr	r3, [r3, #8]
 c004974:	f023 02f0 	bic.w	r2, r3, #240	; 0xf0
 c004978:	687b      	ldr	r3, [r7, #4]
 c00497a:	689b      	ldr	r3, [r3, #8]
 c00497c:	4925      	ldr	r1, [pc, #148]	; (c004a14 <HAL_RCC_ClockConfig+0x260>)
 c00497e:	4313      	orrs	r3, r2
 c004980:	608b      	str	r3, [r1, #8]
    }
  }

  /* Allow decreasing of the number of wait states (because of lower CPU frequency expected) */
  if (FLatency < __HAL_FLASH_GET_LATENCY())
 c004982:	4b23      	ldr	r3, [pc, #140]	; (c004a10 <HAL_RCC_ClockConfig+0x25c>)
 c004984:	681b      	ldr	r3, [r3, #0]
 c004986:	f003 030f 	and.w	r3, r3, #15
 c00498a:	683a      	ldr	r2, [r7, #0]
 c00498c:	429a      	cmp	r2, r3
 c00498e:	d210      	bcs.n	c0049b2 <HAL_RCC_ClockConfig+0x1fe>
  {
    /* Program the new number of wait states to the LATENCY bits in the FLASH_ACR register */
    __HAL_FLASH_SET_LATENCY(FLatency);
 c004990:	4b1f      	ldr	r3, [pc, #124]	; (c004a10 <HAL_RCC_ClockConfig+0x25c>)
 c004992:	681b      	ldr	r3, [r3, #0]
 c004994:	f023 020f 	bic.w	r2, r3, #15
 c004998:	491d      	ldr	r1, [pc, #116]	; (c004a10 <HAL_RCC_ClockConfig+0x25c>)
 c00499a:	683b      	ldr	r3, [r7, #0]
 c00499c:	4313      	orrs	r3, r2
 c00499e:	600b      	str	r3, [r1, #0]

    /* Check that the new number of wait states is taken into account to access the Flash
    memory by reading the FLASH_ACR register */
    if (__HAL_FLASH_GET_LATENCY() != FLatency)
 c0049a0:	4b1b      	ldr	r3, [pc, #108]	; (c004a10 <HAL_RCC_ClockConfig+0x25c>)
 c0049a2:	681b      	ldr	r3, [r3, #0]
 c0049a4:	f003 030f 	and.w	r3, r3, #15
 c0049a8:	683a      	ldr	r2, [r7, #0]
 c0049aa:	429a      	cmp	r2, r3
 c0049ac:	d001      	beq.n	c0049b2 <HAL_RCC_ClockConfig+0x1fe>
    {
      return HAL_ERROR;
 c0049ae:	2301      	movs	r3, #1
 c0049b0:	e029      	b.n	c004a06 <HAL_RCC_ClockConfig+0x252>
    }
  }

  /*-------------------------- PCLK1 Configuration ---------------------------*/
  if (((RCC_ClkInitStruct->ClockType) & RCC_CLOCKTYPE_PCLK1) == RCC_CLOCKTYPE_PCLK1)
 c0049b2:	687b      	ldr	r3, [r7, #4]
 c0049b4:	681b      	ldr	r3, [r3, #0]
 c0049b6:	f003 0304 	and.w	r3, r3, #4
 c0049ba:	2b00      	cmp	r3, #0
 c0049bc:	d008      	beq.n	c0049d0 <HAL_RCC_ClockConfig+0x21c>
  {
    assert_param(IS_RCC_PCLK(RCC_ClkInitStruct->APB1CLKDivider));
    MODIFY_REG(RCC->CFGR, RCC_CFGR_PPRE1, RCC_ClkInitStruct->APB1CLKDivider);
 c0049be:	4b15      	ldr	r3, [pc, #84]	; (c004a14 <HAL_RCC_ClockConfig+0x260>)
 c0049c0:	689b      	ldr	r3, [r3, #8]
 c0049c2:	f423 62e0 	bic.w	r2, r3, #1792	; 0x700
 c0049c6:	687b      	ldr	r3, [r7, #4]
 c0049c8:	68db      	ldr	r3, [r3, #12]
 c0049ca:	4912      	ldr	r1, [pc, #72]	; (c004a14 <HAL_RCC_ClockConfig+0x260>)
 c0049cc:	4313      	orrs	r3, r2
 c0049ce:	608b      	str	r3, [r1, #8]
  }

  /*-------------------------- PCLK2 Configuration ---------------------------*/
  if (((RCC_ClkInitStruct->ClockType) & RCC_CLOCKTYPE_PCLK2) == RCC_CLOCKTYPE_PCLK2)
 c0049d0:	687b      	ldr	r3, [r7, #4]
 c0049d2:	681b      	ldr	r3, [r3, #0]
 c0049d4:	f003 0308 	and.w	r3, r3, #8
 c0049d8:	2b00      	cmp	r3, #0
 c0049da:	d009      	beq.n	c0049f0 <HAL_RCC_ClockConfig+0x23c>
  {
    assert_param(IS_RCC_PCLK(RCC_ClkInitStruct->APB2CLKDivider));
    MODIFY_REG(RCC->CFGR, RCC_CFGR_PPRE2, ((RCC_ClkInitStruct->APB2CLKDivider) << 3U));
 c0049dc:	4b0d      	ldr	r3, [pc, #52]	; (c004a14 <HAL_RCC_ClockConfig+0x260>)
 c0049de:	689b      	ldr	r3, [r3, #8]
 c0049e0:	f423 5260 	bic.w	r2, r3, #14336	; 0x3800
 c0049e4:	687b      	ldr	r3, [r7, #4]
 c0049e6:	691b      	ldr	r3, [r3, #16]
 c0049e8:	00db      	lsls	r3, r3, #3
 c0049ea:	490a      	ldr	r1, [pc, #40]	; (c004a14 <HAL_RCC_ClockConfig+0x260>)
 c0049ec:	4313      	orrs	r3, r2
 c0049ee:	608b      	str	r3, [r1, #8]
  }

  /* Update the SystemCoreClock global variable */
  SystemCoreClock = HAL_RCC_GetHCLKFreq();
 c0049f0:	f000 f8b6 	bl	c004b60 <HAL_RCC_GetHCLKFreq>
 c0049f4:	4603      	mov	r3, r0
 c0049f6:	4a09      	ldr	r2, [pc, #36]	; (c004a1c <HAL_RCC_ClockConfig+0x268>)
 c0049f8:	6013      	str	r3, [r2, #0]

  /* Configure the source of time base considering new system clocks settings*/
  return HAL_InitTick(uwTickPrio);
 c0049fa:	4b09      	ldr	r3, [pc, #36]	; (c004a20 <HAL_RCC_ClockConfig+0x26c>)
 c0049fc:	681b      	ldr	r3, [r3, #0]
 c0049fe:	4618      	mov	r0, r3
 c004a00:	f7fd fd00 	bl	c002404 <HAL_InitTick>
 c004a04:	4603      	mov	r3, r0
}
 c004a06:	4618      	mov	r0, r3
 c004a08:	3718      	adds	r7, #24
 c004a0a:	46bd      	mov	sp, r7
 c004a0c:	bd80      	pop	{r7, pc}
 c004a0e:	bf00      	nop
 c004a10:	50022000 	.word	0x50022000
 c004a14:	50021000 	.word	0x50021000
 c004a18:	04c4b400 	.word	0x04c4b400
 c004a1c:	300000f8 	.word	0x300000f8
 c004a20:	300000fc 	.word	0x300000fc

0c004a24 <HAL_RCC_GetSysClockFreq>:
  *
  *
  * @retval SYSCLK frequency
  */
uint32_t HAL_RCC_GetSysClockFreq(void)
{
 c004a24:	b480      	push	{r7}
 c004a26:	b089      	sub	sp, #36	; 0x24
 c004a28:	af00      	add	r7, sp, #0
  uint32_t msirange = 0U, sysclockfreq = 0U;
 c004a2a:	2300      	movs	r3, #0
 c004a2c:	61fb      	str	r3, [r7, #28]
 c004a2e:	2300      	movs	r3, #0
 c004a30:	61bb      	str	r3, [r7, #24]
  uint32_t pllvco, pllsource, pllr, pllm;    /* no init needed */
  uint32_t sysclk_source, pll_oscsource;

  sysclk_source = __HAL_RCC_GET_SYSCLK_SOURCE();
 c004a32:	4b47      	ldr	r3, [pc, #284]	; (c004b50 <HAL_RCC_GetSysClockFreq+0x12c>)
 c004a34:	689b      	ldr	r3, [r3, #8]
 c004a36:	f003 030c 	and.w	r3, r3, #12
 c004a3a:	613b      	str	r3, [r7, #16]
  pll_oscsource = __HAL_RCC_GET_PLL_OSCSOURCE();
 c004a3c:	4b44      	ldr	r3, [pc, #272]	; (c004b50 <HAL_RCC_GetSysClockFreq+0x12c>)
 c004a3e:	68db      	ldr	r3, [r3, #12]
 c004a40:	f003 0303 	and.w	r3, r3, #3
 c004a44:	60fb      	str	r3, [r7, #12]

  if ((sysclk_source == RCC_SYSCLKSOURCE_STATUS_MSI) ||
 c004a46:	693b      	ldr	r3, [r7, #16]
 c004a48:	2b00      	cmp	r3, #0
 c004a4a:	d005      	beq.n	c004a58 <HAL_RCC_GetSysClockFreq+0x34>
 c004a4c:	693b      	ldr	r3, [r7, #16]
 c004a4e:	2b0c      	cmp	r3, #12
 c004a50:	d121      	bne.n	c004a96 <HAL_RCC_GetSysClockFreq+0x72>
      ((sysclk_source == RCC_SYSCLKSOURCE_STATUS_PLLCLK) && (pll_oscsource == RCC_PLLSOURCE_MSI)))
 c004a52:	68fb      	ldr	r3, [r7, #12]
 c004a54:	2b01      	cmp	r3, #1
 c004a56:	d11e      	bne.n	c004a96 <HAL_RCC_GetSysClockFreq+0x72>
  {
    /* MSI or PLL with MSI source used as system clock source */

    /* Get SYSCLK source */
    if (READ_BIT(RCC->CR, RCC_CR_MSIRGSEL) == 0U)
 c004a58:	4b3d      	ldr	r3, [pc, #244]	; (c004b50 <HAL_RCC_GetSysClockFreq+0x12c>)
 c004a5a:	681b      	ldr	r3, [r3, #0]
 c004a5c:	f003 0308 	and.w	r3, r3, #8
 c004a60:	2b00      	cmp	r3, #0
 c004a62:	d107      	bne.n	c004a74 <HAL_RCC_GetSysClockFreq+0x50>
    {
      /* MSISRANGE from RCC_CSR applies */
      msirange = READ_BIT(RCC->CSR, RCC_CSR_MSISRANGE) >> RCC_CSR_MSISRANGE_Pos;
 c004a64:	4b3a      	ldr	r3, [pc, #232]	; (c004b50 <HAL_RCC_GetSysClockFreq+0x12c>)
 c004a66:	f8d3 3094 	ldr.w	r3, [r3, #148]	; 0x94
 c004a6a:	0a1b      	lsrs	r3, r3, #8
 c004a6c:	f003 030f 	and.w	r3, r3, #15
 c004a70:	61fb      	str	r3, [r7, #28]
 c004a72:	e005      	b.n	c004a80 <HAL_RCC_GetSysClockFreq+0x5c>
    }
    else
    {
      /* MSIRANGE from RCC_CR applies */
      msirange = READ_BIT(RCC->CR, RCC_CR_MSIRANGE) >> RCC_CR_MSIRANGE_Pos;
 c004a74:	4b36      	ldr	r3, [pc, #216]	; (c004b50 <HAL_RCC_GetSysClockFreq+0x12c>)
 c004a76:	681b      	ldr	r3, [r3, #0]
 c004a78:	091b      	lsrs	r3, r3, #4
 c004a7a:	f003 030f 	and.w	r3, r3, #15
 c004a7e:	61fb      	str	r3, [r7, #28]
    }
    /*MSI frequency range in Hz*/
    msirange = MSIRangeTable[msirange];
 c004a80:	4a34      	ldr	r2, [pc, #208]	; (c004b54 <HAL_RCC_GetSysClockFreq+0x130>)
 c004a82:	69fb      	ldr	r3, [r7, #28]
 c004a84:	f852 3023 	ldr.w	r3, [r2, r3, lsl #2]
 c004a88:	61fb      	str	r3, [r7, #28]

    if (sysclk_source == RCC_SYSCLKSOURCE_STATUS_MSI)
 c004a8a:	693b      	ldr	r3, [r7, #16]
 c004a8c:	2b00      	cmp	r3, #0
 c004a8e:	d10d      	bne.n	c004aac <HAL_RCC_GetSysClockFreq+0x88>
    {
      /* MSI used as system clock source */
      sysclockfreq = msirange;
 c004a90:	69fb      	ldr	r3, [r7, #28]
 c004a92:	61bb      	str	r3, [r7, #24]
    if (sysclk_source == RCC_SYSCLKSOURCE_STATUS_MSI)
 c004a94:	e00a      	b.n	c004aac <HAL_RCC_GetSysClockFreq+0x88>
    }
  }
  else if (sysclk_source == RCC_SYSCLKSOURCE_STATUS_HSI)
 c004a96:	693b      	ldr	r3, [r7, #16]
 c004a98:	2b04      	cmp	r3, #4
 c004a9a:	d102      	bne.n	c004aa2 <HAL_RCC_GetSysClockFreq+0x7e>
  {
    /* HSI used as system clock source */
    sysclockfreq = HSI_VALUE;
 c004a9c:	4b2e      	ldr	r3, [pc, #184]	; (c004b58 <HAL_RCC_GetSysClockFreq+0x134>)
 c004a9e:	61bb      	str	r3, [r7, #24]
 c004aa0:	e004      	b.n	c004aac <HAL_RCC_GetSysClockFreq+0x88>
  }
  else if (sysclk_source == RCC_SYSCLKSOURCE_STATUS_HSE)
 c004aa2:	693b      	ldr	r3, [r7, #16]
 c004aa4:	2b08      	cmp	r3, #8
 c004aa6:	d101      	bne.n	c004aac <HAL_RCC_GetSysClockFreq+0x88>
  {
    /* HSE used as system clock source */
    sysclockfreq = HSE_VALUE;
 c004aa8:	4b2c      	ldr	r3, [pc, #176]	; (c004b5c <HAL_RCC_GetSysClockFreq+0x138>)
 c004aaa:	61bb      	str	r3, [r7, #24]
  else
  {
    /* unexpected case: sysclockfreq at 0 */
  }

  if (sysclk_source == RCC_SYSCLKSOURCE_STATUS_PLLCLK)
 c004aac:	693b      	ldr	r3, [r7, #16]
 c004aae:	2b0c      	cmp	r3, #12
 c004ab0:	d146      	bne.n	c004b40 <HAL_RCC_GetSysClockFreq+0x11c>
    /* PLL used as system clock  source */

    /* PLL_VCO = (HSE_VALUE or HSI_VALUE or MSI_VALUE/ PLLM) * PLLN
    SYSCLK = PLL_VCO / PLLR
    */
    pllsource = (RCC->PLLCFGR & RCC_PLLCFGR_PLLSRC);
 c004ab2:	4b27      	ldr	r3, [pc, #156]	; (c004b50 <HAL_RCC_GetSysClockFreq+0x12c>)
 c004ab4:	68db      	ldr	r3, [r3, #12]
 c004ab6:	f003 0303 	and.w	r3, r3, #3
 c004aba:	60bb      	str	r3, [r7, #8]
    pllm = ((RCC->PLLCFGR & RCC_PLLCFGR_PLLM) >> RCC_PLLCFGR_PLLM_Pos) + 1U ;
 c004abc:	4b24      	ldr	r3, [pc, #144]	; (c004b50 <HAL_RCC_GetSysClockFreq+0x12c>)
 c004abe:	68db      	ldr	r3, [r3, #12]
 c004ac0:	091b      	lsrs	r3, r3, #4
 c004ac2:	f003 030f 	and.w	r3, r3, #15
 c004ac6:	3301      	adds	r3, #1
 c004ac8:	607b      	str	r3, [r7, #4]

    switch (pllsource)
 c004aca:	68bb      	ldr	r3, [r7, #8]
 c004acc:	2b02      	cmp	r3, #2
 c004ace:	d003      	beq.n	c004ad8 <HAL_RCC_GetSysClockFreq+0xb4>
 c004ad0:	68bb      	ldr	r3, [r7, #8]
 c004ad2:	2b03      	cmp	r3, #3
 c004ad4:	d00d      	beq.n	c004af2 <HAL_RCC_GetSysClockFreq+0xce>
 c004ad6:	e019      	b.n	c004b0c <HAL_RCC_GetSysClockFreq+0xe8>
    {
      case RCC_PLLSOURCE_HSI:  /* HSI used as PLL clock source */
        pllvco = (HSI_VALUE / pllm) * ((RCC->PLLCFGR & RCC_PLLCFGR_PLLN) >> RCC_PLLCFGR_PLLN_Pos);
 c004ad8:	4a1f      	ldr	r2, [pc, #124]	; (c004b58 <HAL_RCC_GetSysClockFreq+0x134>)
 c004ada:	687b      	ldr	r3, [r7, #4]
 c004adc:	fbb2 f3f3 	udiv	r3, r2, r3
 c004ae0:	4a1b      	ldr	r2, [pc, #108]	; (c004b50 <HAL_RCC_GetSysClockFreq+0x12c>)
 c004ae2:	68d2      	ldr	r2, [r2, #12]
 c004ae4:	0a12      	lsrs	r2, r2, #8
 c004ae6:	f002 027f 	and.w	r2, r2, #127	; 0x7f
 c004aea:	fb02 f303 	mul.w	r3, r2, r3
 c004aee:	617b      	str	r3, [r7, #20]
        break;
 c004af0:	e019      	b.n	c004b26 <HAL_RCC_GetSysClockFreq+0x102>

      case RCC_PLLSOURCE_HSE:  /* HSE used as PLL clock source */
        pllvco = (HSE_VALUE / pllm) * ((RCC->PLLCFGR & RCC_PLLCFGR_PLLN) >> RCC_PLLCFGR_PLLN_Pos);
 c004af2:	4a1a      	ldr	r2, [pc, #104]	; (c004b5c <HAL_RCC_GetSysClockFreq+0x138>)
 c004af4:	687b      	ldr	r3, [r7, #4]
 c004af6:	fbb2 f3f3 	udiv	r3, r2, r3
 c004afa:	4a15      	ldr	r2, [pc, #84]	; (c004b50 <HAL_RCC_GetSysClockFreq+0x12c>)
 c004afc:	68d2      	ldr	r2, [r2, #12]
 c004afe:	0a12      	lsrs	r2, r2, #8
 c004b00:	f002 027f 	and.w	r2, r2, #127	; 0x7f
 c004b04:	fb02 f303 	mul.w	r3, r2, r3
 c004b08:	617b      	str	r3, [r7, #20]
        break;
 c004b0a:	e00c      	b.n	c004b26 <HAL_RCC_GetSysClockFreq+0x102>

      case RCC_PLLSOURCE_MSI:  /* MSI used as PLL clock source */
      default:
        pllvco = (msirange / pllm) * ((RCC->PLLCFGR & RCC_PLLCFGR_PLLN) >> RCC_PLLCFGR_PLLN_Pos);
 c004b0c:	69fa      	ldr	r2, [r7, #28]
 c004b0e:	687b      	ldr	r3, [r7, #4]
 c004b10:	fbb2 f3f3 	udiv	r3, r2, r3
 c004b14:	4a0e      	ldr	r2, [pc, #56]	; (c004b50 <HAL_RCC_GetSysClockFreq+0x12c>)
 c004b16:	68d2      	ldr	r2, [r2, #12]
 c004b18:	0a12      	lsrs	r2, r2, #8
 c004b1a:	f002 027f 	and.w	r2, r2, #127	; 0x7f
 c004b1e:	fb02 f303 	mul.w	r3, r2, r3
 c004b22:	617b      	str	r3, [r7, #20]
        break;
 c004b24:	bf00      	nop
    }
    pllr = (((RCC->PLLCFGR & RCC_PLLCFGR_PLLR) >> RCC_PLLCFGR_PLLR_Pos) + 1U) * 2U;
 c004b26:	4b0a      	ldr	r3, [pc, #40]	; (c004b50 <HAL_RCC_GetSysClockFreq+0x12c>)
 c004b28:	68db      	ldr	r3, [r3, #12]
 c004b2a:	0e5b      	lsrs	r3, r3, #25
 c004b2c:	f003 0303 	and.w	r3, r3, #3
 c004b30:	3301      	adds	r3, #1
 c004b32:	005b      	lsls	r3, r3, #1
 c004b34:	603b      	str	r3, [r7, #0]
    sysclockfreq = pllvco / pllr;
 c004b36:	697a      	ldr	r2, [r7, #20]
 c004b38:	683b      	ldr	r3, [r7, #0]
 c004b3a:	fbb2 f3f3 	udiv	r3, r2, r3
 c004b3e:	61bb      	str	r3, [r7, #24]
  }

  return sysclockfreq;
 c004b40:	69bb      	ldr	r3, [r7, #24]
}
 c004b42:	4618      	mov	r0, r3
 c004b44:	3724      	adds	r7, #36	; 0x24
 c004b46:	46bd      	mov	sp, r7
 c004b48:	f85d 7b04 	ldr.w	r7, [sp], #4
 c004b4c:	4770      	bx	lr
 c004b4e:	bf00      	nop
 c004b50:	50021000 	.word	0x50021000
 c004b54:	0c008d20 	.word	0x0c008d20
 c004b58:	00f42400 	.word	0x00f42400
 c004b5c:	007a1200 	.word	0x007a1200

0c004b60 <HAL_RCC_GetHCLKFreq>:
  * @note   Each time HCLK changes, this function must be called to update the
  *         right HCLK value. Otherwise, any configuration based on this function will be incorrect.
  * @retval HCLK frequency in Hz
  */
uint32_t HAL_RCC_GetHCLKFreq(void)
{
 c004b60:	b580      	push	{r7, lr}
 c004b62:	af00      	add	r7, sp, #0
  return (HAL_RCC_GetSysClockFreq() >> AHBPrescTable[(RCC->CFGR & RCC_CFGR_HPRE) >> RCC_CFGR_HPRE_Pos]);
 c004b64:	f7ff ff5e 	bl	c004a24 <HAL_RCC_GetSysClockFreq>
 c004b68:	4602      	mov	r2, r0
 c004b6a:	4b05      	ldr	r3, [pc, #20]	; (c004b80 <HAL_RCC_GetHCLKFreq+0x20>)
 c004b6c:	689b      	ldr	r3, [r3, #8]
 c004b6e:	091b      	lsrs	r3, r3, #4
 c004b70:	f003 030f 	and.w	r3, r3, #15
 c004b74:	4903      	ldr	r1, [pc, #12]	; (c004b84 <HAL_RCC_GetHCLKFreq+0x24>)
 c004b76:	5ccb      	ldrb	r3, [r1, r3]
 c004b78:	fa22 f303 	lsr.w	r3, r2, r3
}
 c004b7c:	4618      	mov	r0, r3
 c004b7e:	bd80      	pop	{r7, pc}
 c004b80:	50021000 	.word	0x50021000
 c004b84:	0c008d08 	.word	0x0c008d08

0c004b88 <HAL_RCC_GetPCLK1Freq>:
  * @note   Each time PCLK1 changes, this function must be called to update the
  *         right PCLK1 value. Otherwise, any configuration based on this function will be incorrect.
  * @retval PCLK1 frequency in Hz
  */
uint32_t HAL_RCC_GetPCLK1Freq(void)
{
 c004b88:	b580      	push	{r7, lr}
 c004b8a:	af00      	add	r7, sp, #0
  /* Get HCLK source and Compute PCLK1 frequency ---------------------------*/
  return (HAL_RCC_GetHCLKFreq() >> APBPrescTable[(RCC->CFGR & RCC_CFGR_PPRE1) >> RCC_CFGR_PPRE1_Pos]);
 c004b8c:	f7ff ffe8 	bl	c004b60 <HAL_RCC_GetHCLKFreq>
 c004b90:	4602      	mov	r2, r0
 c004b92:	4b05      	ldr	r3, [pc, #20]	; (c004ba8 <HAL_RCC_GetPCLK1Freq+0x20>)
 c004b94:	689b      	ldr	r3, [r3, #8]
 c004b96:	0a1b      	lsrs	r3, r3, #8
 c004b98:	f003 0307 	and.w	r3, r3, #7
 c004b9c:	4903      	ldr	r1, [pc, #12]	; (c004bac <HAL_RCC_GetPCLK1Freq+0x24>)
 c004b9e:	5ccb      	ldrb	r3, [r1, r3]
 c004ba0:	fa22 f303 	lsr.w	r3, r2, r3
}
 c004ba4:	4618      	mov	r0, r3
 c004ba6:	bd80      	pop	{r7, pc}
 c004ba8:	50021000 	.word	0x50021000
 c004bac:	0c008d18 	.word	0x0c008d18

0c004bb0 <HAL_RCC_GetPCLK2Freq>:
  * @note   Each time PCLK2 changes, this function must be called to update the
  *         right PCLK2 value. Otherwise, any configuration based on this function will be incorrect.
  * @retval PCLK2 frequency in Hz
  */
uint32_t HAL_RCC_GetPCLK2Freq(void)
{
 c004bb0:	b580      	push	{r7, lr}
 c004bb2:	af00      	add	r7, sp, #0
  /* Get HCLK source and Compute PCLK2 frequency ---------------------------*/
  return (HAL_RCC_GetHCLKFreq() >> APBPrescTable[(RCC->CFGR & RCC_CFGR_PPRE2) >> RCC_CFGR_PPRE2_Pos]);
 c004bb4:	f7ff ffd4 	bl	c004b60 <HAL_RCC_GetHCLKFreq>
 c004bb8:	4602      	mov	r2, r0
 c004bba:	4b05      	ldr	r3, [pc, #20]	; (c004bd0 <HAL_RCC_GetPCLK2Freq+0x20>)
 c004bbc:	689b      	ldr	r3, [r3, #8]
 c004bbe:	0adb      	lsrs	r3, r3, #11
 c004bc0:	f003 0307 	and.w	r3, r3, #7
 c004bc4:	4903      	ldr	r1, [pc, #12]	; (c004bd4 <HAL_RCC_GetPCLK2Freq+0x24>)
 c004bc6:	5ccb      	ldrb	r3, [r1, r3]
 c004bc8:	fa22 f303 	lsr.w	r3, r2, r3
}
 c004bcc:	4618      	mov	r0, r3
 c004bce:	bd80      	pop	{r7, pc}
 c004bd0:	50021000 	.word	0x50021000
 c004bd4:	0c008d18 	.word	0x0c008d18

0c004bd8 <RCC_SetFlashLatencyFromMSIRange>:
            voltage range.
  * @param  msirange  MSI range value from RCC_MSIRANGE_0 to RCC_MSIRANGE_11
  * @retval HAL status
  */
static HAL_StatusTypeDef RCC_SetFlashLatencyFromMSIRange(uint32_t msirange)
{
 c004bd8:	b580      	push	{r7, lr}
 c004bda:	b086      	sub	sp, #24
 c004bdc:	af00      	add	r7, sp, #0
 c004bde:	6078      	str	r0, [r7, #4]
  uint32_t latency = FLASH_LATENCY_0;  /* default value 0WS */
 c004be0:	2300      	movs	r3, #0
 c004be2:	617b      	str	r3, [r7, #20]
  uint32_t vos;

  if (__HAL_RCC_PWR_IS_CLK_ENABLED())
 c004be4:	4b2c      	ldr	r3, [pc, #176]	; (c004c98 <RCC_SetFlashLatencyFromMSIRange+0xc0>)
 c004be6:	6d9b      	ldr	r3, [r3, #88]	; 0x58
 c004be8:	f003 5380 	and.w	r3, r3, #268435456	; 0x10000000
 c004bec:	2b00      	cmp	r3, #0
 c004bee:	d003      	beq.n	c004bf8 <RCC_SetFlashLatencyFromMSIRange+0x20>
  {
    vos = HAL_PWREx_GetVoltageRange();
 c004bf0:	f7ff f85c 	bl	c003cac <HAL_PWREx_GetVoltageRange>
 c004bf4:	6138      	str	r0, [r7, #16]
 c004bf6:	e014      	b.n	c004c22 <RCC_SetFlashLatencyFromMSIRange+0x4a>
  }
  else
  {
    __HAL_RCC_PWR_CLK_ENABLE();
 c004bf8:	4b27      	ldr	r3, [pc, #156]	; (c004c98 <RCC_SetFlashLatencyFromMSIRange+0xc0>)
 c004bfa:	6d9b      	ldr	r3, [r3, #88]	; 0x58
 c004bfc:	4a26      	ldr	r2, [pc, #152]	; (c004c98 <RCC_SetFlashLatencyFromMSIRange+0xc0>)
 c004bfe:	f043 5380 	orr.w	r3, r3, #268435456	; 0x10000000
 c004c02:	6593      	str	r3, [r2, #88]	; 0x58
 c004c04:	4b24      	ldr	r3, [pc, #144]	; (c004c98 <RCC_SetFlashLatencyFromMSIRange+0xc0>)
 c004c06:	6d9b      	ldr	r3, [r3, #88]	; 0x58
 c004c08:	f003 5380 	and.w	r3, r3, #268435456	; 0x10000000
 c004c0c:	60fb      	str	r3, [r7, #12]
 c004c0e:	68fb      	ldr	r3, [r7, #12]
    vos = HAL_PWREx_GetVoltageRange();
 c004c10:	f7ff f84c 	bl	c003cac <HAL_PWREx_GetVoltageRange>
 c004c14:	6138      	str	r0, [r7, #16]
    __HAL_RCC_PWR_CLK_DISABLE();
 c004c16:	4b20      	ldr	r3, [pc, #128]	; (c004c98 <RCC_SetFlashLatencyFromMSIRange+0xc0>)
 c004c18:	6d9b      	ldr	r3, [r3, #88]	; 0x58
 c004c1a:	4a1f      	ldr	r2, [pc, #124]	; (c004c98 <RCC_SetFlashLatencyFromMSIRange+0xc0>)
 c004c1c:	f023 5380 	bic.w	r3, r3, #268435456	; 0x10000000
 c004c20:	6593      	str	r3, [r2, #88]	; 0x58
  }

  if ((vos == PWR_REGULATOR_VOLTAGE_SCALE0) || (vos == PWR_REGULATOR_VOLTAGE_SCALE1))
 c004c22:	693b      	ldr	r3, [r7, #16]
 c004c24:	2b00      	cmp	r3, #0
 c004c26:	d003      	beq.n	c004c30 <RCC_SetFlashLatencyFromMSIRange+0x58>
 c004c28:	693b      	ldr	r3, [r7, #16]
 c004c2a:	f5b3 7f00 	cmp.w	r3, #512	; 0x200
 c004c2e:	d10b      	bne.n	c004c48 <RCC_SetFlashLatencyFromMSIRange+0x70>
  {
    if (msirange > RCC_MSIRANGE_8)
 c004c30:	687b      	ldr	r3, [r7, #4]
 c004c32:	2b80      	cmp	r3, #128	; 0x80
 c004c34:	d919      	bls.n	c004c6a <RCC_SetFlashLatencyFromMSIRange+0x92>
    {
      /* MSI > 16Mhz */
      if (msirange > RCC_MSIRANGE_10)
 c004c36:	687b      	ldr	r3, [r7, #4]
 c004c38:	2ba0      	cmp	r3, #160	; 0xa0
 c004c3a:	d902      	bls.n	c004c42 <RCC_SetFlashLatencyFromMSIRange+0x6a>
      {
        /* MSI 48Mhz */
        latency = FLASH_LATENCY_2; /* 2WS */
 c004c3c:	2302      	movs	r3, #2
 c004c3e:	617b      	str	r3, [r7, #20]
    if (msirange > RCC_MSIRANGE_8)
 c004c40:	e013      	b.n	c004c6a <RCC_SetFlashLatencyFromMSIRange+0x92>
      }
      else
      {
        /* MSI 24Mhz or 32Mhz */
        latency = FLASH_LATENCY_1; /* 1WS */
 c004c42:	2301      	movs	r3, #1
 c004c44:	617b      	str	r3, [r7, #20]
    if (msirange > RCC_MSIRANGE_8)
 c004c46:	e010      	b.n	c004c6a <RCC_SetFlashLatencyFromMSIRange+0x92>
    }
    /* else MSI <= 16Mhz default FLASH_LATENCY_0 0WS */
  }
  else
  {
    if (msirange > RCC_MSIRANGE_8)
 c004c48:	687b      	ldr	r3, [r7, #4]
 c004c4a:	2b80      	cmp	r3, #128	; 0x80
 c004c4c:	d902      	bls.n	c004c54 <RCC_SetFlashLatencyFromMSIRange+0x7c>
    {
      /* MSI > 16Mhz */
      latency = FLASH_LATENCY_3; /* 3WS */
 c004c4e:	2303      	movs	r3, #3
 c004c50:	617b      	str	r3, [r7, #20]
 c004c52:	e00a      	b.n	c004c6a <RCC_SetFlashLatencyFromMSIRange+0x92>
    }
    else
    {
      if (msirange == RCC_MSIRANGE_8)
 c004c54:	687b      	ldr	r3, [r7, #4]
 c004c56:	2b80      	cmp	r3, #128	; 0x80
 c004c58:	d102      	bne.n	c004c60 <RCC_SetFlashLatencyFromMSIRange+0x88>
      {
        /* MSI 16Mhz */
        latency = FLASH_LATENCY_2; /* 2WS */
 c004c5a:	2302      	movs	r3, #2
 c004c5c:	617b      	str	r3, [r7, #20]
 c004c5e:	e004      	b.n	c004c6a <RCC_SetFlashLatencyFromMSIRange+0x92>
      }
      else if (msirange == RCC_MSIRANGE_7)
 c004c60:	687b      	ldr	r3, [r7, #4]
 c004c62:	2b70      	cmp	r3, #112	; 0x70
 c004c64:	d101      	bne.n	c004c6a <RCC_SetFlashLatencyFromMSIRange+0x92>
      {
        /* MSI 8Mhz */
        latency = FLASH_LATENCY_1; /* 1WS */
 c004c66:	2301      	movs	r3, #1
 c004c68:	617b      	str	r3, [r7, #20]
        /* MSI < 8Mhz default FLASH_LATENCY_0 0WS */
      }
    }
  }

  __HAL_FLASH_SET_LATENCY(latency);
 c004c6a:	4b0c      	ldr	r3, [pc, #48]	; (c004c9c <RCC_SetFlashLatencyFromMSIRange+0xc4>)
 c004c6c:	681b      	ldr	r3, [r3, #0]
 c004c6e:	f023 020f 	bic.w	r2, r3, #15
 c004c72:	490a      	ldr	r1, [pc, #40]	; (c004c9c <RCC_SetFlashLatencyFromMSIRange+0xc4>)
 c004c74:	697b      	ldr	r3, [r7, #20]
 c004c76:	4313      	orrs	r3, r2
 c004c78:	600b      	str	r3, [r1, #0]

  /* Check that the new number of wait states is taken into account to access the Flash
     memory by reading the FLASH_ACR register */
  if ((FLASH->ACR & FLASH_ACR_LATENCY) != latency)
 c004c7a:	4b08      	ldr	r3, [pc, #32]	; (c004c9c <RCC_SetFlashLatencyFromMSIRange+0xc4>)
 c004c7c:	681b      	ldr	r3, [r3, #0]
 c004c7e:	f003 030f 	and.w	r3, r3, #15
 c004c82:	697a      	ldr	r2, [r7, #20]
 c004c84:	429a      	cmp	r2, r3
 c004c86:	d001      	beq.n	c004c8c <RCC_SetFlashLatencyFromMSIRange+0xb4>
  {
    return HAL_ERROR;
 c004c88:	2301      	movs	r3, #1
 c004c8a:	e000      	b.n	c004c8e <RCC_SetFlashLatencyFromMSIRange+0xb6>
  }

  return HAL_OK;
 c004c8c:	2300      	movs	r3, #0
}
 c004c8e:	4618      	mov	r0, r3
 c004c90:	3718      	adds	r7, #24
 c004c92:	46bd      	mov	sp, r7
 c004c94:	bd80      	pop	{r7, pc}
 c004c96:	bf00      	nop
 c004c98:	50021000 	.word	0x50021000
 c004c9c:	50022000 	.word	0x50022000

0c004ca0 <RCC_GetSysClockFreqFromPLLSource>:
/**
  * @brief  Compute SYSCLK frequency based on PLL SYSCLK source.
  * @retval SYSCLK frequency
  */
static uint32_t RCC_GetSysClockFreqFromPLLSource(void)
{
 c004ca0:	b480      	push	{r7}
 c004ca2:	b087      	sub	sp, #28
 c004ca4:	af00      	add	r7, sp, #0
  uint32_t msirange, pllvco, pllsource, pllr, pllm, sysclockfreq;    /* no init needed */

  /* PLL_VCO = (HSE_VALUE or HSI_VALUE or MSI_VALUE/ PLLM) * PLLN
     SYSCLK = PLL_VCO / PLLR
   */
  pllsource = READ_BIT(RCC->PLLCFGR, RCC_PLLCFGR_PLLSRC);
 c004ca6:	4b31      	ldr	r3, [pc, #196]	; (c004d6c <RCC_GetSysClockFreqFromPLLSource+0xcc>)
 c004ca8:	68db      	ldr	r3, [r3, #12]
 c004caa:	f003 0303 	and.w	r3, r3, #3
 c004cae:	60fb      	str	r3, [r7, #12]
  pllm = (READ_BIT(RCC->PLLCFGR, RCC_PLLCFGR_PLLM) >> RCC_PLLCFGR_PLLM_Pos) + 1U ;
 c004cb0:	4b2e      	ldr	r3, [pc, #184]	; (c004d6c <RCC_GetSysClockFreqFromPLLSource+0xcc>)
 c004cb2:	68db      	ldr	r3, [r3, #12]
 c004cb4:	091b      	lsrs	r3, r3, #4
 c004cb6:	f003 030f 	and.w	r3, r3, #15
 c004cba:	3301      	adds	r3, #1
 c004cbc:	60bb      	str	r3, [r7, #8]

  switch (pllsource)
 c004cbe:	68fb      	ldr	r3, [r7, #12]
 c004cc0:	2b03      	cmp	r3, #3
 c004cc2:	d015      	beq.n	c004cf0 <RCC_GetSysClockFreqFromPLLSource+0x50>
 c004cc4:	68fb      	ldr	r3, [r7, #12]
 c004cc6:	2b03      	cmp	r3, #3
 c004cc8:	d839      	bhi.n	c004d3e <RCC_GetSysClockFreqFromPLLSource+0x9e>
 c004cca:	68fb      	ldr	r3, [r7, #12]
 c004ccc:	2b01      	cmp	r3, #1
 c004cce:	d01c      	beq.n	c004d0a <RCC_GetSysClockFreqFromPLLSource+0x6a>
 c004cd0:	68fb      	ldr	r3, [r7, #12]
 c004cd2:	2b02      	cmp	r3, #2
 c004cd4:	d133      	bne.n	c004d3e <RCC_GetSysClockFreqFromPLLSource+0x9e>
  {
    case RCC_PLLSOURCE_HSI:  /* HSI used as PLL clock source */
      pllvco = (HSI_VALUE / pllm) * (READ_BIT(RCC->PLLCFGR, RCC_PLLCFGR_PLLN) >> RCC_PLLCFGR_PLLN_Pos);
 c004cd6:	4a26      	ldr	r2, [pc, #152]	; (c004d70 <RCC_GetSysClockFreqFromPLLSource+0xd0>)
 c004cd8:	68bb      	ldr	r3, [r7, #8]
 c004cda:	fbb2 f3f3 	udiv	r3, r2, r3
 c004cde:	4a23      	ldr	r2, [pc, #140]	; (c004d6c <RCC_GetSysClockFreqFromPLLSource+0xcc>)
 c004ce0:	68d2      	ldr	r2, [r2, #12]
 c004ce2:	0a12      	lsrs	r2, r2, #8
 c004ce4:	f002 027f 	and.w	r2, r2, #127	; 0x7f
 c004ce8:	fb02 f303 	mul.w	r3, r2, r3
 c004cec:	613b      	str	r3, [r7, #16]
      break;
 c004cee:	e029      	b.n	c004d44 <RCC_GetSysClockFreqFromPLLSource+0xa4>

    case RCC_PLLSOURCE_HSE:  /* HSE used as PLL clock source */
      pllvco = (HSE_VALUE / pllm) * (READ_BIT(RCC->PLLCFGR, RCC_PLLCFGR_PLLN) >> RCC_PLLCFGR_PLLN_Pos);
 c004cf0:	4a20      	ldr	r2, [pc, #128]	; (c004d74 <RCC_GetSysClockFreqFromPLLSource+0xd4>)
 c004cf2:	68bb      	ldr	r3, [r7, #8]
 c004cf4:	fbb2 f3f3 	udiv	r3, r2, r3
 c004cf8:	4a1c      	ldr	r2, [pc, #112]	; (c004d6c <RCC_GetSysClockFreqFromPLLSource+0xcc>)
 c004cfa:	68d2      	ldr	r2, [r2, #12]
 c004cfc:	0a12      	lsrs	r2, r2, #8
 c004cfe:	f002 027f 	and.w	r2, r2, #127	; 0x7f
 c004d02:	fb02 f303 	mul.w	r3, r2, r3
 c004d06:	613b      	str	r3, [r7, #16]
      break;
 c004d08:	e01c      	b.n	c004d44 <RCC_GetSysClockFreqFromPLLSource+0xa4>

    case RCC_PLLSOURCE_MSI:  /* MSI used as PLL clock source */
      /* Get MSI range source */
      if(READ_BIT(RCC->CR, RCC_CR_MSIRGSEL) == 0U)
 c004d0a:	4b18      	ldr	r3, [pc, #96]	; (c004d6c <RCC_GetSysClockFreqFromPLLSource+0xcc>)
 c004d0c:	681b      	ldr	r3, [r3, #0]
 c004d0e:	f003 0308 	and.w	r3, r3, #8
 c004d12:	2b00      	cmp	r3, #0
 c004d14:	d107      	bne.n	c004d26 <RCC_GetSysClockFreqFromPLLSource+0x86>
      { /* MSISRANGE from RCC_CSR applies */
        msirange = READ_BIT(RCC->CSR, RCC_CSR_MSISRANGE) >> RCC_CSR_MSISRANGE_Pos;
 c004d16:	4b15      	ldr	r3, [pc, #84]	; (c004d6c <RCC_GetSysClockFreqFromPLLSource+0xcc>)
 c004d18:	f8d3 3094 	ldr.w	r3, [r3, #148]	; 0x94
 c004d1c:	0a1b      	lsrs	r3, r3, #8
 c004d1e:	f003 030f 	and.w	r3, r3, #15
 c004d22:	617b      	str	r3, [r7, #20]
 c004d24:	e005      	b.n	c004d32 <RCC_GetSysClockFreqFromPLLSource+0x92>
      }
      else
      { /* MSIRANGE from RCC_CR applies */
        msirange = READ_BIT(RCC->CR, RCC_CR_MSIRANGE) >> RCC_CR_MSIRANGE_Pos;
 c004d26:	4b11      	ldr	r3, [pc, #68]	; (c004d6c <RCC_GetSysClockFreqFromPLLSource+0xcc>)
 c004d28:	681b      	ldr	r3, [r3, #0]
 c004d2a:	091b      	lsrs	r3, r3, #4
 c004d2c:	f003 030f 	and.w	r3, r3, #15
 c004d30:	617b      	str	r3, [r7, #20]
      }
        /*MSI frequency range in HZ*/
        pllvco = MSIRangeTable[msirange];
 c004d32:	4a11      	ldr	r2, [pc, #68]	; (c004d78 <RCC_GetSysClockFreqFromPLLSource+0xd8>)
 c004d34:	697b      	ldr	r3, [r7, #20]
 c004d36:	f852 3023 	ldr.w	r3, [r2, r3, lsl #2]
 c004d3a:	613b      	str	r3, [r7, #16]
        break;
 c004d3c:	e002      	b.n	c004d44 <RCC_GetSysClockFreqFromPLLSource+0xa4>
    default:
      /* unexpected */
      pllvco = 0;
 c004d3e:	2300      	movs	r3, #0
 c004d40:	613b      	str	r3, [r7, #16]
      break;
 c004d42:	bf00      	nop
  }

  pllr = ((READ_BIT(RCC->PLLCFGR, RCC_PLLCFGR_PLLR) >> RCC_PLLCFGR_PLLR_Pos) + 1U) * 2U;
 c004d44:	4b09      	ldr	r3, [pc, #36]	; (c004d6c <RCC_GetSysClockFreqFromPLLSource+0xcc>)
 c004d46:	68db      	ldr	r3, [r3, #12]
 c004d48:	0e5b      	lsrs	r3, r3, #25
 c004d4a:	f003 0303 	and.w	r3, r3, #3
 c004d4e:	3301      	adds	r3, #1
 c004d50:	005b      	lsls	r3, r3, #1
 c004d52:	607b      	str	r3, [r7, #4]
  sysclockfreq = pllvco / pllr;
 c004d54:	693a      	ldr	r2, [r7, #16]
 c004d56:	687b      	ldr	r3, [r7, #4]
 c004d58:	fbb2 f3f3 	udiv	r3, r2, r3
 c004d5c:	603b      	str	r3, [r7, #0]

  return sysclockfreq;
 c004d5e:	683b      	ldr	r3, [r7, #0]
}
 c004d60:	4618      	mov	r0, r3
 c004d62:	371c      	adds	r7, #28
 c004d64:	46bd      	mov	sp, r7
 c004d66:	f85d 7b04 	ldr.w	r7, [sp], #4
 c004d6a:	4770      	bx	lr
 c004d6c:	50021000 	.word	0x50021000
 c004d70:	00f42400 	.word	0x00f42400
 c004d74:	007a1200 	.word	0x007a1200
 c004d78:	0c008d20 	.word	0x0c008d20

0c004d7c <HAL_RCCEx_PeriphCLKConfig>:
  *         the RTC clock source: in this case the access to Backup domain is enabled.
  *
  * @retval HAL status
  */
HAL_StatusTypeDef HAL_RCCEx_PeriphCLKConfig(RCC_PeriphCLKInitTypeDef  *PeriphClkInit)
{
 c004d7c:	b580      	push	{r7, lr}
 c004d7e:	b088      	sub	sp, #32
 c004d80:	af00      	add	r7, sp, #0
 c004d82:	6078      	str	r0, [r7, #4]
  HAL_StatusTypeDef ret = HAL_OK;      /* Intermediate status */
 c004d84:	2300      	movs	r3, #0
 c004d86:	77fb      	strb	r3, [r7, #31]
  HAL_StatusTypeDef status = HAL_OK;   /* Final status */
 c004d88:	2300      	movs	r3, #0
 c004d8a:	77bb      	strb	r3, [r7, #30]

  /* Check the parameters */
  assert_param(IS_RCC_PERIPHCLOCK(PeriphClkInit->PeriphClockSelection));

  /*-------------------------- SAI1 clock source configuration ---------------------*/
  if ((((PeriphClkInit->PeriphClockSelection) & RCC_PERIPHCLK_SAI1) == RCC_PERIPHCLK_SAI1))
 c004d8c:	687b      	ldr	r3, [r7, #4]
 c004d8e:	681b      	ldr	r3, [r3, #0]
 c004d90:	f403 6300 	and.w	r3, r3, #2048	; 0x800
 c004d94:	2b00      	cmp	r3, #0
 c004d96:	d040      	beq.n	c004e1a <HAL_RCCEx_PeriphCLKConfig+0x9e>
  {
    /* Check the parameters */
    assert_param(IS_RCC_SAI1CLK(PeriphClkInit->Sai1ClockSelection));

    switch (PeriphClkInit->Sai1ClockSelection)
 c004d98:	687b      	ldr	r3, [r7, #4]
 c004d9a:	6edb      	ldr	r3, [r3, #108]	; 0x6c
 c004d9c:	2b80      	cmp	r3, #128	; 0x80
 c004d9e:	d02a      	beq.n	c004df6 <HAL_RCCEx_PeriphCLKConfig+0x7a>
 c004da0:	2b80      	cmp	r3, #128	; 0x80
 c004da2:	d825      	bhi.n	c004df0 <HAL_RCCEx_PeriphCLKConfig+0x74>
 c004da4:	2b60      	cmp	r3, #96	; 0x60
 c004da6:	d026      	beq.n	c004df6 <HAL_RCCEx_PeriphCLKConfig+0x7a>
 c004da8:	2b60      	cmp	r3, #96	; 0x60
 c004daa:	d821      	bhi.n	c004df0 <HAL_RCCEx_PeriphCLKConfig+0x74>
 c004dac:	2b40      	cmp	r3, #64	; 0x40
 c004dae:	d006      	beq.n	c004dbe <HAL_RCCEx_PeriphCLKConfig+0x42>
 c004db0:	2b40      	cmp	r3, #64	; 0x40
 c004db2:	d81d      	bhi.n	c004df0 <HAL_RCCEx_PeriphCLKConfig+0x74>
 c004db4:	2b00      	cmp	r3, #0
 c004db6:	d009      	beq.n	c004dcc <HAL_RCCEx_PeriphCLKConfig+0x50>
 c004db8:	2b20      	cmp	r3, #32
 c004dba:	d010      	beq.n	c004dde <HAL_RCCEx_PeriphCLKConfig+0x62>
 c004dbc:	e018      	b.n	c004df0 <HAL_RCCEx_PeriphCLKConfig+0x74>
    {
      case RCC_SAI1CLKSOURCE_PLL:      /* PLL is used as clock source for SAI1*/
        /* Enable SAI Clock output generated from System PLL . */
        __HAL_RCC_PLLCLKOUT_ENABLE(RCC_PLL_SAI3CLK);
 c004dbe:	4b8f      	ldr	r3, [pc, #572]	; (c004ffc <HAL_RCCEx_PeriphCLKConfig+0x280>)
 c004dc0:	68db      	ldr	r3, [r3, #12]
 c004dc2:	4a8e      	ldr	r2, [pc, #568]	; (c004ffc <HAL_RCCEx_PeriphCLKConfig+0x280>)
 c004dc4:	f443 3380 	orr.w	r3, r3, #65536	; 0x10000
 c004dc8:	60d3      	str	r3, [r2, #12]
        /* SAI1 clock source config set later after clock selection check */
        break;
 c004dca:	e015      	b.n	c004df8 <HAL_RCCEx_PeriphCLKConfig+0x7c>

      case RCC_SAI1CLKSOURCE_PLLSAI1:  /* PLLSAI1 is used as clock source for SAI1*/
        /* PLLSAI1 input clock, parameters M, N & P configuration and clock output (PLLSAI1ClockOut) */
        ret = RCCEx_PLLSAI1_Config(&(PeriphClkInit->PLLSAI1), DIVIDER_P_UPDATE);
 c004dcc:	687b      	ldr	r3, [r7, #4]
 c004dce:	3304      	adds	r3, #4
 c004dd0:	2100      	movs	r1, #0
 c004dd2:	4618      	mov	r0, r3
 c004dd4:	f000 fb56 	bl	c005484 <RCCEx_PLLSAI1_Config>
 c004dd8:	4603      	mov	r3, r0
 c004dda:	77fb      	strb	r3, [r7, #31]
        /* SAI1 clock source config set later after clock selection check */
        break;
 c004ddc:	e00c      	b.n	c004df8 <HAL_RCCEx_PeriphCLKConfig+0x7c>

      case RCC_SAI1CLKSOURCE_PLLSAI2:  /* PLLSAI2 is used as clock source for SAI1*/
        /* PLLSAI2 input clock, parameters M, N & P configuration clock output (PLLSAI2ClockOut) */
        ret = RCCEx_PLLSAI2_Config(&(PeriphClkInit->PLLSAI2), DIVIDER_P_UPDATE);
 c004dde:	687b      	ldr	r3, [r7, #4]
 c004de0:	3320      	adds	r3, #32
 c004de2:	2100      	movs	r1, #0
 c004de4:	4618      	mov	r0, r3
 c004de6:	f000 fc33 	bl	c005650 <RCCEx_PLLSAI2_Config>
 c004dea:	4603      	mov	r3, r0
 c004dec:	77fb      	strb	r3, [r7, #31]
        /* SAI1 clock source config set later after clock selection check */
        break;
 c004dee:	e003      	b.n	c004df8 <HAL_RCCEx_PeriphCLKConfig+0x7c>
      case RCC_SAI1CLKSOURCE_HSI:      /* HSI is used as source of SAI1 clock*/
        /* SAI1 clock source config set later after clock selection check */
        break;

      default:
        ret = HAL_ERROR;
 c004df0:	2301      	movs	r3, #1
 c004df2:	77fb      	strb	r3, [r7, #31]
        break;
 c004df4:	e000      	b.n	c004df8 <HAL_RCCEx_PeriphCLKConfig+0x7c>
        break;
 c004df6:	bf00      	nop
    }

    if (ret == HAL_OK)
 c004df8:	7ffb      	ldrb	r3, [r7, #31]
 c004dfa:	2b00      	cmp	r3, #0
 c004dfc:	d10b      	bne.n	c004e16 <HAL_RCCEx_PeriphCLKConfig+0x9a>
    {
      /* Set the source of SAI1 clock*/
      __HAL_RCC_SAI1_CONFIG(PeriphClkInit->Sai1ClockSelection);
 c004dfe:	4b7f      	ldr	r3, [pc, #508]	; (c004ffc <HAL_RCCEx_PeriphCLKConfig+0x280>)
 c004e00:	f8d3 309c 	ldr.w	r3, [r3, #156]	; 0x9c
 c004e04:	f023 02e0 	bic.w	r2, r3, #224	; 0xe0
 c004e08:	687b      	ldr	r3, [r7, #4]
 c004e0a:	6edb      	ldr	r3, [r3, #108]	; 0x6c
 c004e0c:	497b      	ldr	r1, [pc, #492]	; (c004ffc <HAL_RCCEx_PeriphCLKConfig+0x280>)
 c004e0e:	4313      	orrs	r3, r2
 c004e10:	f8c1 309c 	str.w	r3, [r1, #156]	; 0x9c
 c004e14:	e001      	b.n	c004e1a <HAL_RCCEx_PeriphCLKConfig+0x9e>
    }
    else
    {
      /* set overall return value */
      status = ret;
 c004e16:	7ffb      	ldrb	r3, [r7, #31]
 c004e18:	77bb      	strb	r3, [r7, #30]
    }
  }

  /*-------------------------- SAI2 clock source configuration ---------------------*/
  if ((((PeriphClkInit->PeriphClockSelection) & RCC_PERIPHCLK_SAI2) == RCC_PERIPHCLK_SAI2))
 c004e1a:	687b      	ldr	r3, [r7, #4]
 c004e1c:	681b      	ldr	r3, [r3, #0]
 c004e1e:	f403 5380 	and.w	r3, r3, #4096	; 0x1000
 c004e22:	2b00      	cmp	r3, #0
 c004e24:	d047      	beq.n	c004eb6 <HAL_RCCEx_PeriphCLKConfig+0x13a>
  {
    /* Check the parameters */
    assert_param(IS_RCC_SAI2CLK(PeriphClkInit->Sai2ClockSelection));

    switch (PeriphClkInit->Sai2ClockSelection)
 c004e26:	687b      	ldr	r3, [r7, #4]
 c004e28:	6f1b      	ldr	r3, [r3, #112]	; 0x70
 c004e2a:	f5b3 6f80 	cmp.w	r3, #1024	; 0x400
 c004e2e:	d030      	beq.n	c004e92 <HAL_RCCEx_PeriphCLKConfig+0x116>
 c004e30:	f5b3 6f80 	cmp.w	r3, #1024	; 0x400
 c004e34:	d82a      	bhi.n	c004e8c <HAL_RCCEx_PeriphCLKConfig+0x110>
 c004e36:	f5b3 7f40 	cmp.w	r3, #768	; 0x300
 c004e3a:	d02a      	beq.n	c004e92 <HAL_RCCEx_PeriphCLKConfig+0x116>
 c004e3c:	f5b3 7f40 	cmp.w	r3, #768	; 0x300
 c004e40:	d824      	bhi.n	c004e8c <HAL_RCCEx_PeriphCLKConfig+0x110>
 c004e42:	f5b3 7f00 	cmp.w	r3, #512	; 0x200
 c004e46:	d008      	beq.n	c004e5a <HAL_RCCEx_PeriphCLKConfig+0xde>
 c004e48:	f5b3 7f00 	cmp.w	r3, #512	; 0x200
 c004e4c:	d81e      	bhi.n	c004e8c <HAL_RCCEx_PeriphCLKConfig+0x110>
 c004e4e:	2b00      	cmp	r3, #0
 c004e50:	d00a      	beq.n	c004e68 <HAL_RCCEx_PeriphCLKConfig+0xec>
 c004e52:	f5b3 7f80 	cmp.w	r3, #256	; 0x100
 c004e56:	d010      	beq.n	c004e7a <HAL_RCCEx_PeriphCLKConfig+0xfe>
 c004e58:	e018      	b.n	c004e8c <HAL_RCCEx_PeriphCLKConfig+0x110>
    {
      case RCC_SAI2CLKSOURCE_PLL:      /* PLL is used as clock source for SAI2*/
        /* Enable SAI Clock output generated from System PLL . */
        __HAL_RCC_PLLCLKOUT_ENABLE(RCC_PLL_SAI3CLK);
 c004e5a:	4b68      	ldr	r3, [pc, #416]	; (c004ffc <HAL_RCCEx_PeriphCLKConfig+0x280>)
 c004e5c:	68db      	ldr	r3, [r3, #12]
 c004e5e:	4a67      	ldr	r2, [pc, #412]	; (c004ffc <HAL_RCCEx_PeriphCLKConfig+0x280>)
 c004e60:	f443 3380 	orr.w	r3, r3, #65536	; 0x10000
 c004e64:	60d3      	str	r3, [r2, #12]
        /* SAI2 clock source config set later after clock selection check */
        break;
 c004e66:	e015      	b.n	c004e94 <HAL_RCCEx_PeriphCLKConfig+0x118>

      case RCC_SAI2CLKSOURCE_PLLSAI1: /* PLLSAI1 is used as clock source for SAI2*/
        /* PLLSAI1 input clock, parameters M, N & P configuration and clock output (PLLSAI1ClockOut) */
        ret = RCCEx_PLLSAI1_Config(&(PeriphClkInit->PLLSAI1), DIVIDER_P_UPDATE);
 c004e68:	687b      	ldr	r3, [r7, #4]
 c004e6a:	3304      	adds	r3, #4
 c004e6c:	2100      	movs	r1, #0
 c004e6e:	4618      	mov	r0, r3
 c004e70:	f000 fb08 	bl	c005484 <RCCEx_PLLSAI1_Config>
 c004e74:	4603      	mov	r3, r0
 c004e76:	77fb      	strb	r3, [r7, #31]
        /* SAI2 clock source config set later after clock selection check */
        break;
 c004e78:	e00c      	b.n	c004e94 <HAL_RCCEx_PeriphCLKConfig+0x118>

      case RCC_SAI2CLKSOURCE_PLLSAI2:  /* PLLSAI2 is used as clock source for SAI2*/
        /* PLLSAI2 input clock, parameters M, N & P configuration and clock output (PLLSAI2ClockOut) */
        ret = RCCEx_PLLSAI2_Config(&(PeriphClkInit->PLLSAI2), DIVIDER_P_UPDATE);
 c004e7a:	687b      	ldr	r3, [r7, #4]
 c004e7c:	3320      	adds	r3, #32
 c004e7e:	2100      	movs	r1, #0
 c004e80:	4618      	mov	r0, r3
 c004e82:	f000 fbe5 	bl	c005650 <RCCEx_PLLSAI2_Config>
 c004e86:	4603      	mov	r3, r0
 c004e88:	77fb      	strb	r3, [r7, #31]
        /* SAI2 clock source config set later after clock selection check */
        break;
 c004e8a:	e003      	b.n	c004e94 <HAL_RCCEx_PeriphCLKConfig+0x118>
      case RCC_SAI2CLKSOURCE_HSI:      /* HSI is used as source of SAI2 clock*/
        /* SAI2 clock source config set later after clock selection check */
        break;

      default:
        ret = HAL_ERROR;
 c004e8c:	2301      	movs	r3, #1
 c004e8e:	77fb      	strb	r3, [r7, #31]
        break;
 c004e90:	e000      	b.n	c004e94 <HAL_RCCEx_PeriphCLKConfig+0x118>
        break;
 c004e92:	bf00      	nop
    }

    if (ret == HAL_OK)
 c004e94:	7ffb      	ldrb	r3, [r7, #31]
 c004e96:	2b00      	cmp	r3, #0
 c004e98:	d10b      	bne.n	c004eb2 <HAL_RCCEx_PeriphCLKConfig+0x136>
    {
      /* Set the source of SAI2 clock*/
      __HAL_RCC_SAI2_CONFIG(PeriphClkInit->Sai2ClockSelection);
 c004e9a:	4b58      	ldr	r3, [pc, #352]	; (c004ffc <HAL_RCCEx_PeriphCLKConfig+0x280>)
 c004e9c:	f8d3 309c 	ldr.w	r3, [r3, #156]	; 0x9c
 c004ea0:	f423 62e0 	bic.w	r2, r3, #1792	; 0x700
 c004ea4:	687b      	ldr	r3, [r7, #4]
 c004ea6:	6f1b      	ldr	r3, [r3, #112]	; 0x70
 c004ea8:	4954      	ldr	r1, [pc, #336]	; (c004ffc <HAL_RCCEx_PeriphCLKConfig+0x280>)
 c004eaa:	4313      	orrs	r3, r2
 c004eac:	f8c1 309c 	str.w	r3, [r1, #156]	; 0x9c
 c004eb0:	e001      	b.n	c004eb6 <HAL_RCCEx_PeriphCLKConfig+0x13a>
    }
    else
    {
      /* set overall return value */
      status = ret;
 c004eb2:	7ffb      	ldrb	r3, [r7, #31]
 c004eb4:	77bb      	strb	r3, [r7, #30]
    }
  }

  /*-------------------------- RTC clock source configuration ----------------------*/
  if ((PeriphClkInit->PeriphClockSelection & RCC_PERIPHCLK_RTC) == RCC_PERIPHCLK_RTC)
 c004eb6:	687b      	ldr	r3, [r7, #4]
 c004eb8:	681b      	ldr	r3, [r3, #0]
 c004eba:	f403 3300 	and.w	r3, r3, #131072	; 0x20000
 c004ebe:	2b00      	cmp	r3, #0
 c004ec0:	f000 80ab 	beq.w	c00501a <HAL_RCCEx_PeriphCLKConfig+0x29e>
  {
    FlagStatus       pwrclkchanged = RESET;
 c004ec4:	2300      	movs	r3, #0
 c004ec6:	75fb      	strb	r3, [r7, #23]

    /* Check for RTC Parameters used to output RTCCLK */
    assert_param(IS_RCC_RTCCLKSOURCE(PeriphClkInit->RTCClockSelection));

    /* Enable Power Clock */
    if (__HAL_RCC_PWR_IS_CLK_DISABLED())
 c004ec8:	4b4c      	ldr	r3, [pc, #304]	; (c004ffc <HAL_RCCEx_PeriphCLKConfig+0x280>)
 c004eca:	6d9b      	ldr	r3, [r3, #88]	; 0x58
 c004ecc:	f003 5380 	and.w	r3, r3, #268435456	; 0x10000000
 c004ed0:	2b00      	cmp	r3, #0
 c004ed2:	d10d      	bne.n	c004ef0 <HAL_RCCEx_PeriphCLKConfig+0x174>
    {
      __HAL_RCC_PWR_CLK_ENABLE();
 c004ed4:	4b49      	ldr	r3, [pc, #292]	; (c004ffc <HAL_RCCEx_PeriphCLKConfig+0x280>)
 c004ed6:	6d9b      	ldr	r3, [r3, #88]	; 0x58
 c004ed8:	4a48      	ldr	r2, [pc, #288]	; (c004ffc <HAL_RCCEx_PeriphCLKConfig+0x280>)
 c004eda:	f043 5380 	orr.w	r3, r3, #268435456	; 0x10000000
 c004ede:	6593      	str	r3, [r2, #88]	; 0x58
 c004ee0:	4b46      	ldr	r3, [pc, #280]	; (c004ffc <HAL_RCCEx_PeriphCLKConfig+0x280>)
 c004ee2:	6d9b      	ldr	r3, [r3, #88]	; 0x58
 c004ee4:	f003 5380 	and.w	r3, r3, #268435456	; 0x10000000
 c004ee8:	60fb      	str	r3, [r7, #12]
 c004eea:	68fb      	ldr	r3, [r7, #12]
      pwrclkchanged = SET;
 c004eec:	2301      	movs	r3, #1
 c004eee:	75fb      	strb	r3, [r7, #23]
    }

    /* Enable write access to Backup domain */
    SET_BIT(PWR->CR1, PWR_CR1_DBP);
 c004ef0:	4b43      	ldr	r3, [pc, #268]	; (c005000 <HAL_RCCEx_PeriphCLKConfig+0x284>)
 c004ef2:	681b      	ldr	r3, [r3, #0]
 c004ef4:	4a42      	ldr	r2, [pc, #264]	; (c005000 <HAL_RCCEx_PeriphCLKConfig+0x284>)
 c004ef6:	f443 7380 	orr.w	r3, r3, #256	; 0x100
 c004efa:	6013      	str	r3, [r2, #0]

    /* Wait for Backup domain Write protection disable */
    tickstart = HAL_GetTick();
 c004efc:	f7fd fad2 	bl	c0024a4 <HAL_GetTick>
 c004f00:	6138      	str	r0, [r7, #16]

    while ((PWR->CR1 & PWR_CR1_DBP) == 0U)
 c004f02:	e00f      	b.n	c004f24 <HAL_RCCEx_PeriphCLKConfig+0x1a8>
    {
      if ((HAL_GetTick() - tickstart) > RCC_DBP_TIMEOUT_VALUE)
 c004f04:	f7fd face 	bl	c0024a4 <HAL_GetTick>
 c004f08:	4602      	mov	r2, r0
 c004f0a:	693b      	ldr	r3, [r7, #16]
 c004f0c:	1ad3      	subs	r3, r2, r3
 c004f0e:	2b02      	cmp	r3, #2
 c004f10:	d908      	bls.n	c004f24 <HAL_RCCEx_PeriphCLKConfig+0x1a8>
      {
        /* New check to avoid false timeout detection in case of preemption */
        if ((PWR->CR1 & PWR_CR1_DBP) == 0U)
 c004f12:	4b3b      	ldr	r3, [pc, #236]	; (c005000 <HAL_RCCEx_PeriphCLKConfig+0x284>)
 c004f14:	681b      	ldr	r3, [r3, #0]
 c004f16:	f403 7380 	and.w	r3, r3, #256	; 0x100
 c004f1a:	2b00      	cmp	r3, #0
 c004f1c:	d109      	bne.n	c004f32 <HAL_RCCEx_PeriphCLKConfig+0x1b6>
        {
          ret = HAL_TIMEOUT;
 c004f1e:	2303      	movs	r3, #3
 c004f20:	77fb      	strb	r3, [r7, #31]
        }
        break;
 c004f22:	e006      	b.n	c004f32 <HAL_RCCEx_PeriphCLKConfig+0x1b6>
    while ((PWR->CR1 & PWR_CR1_DBP) == 0U)
 c004f24:	4b36      	ldr	r3, [pc, #216]	; (c005000 <HAL_RCCEx_PeriphCLKConfig+0x284>)
 c004f26:	681b      	ldr	r3, [r3, #0]
 c004f28:	f403 7380 	and.w	r3, r3, #256	; 0x100
 c004f2c:	2b00      	cmp	r3, #0
 c004f2e:	d0e9      	beq.n	c004f04 <HAL_RCCEx_PeriphCLKConfig+0x188>
 c004f30:	e000      	b.n	c004f34 <HAL_RCCEx_PeriphCLKConfig+0x1b8>
        break;
 c004f32:	bf00      	nop
      }
    }

    if (ret == HAL_OK)
 c004f34:	7ffb      	ldrb	r3, [r7, #31]
 c004f36:	2b00      	cmp	r3, #0
 c004f38:	d164      	bne.n	c005004 <HAL_RCCEx_PeriphCLKConfig+0x288>
    {
      /* Reset the Backup domain only if the RTC Clock source selection is modified from default */
      tmpregister = READ_BIT(RCC->BDCR, RCC_BDCR_RTCSEL);
 c004f3a:	4b30      	ldr	r3, [pc, #192]	; (c004ffc <HAL_RCCEx_PeriphCLKConfig+0x280>)
 c004f3c:	f8d3 3090 	ldr.w	r3, [r3, #144]	; 0x90
 c004f40:	f403 7340 	and.w	r3, r3, #768	; 0x300
 c004f44:	61bb      	str	r3, [r7, #24]

      if ((tmpregister != RCC_RTCCLKSOURCE_NONE) && (tmpregister != PeriphClkInit->RTCClockSelection))
 c004f46:	69bb      	ldr	r3, [r7, #24]
 c004f48:	2b00      	cmp	r3, #0
 c004f4a:	d01f      	beq.n	c004f8c <HAL_RCCEx_PeriphCLKConfig+0x210>
 c004f4c:	687b      	ldr	r3, [r7, #4]
 c004f4e:	f8d3 3090 	ldr.w	r3, [r3, #144]	; 0x90
 c004f52:	69ba      	ldr	r2, [r7, #24]
 c004f54:	429a      	cmp	r2, r3
 c004f56:	d019      	beq.n	c004f8c <HAL_RCCEx_PeriphCLKConfig+0x210>
      {
        /* Store the content of BDCR register before the reset of Backup Domain */
        tmpregister = READ_BIT(RCC->BDCR, ~(RCC_BDCR_RTCSEL));
 c004f58:	4b28      	ldr	r3, [pc, #160]	; (c004ffc <HAL_RCCEx_PeriphCLKConfig+0x280>)
 c004f5a:	f8d3 3090 	ldr.w	r3, [r3, #144]	; 0x90
 c004f5e:	f423 7340 	bic.w	r3, r3, #768	; 0x300
 c004f62:	61bb      	str	r3, [r7, #24]
        /* RTC Clock selection can be changed only if the Backup Domain is reset */
        __HAL_RCC_BACKUPRESET_FORCE();
 c004f64:	4b25      	ldr	r3, [pc, #148]	; (c004ffc <HAL_RCCEx_PeriphCLKConfig+0x280>)
 c004f66:	f8d3 3090 	ldr.w	r3, [r3, #144]	; 0x90
 c004f6a:	4a24      	ldr	r2, [pc, #144]	; (c004ffc <HAL_RCCEx_PeriphCLKConfig+0x280>)
 c004f6c:	f443 3380 	orr.w	r3, r3, #65536	; 0x10000
 c004f70:	f8c2 3090 	str.w	r3, [r2, #144]	; 0x90
        __HAL_RCC_BACKUPRESET_RELEASE();
 c004f74:	4b21      	ldr	r3, [pc, #132]	; (c004ffc <HAL_RCCEx_PeriphCLKConfig+0x280>)
 c004f76:	f8d3 3090 	ldr.w	r3, [r3, #144]	; 0x90
 c004f7a:	4a20      	ldr	r2, [pc, #128]	; (c004ffc <HAL_RCCEx_PeriphCLKConfig+0x280>)
 c004f7c:	f423 3380 	bic.w	r3, r3, #65536	; 0x10000
 c004f80:	f8c2 3090 	str.w	r3, [r2, #144]	; 0x90
        /* Restore the Content of BDCR register */
        RCC->BDCR = tmpregister;
 c004f84:	4a1d      	ldr	r2, [pc, #116]	; (c004ffc <HAL_RCCEx_PeriphCLKConfig+0x280>)
 c004f86:	69bb      	ldr	r3, [r7, #24]
 c004f88:	f8c2 3090 	str.w	r3, [r2, #144]	; 0x90
      }

      /* Wait for LSE reactivation if LSE was enable prior to Backup Domain reset */
      if (HAL_IS_BIT_SET(tmpregister, RCC_BDCR_LSEON))
 c004f8c:	69bb      	ldr	r3, [r7, #24]
 c004f8e:	f003 0301 	and.w	r3, r3, #1
 c004f92:	2b00      	cmp	r3, #0
 c004f94:	d01f      	beq.n	c004fd6 <HAL_RCCEx_PeriphCLKConfig+0x25a>
      {
        /* Get Start Tick*/
        tickstart = HAL_GetTick();
 c004f96:	f7fd fa85 	bl	c0024a4 <HAL_GetTick>
 c004f9a:	6138      	str	r0, [r7, #16]

        /* Wait till LSE is ready */
        while (READ_BIT(RCC->BDCR, RCC_BDCR_LSERDY) == 0U)
 c004f9c:	e012      	b.n	c004fc4 <HAL_RCCEx_PeriphCLKConfig+0x248>
        {
          if ((HAL_GetTick() - tickstart) > RCC_LSE_TIMEOUT_VALUE)
 c004f9e:	f7fd fa81 	bl	c0024a4 <HAL_GetTick>
 c004fa2:	4602      	mov	r2, r0
 c004fa4:	693b      	ldr	r3, [r7, #16]
 c004fa6:	1ad3      	subs	r3, r2, r3
 c004fa8:	f241 3288 	movw	r2, #5000	; 0x1388
 c004fac:	4293      	cmp	r3, r2
 c004fae:	d909      	bls.n	c004fc4 <HAL_RCCEx_PeriphCLKConfig+0x248>
          {
            /* New check to avoid false timeout detection in case of preemption */
            if (READ_BIT(RCC->BDCR, RCC_BDCR_LSERDY) == 0U)
 c004fb0:	4b12      	ldr	r3, [pc, #72]	; (c004ffc <HAL_RCCEx_PeriphCLKConfig+0x280>)
 c004fb2:	f8d3 3090 	ldr.w	r3, [r3, #144]	; 0x90
 c004fb6:	f003 0302 	and.w	r3, r3, #2
 c004fba:	2b00      	cmp	r3, #0
 c004fbc:	d10a      	bne.n	c004fd4 <HAL_RCCEx_PeriphCLKConfig+0x258>
            {
              ret = HAL_TIMEOUT;
 c004fbe:	2303      	movs	r3, #3
 c004fc0:	77fb      	strb	r3, [r7, #31]
            }
            break;
 c004fc2:	e007      	b.n	c004fd4 <HAL_RCCEx_PeriphCLKConfig+0x258>
        while (READ_BIT(RCC->BDCR, RCC_BDCR_LSERDY) == 0U)
 c004fc4:	4b0d      	ldr	r3, [pc, #52]	; (c004ffc <HAL_RCCEx_PeriphCLKConfig+0x280>)
 c004fc6:	f8d3 3090 	ldr.w	r3, [r3, #144]	; 0x90
 c004fca:	f003 0302 	and.w	r3, r3, #2
 c004fce:	2b00      	cmp	r3, #0
 c004fd0:	d0e5      	beq.n	c004f9e <HAL_RCCEx_PeriphCLKConfig+0x222>
 c004fd2:	e000      	b.n	c004fd6 <HAL_RCCEx_PeriphCLKConfig+0x25a>
            break;
 c004fd4:	bf00      	nop
          }
        }
      }

      if (ret == HAL_OK)
 c004fd6:	7ffb      	ldrb	r3, [r7, #31]
 c004fd8:	2b00      	cmp	r3, #0
 c004fda:	d10c      	bne.n	c004ff6 <HAL_RCCEx_PeriphCLKConfig+0x27a>
      {
        /* Apply new RTC clock source selection */
        __HAL_RCC_RTC_CONFIG(PeriphClkInit->RTCClockSelection);
 c004fdc:	4b07      	ldr	r3, [pc, #28]	; (c004ffc <HAL_RCCEx_PeriphCLKConfig+0x280>)
 c004fde:	f8d3 3090 	ldr.w	r3, [r3, #144]	; 0x90
 c004fe2:	f423 7240 	bic.w	r2, r3, #768	; 0x300
 c004fe6:	687b      	ldr	r3, [r7, #4]
 c004fe8:	f8d3 3090 	ldr.w	r3, [r3, #144]	; 0x90
 c004fec:	4903      	ldr	r1, [pc, #12]	; (c004ffc <HAL_RCCEx_PeriphCLKConfig+0x280>)
 c004fee:	4313      	orrs	r3, r2
 c004ff0:	f8c1 3090 	str.w	r3, [r1, #144]	; 0x90
 c004ff4:	e008      	b.n	c005008 <HAL_RCCEx_PeriphCLKConfig+0x28c>
      }
      else
      {
        /* set overall return value */
        status = ret;
 c004ff6:	7ffb      	ldrb	r3, [r7, #31]
 c004ff8:	77bb      	strb	r3, [r7, #30]
 c004ffa:	e005      	b.n	c005008 <HAL_RCCEx_PeriphCLKConfig+0x28c>
 c004ffc:	50021000 	.word	0x50021000
 c005000:	50007000 	.word	0x50007000
      }
    }
    else
    {
      /* set overall return value */
      status = ret;
 c005004:	7ffb      	ldrb	r3, [r7, #31]
 c005006:	77bb      	strb	r3, [r7, #30]
    }

    /* Restore clock configuration if changed */
    if (pwrclkchanged == SET)
 c005008:	7dfb      	ldrb	r3, [r7, #23]
 c00500a:	2b01      	cmp	r3, #1
 c00500c:	d105      	bne.n	c00501a <HAL_RCCEx_PeriphCLKConfig+0x29e>
    {
      __HAL_RCC_PWR_CLK_DISABLE();
 c00500e:	4b9c      	ldr	r3, [pc, #624]	; (c005280 <HAL_RCCEx_PeriphCLKConfig+0x504>)
 c005010:	6d9b      	ldr	r3, [r3, #88]	; 0x58
 c005012:	4a9b      	ldr	r2, [pc, #620]	; (c005280 <HAL_RCCEx_PeriphCLKConfig+0x504>)
 c005014:	f023 5380 	bic.w	r3, r3, #268435456	; 0x10000000
 c005018:	6593      	str	r3, [r2, #88]	; 0x58
    }
  }

  /*-------------------------- USART1 clock source configuration -------------------*/
  if (((PeriphClkInit->PeriphClockSelection) & RCC_PERIPHCLK_USART1) == RCC_PERIPHCLK_USART1)
 c00501a:	687b      	ldr	r3, [r7, #4]
 c00501c:	681b      	ldr	r3, [r3, #0]
 c00501e:	f003 0301 	and.w	r3, r3, #1
 c005022:	2b00      	cmp	r3, #0
 c005024:	d00a      	beq.n	c00503c <HAL_RCCEx_PeriphCLKConfig+0x2c0>
  {
    /* Check the parameters */
    assert_param(IS_RCC_USART1CLKSOURCE(PeriphClkInit->Usart1ClockSelection));

    /* Configure the USART1 clock source */
    __HAL_RCC_USART1_CONFIG(PeriphClkInit->Usart1ClockSelection);
 c005026:	4b96      	ldr	r3, [pc, #600]	; (c005280 <HAL_RCCEx_PeriphCLKConfig+0x504>)
 c005028:	f8d3 3088 	ldr.w	r3, [r3, #136]	; 0x88
 c00502c:	f023 0203 	bic.w	r2, r3, #3
 c005030:	687b      	ldr	r3, [r7, #4]
 c005032:	6b5b      	ldr	r3, [r3, #52]	; 0x34
 c005034:	4992      	ldr	r1, [pc, #584]	; (c005280 <HAL_RCCEx_PeriphCLKConfig+0x504>)
 c005036:	4313      	orrs	r3, r2
 c005038:	f8c1 3088 	str.w	r3, [r1, #136]	; 0x88
  }

  /*-------------------------- USART2 clock source configuration -------------------*/
  if (((PeriphClkInit->PeriphClockSelection) & RCC_PERIPHCLK_USART2) == RCC_PERIPHCLK_USART2)
 c00503c:	687b      	ldr	r3, [r7, #4]
 c00503e:	681b      	ldr	r3, [r3, #0]
 c005040:	f003 0302 	and.w	r3, r3, #2
 c005044:	2b00      	cmp	r3, #0
 c005046:	d00a      	beq.n	c00505e <HAL_RCCEx_PeriphCLKConfig+0x2e2>
  {
    /* Check the parameters */
    assert_param(IS_RCC_USART2CLKSOURCE(PeriphClkInit->Usart2ClockSelection));

    /* Configure the USART2 clock source */
    __HAL_RCC_USART2_CONFIG(PeriphClkInit->Usart2ClockSelection);
 c005048:	4b8d      	ldr	r3, [pc, #564]	; (c005280 <HAL_RCCEx_PeriphCLKConfig+0x504>)
 c00504a:	f8d3 3088 	ldr.w	r3, [r3, #136]	; 0x88
 c00504e:	f023 020c 	bic.w	r2, r3, #12
 c005052:	687b      	ldr	r3, [r7, #4]
 c005054:	6b9b      	ldr	r3, [r3, #56]	; 0x38
 c005056:	498a      	ldr	r1, [pc, #552]	; (c005280 <HAL_RCCEx_PeriphCLKConfig+0x504>)
 c005058:	4313      	orrs	r3, r2
 c00505a:	f8c1 3088 	str.w	r3, [r1, #136]	; 0x88
  }

  /*-------------------------- USART3 clock source configuration -------------------*/
  if (((PeriphClkInit->PeriphClockSelection) & RCC_PERIPHCLK_USART3) == RCC_PERIPHCLK_USART3)
 c00505e:	687b      	ldr	r3, [r7, #4]
 c005060:	681b      	ldr	r3, [r3, #0]
 c005062:	f003 0304 	and.w	r3, r3, #4
 c005066:	2b00      	cmp	r3, #0
 c005068:	d00a      	beq.n	c005080 <HAL_RCCEx_PeriphCLKConfig+0x304>
  {
    /* Check the parameters */
    assert_param(IS_RCC_USART3CLKSOURCE(PeriphClkInit->Usart3ClockSelection));

    /* Configure the USART3 clock source */
    __HAL_RCC_USART3_CONFIG(PeriphClkInit->Usart3ClockSelection);
 c00506a:	4b85      	ldr	r3, [pc, #532]	; (c005280 <HAL_RCCEx_PeriphCLKConfig+0x504>)
 c00506c:	f8d3 3088 	ldr.w	r3, [r3, #136]	; 0x88
 c005070:	f023 0230 	bic.w	r2, r3, #48	; 0x30
 c005074:	687b      	ldr	r3, [r7, #4]
 c005076:	6bdb      	ldr	r3, [r3, #60]	; 0x3c
 c005078:	4981      	ldr	r1, [pc, #516]	; (c005280 <HAL_RCCEx_PeriphCLKConfig+0x504>)
 c00507a:	4313      	orrs	r3, r2
 c00507c:	f8c1 3088 	str.w	r3, [r1, #136]	; 0x88
  }

  /*-------------------------- UART4 clock source configuration --------------------*/
  if (((PeriphClkInit->PeriphClockSelection) & RCC_PERIPHCLK_UART4) == RCC_PERIPHCLK_UART4)
 c005080:	687b      	ldr	r3, [r7, #4]
 c005082:	681b      	ldr	r3, [r3, #0]
 c005084:	f003 0308 	and.w	r3, r3, #8
 c005088:	2b00      	cmp	r3, #0
 c00508a:	d00a      	beq.n	c0050a2 <HAL_RCCEx_PeriphCLKConfig+0x326>
  {
    /* Check the parameters */
    assert_param(IS_RCC_UART4CLKSOURCE(PeriphClkInit->Uart4ClockSelection));

    /* Configure the UART4 clock source */
    __HAL_RCC_UART4_CONFIG(PeriphClkInit->Uart4ClockSelection);
 c00508c:	4b7c      	ldr	r3, [pc, #496]	; (c005280 <HAL_RCCEx_PeriphCLKConfig+0x504>)
 c00508e:	f8d3 3088 	ldr.w	r3, [r3, #136]	; 0x88
 c005092:	f023 02c0 	bic.w	r2, r3, #192	; 0xc0
 c005096:	687b      	ldr	r3, [r7, #4]
 c005098:	6c1b      	ldr	r3, [r3, #64]	; 0x40
 c00509a:	4979      	ldr	r1, [pc, #484]	; (c005280 <HAL_RCCEx_PeriphCLKConfig+0x504>)
 c00509c:	4313      	orrs	r3, r2
 c00509e:	f8c1 3088 	str.w	r3, [r1, #136]	; 0x88
  }

  /*-------------------------- UART5 clock source configuration --------------------*/
  if (((PeriphClkInit->PeriphClockSelection) & RCC_PERIPHCLK_UART5) == RCC_PERIPHCLK_UART5)
 c0050a2:	687b      	ldr	r3, [r7, #4]
 c0050a4:	681b      	ldr	r3, [r3, #0]
 c0050a6:	f003 0310 	and.w	r3, r3, #16
 c0050aa:	2b00      	cmp	r3, #0
 c0050ac:	d00a      	beq.n	c0050c4 <HAL_RCCEx_PeriphCLKConfig+0x348>
  {
    /* Check the parameters */
    assert_param(IS_RCC_UART5CLKSOURCE(PeriphClkInit->Uart5ClockSelection));

    /* Configure the UART5 clock source */
    __HAL_RCC_UART5_CONFIG(PeriphClkInit->Uart5ClockSelection);
 c0050ae:	4b74      	ldr	r3, [pc, #464]	; (c005280 <HAL_RCCEx_PeriphCLKConfig+0x504>)
 c0050b0:	f8d3 3088 	ldr.w	r3, [r3, #136]	; 0x88
 c0050b4:	f423 7240 	bic.w	r2, r3, #768	; 0x300
 c0050b8:	687b      	ldr	r3, [r7, #4]
 c0050ba:	6c5b      	ldr	r3, [r3, #68]	; 0x44
 c0050bc:	4970      	ldr	r1, [pc, #448]	; (c005280 <HAL_RCCEx_PeriphCLKConfig+0x504>)
 c0050be:	4313      	orrs	r3, r2
 c0050c0:	f8c1 3088 	str.w	r3, [r1, #136]	; 0x88
  }

  /*-------------------------- LPUART1 clock source configuration ------------------*/
  if (((PeriphClkInit->PeriphClockSelection) & RCC_PERIPHCLK_LPUART1) == RCC_PERIPHCLK_LPUART1)
 c0050c4:	687b      	ldr	r3, [r7, #4]
 c0050c6:	681b      	ldr	r3, [r3, #0]
 c0050c8:	f003 0320 	and.w	r3, r3, #32
 c0050cc:	2b00      	cmp	r3, #0
 c0050ce:	d00a      	beq.n	c0050e6 <HAL_RCCEx_PeriphCLKConfig+0x36a>
  {
    /* Check the parameters */
    assert_param(IS_RCC_LPUART1CLKSOURCE(PeriphClkInit->Lpuart1ClockSelection));

    /* Configure the LPUART1 clock source */
    __HAL_RCC_LPUART1_CONFIG(PeriphClkInit->Lpuart1ClockSelection);
 c0050d0:	4b6b      	ldr	r3, [pc, #428]	; (c005280 <HAL_RCCEx_PeriphCLKConfig+0x504>)
 c0050d2:	f8d3 3088 	ldr.w	r3, [r3, #136]	; 0x88
 c0050d6:	f423 6240 	bic.w	r2, r3, #3072	; 0xc00
 c0050da:	687b      	ldr	r3, [r7, #4]
 c0050dc:	6c9b      	ldr	r3, [r3, #72]	; 0x48
 c0050de:	4968      	ldr	r1, [pc, #416]	; (c005280 <HAL_RCCEx_PeriphCLKConfig+0x504>)
 c0050e0:	4313      	orrs	r3, r2
 c0050e2:	f8c1 3088 	str.w	r3, [r1, #136]	; 0x88
  }

  /*-------------------------- LPTIM1 clock source configuration -------------------*/
  if (((PeriphClkInit->PeriphClockSelection) & RCC_PERIPHCLK_LPTIM1) == (RCC_PERIPHCLK_LPTIM1))
 c0050e6:	687b      	ldr	r3, [r7, #4]
 c0050e8:	681b      	ldr	r3, [r3, #0]
 c0050ea:	f403 7300 	and.w	r3, r3, #512	; 0x200
 c0050ee:	2b00      	cmp	r3, #0
 c0050f0:	d00a      	beq.n	c005108 <HAL_RCCEx_PeriphCLKConfig+0x38c>
  {
    /* Check the parameters */
    assert_param(IS_RCC_LPTIM1CLK(PeriphClkInit->Lptim1ClockSelection));

    /* Configure the LPTIM1 clock source */
    __HAL_RCC_LPTIM1_CONFIG(PeriphClkInit->Lptim1ClockSelection);
 c0050f2:	4b63      	ldr	r3, [pc, #396]	; (c005280 <HAL_RCCEx_PeriphCLKConfig+0x504>)
 c0050f4:	f8d3 3088 	ldr.w	r3, [r3, #136]	; 0x88
 c0050f8:	f423 2240 	bic.w	r2, r3, #786432	; 0xc0000
 c0050fc:	687b      	ldr	r3, [r7, #4]
 c0050fe:	6ddb      	ldr	r3, [r3, #92]	; 0x5c
 c005100:	495f      	ldr	r1, [pc, #380]	; (c005280 <HAL_RCCEx_PeriphCLKConfig+0x504>)
 c005102:	4313      	orrs	r3, r2
 c005104:	f8c1 3088 	str.w	r3, [r1, #136]	; 0x88
  }

  /*-------------------------- LPTIM2 clock source configuration -------------------*/
  if (((PeriphClkInit->PeriphClockSelection) & RCC_PERIPHCLK_LPTIM2) == (RCC_PERIPHCLK_LPTIM2))
 c005108:	687b      	ldr	r3, [r7, #4]
 c00510a:	681b      	ldr	r3, [r3, #0]
 c00510c:	f403 6380 	and.w	r3, r3, #1024	; 0x400
 c005110:	2b00      	cmp	r3, #0
 c005112:	d00a      	beq.n	c00512a <HAL_RCCEx_PeriphCLKConfig+0x3ae>
  {
    /* Check the parameters */
    assert_param(IS_RCC_LPTIM2CLK(PeriphClkInit->Lptim2ClockSelection));

    /* Configure the LPTIM2 clock source */
    __HAL_RCC_LPTIM2_CONFIG(PeriphClkInit->Lptim2ClockSelection);
 c005114:	4b5a      	ldr	r3, [pc, #360]	; (c005280 <HAL_RCCEx_PeriphCLKConfig+0x504>)
 c005116:	f8d3 3088 	ldr.w	r3, [r3, #136]	; 0x88
 c00511a:	f423 1240 	bic.w	r2, r3, #3145728	; 0x300000
 c00511e:	687b      	ldr	r3, [r7, #4]
 c005120:	6e1b      	ldr	r3, [r3, #96]	; 0x60
 c005122:	4957      	ldr	r1, [pc, #348]	; (c005280 <HAL_RCCEx_PeriphCLKConfig+0x504>)
 c005124:	4313      	orrs	r3, r2
 c005126:	f8c1 3088 	str.w	r3, [r1, #136]	; 0x88
  }

  /*-------------------------- LPTIM3 clock source configuration -------------------*/
  if (((PeriphClkInit->PeriphClockSelection) & RCC_PERIPHCLK_LPTIM3) == (RCC_PERIPHCLK_LPTIM3))
 c00512a:	687b      	ldr	r3, [r7, #4]
 c00512c:	681b      	ldr	r3, [r3, #0]
 c00512e:	f403 0380 	and.w	r3, r3, #4194304	; 0x400000
 c005132:	2b00      	cmp	r3, #0
 c005134:	d00a      	beq.n	c00514c <HAL_RCCEx_PeriphCLKConfig+0x3d0>
  {
    /* Check the parameters */
    assert_param(IS_RCC_LPTIM3CLK(PeriphClkInit->Lptim3ClockSelection));

    /* Configure the LPTIM3 clock source */
    __HAL_RCC_LPTIM3_CONFIG(PeriphClkInit->Lptim3ClockSelection);
 c005136:	4b52      	ldr	r3, [pc, #328]	; (c005280 <HAL_RCCEx_PeriphCLKConfig+0x504>)
 c005138:	f8d3 3088 	ldr.w	r3, [r3, #136]	; 0x88
 c00513c:	f423 0240 	bic.w	r2, r3, #12582912	; 0xc00000
 c005140:	687b      	ldr	r3, [r7, #4]
 c005142:	6e5b      	ldr	r3, [r3, #100]	; 0x64
 c005144:	494e      	ldr	r1, [pc, #312]	; (c005280 <HAL_RCCEx_PeriphCLKConfig+0x504>)
 c005146:	4313      	orrs	r3, r2
 c005148:	f8c1 3088 	str.w	r3, [r1, #136]	; 0x88
  }

  /*-------------------------- FDCAN kernel clock source configuration -------------*/
  if (((PeriphClkInit->PeriphClockSelection) & RCC_PERIPHCLK_FDCAN) == (RCC_PERIPHCLK_FDCAN))
 c00514c:	687b      	ldr	r3, [r7, #4]
 c00514e:	681b      	ldr	r3, [r3, #0]
 c005150:	f003 7300 	and.w	r3, r3, #33554432	; 0x2000000
 c005154:	2b00      	cmp	r3, #0
 c005156:	d031      	beq.n	c0051bc <HAL_RCCEx_PeriphCLKConfig+0x440>
  {
    /* Check the parameters */
    assert_param(IS_RCC_FDCANCLK(PeriphClkInit->FdcanClockSelection));

    /* Configure the FDCAN kernel clock source */
    switch (PeriphClkInit->FdcanClockSelection)
 c005158:	687b      	ldr	r3, [r7, #4]
 c00515a:	6e9b      	ldr	r3, [r3, #104]	; 0x68
 c00515c:	f1b3 7f00 	cmp.w	r3, #33554432	; 0x2000000
 c005160:	d00e      	beq.n	c005180 <HAL_RCCEx_PeriphCLKConfig+0x404>
 c005162:	f1b3 7f00 	cmp.w	r3, #33554432	; 0x2000000
 c005166:	d814      	bhi.n	c005192 <HAL_RCCEx_PeriphCLKConfig+0x416>
 c005168:	2b00      	cmp	r3, #0
 c00516a:	d015      	beq.n	c005198 <HAL_RCCEx_PeriphCLKConfig+0x41c>
 c00516c:	f1b3 7f80 	cmp.w	r3, #16777216	; 0x1000000
 c005170:	d10f      	bne.n	c005192 <HAL_RCCEx_PeriphCLKConfig+0x416>
        /* FDCAN kernel clock source config set later after clock selection check */
        break;

      case RCC_FDCANCLKSOURCE_PLL:      /* PLL is used as clock source for FDCAN kernel clock*/
        /* Enable PLL48M1CLK output clock generated from System PLL . */
        __HAL_RCC_PLLCLKOUT_ENABLE(RCC_PLL_48M1CLK);
 c005172:	4b43      	ldr	r3, [pc, #268]	; (c005280 <HAL_RCCEx_PeriphCLKConfig+0x504>)
 c005174:	68db      	ldr	r3, [r3, #12]
 c005176:	4a42      	ldr	r2, [pc, #264]	; (c005280 <HAL_RCCEx_PeriphCLKConfig+0x504>)
 c005178:	f443 1380 	orr.w	r3, r3, #1048576	; 0x100000
 c00517c:	60d3      	str	r3, [r2, #12]
        /* FDCAN kernel clock source config set later after clock selection check */
        break;
 c00517e:	e00c      	b.n	c00519a <HAL_RCCEx_PeriphCLKConfig+0x41e>

      case RCC_FDCANCLKSOURCE_PLLSAI1:  /* PLLSAI1 is used as clock source for FDCAN kernel clock*/
        /* PLLSAI1 input clock, parameters M, N & P configuration and clock output (PLLSAI1ClockOut) */
        ret = RCCEx_PLLSAI1_Config(&(PeriphClkInit->PLLSAI1), DIVIDER_P_UPDATE);
 c005180:	687b      	ldr	r3, [r7, #4]
 c005182:	3304      	adds	r3, #4
 c005184:	2100      	movs	r1, #0
 c005186:	4618      	mov	r0, r3
 c005188:	f000 f97c 	bl	c005484 <RCCEx_PLLSAI1_Config>
 c00518c:	4603      	mov	r3, r0
 c00518e:	77fb      	strb	r3, [r7, #31]
        /* FDCAN kernel clock source config set later after clock selection check */
        break;
 c005190:	e003      	b.n	c00519a <HAL_RCCEx_PeriphCLKConfig+0x41e>

      default:
        ret = HAL_ERROR;
 c005192:	2301      	movs	r3, #1
 c005194:	77fb      	strb	r3, [r7, #31]
        break;
 c005196:	e000      	b.n	c00519a <HAL_RCCEx_PeriphCLKConfig+0x41e>
        break;
 c005198:	bf00      	nop
    }

    if (ret == HAL_OK)
 c00519a:	7ffb      	ldrb	r3, [r7, #31]
 c00519c:	2b00      	cmp	r3, #0
 c00519e:	d10b      	bne.n	c0051b8 <HAL_RCCEx_PeriphCLKConfig+0x43c>
    {
      /* Set the source of FDCAN kernel clock*/
      __HAL_RCC_FDCAN_CONFIG(PeriphClkInit->FdcanClockSelection);
 c0051a0:	4b37      	ldr	r3, [pc, #220]	; (c005280 <HAL_RCCEx_PeriphCLKConfig+0x504>)
 c0051a2:	f8d3 3088 	ldr.w	r3, [r3, #136]	; 0x88
 c0051a6:	f023 7240 	bic.w	r2, r3, #50331648	; 0x3000000
 c0051aa:	687b      	ldr	r3, [r7, #4]
 c0051ac:	6e9b      	ldr	r3, [r3, #104]	; 0x68
 c0051ae:	4934      	ldr	r1, [pc, #208]	; (c005280 <HAL_RCCEx_PeriphCLKConfig+0x504>)
 c0051b0:	4313      	orrs	r3, r2
 c0051b2:	f8c1 3088 	str.w	r3, [r1, #136]	; 0x88
 c0051b6:	e001      	b.n	c0051bc <HAL_RCCEx_PeriphCLKConfig+0x440>
    }
    else
    {
      /* set overall return value */
      status = ret;
 c0051b8:	7ffb      	ldrb	r3, [r7, #31]
 c0051ba:	77bb      	strb	r3, [r7, #30]
    }
  }

  /*-------------------------- I2C1 clock source configuration ---------------------*/
  if (((PeriphClkInit->PeriphClockSelection) & RCC_PERIPHCLK_I2C1) == RCC_PERIPHCLK_I2C1)
 c0051bc:	687b      	ldr	r3, [r7, #4]
 c0051be:	681b      	ldr	r3, [r3, #0]
 c0051c0:	f003 0340 	and.w	r3, r3, #64	; 0x40
 c0051c4:	2b00      	cmp	r3, #0
 c0051c6:	d00a      	beq.n	c0051de <HAL_RCCEx_PeriphCLKConfig+0x462>
  {
    /* Check the parameters */
    assert_param(IS_RCC_I2C1CLKSOURCE(PeriphClkInit->I2c1ClockSelection));

    /* Configure the I2C1 clock source */
    __HAL_RCC_I2C1_CONFIG(PeriphClkInit->I2c1ClockSelection);
 c0051c8:	4b2d      	ldr	r3, [pc, #180]	; (c005280 <HAL_RCCEx_PeriphCLKConfig+0x504>)
 c0051ca:	f8d3 3088 	ldr.w	r3, [r3, #136]	; 0x88
 c0051ce:	f423 5240 	bic.w	r2, r3, #12288	; 0x3000
 c0051d2:	687b      	ldr	r3, [r7, #4]
 c0051d4:	6cdb      	ldr	r3, [r3, #76]	; 0x4c
 c0051d6:	492a      	ldr	r1, [pc, #168]	; (c005280 <HAL_RCCEx_PeriphCLKConfig+0x504>)
 c0051d8:	4313      	orrs	r3, r2
 c0051da:	f8c1 3088 	str.w	r3, [r1, #136]	; 0x88
  }

  /*-------------------------- I2C2 clock source configuration ---------------------*/
  if (((PeriphClkInit->PeriphClockSelection) & RCC_PERIPHCLK_I2C2) == RCC_PERIPHCLK_I2C2)
 c0051de:	687b      	ldr	r3, [r7, #4]
 c0051e0:	681b      	ldr	r3, [r3, #0]
 c0051e2:	f003 0380 	and.w	r3, r3, #128	; 0x80
 c0051e6:	2b00      	cmp	r3, #0
 c0051e8:	d00a      	beq.n	c005200 <HAL_RCCEx_PeriphCLKConfig+0x484>
  {
    /* Check the parameters */
    assert_param(IS_RCC_I2C2CLKSOURCE(PeriphClkInit->I2c2ClockSelection));

    /* Configure the I2C2 clock source */
    __HAL_RCC_I2C2_CONFIG(PeriphClkInit->I2c2ClockSelection);
 c0051ea:	4b25      	ldr	r3, [pc, #148]	; (c005280 <HAL_RCCEx_PeriphCLKConfig+0x504>)
 c0051ec:	f8d3 3088 	ldr.w	r3, [r3, #136]	; 0x88
 c0051f0:	f423 4240 	bic.w	r2, r3, #49152	; 0xc000
 c0051f4:	687b      	ldr	r3, [r7, #4]
 c0051f6:	6d1b      	ldr	r3, [r3, #80]	; 0x50
 c0051f8:	4921      	ldr	r1, [pc, #132]	; (c005280 <HAL_RCCEx_PeriphCLKConfig+0x504>)
 c0051fa:	4313      	orrs	r3, r2
 c0051fc:	f8c1 3088 	str.w	r3, [r1, #136]	; 0x88
  }

  /*-------------------------- I2C3 clock source configuration ---------------------*/
  if (((PeriphClkInit->PeriphClockSelection) & RCC_PERIPHCLK_I2C3) == RCC_PERIPHCLK_I2C3)
 c005200:	687b      	ldr	r3, [r7, #4]
 c005202:	681b      	ldr	r3, [r3, #0]
 c005204:	f403 7380 	and.w	r3, r3, #256	; 0x100
 c005208:	2b00      	cmp	r3, #0
 c00520a:	d00a      	beq.n	c005222 <HAL_RCCEx_PeriphCLKConfig+0x4a6>
  {
    /* Check the parameters */
    assert_param(IS_RCC_I2C3CLKSOURCE(PeriphClkInit->I2c3ClockSelection));

    /* Configure the I2C3 clock source */
    __HAL_RCC_I2C3_CONFIG(PeriphClkInit->I2c3ClockSelection);
 c00520c:	4b1c      	ldr	r3, [pc, #112]	; (c005280 <HAL_RCCEx_PeriphCLKConfig+0x504>)
 c00520e:	f8d3 3088 	ldr.w	r3, [r3, #136]	; 0x88
 c005212:	f423 3240 	bic.w	r2, r3, #196608	; 0x30000
 c005216:	687b      	ldr	r3, [r7, #4]
 c005218:	6d5b      	ldr	r3, [r3, #84]	; 0x54
 c00521a:	4919      	ldr	r1, [pc, #100]	; (c005280 <HAL_RCCEx_PeriphCLKConfig+0x504>)
 c00521c:	4313      	orrs	r3, r2
 c00521e:	f8c1 3088 	str.w	r3, [r1, #136]	; 0x88
  }

  /*-------------------------- I2C4 clock source configuration ---------------------*/
  if (((PeriphClkInit->PeriphClockSelection) & RCC_PERIPHCLK_I2C4) == RCC_PERIPHCLK_I2C4)
 c005222:	687b      	ldr	r3, [r7, #4]
 c005224:	681b      	ldr	r3, [r3, #0]
 c005226:	f403 1380 	and.w	r3, r3, #1048576	; 0x100000
 c00522a:	2b00      	cmp	r3, #0
 c00522c:	d00a      	beq.n	c005244 <HAL_RCCEx_PeriphCLKConfig+0x4c8>
  {
    /* Check the parameters */
    assert_param(IS_RCC_I2C4CLKSOURCE(PeriphClkInit->I2c4ClockSelection));

    /* Configure the I2C4 clock source */
    __HAL_RCC_I2C4_CONFIG(PeriphClkInit->I2c4ClockSelection);
 c00522e:	4b14      	ldr	r3, [pc, #80]	; (c005280 <HAL_RCCEx_PeriphCLKConfig+0x504>)
 c005230:	f8d3 309c 	ldr.w	r3, [r3, #156]	; 0x9c
 c005234:	f023 0203 	bic.w	r2, r3, #3
 c005238:	687b      	ldr	r3, [r7, #4]
 c00523a:	6d9b      	ldr	r3, [r3, #88]	; 0x58
 c00523c:	4910      	ldr	r1, [pc, #64]	; (c005280 <HAL_RCCEx_PeriphCLKConfig+0x504>)
 c00523e:	4313      	orrs	r3, r2
 c005240:	f8c1 309c 	str.w	r3, [r1, #156]	; 0x9c
  }

#if defined(USB)

  /*-------------------------- USB clock source configuration ----------------------*/
  if (((PeriphClkInit->PeriphClockSelection) & RCC_PERIPHCLK_USB) == (RCC_PERIPHCLK_USB))
 c005244:	687b      	ldr	r3, [r7, #4]
 c005246:	681b      	ldr	r3, [r3, #0]
 c005248:	f403 5300 	and.w	r3, r3, #8192	; 0x2000
 c00524c:	2b00      	cmp	r3, #0
 c00524e:	d02b      	beq.n	c0052a8 <HAL_RCCEx_PeriphCLKConfig+0x52c>
  {
    /* Check the parameters */
    assert_param(IS_RCC_USBCLKSOURCE(PeriphClkInit->UsbClockSelection));

    /* Configure the USB clock source */
    __HAL_RCC_USB_CONFIG(PeriphClkInit->UsbClockSelection);
 c005250:	4b0b      	ldr	r3, [pc, #44]	; (c005280 <HAL_RCCEx_PeriphCLKConfig+0x504>)
 c005252:	f8d3 3088 	ldr.w	r3, [r3, #136]	; 0x88
 c005256:	f023 6240 	bic.w	r2, r3, #201326592	; 0xc000000
 c00525a:	687b      	ldr	r3, [r7, #4]
 c00525c:	6f5b      	ldr	r3, [r3, #116]	; 0x74
 c00525e:	4908      	ldr	r1, [pc, #32]	; (c005280 <HAL_RCCEx_PeriphCLKConfig+0x504>)
 c005260:	4313      	orrs	r3, r2
 c005262:	f8c1 3088 	str.w	r3, [r1, #136]	; 0x88

    if (PeriphClkInit->UsbClockSelection == RCC_USBCLKSOURCE_PLL)
 c005266:	687b      	ldr	r3, [r7, #4]
 c005268:	6f5b      	ldr	r3, [r3, #116]	; 0x74
 c00526a:	f1b3 6f00 	cmp.w	r3, #134217728	; 0x8000000
 c00526e:	d109      	bne.n	c005284 <HAL_RCCEx_PeriphCLKConfig+0x508>
    {
      /* Enable PLL48M1CLK output clock */
      __HAL_RCC_PLLCLKOUT_ENABLE(RCC_PLL_48M1CLK);
 c005270:	4b03      	ldr	r3, [pc, #12]	; (c005280 <HAL_RCCEx_PeriphCLKConfig+0x504>)
 c005272:	68db      	ldr	r3, [r3, #12]
 c005274:	4a02      	ldr	r2, [pc, #8]	; (c005280 <HAL_RCCEx_PeriphCLKConfig+0x504>)
 c005276:	f443 1380 	orr.w	r3, r3, #1048576	; 0x100000
 c00527a:	60d3      	str	r3, [r2, #12]
 c00527c:	e014      	b.n	c0052a8 <HAL_RCCEx_PeriphCLKConfig+0x52c>
 c00527e:	bf00      	nop
 c005280:	50021000 	.word	0x50021000
    }
    else
    {
      if (PeriphClkInit->UsbClockSelection == RCC_USBCLKSOURCE_PLLSAI1)
 c005284:	687b      	ldr	r3, [r7, #4]
 c005286:	6f5b      	ldr	r3, [r3, #116]	; 0x74
 c005288:	f1b3 6f80 	cmp.w	r3, #67108864	; 0x4000000
 c00528c:	d10c      	bne.n	c0052a8 <HAL_RCCEx_PeriphCLKConfig+0x52c>
      {
        /* PLLSAI1 input clock, parameters M, N & Q configuration and clock output (PLLSAI1ClockOut) */
        ret = RCCEx_PLLSAI1_Config(&(PeriphClkInit->PLLSAI1), DIVIDER_Q_UPDATE);
 c00528e:	687b      	ldr	r3, [r7, #4]
 c005290:	3304      	adds	r3, #4
 c005292:	2101      	movs	r1, #1
 c005294:	4618      	mov	r0, r3
 c005296:	f000 f8f5 	bl	c005484 <RCCEx_PLLSAI1_Config>
 c00529a:	4603      	mov	r3, r0
 c00529c:	77fb      	strb	r3, [r7, #31]

        if (ret != HAL_OK)
 c00529e:	7ffb      	ldrb	r3, [r7, #31]
 c0052a0:	2b00      	cmp	r3, #0
 c0052a2:	d001      	beq.n	c0052a8 <HAL_RCCEx_PeriphCLKConfig+0x52c>
        {
          /* set overall return value */
          status = ret;
 c0052a4:	7ffb      	ldrb	r3, [r7, #31]
 c0052a6:	77bb      	strb	r3, [r7, #30]
  }

#endif /* USB */

  /*-------------------------- SDMMC1 clock source configuration -------------------*/
  if (((PeriphClkInit->PeriphClockSelection) & RCC_PERIPHCLK_SDMMC1) == (RCC_PERIPHCLK_SDMMC1))
 c0052a8:	687b      	ldr	r3, [r7, #4]
 c0052aa:	681b      	ldr	r3, [r3, #0]
 c0052ac:	f403 2300 	and.w	r3, r3, #524288	; 0x80000
 c0052b0:	2b00      	cmp	r3, #0
 c0052b2:	d04a      	beq.n	c00534a <HAL_RCCEx_PeriphCLKConfig+0x5ce>
  {
    /* Check the parameters */
    assert_param(IS_RCC_SDMMC1CLKSOURCE(PeriphClkInit->Sdmmc1ClockSelection));

    /* Configure the SDMMC1 clock source */
    __HAL_RCC_SDMMC1_CONFIG(PeriphClkInit->Sdmmc1ClockSelection);
 c0052b4:	687b      	ldr	r3, [r7, #4]
 c0052b6:	6f9b      	ldr	r3, [r3, #120]	; 0x78
 c0052b8:	f5b3 4f80 	cmp.w	r3, #16384	; 0x4000
 c0052bc:	d108      	bne.n	c0052d0 <HAL_RCCEx_PeriphCLKConfig+0x554>
 c0052be:	4b70      	ldr	r3, [pc, #448]	; (c005480 <HAL_RCCEx_PeriphCLKConfig+0x704>)
 c0052c0:	f8d3 309c 	ldr.w	r3, [r3, #156]	; 0x9c
 c0052c4:	4a6e      	ldr	r2, [pc, #440]	; (c005480 <HAL_RCCEx_PeriphCLKConfig+0x704>)
 c0052c6:	f443 4380 	orr.w	r3, r3, #16384	; 0x4000
 c0052ca:	f8c2 309c 	str.w	r3, [r2, #156]	; 0x9c
 c0052ce:	e012      	b.n	c0052f6 <HAL_RCCEx_PeriphCLKConfig+0x57a>
 c0052d0:	4b6b      	ldr	r3, [pc, #428]	; (c005480 <HAL_RCCEx_PeriphCLKConfig+0x704>)
 c0052d2:	f8d3 3088 	ldr.w	r3, [r3, #136]	; 0x88
 c0052d6:	f023 6240 	bic.w	r2, r3, #201326592	; 0xc000000
 c0052da:	687b      	ldr	r3, [r7, #4]
 c0052dc:	6f9b      	ldr	r3, [r3, #120]	; 0x78
 c0052de:	4968      	ldr	r1, [pc, #416]	; (c005480 <HAL_RCCEx_PeriphCLKConfig+0x704>)
 c0052e0:	4313      	orrs	r3, r2
 c0052e2:	f8c1 3088 	str.w	r3, [r1, #136]	; 0x88
 c0052e6:	4b66      	ldr	r3, [pc, #408]	; (c005480 <HAL_RCCEx_PeriphCLKConfig+0x704>)
 c0052e8:	f8d3 309c 	ldr.w	r3, [r3, #156]	; 0x9c
 c0052ec:	4a64      	ldr	r2, [pc, #400]	; (c005480 <HAL_RCCEx_PeriphCLKConfig+0x704>)
 c0052ee:	f423 4380 	bic.w	r3, r3, #16384	; 0x4000
 c0052f2:	f8c2 309c 	str.w	r3, [r2, #156]	; 0x9c

    if (PeriphClkInit->Sdmmc1ClockSelection == RCC_SDMMC1CLKSOURCE_PLLSAI1)
 c0052f6:	687b      	ldr	r3, [r7, #4]
 c0052f8:	6f9b      	ldr	r3, [r3, #120]	; 0x78
 c0052fa:	f1b3 6f80 	cmp.w	r3, #67108864	; 0x4000000
 c0052fe:	d10d      	bne.n	c00531c <HAL_RCCEx_PeriphCLKConfig+0x5a0>
    {
      /* PLLSAI1 input clock, parameters M, N & Q configuration and clock output (PLLSAI1ClockOut) */
      ret = RCCEx_PLLSAI1_Config(&(PeriphClkInit->PLLSAI1), DIVIDER_Q_UPDATE);
 c005300:	687b      	ldr	r3, [r7, #4]
 c005302:	3304      	adds	r3, #4
 c005304:	2101      	movs	r1, #1
 c005306:	4618      	mov	r0, r3
 c005308:	f000 f8bc 	bl	c005484 <RCCEx_PLLSAI1_Config>
 c00530c:	4603      	mov	r3, r0
 c00530e:	77fb      	strb	r3, [r7, #31]

      if (ret != HAL_OK)
 c005310:	7ffb      	ldrb	r3, [r7, #31]
 c005312:	2b00      	cmp	r3, #0
 c005314:	d019      	beq.n	c00534a <HAL_RCCEx_PeriphCLKConfig+0x5ce>
      {
        /* set overall return value */
        status = ret;
 c005316:	7ffb      	ldrb	r3, [r7, #31]
 c005318:	77bb      	strb	r3, [r7, #30]
 c00531a:	e016      	b.n	c00534a <HAL_RCCEx_PeriphCLKConfig+0x5ce>
      }
    }
    else if (PeriphClkInit->Sdmmc1ClockSelection == RCC_SDMMC1CLKSOURCE_PLL)
 c00531c:	687b      	ldr	r3, [r7, #4]
 c00531e:	6f9b      	ldr	r3, [r3, #120]	; 0x78
 c005320:	f1b3 6f00 	cmp.w	r3, #134217728	; 0x8000000
 c005324:	d106      	bne.n	c005334 <HAL_RCCEx_PeriphCLKConfig+0x5b8>
    {
      /* Enable PLL48M1CLK output clock */
      __HAL_RCC_PLLCLKOUT_ENABLE(RCC_PLL_48M1CLK);
 c005326:	4b56      	ldr	r3, [pc, #344]	; (c005480 <HAL_RCCEx_PeriphCLKConfig+0x704>)
 c005328:	68db      	ldr	r3, [r3, #12]
 c00532a:	4a55      	ldr	r2, [pc, #340]	; (c005480 <HAL_RCCEx_PeriphCLKConfig+0x704>)
 c00532c:	f443 1380 	orr.w	r3, r3, #1048576	; 0x100000
 c005330:	60d3      	str	r3, [r2, #12]
 c005332:	e00a      	b.n	c00534a <HAL_RCCEx_PeriphCLKConfig+0x5ce>
    }
    else if (PeriphClkInit->Sdmmc1ClockSelection == RCC_SDMMC1CLKSOURCE_PLLP)
 c005334:	687b      	ldr	r3, [r7, #4]
 c005336:	6f9b      	ldr	r3, [r3, #120]	; 0x78
 c005338:	f5b3 4f80 	cmp.w	r3, #16384	; 0x4000
 c00533c:	d105      	bne.n	c00534a <HAL_RCCEx_PeriphCLKConfig+0x5ce>
    {
      /* Enable PLLSAI3CLK output clock */
      __HAL_RCC_PLLCLKOUT_ENABLE(RCC_PLL_SAI3CLK);
 c00533e:	4b50      	ldr	r3, [pc, #320]	; (c005480 <HAL_RCCEx_PeriphCLKConfig+0x704>)
 c005340:	68db      	ldr	r3, [r3, #12]
 c005342:	4a4f      	ldr	r2, [pc, #316]	; (c005480 <HAL_RCCEx_PeriphCLKConfig+0x704>)
 c005344:	f443 3380 	orr.w	r3, r3, #65536	; 0x10000
 c005348:	60d3      	str	r3, [r2, #12]
      /* Nothing to do */
    }
  }

  /*-------------------------- RNG clock source configuration ----------------------*/
  if (((PeriphClkInit->PeriphClockSelection) & RCC_PERIPHCLK_RNG) == (RCC_PERIPHCLK_RNG))
 c00534a:	687b      	ldr	r3, [r7, #4]
 c00534c:	681b      	ldr	r3, [r3, #0]
 c00534e:	f403 2380 	and.w	r3, r3, #262144	; 0x40000
 c005352:	2b00      	cmp	r3, #0
 c005354:	d028      	beq.n	c0053a8 <HAL_RCCEx_PeriphCLKConfig+0x62c>
  {
    /* Check the parameters */
    assert_param(IS_RCC_RNGCLKSOURCE(PeriphClkInit->RngClockSelection));

    /* Configure the RNG clock source */
    __HAL_RCC_RNG_CONFIG(PeriphClkInit->RngClockSelection);
 c005356:	4b4a      	ldr	r3, [pc, #296]	; (c005480 <HAL_RCCEx_PeriphCLKConfig+0x704>)
 c005358:	f8d3 3088 	ldr.w	r3, [r3, #136]	; 0x88
 c00535c:	f023 6240 	bic.w	r2, r3, #201326592	; 0xc000000
 c005360:	687b      	ldr	r3, [r7, #4]
 c005362:	6fdb      	ldr	r3, [r3, #124]	; 0x7c
 c005364:	4946      	ldr	r1, [pc, #280]	; (c005480 <HAL_RCCEx_PeriphCLKConfig+0x704>)
 c005366:	4313      	orrs	r3, r2
 c005368:	f8c1 3088 	str.w	r3, [r1, #136]	; 0x88

    if (PeriphClkInit->RngClockSelection == RCC_RNGCLKSOURCE_PLL)
 c00536c:	687b      	ldr	r3, [r7, #4]
 c00536e:	6fdb      	ldr	r3, [r3, #124]	; 0x7c
 c005370:	f1b3 6f00 	cmp.w	r3, #134217728	; 0x8000000
 c005374:	d106      	bne.n	c005384 <HAL_RCCEx_PeriphCLKConfig+0x608>
    {
      /* Enable PLL48M1CLK output clock */
      __HAL_RCC_PLLCLKOUT_ENABLE(RCC_PLL_48M1CLK);
 c005376:	4b42      	ldr	r3, [pc, #264]	; (c005480 <HAL_RCCEx_PeriphCLKConfig+0x704>)
 c005378:	68db      	ldr	r3, [r3, #12]
 c00537a:	4a41      	ldr	r2, [pc, #260]	; (c005480 <HAL_RCCEx_PeriphCLKConfig+0x704>)
 c00537c:	f443 1380 	orr.w	r3, r3, #1048576	; 0x100000
 c005380:	60d3      	str	r3, [r2, #12]
 c005382:	e011      	b.n	c0053a8 <HAL_RCCEx_PeriphCLKConfig+0x62c>
    }
    else if (PeriphClkInit->RngClockSelection == RCC_RNGCLKSOURCE_PLLSAI1)
 c005384:	687b      	ldr	r3, [r7, #4]
 c005386:	6fdb      	ldr	r3, [r3, #124]	; 0x7c
 c005388:	f1b3 6f80 	cmp.w	r3, #67108864	; 0x4000000
 c00538c:	d10c      	bne.n	c0053a8 <HAL_RCCEx_PeriphCLKConfig+0x62c>
    {
      /* PLLSAI1 input clock, parameters M, N & Q configuration and clock output (PLLSAI1ClockOut) */
      ret = RCCEx_PLLSAI1_Config(&(PeriphClkInit->PLLSAI1), DIVIDER_Q_UPDATE);
 c00538e:	687b      	ldr	r3, [r7, #4]
 c005390:	3304      	adds	r3, #4
 c005392:	2101      	movs	r1, #1
 c005394:	4618      	mov	r0, r3
 c005396:	f000 f875 	bl	c005484 <RCCEx_PLLSAI1_Config>
 c00539a:	4603      	mov	r3, r0
 c00539c:	77fb      	strb	r3, [r7, #31]

      if (ret != HAL_OK)
 c00539e:	7ffb      	ldrb	r3, [r7, #31]
 c0053a0:	2b00      	cmp	r3, #0
 c0053a2:	d001      	beq.n	c0053a8 <HAL_RCCEx_PeriphCLKConfig+0x62c>
      {
        /* set overall return value */
        status = ret;
 c0053a4:	7ffb      	ldrb	r3, [r7, #31]
 c0053a6:	77bb      	strb	r3, [r7, #30]
      /* Nothing to do */
    }
  }

  /*-------------------------- ADC clock source configuration ----------------------*/
  if (((PeriphClkInit->PeriphClockSelection) & RCC_PERIPHCLK_ADC) == RCC_PERIPHCLK_ADC)
 c0053a8:	687b      	ldr	r3, [r7, #4]
 c0053aa:	681b      	ldr	r3, [r3, #0]
 c0053ac:	f403 4380 	and.w	r3, r3, #16384	; 0x4000
 c0053b0:	2b00      	cmp	r3, #0
 c0053b2:	d01e      	beq.n	c0053f2 <HAL_RCCEx_PeriphCLKConfig+0x676>
  {
    /* Check the parameters */
    assert_param(IS_RCC_ADCCLKSOURCE(PeriphClkInit->AdcClockSelection));

    /* Configure the ADC interface clock source */
    __HAL_RCC_ADC_CONFIG(PeriphClkInit->AdcClockSelection);
 c0053b4:	4b32      	ldr	r3, [pc, #200]	; (c005480 <HAL_RCCEx_PeriphCLKConfig+0x704>)
 c0053b6:	f8d3 3088 	ldr.w	r3, [r3, #136]	; 0x88
 c0053ba:	f023 5240 	bic.w	r2, r3, #805306368	; 0x30000000
 c0053be:	687b      	ldr	r3, [r7, #4]
 c0053c0:	f8d3 3080 	ldr.w	r3, [r3, #128]	; 0x80
 c0053c4:	492e      	ldr	r1, [pc, #184]	; (c005480 <HAL_RCCEx_PeriphCLKConfig+0x704>)
 c0053c6:	4313      	orrs	r3, r2
 c0053c8:	f8c1 3088 	str.w	r3, [r1, #136]	; 0x88

    if (PeriphClkInit->AdcClockSelection == RCC_ADCCLKSOURCE_PLLSAI1)
 c0053cc:	687b      	ldr	r3, [r7, #4]
 c0053ce:	f8d3 3080 	ldr.w	r3, [r3, #128]	; 0x80
 c0053d2:	f1b3 5f80 	cmp.w	r3, #268435456	; 0x10000000
 c0053d6:	d10c      	bne.n	c0053f2 <HAL_RCCEx_PeriphCLKConfig+0x676>
    {
      /* PLLSAI1 input clock, parameters M, N & R configuration and clock output (PLLSAI1ClockOut) */
      ret = RCCEx_PLLSAI1_Config(&(PeriphClkInit->PLLSAI1), DIVIDER_R_UPDATE);
 c0053d8:	687b      	ldr	r3, [r7, #4]
 c0053da:	3304      	adds	r3, #4
 c0053dc:	2102      	movs	r1, #2
 c0053de:	4618      	mov	r0, r3
 c0053e0:	f000 f850 	bl	c005484 <RCCEx_PLLSAI1_Config>
 c0053e4:	4603      	mov	r3, r0
 c0053e6:	77fb      	strb	r3, [r7, #31]

      if (ret != HAL_OK)
 c0053e8:	7ffb      	ldrb	r3, [r7, #31]
 c0053ea:	2b00      	cmp	r3, #0
 c0053ec:	d001      	beq.n	c0053f2 <HAL_RCCEx_PeriphCLKConfig+0x676>
      {
        /* set overall return value */
        status = ret;
 c0053ee:	7ffb      	ldrb	r3, [r7, #31]
 c0053f0:	77bb      	strb	r3, [r7, #30]
      }
    }
  }

  /*-------------------------- DFSDM1 clock source configuration -------------------*/
  if (((PeriphClkInit->PeriphClockSelection) & RCC_PERIPHCLK_DFSDM1) == RCC_PERIPHCLK_DFSDM1)
 c0053f2:	687b      	ldr	r3, [r7, #4]
 c0053f4:	681b      	ldr	r3, [r3, #0]
 c0053f6:	f403 3380 	and.w	r3, r3, #65536	; 0x10000
 c0053fa:	2b00      	cmp	r3, #0
 c0053fc:	d00b      	beq.n	c005416 <HAL_RCCEx_PeriphCLKConfig+0x69a>
  {
    /* Check the parameters */
    assert_param(IS_RCC_DFSDM1CLKSOURCE(PeriphClkInit->Dfsdm1ClockSelection));

    /* Configure the DFSDM1 interface clock source */
    __HAL_RCC_DFSDM1_CONFIG(PeriphClkInit->Dfsdm1ClockSelection);
 c0053fe:	4b20      	ldr	r3, [pc, #128]	; (c005480 <HAL_RCCEx_PeriphCLKConfig+0x704>)
 c005400:	f8d3 309c 	ldr.w	r3, [r3, #156]	; 0x9c
 c005404:	f023 0204 	bic.w	r2, r3, #4
 c005408:	687b      	ldr	r3, [r7, #4]
 c00540a:	f8d3 3084 	ldr.w	r3, [r3, #132]	; 0x84
 c00540e:	491c      	ldr	r1, [pc, #112]	; (c005480 <HAL_RCCEx_PeriphCLKConfig+0x704>)
 c005410:	4313      	orrs	r3, r2
 c005412:	f8c1 309c 	str.w	r3, [r1, #156]	; 0x9c
  }

  /*-------------------------- DFSDM1 audio clock source configuration -------------*/
  if (((PeriphClkInit->PeriphClockSelection) & RCC_PERIPHCLK_DFSDM1AUDIO) == RCC_PERIPHCLK_DFSDM1AUDIO)
 c005416:	687b      	ldr	r3, [r7, #4]
 c005418:	681b      	ldr	r3, [r3, #0]
 c00541a:	f403 1300 	and.w	r3, r3, #2097152	; 0x200000
 c00541e:	2b00      	cmp	r3, #0
 c005420:	d00b      	beq.n	c00543a <HAL_RCCEx_PeriphCLKConfig+0x6be>
  {
    /* Check the parameters */
    assert_param(IS_RCC_DFSDM1AUDIOCLKSOURCE(PeriphClkInit->Dfsdm1AudioClockSelection));

    /* Configure the DFSDM1 interface audio clock source */
    __HAL_RCC_DFSDM1AUDIO_CONFIG(PeriphClkInit->Dfsdm1AudioClockSelection);
 c005422:	4b17      	ldr	r3, [pc, #92]	; (c005480 <HAL_RCCEx_PeriphCLKConfig+0x704>)
 c005424:	f8d3 309c 	ldr.w	r3, [r3, #156]	; 0x9c
 c005428:	f023 0218 	bic.w	r2, r3, #24
 c00542c:	687b      	ldr	r3, [r7, #4]
 c00542e:	f8d3 3088 	ldr.w	r3, [r3, #136]	; 0x88
 c005432:	4913      	ldr	r1, [pc, #76]	; (c005480 <HAL_RCCEx_PeriphCLKConfig+0x704>)
 c005434:	4313      	orrs	r3, r2
 c005436:	f8c1 309c 	str.w	r3, [r1, #156]	; 0x9c
  }

  /*-------------------------- OctoSPIx clock source configuration ----------------*/
  if (((PeriphClkInit->PeriphClockSelection) & RCC_PERIPHCLK_OSPI) == RCC_PERIPHCLK_OSPI)
 c00543a:	687b      	ldr	r3, [r7, #4]
 c00543c:	681b      	ldr	r3, [r3, #0]
 c00543e:	f003 7380 	and.w	r3, r3, #16777216	; 0x1000000
 c005442:	2b00      	cmp	r3, #0
 c005444:	d017      	beq.n	c005476 <HAL_RCCEx_PeriphCLKConfig+0x6fa>
  {
    /* Check the parameters */
    assert_param(IS_RCC_OSPICLKSOURCE(PeriphClkInit->OspiClockSelection));

    /* Configure the OctoSPI clock source */
    __HAL_RCC_OSPI_CONFIG(PeriphClkInit->OspiClockSelection);
 c005446:	4b0e      	ldr	r3, [pc, #56]	; (c005480 <HAL_RCCEx_PeriphCLKConfig+0x704>)
 c005448:	f8d3 309c 	ldr.w	r3, [r3, #156]	; 0x9c
 c00544c:	f423 1240 	bic.w	r2, r3, #3145728	; 0x300000
 c005450:	687b      	ldr	r3, [r7, #4]
 c005452:	f8d3 308c 	ldr.w	r3, [r3, #140]	; 0x8c
 c005456:	490a      	ldr	r1, [pc, #40]	; (c005480 <HAL_RCCEx_PeriphCLKConfig+0x704>)
 c005458:	4313      	orrs	r3, r2
 c00545a:	f8c1 309c 	str.w	r3, [r1, #156]	; 0x9c

    if (PeriphClkInit->OspiClockSelection == RCC_OSPICLKSOURCE_PLL)
 c00545e:	687b      	ldr	r3, [r7, #4]
 c005460:	f8d3 308c 	ldr.w	r3, [r3, #140]	; 0x8c
 c005464:	f5b3 1f00 	cmp.w	r3, #2097152	; 0x200000
 c005468:	d105      	bne.n	c005476 <HAL_RCCEx_PeriphCLKConfig+0x6fa>
    {
      /* Enable PLL48M1CLK output clock */
      __HAL_RCC_PLLCLKOUT_ENABLE(RCC_PLL_48M1CLK);
 c00546a:	4b05      	ldr	r3, [pc, #20]	; (c005480 <HAL_RCCEx_PeriphCLKConfig+0x704>)
 c00546c:	68db      	ldr	r3, [r3, #12]
 c00546e:	4a04      	ldr	r2, [pc, #16]	; (c005480 <HAL_RCCEx_PeriphCLKConfig+0x704>)
 c005470:	f443 1380 	orr.w	r3, r3, #1048576	; 0x100000
 c005474:	60d3      	str	r3, [r2, #12]
    }
  }

  return status;
 c005476:	7fbb      	ldrb	r3, [r7, #30]
}
 c005478:	4618      	mov	r0, r3
 c00547a:	3720      	adds	r7, #32
 c00547c:	46bd      	mov	sp, r7
 c00547e:	bd80      	pop	{r7, pc}
 c005480:	50021000 	.word	0x50021000

0c005484 <RCCEx_PLLSAI1_Config>:
  * @note   PLLSAI1 is temporary disable to apply new parameters
  *
  * @retval HAL status
  */
static HAL_StatusTypeDef RCCEx_PLLSAI1_Config(RCC_PLLSAI1InitTypeDef *pPllSai1, uint32_t Divider)
{
 c005484:	b580      	push	{r7, lr}
 c005486:	b084      	sub	sp, #16
 c005488:	af00      	add	r7, sp, #0
 c00548a:	6078      	str	r0, [r7, #4]
 c00548c:	6039      	str	r1, [r7, #0]
  HAL_StatusTypeDef status = HAL_OK;
 c00548e:	2300      	movs	r3, #0
 c005490:	73fb      	strb	r3, [r7, #15]
  assert_param(IS_RCC_PLLSAI1M_VALUE(pPllSai1->PLLSAI1M));
  assert_param(IS_RCC_PLLSAI1N_VALUE(pPllSai1->PLLSAI1N));
  assert_param(IS_RCC_PLLSAI1CLOCKOUT_VALUE(pPllSai1->PLLSAI1ClockOut));

  /* Check PLLSAI1 clock source availability */
  switch (pPllSai1->PLLSAI1Source)
 c005492:	687b      	ldr	r3, [r7, #4]
 c005494:	681b      	ldr	r3, [r3, #0]
 c005496:	2b03      	cmp	r3, #3
 c005498:	d018      	beq.n	c0054cc <RCCEx_PLLSAI1_Config+0x48>
 c00549a:	2b03      	cmp	r3, #3
 c00549c:	d81f      	bhi.n	c0054de <RCCEx_PLLSAI1_Config+0x5a>
 c00549e:	2b01      	cmp	r3, #1
 c0054a0:	d002      	beq.n	c0054a8 <RCCEx_PLLSAI1_Config+0x24>
 c0054a2:	2b02      	cmp	r3, #2
 c0054a4:	d009      	beq.n	c0054ba <RCCEx_PLLSAI1_Config+0x36>
 c0054a6:	e01a      	b.n	c0054de <RCCEx_PLLSAI1_Config+0x5a>
  {
    case RCC_PLLSOURCE_MSI:
      if (HAL_IS_BIT_CLR(RCC->CR, RCC_CR_MSIRDY))
 c0054a8:	4b65      	ldr	r3, [pc, #404]	; (c005640 <RCCEx_PLLSAI1_Config+0x1bc>)
 c0054aa:	681b      	ldr	r3, [r3, #0]
 c0054ac:	f003 0302 	and.w	r3, r3, #2
 c0054b0:	2b00      	cmp	r3, #0
 c0054b2:	d117      	bne.n	c0054e4 <RCCEx_PLLSAI1_Config+0x60>
      {
        status = HAL_ERROR;
 c0054b4:	2301      	movs	r3, #1
 c0054b6:	73fb      	strb	r3, [r7, #15]
      }
      break;
 c0054b8:	e014      	b.n	c0054e4 <RCCEx_PLLSAI1_Config+0x60>
    case RCC_PLLSOURCE_HSI:
      if (HAL_IS_BIT_CLR(RCC->CR, RCC_CR_HSIRDY))
 c0054ba:	4b61      	ldr	r3, [pc, #388]	; (c005640 <RCCEx_PLLSAI1_Config+0x1bc>)
 c0054bc:	681b      	ldr	r3, [r3, #0]
 c0054be:	f403 6380 	and.w	r3, r3, #1024	; 0x400
 c0054c2:	2b00      	cmp	r3, #0
 c0054c4:	d110      	bne.n	c0054e8 <RCCEx_PLLSAI1_Config+0x64>
      {
        status = HAL_ERROR;
 c0054c6:	2301      	movs	r3, #1
 c0054c8:	73fb      	strb	r3, [r7, #15]
      }
      break;
 c0054ca:	e00d      	b.n	c0054e8 <RCCEx_PLLSAI1_Config+0x64>
    case RCC_PLLSOURCE_HSE:
      if (HAL_IS_BIT_CLR(RCC->CR, (RCC_CR_HSERDY | RCC_CR_HSEBYP)))
 c0054cc:	4b5c      	ldr	r3, [pc, #368]	; (c005640 <RCCEx_PLLSAI1_Config+0x1bc>)
 c0054ce:	681b      	ldr	r3, [r3, #0]
 c0054d0:	f403 23c0 	and.w	r3, r3, #393216	; 0x60000
 c0054d4:	2b00      	cmp	r3, #0
 c0054d6:	d109      	bne.n	c0054ec <RCCEx_PLLSAI1_Config+0x68>
      {
        status = HAL_ERROR;
 c0054d8:	2301      	movs	r3, #1
 c0054da:	73fb      	strb	r3, [r7, #15]
      }
      break;
 c0054dc:	e006      	b.n	c0054ec <RCCEx_PLLSAI1_Config+0x68>
    default:
      status = HAL_ERROR;
 c0054de:	2301      	movs	r3, #1
 c0054e0:	73fb      	strb	r3, [r7, #15]
      break;
 c0054e2:	e004      	b.n	c0054ee <RCCEx_PLLSAI1_Config+0x6a>
      break;
 c0054e4:	bf00      	nop
 c0054e6:	e002      	b.n	c0054ee <RCCEx_PLLSAI1_Config+0x6a>
      break;
 c0054e8:	bf00      	nop
 c0054ea:	e000      	b.n	c0054ee <RCCEx_PLLSAI1_Config+0x6a>
      break;
 c0054ec:	bf00      	nop
  }

  if (status == HAL_OK)
 c0054ee:	7bfb      	ldrb	r3, [r7, #15]
 c0054f0:	2b00      	cmp	r3, #0
 c0054f2:	f040 809f 	bne.w	c005634 <RCCEx_PLLSAI1_Config+0x1b0>
  {
    /* Disable the PLLSAI1 */
    __HAL_RCC_PLLSAI1_DISABLE();
 c0054f6:	4b52      	ldr	r3, [pc, #328]	; (c005640 <RCCEx_PLLSAI1_Config+0x1bc>)
 c0054f8:	681b      	ldr	r3, [r3, #0]
 c0054fa:	4a51      	ldr	r2, [pc, #324]	; (c005640 <RCCEx_PLLSAI1_Config+0x1bc>)
 c0054fc:	f023 6380 	bic.w	r3, r3, #67108864	; 0x4000000
 c005500:	6013      	str	r3, [r2, #0]

    /* Get Start Tick*/
    tickstart = HAL_GetTick();
 c005502:	f7fc ffcf 	bl	c0024a4 <HAL_GetTick>
 c005506:	60b8      	str	r0, [r7, #8]

    /* Wait till PLLSAI1 is ready to be updated */
    while (READ_BIT(RCC->CR, RCC_CR_PLLSAI1RDY) != 0U)
 c005508:	e00f      	b.n	c00552a <RCCEx_PLLSAI1_Config+0xa6>
    {
      if ((HAL_GetTick() - tickstart) > PLLSAI1_TIMEOUT_VALUE)
 c00550a:	f7fc ffcb 	bl	c0024a4 <HAL_GetTick>
 c00550e:	4602      	mov	r2, r0
 c005510:	68bb      	ldr	r3, [r7, #8]
 c005512:	1ad3      	subs	r3, r2, r3
 c005514:	2b02      	cmp	r3, #2
 c005516:	d908      	bls.n	c00552a <RCCEx_PLLSAI1_Config+0xa6>
      {
        /* New check to avoid false timeout detection in case of preemption */
        if (READ_BIT(RCC->CR, RCC_CR_PLLSAI1RDY) != 0U)
 c005518:	4b49      	ldr	r3, [pc, #292]	; (c005640 <RCCEx_PLLSAI1_Config+0x1bc>)
 c00551a:	681b      	ldr	r3, [r3, #0]
 c00551c:	f003 6300 	and.w	r3, r3, #134217728	; 0x8000000
 c005520:	2b00      	cmp	r3, #0
 c005522:	d009      	beq.n	c005538 <RCCEx_PLLSAI1_Config+0xb4>
        {
          status = HAL_TIMEOUT;
 c005524:	2303      	movs	r3, #3
 c005526:	73fb      	strb	r3, [r7, #15]
        }
        break;
 c005528:	e006      	b.n	c005538 <RCCEx_PLLSAI1_Config+0xb4>
    while (READ_BIT(RCC->CR, RCC_CR_PLLSAI1RDY) != 0U)
 c00552a:	4b45      	ldr	r3, [pc, #276]	; (c005640 <RCCEx_PLLSAI1_Config+0x1bc>)
 c00552c:	681b      	ldr	r3, [r3, #0]
 c00552e:	f003 6300 	and.w	r3, r3, #134217728	; 0x8000000
 c005532:	2b00      	cmp	r3, #0
 c005534:	d1e9      	bne.n	c00550a <RCCEx_PLLSAI1_Config+0x86>
 c005536:	e000      	b.n	c00553a <RCCEx_PLLSAI1_Config+0xb6>
        break;
 c005538:	bf00      	nop
      }
    }

    if (status == HAL_OK)
 c00553a:	7bfb      	ldrb	r3, [r7, #15]
 c00553c:	2b00      	cmp	r3, #0
 c00553e:	d179      	bne.n	c005634 <RCCEx_PLLSAI1_Config+0x1b0>
    {
      if (Divider == DIVIDER_P_UPDATE)
 c005540:	683b      	ldr	r3, [r7, #0]
 c005542:	2b00      	cmp	r3, #0
 c005544:	d116      	bne.n	c005574 <RCCEx_PLLSAI1_Config+0xf0>
      {
        assert_param(IS_RCC_PLLSAI1P_VALUE(pPllSai1->PLLSAI1P));

        /* Configure the PLLSAI1 Division factor M, P and Multiplication factor N*/
        MODIFY_REG(RCC->PLLSAI1CFGR,
 c005546:	4b3e      	ldr	r3, [pc, #248]	; (c005640 <RCCEx_PLLSAI1_Config+0x1bc>)
 c005548:	691a      	ldr	r2, [r3, #16]
 c00554a:	4b3e      	ldr	r3, [pc, #248]	; (c005644 <RCCEx_PLLSAI1_Config+0x1c0>)
 c00554c:	4013      	ands	r3, r2
 c00554e:	687a      	ldr	r2, [r7, #4]
 c005550:	6892      	ldr	r2, [r2, #8]
 c005552:	0211      	lsls	r1, r2, #8
 c005554:	687a      	ldr	r2, [r7, #4]
 c005556:	68d2      	ldr	r2, [r2, #12]
 c005558:	06d2      	lsls	r2, r2, #27
 c00555a:	4311      	orrs	r1, r2
 c00555c:	687a      	ldr	r2, [r7, #4]
 c00555e:	6852      	ldr	r2, [r2, #4]
 c005560:	3a01      	subs	r2, #1
 c005562:	0112      	lsls	r2, r2, #4
 c005564:	4311      	orrs	r1, r2
 c005566:	687a      	ldr	r2, [r7, #4]
 c005568:	6812      	ldr	r2, [r2, #0]
 c00556a:	430a      	orrs	r2, r1
 c00556c:	4934      	ldr	r1, [pc, #208]	; (c005640 <RCCEx_PLLSAI1_Config+0x1bc>)
 c00556e:	4313      	orrs	r3, r2
 c005570:	610b      	str	r3, [r1, #16]
 c005572:	e033      	b.n	c0055dc <RCCEx_PLLSAI1_Config+0x158>
                   (pPllSai1->PLLSAI1N << RCC_PLLSAI1CFGR_PLLSAI1N_Pos) |
                   (pPllSai1->PLLSAI1P << RCC_PLLSAI1CFGR_PLLSAI1PDIV_Pos) |
                   ((pPllSai1->PLLSAI1M - 1U) << RCC_PLLSAI1CFGR_PLLSAI1M_Pos) |
                   pPllSai1->PLLSAI1Source);
      }
      else if (Divider == DIVIDER_Q_UPDATE)
 c005574:	683b      	ldr	r3, [r7, #0]
 c005576:	2b01      	cmp	r3, #1
 c005578:	d118      	bne.n	c0055ac <RCCEx_PLLSAI1_Config+0x128>
      {
        assert_param(IS_RCC_PLLSAI1Q_VALUE(pPllSai1->PLLSAI1Q));

        /* Configure the PLLSAI1 Division factor M, Q and Multiplication factor N*/
        MODIFY_REG(RCC->PLLSAI1CFGR,
 c00557a:	4b31      	ldr	r3, [pc, #196]	; (c005640 <RCCEx_PLLSAI1_Config+0x1bc>)
 c00557c:	691a      	ldr	r2, [r3, #16]
 c00557e:	4b32      	ldr	r3, [pc, #200]	; (c005648 <RCCEx_PLLSAI1_Config+0x1c4>)
 c005580:	4013      	ands	r3, r2
 c005582:	687a      	ldr	r2, [r7, #4]
 c005584:	6892      	ldr	r2, [r2, #8]
 c005586:	0211      	lsls	r1, r2, #8
 c005588:	687a      	ldr	r2, [r7, #4]
 c00558a:	6912      	ldr	r2, [r2, #16]
 c00558c:	0852      	lsrs	r2, r2, #1
 c00558e:	3a01      	subs	r2, #1
 c005590:	0552      	lsls	r2, r2, #21
 c005592:	4311      	orrs	r1, r2
 c005594:	687a      	ldr	r2, [r7, #4]
 c005596:	6852      	ldr	r2, [r2, #4]
 c005598:	3a01      	subs	r2, #1
 c00559a:	0112      	lsls	r2, r2, #4
 c00559c:	4311      	orrs	r1, r2
 c00559e:	687a      	ldr	r2, [r7, #4]
 c0055a0:	6812      	ldr	r2, [r2, #0]
 c0055a2:	430a      	orrs	r2, r1
 c0055a4:	4926      	ldr	r1, [pc, #152]	; (c005640 <RCCEx_PLLSAI1_Config+0x1bc>)
 c0055a6:	4313      	orrs	r3, r2
 c0055a8:	610b      	str	r3, [r1, #16]
 c0055aa:	e017      	b.n	c0055dc <RCCEx_PLLSAI1_Config+0x158>
      else
      {
        assert_param(IS_RCC_PLLSAI1R_VALUE(pPllSai1->PLLSAI1R));

        /* Configure the PLLSAI1 Division factor M, R and Multiplication factor N*/
        MODIFY_REG(RCC->PLLSAI1CFGR,
 c0055ac:	4b24      	ldr	r3, [pc, #144]	; (c005640 <RCCEx_PLLSAI1_Config+0x1bc>)
 c0055ae:	691a      	ldr	r2, [r3, #16]
 c0055b0:	4b26      	ldr	r3, [pc, #152]	; (c00564c <RCCEx_PLLSAI1_Config+0x1c8>)
 c0055b2:	4013      	ands	r3, r2
 c0055b4:	687a      	ldr	r2, [r7, #4]
 c0055b6:	6892      	ldr	r2, [r2, #8]
 c0055b8:	0211      	lsls	r1, r2, #8
 c0055ba:	687a      	ldr	r2, [r7, #4]
 c0055bc:	6952      	ldr	r2, [r2, #20]
 c0055be:	0852      	lsrs	r2, r2, #1
 c0055c0:	3a01      	subs	r2, #1
 c0055c2:	0652      	lsls	r2, r2, #25
 c0055c4:	4311      	orrs	r1, r2
 c0055c6:	687a      	ldr	r2, [r7, #4]
 c0055c8:	6852      	ldr	r2, [r2, #4]
 c0055ca:	3a01      	subs	r2, #1
 c0055cc:	0112      	lsls	r2, r2, #4
 c0055ce:	4311      	orrs	r1, r2
 c0055d0:	687a      	ldr	r2, [r7, #4]
 c0055d2:	6812      	ldr	r2, [r2, #0]
 c0055d4:	430a      	orrs	r2, r1
 c0055d6:	491a      	ldr	r1, [pc, #104]	; (c005640 <RCCEx_PLLSAI1_Config+0x1bc>)
 c0055d8:	4313      	orrs	r3, r2
 c0055da:	610b      	str	r3, [r1, #16]
                   ((pPllSai1->PLLSAI1M - 1U) << RCC_PLLSAI1CFGR_PLLSAI1M_Pos) |
                   pPllSai1->PLLSAI1Source);
      }

      /* Enable the PLLSAI1 again by setting PLLSAI1ON to 1*/
      __HAL_RCC_PLLSAI1_ENABLE();
 c0055dc:	4b18      	ldr	r3, [pc, #96]	; (c005640 <RCCEx_PLLSAI1_Config+0x1bc>)
 c0055de:	681b      	ldr	r3, [r3, #0]
 c0055e0:	4a17      	ldr	r2, [pc, #92]	; (c005640 <RCCEx_PLLSAI1_Config+0x1bc>)
 c0055e2:	f043 6380 	orr.w	r3, r3, #67108864	; 0x4000000
 c0055e6:	6013      	str	r3, [r2, #0]

      /* Get Start Tick*/
      tickstart = HAL_GetTick();
 c0055e8:	f7fc ff5c 	bl	c0024a4 <HAL_GetTick>
 c0055ec:	60b8      	str	r0, [r7, #8]

      /* Wait till PLLSAI1 is ready */
      while (READ_BIT(RCC->CR, RCC_CR_PLLSAI1RDY) == 0U)
 c0055ee:	e00f      	b.n	c005610 <RCCEx_PLLSAI1_Config+0x18c>
      {
        if ((HAL_GetTick() - tickstart) > PLLSAI1_TIMEOUT_VALUE)
 c0055f0:	f7fc ff58 	bl	c0024a4 <HAL_GetTick>
 c0055f4:	4602      	mov	r2, r0
 c0055f6:	68bb      	ldr	r3, [r7, #8]
 c0055f8:	1ad3      	subs	r3, r2, r3
 c0055fa:	2b02      	cmp	r3, #2
 c0055fc:	d908      	bls.n	c005610 <RCCEx_PLLSAI1_Config+0x18c>
        {
          /* New check to avoid false timeout detection in case of preemption */
          if (READ_BIT(RCC->CR, RCC_CR_PLLSAI1RDY) == 0U)
 c0055fe:	4b10      	ldr	r3, [pc, #64]	; (c005640 <RCCEx_PLLSAI1_Config+0x1bc>)
 c005600:	681b      	ldr	r3, [r3, #0]
 c005602:	f003 6300 	and.w	r3, r3, #134217728	; 0x8000000
 c005606:	2b00      	cmp	r3, #0
 c005608:	d109      	bne.n	c00561e <RCCEx_PLLSAI1_Config+0x19a>
          {
            status = HAL_TIMEOUT;
 c00560a:	2303      	movs	r3, #3
 c00560c:	73fb      	strb	r3, [r7, #15]
          }
          break;
 c00560e:	e006      	b.n	c00561e <RCCEx_PLLSAI1_Config+0x19a>
      while (READ_BIT(RCC->CR, RCC_CR_PLLSAI1RDY) == 0U)
 c005610:	4b0b      	ldr	r3, [pc, #44]	; (c005640 <RCCEx_PLLSAI1_Config+0x1bc>)
 c005612:	681b      	ldr	r3, [r3, #0]
 c005614:	f003 6300 	and.w	r3, r3, #134217728	; 0x8000000
 c005618:	2b00      	cmp	r3, #0
 c00561a:	d0e9      	beq.n	c0055f0 <RCCEx_PLLSAI1_Config+0x16c>
 c00561c:	e000      	b.n	c005620 <RCCEx_PLLSAI1_Config+0x19c>
          break;
 c00561e:	bf00      	nop
        }
      }

      if (status == HAL_OK)
 c005620:	7bfb      	ldrb	r3, [r7, #15]
 c005622:	2b00      	cmp	r3, #0
 c005624:	d106      	bne.n	c005634 <RCCEx_PLLSAI1_Config+0x1b0>
      {
        /* Configure the PLLSAI1 Clock output(s) */
        __HAL_RCC_PLLSAI1CLKOUT_ENABLE(pPllSai1->PLLSAI1ClockOut);
 c005626:	4b06      	ldr	r3, [pc, #24]	; (c005640 <RCCEx_PLLSAI1_Config+0x1bc>)
 c005628:	691a      	ldr	r2, [r3, #16]
 c00562a:	687b      	ldr	r3, [r7, #4]
 c00562c:	699b      	ldr	r3, [r3, #24]
 c00562e:	4904      	ldr	r1, [pc, #16]	; (c005640 <RCCEx_PLLSAI1_Config+0x1bc>)
 c005630:	4313      	orrs	r3, r2
 c005632:	610b      	str	r3, [r1, #16]
      }
    }
  }

  return status;
 c005634:	7bfb      	ldrb	r3, [r7, #15]
}
 c005636:	4618      	mov	r0, r3
 c005638:	3710      	adds	r7, #16
 c00563a:	46bd      	mov	sp, r7
 c00563c:	bd80      	pop	{r7, pc}
 c00563e:	bf00      	nop
 c005640:	50021000 	.word	0x50021000
 c005644:	07ff800c 	.word	0x07ff800c
 c005648:	ff9f800c 	.word	0xff9f800c
 c00564c:	f9ff800c 	.word	0xf9ff800c

0c005650 <RCCEx_PLLSAI2_Config>:
  * @note   PLLSAI2 is temporary disable to apply new parameters
  *
  * @retval HAL status
  */
static HAL_StatusTypeDef RCCEx_PLLSAI2_Config(RCC_PLLSAI2InitTypeDef *pPllSai2, uint32_t Divider)
{
 c005650:	b580      	push	{r7, lr}
 c005652:	b084      	sub	sp, #16
 c005654:	af00      	add	r7, sp, #0
 c005656:	6078      	str	r0, [r7, #4]
 c005658:	6039      	str	r1, [r7, #0]
  HAL_StatusTypeDef status = HAL_OK;
 c00565a:	2300      	movs	r3, #0
 c00565c:	73fb      	strb	r3, [r7, #15]
  assert_param(IS_RCC_PLLSAI2M_VALUE(pPllSai2->PLLSAI2M));
  assert_param(IS_RCC_PLLSAI2N_VALUE(pPllSai2->PLLSAI2N));
  assert_param(IS_RCC_PLLSAI2CLOCKOUT_VALUE(pPllSai2->PLLSAI2ClockOut));

  /* Check PLLSAI2 clock source availability */
  switch (pPllSai2->PLLSAI2Source)
 c00565e:	687b      	ldr	r3, [r7, #4]
 c005660:	681b      	ldr	r3, [r3, #0]
 c005662:	2b03      	cmp	r3, #3
 c005664:	d018      	beq.n	c005698 <RCCEx_PLLSAI2_Config+0x48>
 c005666:	2b03      	cmp	r3, #3
 c005668:	d81f      	bhi.n	c0056aa <RCCEx_PLLSAI2_Config+0x5a>
 c00566a:	2b01      	cmp	r3, #1
 c00566c:	d002      	beq.n	c005674 <RCCEx_PLLSAI2_Config+0x24>
 c00566e:	2b02      	cmp	r3, #2
 c005670:	d009      	beq.n	c005686 <RCCEx_PLLSAI2_Config+0x36>
 c005672:	e01a      	b.n	c0056aa <RCCEx_PLLSAI2_Config+0x5a>
  {
    case RCC_PLLSOURCE_MSI:
      if (HAL_IS_BIT_CLR(RCC->CR, RCC_CR_MSIRDY))
 c005674:	4b4a      	ldr	r3, [pc, #296]	; (c0057a0 <RCCEx_PLLSAI2_Config+0x150>)
 c005676:	681b      	ldr	r3, [r3, #0]
 c005678:	f003 0302 	and.w	r3, r3, #2
 c00567c:	2b00      	cmp	r3, #0
 c00567e:	d117      	bne.n	c0056b0 <RCCEx_PLLSAI2_Config+0x60>
      {
        status = HAL_ERROR;
 c005680:	2301      	movs	r3, #1
 c005682:	73fb      	strb	r3, [r7, #15]
      }
      break;
 c005684:	e014      	b.n	c0056b0 <RCCEx_PLLSAI2_Config+0x60>
    case RCC_PLLSOURCE_HSI:
      if (HAL_IS_BIT_CLR(RCC->CR, RCC_CR_HSIRDY))
 c005686:	4b46      	ldr	r3, [pc, #280]	; (c0057a0 <RCCEx_PLLSAI2_Config+0x150>)
 c005688:	681b      	ldr	r3, [r3, #0]
 c00568a:	f403 6380 	and.w	r3, r3, #1024	; 0x400
 c00568e:	2b00      	cmp	r3, #0
 c005690:	d110      	bne.n	c0056b4 <RCCEx_PLLSAI2_Config+0x64>
      {
        status = HAL_ERROR;
 c005692:	2301      	movs	r3, #1
 c005694:	73fb      	strb	r3, [r7, #15]
      }
      break;
 c005696:	e00d      	b.n	c0056b4 <RCCEx_PLLSAI2_Config+0x64>
    case RCC_PLLSOURCE_HSE:
      if (HAL_IS_BIT_CLR(RCC->CR, (RCC_CR_HSERDY | RCC_CR_HSEBYP)))
 c005698:	4b41      	ldr	r3, [pc, #260]	; (c0057a0 <RCCEx_PLLSAI2_Config+0x150>)
 c00569a:	681b      	ldr	r3, [r3, #0]
 c00569c:	f403 23c0 	and.w	r3, r3, #393216	; 0x60000
 c0056a0:	2b00      	cmp	r3, #0
 c0056a2:	d109      	bne.n	c0056b8 <RCCEx_PLLSAI2_Config+0x68>
      {
        status = HAL_ERROR;
 c0056a4:	2301      	movs	r3, #1
 c0056a6:	73fb      	strb	r3, [r7, #15]
      }
      break;
 c0056a8:	e006      	b.n	c0056b8 <RCCEx_PLLSAI2_Config+0x68>
    default:
      status = HAL_ERROR;
 c0056aa:	2301      	movs	r3, #1
 c0056ac:	73fb      	strb	r3, [r7, #15]
      break;
 c0056ae:	e004      	b.n	c0056ba <RCCEx_PLLSAI2_Config+0x6a>
      break;
 c0056b0:	bf00      	nop
 c0056b2:	e002      	b.n	c0056ba <RCCEx_PLLSAI2_Config+0x6a>
      break;
 c0056b4:	bf00      	nop
 c0056b6:	e000      	b.n	c0056ba <RCCEx_PLLSAI2_Config+0x6a>
      break;
 c0056b8:	bf00      	nop
  }

  if (status == HAL_OK)
 c0056ba:	7bfb      	ldrb	r3, [r7, #15]
 c0056bc:	2b00      	cmp	r3, #0
 c0056be:	d169      	bne.n	c005794 <RCCEx_PLLSAI2_Config+0x144>
  {
    /* Disable the PLLSAI2 */
    __HAL_RCC_PLLSAI2_DISABLE();
 c0056c0:	4b37      	ldr	r3, [pc, #220]	; (c0057a0 <RCCEx_PLLSAI2_Config+0x150>)
 c0056c2:	681b      	ldr	r3, [r3, #0]
 c0056c4:	4a36      	ldr	r2, [pc, #216]	; (c0057a0 <RCCEx_PLLSAI2_Config+0x150>)
 c0056c6:	f023 5380 	bic.w	r3, r3, #268435456	; 0x10000000
 c0056ca:	6013      	str	r3, [r2, #0]

    /* Get Start Tick*/
    tickstart = HAL_GetTick();
 c0056cc:	f7fc feea 	bl	c0024a4 <HAL_GetTick>
 c0056d0:	60b8      	str	r0, [r7, #8]

    /* Wait till PLLSAI2 is ready to be updated */
    while (READ_BIT(RCC->CR, RCC_CR_PLLSAI2RDY) != 0U)
 c0056d2:	e00f      	b.n	c0056f4 <RCCEx_PLLSAI2_Config+0xa4>
    {
      if ((HAL_GetTick() - tickstart) > PLLSAI2_TIMEOUT_VALUE)
 c0056d4:	f7fc fee6 	bl	c0024a4 <HAL_GetTick>
 c0056d8:	4602      	mov	r2, r0
 c0056da:	68bb      	ldr	r3, [r7, #8]
 c0056dc:	1ad3      	subs	r3, r2, r3
 c0056de:	2b02      	cmp	r3, #2
 c0056e0:	d908      	bls.n	c0056f4 <RCCEx_PLLSAI2_Config+0xa4>
      {
        /* New check to avoid false timeout detection in case of preemption */
        if (READ_BIT(RCC->CR, RCC_CR_PLLSAI2RDY) != 0U)
 c0056e2:	4b2f      	ldr	r3, [pc, #188]	; (c0057a0 <RCCEx_PLLSAI2_Config+0x150>)
 c0056e4:	681b      	ldr	r3, [r3, #0]
 c0056e6:	f003 5300 	and.w	r3, r3, #536870912	; 0x20000000
 c0056ea:	2b00      	cmp	r3, #0
 c0056ec:	d009      	beq.n	c005702 <RCCEx_PLLSAI2_Config+0xb2>
        {
          status = HAL_TIMEOUT;
 c0056ee:	2303      	movs	r3, #3
 c0056f0:	73fb      	strb	r3, [r7, #15]
        }
        break;
 c0056f2:	e006      	b.n	c005702 <RCCEx_PLLSAI2_Config+0xb2>
    while (READ_BIT(RCC->CR, RCC_CR_PLLSAI2RDY) != 0U)
 c0056f4:	4b2a      	ldr	r3, [pc, #168]	; (c0057a0 <RCCEx_PLLSAI2_Config+0x150>)
 c0056f6:	681b      	ldr	r3, [r3, #0]
 c0056f8:	f003 5300 	and.w	r3, r3, #536870912	; 0x20000000
 c0056fc:	2b00      	cmp	r3, #0
 c0056fe:	d1e9      	bne.n	c0056d4 <RCCEx_PLLSAI2_Config+0x84>
 c005700:	e000      	b.n	c005704 <RCCEx_PLLSAI2_Config+0xb4>
        break;
 c005702:	bf00      	nop
      }
    }

    if (status == HAL_OK)
 c005704:	7bfb      	ldrb	r3, [r7, #15]
 c005706:	2b00      	cmp	r3, #0
 c005708:	d144      	bne.n	c005794 <RCCEx_PLLSAI2_Config+0x144>
    {
      if (Divider == DIVIDER_P_UPDATE)
 c00570a:	683b      	ldr	r3, [r7, #0]
 c00570c:	2b00      	cmp	r3, #0
 c00570e:	d115      	bne.n	c00573c <RCCEx_PLLSAI2_Config+0xec>
      {
        assert_param(IS_RCC_PLLSAI2P_VALUE(pPllSai2->PLLSAI2P));

        /* Configure the PLLSAI2 Division factor M, P and Multiplication factor N*/
        MODIFY_REG(RCC->PLLSAI2CFGR,
 c005710:	4b23      	ldr	r3, [pc, #140]	; (c0057a0 <RCCEx_PLLSAI2_Config+0x150>)
 c005712:	695a      	ldr	r2, [r3, #20]
 c005714:	4b23      	ldr	r3, [pc, #140]	; (c0057a4 <RCCEx_PLLSAI2_Config+0x154>)
 c005716:	4013      	ands	r3, r2
 c005718:	687a      	ldr	r2, [r7, #4]
 c00571a:	6892      	ldr	r2, [r2, #8]
 c00571c:	0211      	lsls	r1, r2, #8
 c00571e:	687a      	ldr	r2, [r7, #4]
 c005720:	68d2      	ldr	r2, [r2, #12]
 c005722:	06d2      	lsls	r2, r2, #27
 c005724:	4311      	orrs	r1, r2
 c005726:	687a      	ldr	r2, [r7, #4]
 c005728:	6852      	ldr	r2, [r2, #4]
 c00572a:	3a01      	subs	r2, #1
 c00572c:	0112      	lsls	r2, r2, #4
 c00572e:	4311      	orrs	r1, r2
 c005730:	687a      	ldr	r2, [r7, #4]
 c005732:	6812      	ldr	r2, [r2, #0]
 c005734:	430a      	orrs	r2, r1
 c005736:	491a      	ldr	r1, [pc, #104]	; (c0057a0 <RCCEx_PLLSAI2_Config+0x150>)
 c005738:	4313      	orrs	r3, r2
 c00573a:	614b      	str	r3, [r1, #20]
                   pPllSai2->PLLSAI2Source);

      }

      /* Enable the PLLSAI2 again by setting PLLSAI2ON to 1*/
      __HAL_RCC_PLLSAI2_ENABLE();
 c00573c:	4b18      	ldr	r3, [pc, #96]	; (c0057a0 <RCCEx_PLLSAI2_Config+0x150>)
 c00573e:	681b      	ldr	r3, [r3, #0]
 c005740:	4a17      	ldr	r2, [pc, #92]	; (c0057a0 <RCCEx_PLLSAI2_Config+0x150>)
 c005742:	f043 5380 	orr.w	r3, r3, #268435456	; 0x10000000
 c005746:	6013      	str	r3, [r2, #0]

      /* Get Start Tick*/
      tickstart = HAL_GetTick();
 c005748:	f7fc feac 	bl	c0024a4 <HAL_GetTick>
 c00574c:	60b8      	str	r0, [r7, #8]

      /* Wait till PLLSAI2 is ready */
      while (READ_BIT(RCC->CR, RCC_CR_PLLSAI2RDY) == 0U)
 c00574e:	e00f      	b.n	c005770 <RCCEx_PLLSAI2_Config+0x120>
      {
        if ((HAL_GetTick() - tickstart) > PLLSAI2_TIMEOUT_VALUE)
 c005750:	f7fc fea8 	bl	c0024a4 <HAL_GetTick>
 c005754:	4602      	mov	r2, r0
 c005756:	68bb      	ldr	r3, [r7, #8]
 c005758:	1ad3      	subs	r3, r2, r3
 c00575a:	2b02      	cmp	r3, #2
 c00575c:	d908      	bls.n	c005770 <RCCEx_PLLSAI2_Config+0x120>
        {
          /* New check to avoid false timeout detection in case of preemption */
          if (READ_BIT(RCC->CR, RCC_CR_PLLSAI2RDY) == 0U)
 c00575e:	4b10      	ldr	r3, [pc, #64]	; (c0057a0 <RCCEx_PLLSAI2_Config+0x150>)
 c005760:	681b      	ldr	r3, [r3, #0]
 c005762:	f003 5300 	and.w	r3, r3, #536870912	; 0x20000000
 c005766:	2b00      	cmp	r3, #0
 c005768:	d109      	bne.n	c00577e <RCCEx_PLLSAI2_Config+0x12e>
          {
            status = HAL_TIMEOUT;
 c00576a:	2303      	movs	r3, #3
 c00576c:	73fb      	strb	r3, [r7, #15]
          }
          break;
 c00576e:	e006      	b.n	c00577e <RCCEx_PLLSAI2_Config+0x12e>
      while (READ_BIT(RCC->CR, RCC_CR_PLLSAI2RDY) == 0U)
 c005770:	4b0b      	ldr	r3, [pc, #44]	; (c0057a0 <RCCEx_PLLSAI2_Config+0x150>)
 c005772:	681b      	ldr	r3, [r3, #0]
 c005774:	f003 5300 	and.w	r3, r3, #536870912	; 0x20000000
 c005778:	2b00      	cmp	r3, #0
 c00577a:	d0e9      	beq.n	c005750 <RCCEx_PLLSAI2_Config+0x100>
 c00577c:	e000      	b.n	c005780 <RCCEx_PLLSAI2_Config+0x130>
          break;
 c00577e:	bf00      	nop
        }
      }

      if (status == HAL_OK)
 c005780:	7bfb      	ldrb	r3, [r7, #15]
 c005782:	2b00      	cmp	r3, #0
 c005784:	d106      	bne.n	c005794 <RCCEx_PLLSAI2_Config+0x144>
      {
        /* Configure the PLLSAI2 Clock output(s) */
        __HAL_RCC_PLLSAI2CLKOUT_ENABLE(pPllSai2->PLLSAI2ClockOut);
 c005786:	4b06      	ldr	r3, [pc, #24]	; (c0057a0 <RCCEx_PLLSAI2_Config+0x150>)
 c005788:	695a      	ldr	r2, [r3, #20]
 c00578a:	687b      	ldr	r3, [r7, #4]
 c00578c:	691b      	ldr	r3, [r3, #16]
 c00578e:	4904      	ldr	r1, [pc, #16]	; (c0057a0 <RCCEx_PLLSAI2_Config+0x150>)
 c005790:	4313      	orrs	r3, r2
 c005792:	614b      	str	r3, [r1, #20]
      }
    }
  }

  return status;
 c005794:	7bfb      	ldrb	r3, [r7, #15]
}
 c005796:	4618      	mov	r0, r3
 c005798:	3710      	adds	r7, #16
 c00579a:	46bd      	mov	sp, r7
 c00579c:	bd80      	pop	{r7, pc}
 c00579e:	bf00      	nop
 c0057a0:	50021000 	.word	0x50021000
 c0057a4:	07ff800c 	.word	0x07ff800c

0c0057a8 <HAL_SPI_Init>:
  * @param  hspi pointer to a SPI_HandleTypeDef structure that contains
  *               the configuration information for SPI module.
  * @retval HAL status
  */
HAL_StatusTypeDef HAL_SPI_Init(SPI_HandleTypeDef *hspi)
{
 c0057a8:	b580      	push	{r7, lr}
 c0057aa:	b084      	sub	sp, #16
 c0057ac:	af00      	add	r7, sp, #0
 c0057ae:	6078      	str	r0, [r7, #4]
  uint32_t frxth;

  /* Check the SPI handle allocation */
  if (hspi == NULL)
 c0057b0:	687b      	ldr	r3, [r7, #4]
 c0057b2:	2b00      	cmp	r3, #0
 c0057b4:	d101      	bne.n	c0057ba <HAL_SPI_Init+0x12>
  {
    return HAL_ERROR;
 c0057b6:	2301      	movs	r3, #1
 c0057b8:	e095      	b.n	c0058e6 <HAL_SPI_Init+0x13e>
  assert_param(IS_SPI_NSS(hspi->Init.NSS));
  assert_param(IS_SPI_NSSP(hspi->Init.NSSPMode));
  assert_param(IS_SPI_BAUDRATE_PRESCALER(hspi->Init.BaudRatePrescaler));
  assert_param(IS_SPI_FIRST_BIT(hspi->Init.FirstBit));
  assert_param(IS_SPI_TIMODE(hspi->Init.TIMode));
  if (hspi->Init.TIMode == SPI_TIMODE_DISABLE)
 c0057ba:	687b      	ldr	r3, [r7, #4]
 c0057bc:	6a5b      	ldr	r3, [r3, #36]	; 0x24
 c0057be:	2b00      	cmp	r3, #0
 c0057c0:	d108      	bne.n	c0057d4 <HAL_SPI_Init+0x2c>
  {
    assert_param(IS_SPI_CPOL(hspi->Init.CLKPolarity));
    assert_param(IS_SPI_CPHA(hspi->Init.CLKPhase));

    if (hspi->Init.Mode == SPI_MODE_MASTER)
 c0057c2:	687b      	ldr	r3, [r7, #4]
 c0057c4:	685b      	ldr	r3, [r3, #4]
 c0057c6:	f5b3 7f82 	cmp.w	r3, #260	; 0x104
 c0057ca:	d009      	beq.n	c0057e0 <HAL_SPI_Init+0x38>
      assert_param(IS_SPI_BAUDRATE_PRESCALER(hspi->Init.BaudRatePrescaler));
    }
    else
    {
      /* Baudrate prescaler not use in Motoraola Slave mode. force to default value */
      hspi->Init.BaudRatePrescaler = SPI_BAUDRATEPRESCALER_2;
 c0057cc:	687b      	ldr	r3, [r7, #4]
 c0057ce:	2200      	movs	r2, #0
 c0057d0:	61da      	str	r2, [r3, #28]
 c0057d2:	e005      	b.n	c0057e0 <HAL_SPI_Init+0x38>
  else
  {
    assert_param(IS_SPI_BAUDRATE_PRESCALER(hspi->Init.BaudRatePrescaler));

    /* Force polarity and phase to TI protocaol requirements */
    hspi->Init.CLKPolarity = SPI_POLARITY_LOW;
 c0057d4:	687b      	ldr	r3, [r7, #4]
 c0057d6:	2200      	movs	r2, #0
 c0057d8:	611a      	str	r2, [r3, #16]
    hspi->Init.CLKPhase    = SPI_PHASE_1EDGE;
 c0057da:	687b      	ldr	r3, [r7, #4]
 c0057dc:	2200      	movs	r2, #0
 c0057de:	615a      	str	r2, [r3, #20]
  {
    assert_param(IS_SPI_CRC_POLYNOMIAL(hspi->Init.CRCPolynomial));
    assert_param(IS_SPI_CRC_LENGTH(hspi->Init.CRCLength));
  }
#else
  hspi->Init.CRCCalculation = SPI_CRCCALCULATION_DISABLE;
 c0057e0:	687b      	ldr	r3, [r7, #4]
 c0057e2:	2200      	movs	r2, #0
 c0057e4:	629a      	str	r2, [r3, #40]	; 0x28
#endif /* USE_SPI_CRC */

  if (hspi->State == HAL_SPI_STATE_RESET)
 c0057e6:	687b      	ldr	r3, [r7, #4]
 c0057e8:	f893 305d 	ldrb.w	r3, [r3, #93]	; 0x5d
 c0057ec:	b2db      	uxtb	r3, r3
 c0057ee:	2b00      	cmp	r3, #0
 c0057f0:	d106      	bne.n	c005800 <HAL_SPI_Init+0x58>
  {
    /* Allocate lock resource and initialize it */
    hspi->Lock = HAL_UNLOCKED;
 c0057f2:	687b      	ldr	r3, [r7, #4]
 c0057f4:	2200      	movs	r2, #0
 c0057f6:	f883 205c 	strb.w	r2, [r3, #92]	; 0x5c

    /* Init the low level hardware : GPIO, CLOCK, NVIC... */
    hspi->MspInitCallback(hspi);
#else
    /* Init the low level hardware : GPIO, CLOCK, NVIC... */
    HAL_SPI_MspInit(hspi);
 c0057fa:	6878      	ldr	r0, [r7, #4]
 c0057fc:	f7fc f9d0 	bl	c001ba0 <HAL_SPI_MspInit>
#endif /* USE_HAL_SPI_REGISTER_CALLBACKS */
  }

  hspi->State = HAL_SPI_STATE_BUSY;
 c005800:	687b      	ldr	r3, [r7, #4]
 c005802:	2202      	movs	r2, #2
 c005804:	f883 205d 	strb.w	r2, [r3, #93]	; 0x5d

  /* Disable the selected SPI peripheral */
  __HAL_SPI_DISABLE(hspi);
 c005808:	687b      	ldr	r3, [r7, #4]
 c00580a:	681b      	ldr	r3, [r3, #0]
 c00580c:	681a      	ldr	r2, [r3, #0]
 c00580e:	687b      	ldr	r3, [r7, #4]
 c005810:	681b      	ldr	r3, [r3, #0]
 c005812:	f022 0240 	bic.w	r2, r2, #64	; 0x40
 c005816:	601a      	str	r2, [r3, #0]

  /* Align by default the rs fifo threshold on the data size */
  if (hspi->Init.DataSize > SPI_DATASIZE_8BIT)
 c005818:	687b      	ldr	r3, [r7, #4]
 c00581a:	68db      	ldr	r3, [r3, #12]
 c00581c:	f5b3 6fe0 	cmp.w	r3, #1792	; 0x700
 c005820:	d902      	bls.n	c005828 <HAL_SPI_Init+0x80>
  {
    frxth = SPI_RXFIFO_THRESHOLD_HF;
 c005822:	2300      	movs	r3, #0
 c005824:	60fb      	str	r3, [r7, #12]
 c005826:	e002      	b.n	c00582e <HAL_SPI_Init+0x86>
  }
  else
  {
    frxth = SPI_RXFIFO_THRESHOLD_QF;
 c005828:	f44f 5380 	mov.w	r3, #4096	; 0x1000
 c00582c:	60fb      	str	r3, [r7, #12]
  }

  /* CRC calculation is valid only for 16Bit and 8 Bit */
  if ((hspi->Init.DataSize != SPI_DATASIZE_16BIT) && (hspi->Init.DataSize != SPI_DATASIZE_8BIT))
 c00582e:	687b      	ldr	r3, [r7, #4]
 c005830:	68db      	ldr	r3, [r3, #12]
 c005832:	f5b3 6f70 	cmp.w	r3, #3840	; 0xf00
 c005836:	d007      	beq.n	c005848 <HAL_SPI_Init+0xa0>
 c005838:	687b      	ldr	r3, [r7, #4]
 c00583a:	68db      	ldr	r3, [r3, #12]
 c00583c:	f5b3 6fe0 	cmp.w	r3, #1792	; 0x700
 c005840:	d002      	beq.n	c005848 <HAL_SPI_Init+0xa0>
  {
    /* CRC must be disabled */
    hspi->Init.CRCCalculation = SPI_CRCCALCULATION_DISABLE;
 c005842:	687b      	ldr	r3, [r7, #4]
 c005844:	2200      	movs	r2, #0
 c005846:	629a      	str	r2, [r3, #40]	; 0x28
  }

  /*----------------------- SPIx CR1 & CR2 Configuration ---------------------*/
  /* Configure : SPI Mode, Communication Mode, Clock polarity and phase, NSS management,
  Communication speed, First bit and CRC calculation state */
  WRITE_REG(hspi->Instance->CR1, ((hspi->Init.Mode & (SPI_CR1_MSTR | SPI_CR1_SSI)) |
 c005848:	687b      	ldr	r3, [r7, #4]
 c00584a:	685b      	ldr	r3, [r3, #4]
 c00584c:	f403 7282 	and.w	r2, r3, #260	; 0x104
 c005850:	687b      	ldr	r3, [r7, #4]
 c005852:	689b      	ldr	r3, [r3, #8]
 c005854:	f403 4304 	and.w	r3, r3, #33792	; 0x8400
 c005858:	431a      	orrs	r2, r3
 c00585a:	687b      	ldr	r3, [r7, #4]
 c00585c:	691b      	ldr	r3, [r3, #16]
 c00585e:	f003 0302 	and.w	r3, r3, #2
 c005862:	431a      	orrs	r2, r3
 c005864:	687b      	ldr	r3, [r7, #4]
 c005866:	695b      	ldr	r3, [r3, #20]
 c005868:	f003 0301 	and.w	r3, r3, #1
 c00586c:	431a      	orrs	r2, r3
 c00586e:	687b      	ldr	r3, [r7, #4]
 c005870:	699b      	ldr	r3, [r3, #24]
 c005872:	f403 7300 	and.w	r3, r3, #512	; 0x200
 c005876:	431a      	orrs	r2, r3
 c005878:	687b      	ldr	r3, [r7, #4]
 c00587a:	69db      	ldr	r3, [r3, #28]
 c00587c:	f003 0338 	and.w	r3, r3, #56	; 0x38
 c005880:	431a      	orrs	r2, r3
 c005882:	687b      	ldr	r3, [r7, #4]
 c005884:	6a1b      	ldr	r3, [r3, #32]
 c005886:	f003 0380 	and.w	r3, r3, #128	; 0x80
 c00588a:	ea42 0103 	orr.w	r1, r2, r3
 c00588e:	687b      	ldr	r3, [r7, #4]
 c005890:	6a9b      	ldr	r3, [r3, #40]	; 0x28
 c005892:	f403 5200 	and.w	r2, r3, #8192	; 0x2000
 c005896:	687b      	ldr	r3, [r7, #4]
 c005898:	681b      	ldr	r3, [r3, #0]
 c00589a:	430a      	orrs	r2, r1
 c00589c:	601a      	str	r2, [r3, #0]
    }
  }
#endif /* USE_SPI_CRC */

  /* Configure : NSS management, TI Mode, NSS Pulse, Data size and Rx Fifo threshold */
  WRITE_REG(hspi->Instance->CR2, (((hspi->Init.NSS >> 16U) & SPI_CR2_SSOE) |
 c00589e:	687b      	ldr	r3, [r7, #4]
 c0058a0:	699b      	ldr	r3, [r3, #24]
 c0058a2:	0c1b      	lsrs	r3, r3, #16
 c0058a4:	f003 0204 	and.w	r2, r3, #4
 c0058a8:	687b      	ldr	r3, [r7, #4]
 c0058aa:	6a5b      	ldr	r3, [r3, #36]	; 0x24
 c0058ac:	f003 0310 	and.w	r3, r3, #16
 c0058b0:	431a      	orrs	r2, r3
 c0058b2:	687b      	ldr	r3, [r7, #4]
 c0058b4:	6b5b      	ldr	r3, [r3, #52]	; 0x34
 c0058b6:	f003 0308 	and.w	r3, r3, #8
 c0058ba:	431a      	orrs	r2, r3
 c0058bc:	687b      	ldr	r3, [r7, #4]
 c0058be:	68db      	ldr	r3, [r3, #12]
 c0058c0:	f403 6370 	and.w	r3, r3, #3840	; 0xf00
 c0058c4:	ea42 0103 	orr.w	r1, r2, r3
 c0058c8:	68fb      	ldr	r3, [r7, #12]
 c0058ca:	f403 5280 	and.w	r2, r3, #4096	; 0x1000
 c0058ce:	687b      	ldr	r3, [r7, #4]
 c0058d0:	681b      	ldr	r3, [r3, #0]
 c0058d2:	430a      	orrs	r2, r1
 c0058d4:	605a      	str	r2, [r3, #4]
#if defined(SPI_I2SCFGR_I2SMOD)
  /* Activate the SPI mode (Make sure that I2SMOD bit in I2SCFGR register is reset) */
  CLEAR_BIT(hspi->Instance->I2SCFGR, SPI_I2SCFGR_I2SMOD);
#endif /* SPI_I2SCFGR_I2SMOD */

  hspi->ErrorCode = HAL_SPI_ERROR_NONE;
 c0058d6:	687b      	ldr	r3, [r7, #4]
 c0058d8:	2200      	movs	r2, #0
 c0058da:	661a      	str	r2, [r3, #96]	; 0x60
  hspi->State     = HAL_SPI_STATE_READY;
 c0058dc:	687b      	ldr	r3, [r7, #4]
 c0058de:	2201      	movs	r2, #1
 c0058e0:	f883 205d 	strb.w	r2, [r3, #93]	; 0x5d

  return HAL_OK;
 c0058e4:	2300      	movs	r3, #0
}
 c0058e6:	4618      	mov	r0, r3
 c0058e8:	3710      	adds	r7, #16
 c0058ea:	46bd      	mov	sp, r7
 c0058ec:	bd80      	pop	{r7, pc}
	...

0c0058f0 <HAL_SPI_Transmit_DMA>:
  * @param  pData pointer to data buffer
  * @param  Size amount of data to be sent
  * @retval HAL status
  */
HAL_StatusTypeDef HAL_SPI_Transmit_DMA(SPI_HandleTypeDef *hspi, uint8_t *pData, uint16_t Size)
{
 c0058f0:	b580      	push	{r7, lr}
 c0058f2:	b086      	sub	sp, #24
 c0058f4:	af00      	add	r7, sp, #0
 c0058f6:	60f8      	str	r0, [r7, #12]
 c0058f8:	60b9      	str	r1, [r7, #8]
 c0058fa:	4613      	mov	r3, r2
 c0058fc:	80fb      	strh	r3, [r7, #6]
  HAL_StatusTypeDef errorcode = HAL_OK;
 c0058fe:	2300      	movs	r3, #0
 c005900:	75fb      	strb	r3, [r7, #23]

  /* Check Direction parameter */
  assert_param(IS_SPI_DIRECTION_2LINES_OR_1LINE(hspi->Init.Direction));

  /* Process Locked */
  __HAL_LOCK(hspi);
 c005902:	68fb      	ldr	r3, [r7, #12]
 c005904:	f893 305c 	ldrb.w	r3, [r3, #92]	; 0x5c
 c005908:	2b01      	cmp	r3, #1
 c00590a:	d101      	bne.n	c005910 <HAL_SPI_Transmit_DMA+0x20>
 c00590c:	2302      	movs	r3, #2
 c00590e:	e0d8      	b.n	c005ac2 <HAL_SPI_Transmit_DMA+0x1d2>
 c005910:	68fb      	ldr	r3, [r7, #12]
 c005912:	2201      	movs	r2, #1
 c005914:	f883 205c 	strb.w	r2, [r3, #92]	; 0x5c

  if (hspi->State != HAL_SPI_STATE_READY)
 c005918:	68fb      	ldr	r3, [r7, #12]
 c00591a:	f893 305d 	ldrb.w	r3, [r3, #93]	; 0x5d
 c00591e:	b2db      	uxtb	r3, r3
 c005920:	2b01      	cmp	r3, #1
 c005922:	d002      	beq.n	c00592a <HAL_SPI_Transmit_DMA+0x3a>
  {
    errorcode = HAL_BUSY;
 c005924:	2302      	movs	r3, #2
 c005926:	75fb      	strb	r3, [r7, #23]
    goto error;
 c005928:	e0c6      	b.n	c005ab8 <HAL_SPI_Transmit_DMA+0x1c8>
  }

  if ((pData == NULL) || (Size == 0U))
 c00592a:	68bb      	ldr	r3, [r7, #8]
 c00592c:	2b00      	cmp	r3, #0
 c00592e:	d002      	beq.n	c005936 <HAL_SPI_Transmit_DMA+0x46>
 c005930:	88fb      	ldrh	r3, [r7, #6]
 c005932:	2b00      	cmp	r3, #0
 c005934:	d102      	bne.n	c00593c <HAL_SPI_Transmit_DMA+0x4c>
  {
    errorcode = HAL_ERROR;
 c005936:	2301      	movs	r3, #1
 c005938:	75fb      	strb	r3, [r7, #23]
    goto error;
 c00593a:	e0bd      	b.n	c005ab8 <HAL_SPI_Transmit_DMA+0x1c8>
  }

  /* Set the transaction information */
  hspi->State       = HAL_SPI_STATE_BUSY_TX;
 c00593c:	68fb      	ldr	r3, [r7, #12]
 c00593e:	2203      	movs	r2, #3
 c005940:	f883 205d 	strb.w	r2, [r3, #93]	; 0x5d
  hspi->ErrorCode   = HAL_SPI_ERROR_NONE;
 c005944:	68fb      	ldr	r3, [r7, #12]
 c005946:	2200      	movs	r2, #0
 c005948:	661a      	str	r2, [r3, #96]	; 0x60
  hspi->pTxBuffPtr  = (uint8_t *)pData;
 c00594a:	68fb      	ldr	r3, [r7, #12]
 c00594c:	68ba      	ldr	r2, [r7, #8]
 c00594e:	639a      	str	r2, [r3, #56]	; 0x38
  hspi->TxXferSize  = Size;
 c005950:	68fb      	ldr	r3, [r7, #12]
 c005952:	88fa      	ldrh	r2, [r7, #6]
 c005954:	879a      	strh	r2, [r3, #60]	; 0x3c
  hspi->TxXferCount = Size;
 c005956:	68fb      	ldr	r3, [r7, #12]
 c005958:	88fa      	ldrh	r2, [r7, #6]
 c00595a:	87da      	strh	r2, [r3, #62]	; 0x3e

  /* Init field not used in handle to zero */
  hspi->pRxBuffPtr  = (uint8_t *)NULL;
 c00595c:	68fb      	ldr	r3, [r7, #12]
 c00595e:	2200      	movs	r2, #0
 c005960:	641a      	str	r2, [r3, #64]	; 0x40
  hspi->TxISR       = NULL;
 c005962:	68fb      	ldr	r3, [r7, #12]
 c005964:	2200      	movs	r2, #0
 c005966:	651a      	str	r2, [r3, #80]	; 0x50
  hspi->RxISR       = NULL;
 c005968:	68fb      	ldr	r3, [r7, #12]
 c00596a:	2200      	movs	r2, #0
 c00596c:	64da      	str	r2, [r3, #76]	; 0x4c
  hspi->RxXferSize  = 0U;
 c00596e:	68fb      	ldr	r3, [r7, #12]
 c005970:	2200      	movs	r2, #0
 c005972:	f8a3 2044 	strh.w	r2, [r3, #68]	; 0x44
  hspi->RxXferCount = 0U;
 c005976:	68fb      	ldr	r3, [r7, #12]
 c005978:	2200      	movs	r2, #0
 c00597a:	f8a3 2046 	strh.w	r2, [r3, #70]	; 0x46

  /* Configure communication direction : 1Line */
  if (hspi->Init.Direction == SPI_DIRECTION_1LINE)
 c00597e:	68fb      	ldr	r3, [r7, #12]
 c005980:	689b      	ldr	r3, [r3, #8]
 c005982:	f5b3 4f00 	cmp.w	r3, #32768	; 0x8000
 c005986:	d10f      	bne.n	c0059a8 <HAL_SPI_Transmit_DMA+0xb8>
  {
    /* Disable SPI Peripheral before set 1Line direction (BIDIOE bit) */
    __HAL_SPI_DISABLE(hspi);
 c005988:	68fb      	ldr	r3, [r7, #12]
 c00598a:	681b      	ldr	r3, [r3, #0]
 c00598c:	681a      	ldr	r2, [r3, #0]
 c00598e:	68fb      	ldr	r3, [r7, #12]
 c005990:	681b      	ldr	r3, [r3, #0]
 c005992:	f022 0240 	bic.w	r2, r2, #64	; 0x40
 c005996:	601a      	str	r2, [r3, #0]
    SPI_1LINE_TX(hspi);
 c005998:	68fb      	ldr	r3, [r7, #12]
 c00599a:	681b      	ldr	r3, [r3, #0]
 c00599c:	681a      	ldr	r2, [r3, #0]
 c00599e:	68fb      	ldr	r3, [r7, #12]
 c0059a0:	681b      	ldr	r3, [r3, #0]
 c0059a2:	f442 4280 	orr.w	r2, r2, #16384	; 0x4000
 c0059a6:	601a      	str	r2, [r3, #0]
    SPI_RESET_CRC(hspi);
  }
#endif /* USE_SPI_CRC */

  /* Set the SPI TxDMA Half transfer complete callback */
  hspi->hdmatx->XferHalfCpltCallback = SPI_DMAHalfTransmitCplt;
 c0059a8:	68fb      	ldr	r3, [r7, #12]
 c0059aa:	6d5b      	ldr	r3, [r3, #84]	; 0x54
 c0059ac:	4a47      	ldr	r2, [pc, #284]	; (c005acc <HAL_SPI_Transmit_DMA+0x1dc>)
 c0059ae:	631a      	str	r2, [r3, #48]	; 0x30

  /* Set the SPI TxDMA transfer complete callback */
  hspi->hdmatx->XferCpltCallback = SPI_DMATransmitCplt;
 c0059b0:	68fb      	ldr	r3, [r7, #12]
 c0059b2:	6d5b      	ldr	r3, [r3, #84]	; 0x54
 c0059b4:	4a46      	ldr	r2, [pc, #280]	; (c005ad0 <HAL_SPI_Transmit_DMA+0x1e0>)
 c0059b6:	62da      	str	r2, [r3, #44]	; 0x2c

  /* Set the DMA error callback */
  hspi->hdmatx->XferErrorCallback = SPI_DMAError;
 c0059b8:	68fb      	ldr	r3, [r7, #12]
 c0059ba:	6d5b      	ldr	r3, [r3, #84]	; 0x54
 c0059bc:	4a45      	ldr	r2, [pc, #276]	; (c005ad4 <HAL_SPI_Transmit_DMA+0x1e4>)
 c0059be:	63da      	str	r2, [r3, #60]	; 0x3c

  /* Set the DMA AbortCpltCallback */
  hspi->hdmatx->XferAbortCallback = NULL;
 c0059c0:	68fb      	ldr	r3, [r7, #12]
 c0059c2:	6d5b      	ldr	r3, [r3, #84]	; 0x54
 c0059c4:	2200      	movs	r2, #0
 c0059c6:	641a      	str	r2, [r3, #64]	; 0x40

  CLEAR_BIT(hspi->Instance->CR2, SPI_CR2_LDMATX);
 c0059c8:	68fb      	ldr	r3, [r7, #12]
 c0059ca:	681b      	ldr	r3, [r3, #0]
 c0059cc:	685a      	ldr	r2, [r3, #4]
 c0059ce:	68fb      	ldr	r3, [r7, #12]
 c0059d0:	681b      	ldr	r3, [r3, #0]
 c0059d2:	f422 4280 	bic.w	r2, r2, #16384	; 0x4000
 c0059d6:	605a      	str	r2, [r3, #4]
  /* Packing mode is enabled only if the DMA setting is HALWORD */
  if ((hspi->Init.DataSize <= SPI_DATASIZE_8BIT) && (hspi->hdmatx->Init.MemDataAlignment == DMA_MDATAALIGN_HALFWORD))
 c0059d8:	68fb      	ldr	r3, [r7, #12]
 c0059da:	68db      	ldr	r3, [r3, #12]
 c0059dc:	f5b3 6fe0 	cmp.w	r3, #1792	; 0x700
 c0059e0:	d82d      	bhi.n	c005a3e <HAL_SPI_Transmit_DMA+0x14e>
 c0059e2:	68fb      	ldr	r3, [r7, #12]
 c0059e4:	6d5b      	ldr	r3, [r3, #84]	; 0x54
 c0059e6:	699b      	ldr	r3, [r3, #24]
 c0059e8:	f5b3 6f80 	cmp.w	r3, #1024	; 0x400
 c0059ec:	d127      	bne.n	c005a3e <HAL_SPI_Transmit_DMA+0x14e>
  {
    /* Check the even/odd of the data size + crc if enabled */
    if ((hspi->TxXferCount & 0x1U) == 0U)
 c0059ee:	68fb      	ldr	r3, [r7, #12]
 c0059f0:	8fdb      	ldrh	r3, [r3, #62]	; 0x3e
 c0059f2:	b29b      	uxth	r3, r3
 c0059f4:	f003 0301 	and.w	r3, r3, #1
 c0059f8:	2b00      	cmp	r3, #0
 c0059fa:	d10f      	bne.n	c005a1c <HAL_SPI_Transmit_DMA+0x12c>
    {
      CLEAR_BIT(hspi->Instance->CR2, SPI_CR2_LDMATX);
 c0059fc:	68fb      	ldr	r3, [r7, #12]
 c0059fe:	681b      	ldr	r3, [r3, #0]
 c005a00:	685a      	ldr	r2, [r3, #4]
 c005a02:	68fb      	ldr	r3, [r7, #12]
 c005a04:	681b      	ldr	r3, [r3, #0]
 c005a06:	f422 4280 	bic.w	r2, r2, #16384	; 0x4000
 c005a0a:	605a      	str	r2, [r3, #4]
      hspi->TxXferCount = (hspi->TxXferCount >> 1U);
 c005a0c:	68fb      	ldr	r3, [r7, #12]
 c005a0e:	8fdb      	ldrh	r3, [r3, #62]	; 0x3e
 c005a10:	b29b      	uxth	r3, r3
 c005a12:	085b      	lsrs	r3, r3, #1
 c005a14:	b29a      	uxth	r2, r3
 c005a16:	68fb      	ldr	r3, [r7, #12]
 c005a18:	87da      	strh	r2, [r3, #62]	; 0x3e
 c005a1a:	e010      	b.n	c005a3e <HAL_SPI_Transmit_DMA+0x14e>
    }
    else
    {
      SET_BIT(hspi->Instance->CR2, SPI_CR2_LDMATX);
 c005a1c:	68fb      	ldr	r3, [r7, #12]
 c005a1e:	681b      	ldr	r3, [r3, #0]
 c005a20:	685a      	ldr	r2, [r3, #4]
 c005a22:	68fb      	ldr	r3, [r7, #12]
 c005a24:	681b      	ldr	r3, [r3, #0]
 c005a26:	f442 4280 	orr.w	r2, r2, #16384	; 0x4000
 c005a2a:	605a      	str	r2, [r3, #4]
      hspi->TxXferCount = (hspi->TxXferCount >> 1U) + 1U;
 c005a2c:	68fb      	ldr	r3, [r7, #12]
 c005a2e:	8fdb      	ldrh	r3, [r3, #62]	; 0x3e
 c005a30:	b29b      	uxth	r3, r3
 c005a32:	085b      	lsrs	r3, r3, #1
 c005a34:	b29b      	uxth	r3, r3
 c005a36:	3301      	adds	r3, #1
 c005a38:	b29a      	uxth	r2, r3
 c005a3a:	68fb      	ldr	r3, [r7, #12]
 c005a3c:	87da      	strh	r2, [r3, #62]	; 0x3e
    }
  }

  /* Enable the Tx DMA Stream/Channel */
  if (HAL_OK != HAL_DMA_Start_IT(hspi->hdmatx, (uint32_t)hspi->pTxBuffPtr, (uint32_t)&hspi->Instance->DR,
 c005a3e:	68fb      	ldr	r3, [r7, #12]
 c005a40:	6d58      	ldr	r0, [r3, #84]	; 0x54
 c005a42:	68fb      	ldr	r3, [r7, #12]
 c005a44:	6b9b      	ldr	r3, [r3, #56]	; 0x38
 c005a46:	4619      	mov	r1, r3
 c005a48:	68fb      	ldr	r3, [r7, #12]
 c005a4a:	681b      	ldr	r3, [r3, #0]
 c005a4c:	330c      	adds	r3, #12
 c005a4e:	461a      	mov	r2, r3
                                 hspi->TxXferCount))
 c005a50:	68fb      	ldr	r3, [r7, #12]
 c005a52:	8fdb      	ldrh	r3, [r3, #62]	; 0x3e
 c005a54:	b29b      	uxth	r3, r3
  if (HAL_OK != HAL_DMA_Start_IT(hspi->hdmatx, (uint32_t)hspi->pTxBuffPtr, (uint32_t)&hspi->Instance->DR,
 c005a56:	f7fc ff0d 	bl	c002874 <HAL_DMA_Start_IT>
 c005a5a:	4603      	mov	r3, r0
 c005a5c:	2b00      	cmp	r3, #0
 c005a5e:	d00c      	beq.n	c005a7a <HAL_SPI_Transmit_DMA+0x18a>
  {
    /* Update SPI error code */
    SET_BIT(hspi->ErrorCode, HAL_SPI_ERROR_DMA);
 c005a60:	68fb      	ldr	r3, [r7, #12]
 c005a62:	6e1b      	ldr	r3, [r3, #96]	; 0x60
 c005a64:	f043 0210 	orr.w	r2, r3, #16
 c005a68:	68fb      	ldr	r3, [r7, #12]
 c005a6a:	661a      	str	r2, [r3, #96]	; 0x60
    errorcode = HAL_ERROR;
 c005a6c:	2301      	movs	r3, #1
 c005a6e:	75fb      	strb	r3, [r7, #23]

    hspi->State = HAL_SPI_STATE_READY;
 c005a70:	68fb      	ldr	r3, [r7, #12]
 c005a72:	2201      	movs	r2, #1
 c005a74:	f883 205d 	strb.w	r2, [r3, #93]	; 0x5d
    goto error;
 c005a78:	e01e      	b.n	c005ab8 <HAL_SPI_Transmit_DMA+0x1c8>
  }

  /* Check if the SPI is already enabled */
  if ((hspi->Instance->CR1 & SPI_CR1_SPE) != SPI_CR1_SPE)
 c005a7a:	68fb      	ldr	r3, [r7, #12]
 c005a7c:	681b      	ldr	r3, [r3, #0]
 c005a7e:	681b      	ldr	r3, [r3, #0]
 c005a80:	f003 0340 	and.w	r3, r3, #64	; 0x40
 c005a84:	2b40      	cmp	r3, #64	; 0x40
 c005a86:	d007      	beq.n	c005a98 <HAL_SPI_Transmit_DMA+0x1a8>
  {
    /* Enable SPI peripheral */
    __HAL_SPI_ENABLE(hspi);
 c005a88:	68fb      	ldr	r3, [r7, #12]
 c005a8a:	681b      	ldr	r3, [r3, #0]
 c005a8c:	681a      	ldr	r2, [r3, #0]
 c005a8e:	68fb      	ldr	r3, [r7, #12]
 c005a90:	681b      	ldr	r3, [r3, #0]
 c005a92:	f042 0240 	orr.w	r2, r2, #64	; 0x40
 c005a96:	601a      	str	r2, [r3, #0]
  }

  /* Enable the SPI Error Interrupt Bit */
  __HAL_SPI_ENABLE_IT(hspi, (SPI_IT_ERR));
 c005a98:	68fb      	ldr	r3, [r7, #12]
 c005a9a:	681b      	ldr	r3, [r3, #0]
 c005a9c:	685a      	ldr	r2, [r3, #4]
 c005a9e:	68fb      	ldr	r3, [r7, #12]
 c005aa0:	681b      	ldr	r3, [r3, #0]
 c005aa2:	f042 0220 	orr.w	r2, r2, #32
 c005aa6:	605a      	str	r2, [r3, #4]

  /* Enable Tx DMA Request */
  SET_BIT(hspi->Instance->CR2, SPI_CR2_TXDMAEN);
 c005aa8:	68fb      	ldr	r3, [r7, #12]
 c005aaa:	681b      	ldr	r3, [r3, #0]
 c005aac:	685a      	ldr	r2, [r3, #4]
 c005aae:	68fb      	ldr	r3, [r7, #12]
 c005ab0:	681b      	ldr	r3, [r3, #0]
 c005ab2:	f042 0202 	orr.w	r2, r2, #2
 c005ab6:	605a      	str	r2, [r3, #4]

error :
  /* Process Unlocked */
  __HAL_UNLOCK(hspi);
 c005ab8:	68fb      	ldr	r3, [r7, #12]
 c005aba:	2200      	movs	r2, #0
 c005abc:	f883 205c 	strb.w	r2, [r3, #92]	; 0x5c
  return errorcode;
 c005ac0:	7dfb      	ldrb	r3, [r7, #23]
}
 c005ac2:	4618      	mov	r0, r3
 c005ac4:	3718      	adds	r7, #24
 c005ac6:	46bd      	mov	sp, r7
 c005ac8:	bd80      	pop	{r7, pc}
 c005aca:	bf00      	nop
 c005acc:	0c006267 	.word	0x0c006267
 c005ad0:	0c006089 	.word	0x0c006089
 c005ad4:	0c0062bb 	.word	0x0c0062bb

0c005ad8 <HAL_SPI_Receive_DMA>:
  * @note   When the CRC feature is enabled the pData Length must be Size + 1.
  * @param  Size amount of data to be sent
  * @retval HAL status
  */
HAL_StatusTypeDef HAL_SPI_Receive_DMA(SPI_HandleTypeDef *hspi, uint8_t *pData, uint16_t Size)
{
 c005ad8:	b580      	push	{r7, lr}
 c005ada:	b086      	sub	sp, #24
 c005adc:	af00      	add	r7, sp, #0
 c005ade:	60f8      	str	r0, [r7, #12]
 c005ae0:	60b9      	str	r1, [r7, #8]
 c005ae2:	4613      	mov	r3, r2
 c005ae4:	80fb      	strh	r3, [r7, #6]
  HAL_StatusTypeDef errorcode = HAL_OK;
 c005ae6:	2300      	movs	r3, #0
 c005ae8:	75fb      	strb	r3, [r7, #23]

  /* Check rx dma handle */
  assert_param(IS_SPI_DMA_HANDLE(hspi->hdmarx));

  if ((hspi->Init.Direction == SPI_DIRECTION_2LINES) && (hspi->Init.Mode == SPI_MODE_MASTER))
 c005aea:	68fb      	ldr	r3, [r7, #12]
 c005aec:	689b      	ldr	r3, [r3, #8]
 c005aee:	2b00      	cmp	r3, #0
 c005af0:	d110      	bne.n	c005b14 <HAL_SPI_Receive_DMA+0x3c>
 c005af2:	68fb      	ldr	r3, [r7, #12]
 c005af4:	685b      	ldr	r3, [r3, #4]
 c005af6:	f5b3 7f82 	cmp.w	r3, #260	; 0x104
 c005afa:	d10b      	bne.n	c005b14 <HAL_SPI_Receive_DMA+0x3c>
  {
    hspi->State = HAL_SPI_STATE_BUSY_RX;
 c005afc:	68fb      	ldr	r3, [r7, #12]
 c005afe:	2204      	movs	r2, #4
 c005b00:	f883 205d 	strb.w	r2, [r3, #93]	; 0x5d

    /* Check tx dma handle */
    assert_param(IS_SPI_DMA_HANDLE(hspi->hdmatx));

    /* Call transmit-receive function to send Dummy data on Tx line and generate clock on CLK line */
    return HAL_SPI_TransmitReceive_DMA(hspi, pData, pData, Size);
 c005b04:	88fb      	ldrh	r3, [r7, #6]
 c005b06:	68ba      	ldr	r2, [r7, #8]
 c005b08:	68b9      	ldr	r1, [r7, #8]
 c005b0a:	68f8      	ldr	r0, [r7, #12]
 c005b0c:	f000 f908 	bl	c005d20 <HAL_SPI_TransmitReceive_DMA>
 c005b10:	4603      	mov	r3, r0
 c005b12:	e0fb      	b.n	c005d0c <HAL_SPI_Receive_DMA+0x234>
  }

  /* Process Locked */
  __HAL_LOCK(hspi);
 c005b14:	68fb      	ldr	r3, [r7, #12]
 c005b16:	f893 305c 	ldrb.w	r3, [r3, #92]	; 0x5c
 c005b1a:	2b01      	cmp	r3, #1
 c005b1c:	d101      	bne.n	c005b22 <HAL_SPI_Receive_DMA+0x4a>
 c005b1e:	2302      	movs	r3, #2
 c005b20:	e0f4      	b.n	c005d0c <HAL_SPI_Receive_DMA+0x234>
 c005b22:	68fb      	ldr	r3, [r7, #12]
 c005b24:	2201      	movs	r2, #1
 c005b26:	f883 205c 	strb.w	r2, [r3, #92]	; 0x5c

  if (hspi->State != HAL_SPI_STATE_READY)
 c005b2a:	68fb      	ldr	r3, [r7, #12]
 c005b2c:	f893 305d 	ldrb.w	r3, [r3, #93]	; 0x5d
 c005b30:	b2db      	uxtb	r3, r3
 c005b32:	2b01      	cmp	r3, #1
 c005b34:	d002      	beq.n	c005b3c <HAL_SPI_Receive_DMA+0x64>
  {
    errorcode = HAL_BUSY;
 c005b36:	2302      	movs	r3, #2
 c005b38:	75fb      	strb	r3, [r7, #23]
    goto error;
 c005b3a:	e0e2      	b.n	c005d02 <HAL_SPI_Receive_DMA+0x22a>
  }

  if ((pData == NULL) || (Size == 0U))
 c005b3c:	68bb      	ldr	r3, [r7, #8]
 c005b3e:	2b00      	cmp	r3, #0
 c005b40:	d002      	beq.n	c005b48 <HAL_SPI_Receive_DMA+0x70>
 c005b42:	88fb      	ldrh	r3, [r7, #6]
 c005b44:	2b00      	cmp	r3, #0
 c005b46:	d102      	bne.n	c005b4e <HAL_SPI_Receive_DMA+0x76>
  {
    errorcode = HAL_ERROR;
 c005b48:	2301      	movs	r3, #1
 c005b4a:	75fb      	strb	r3, [r7, #23]
    goto error;
 c005b4c:	e0d9      	b.n	c005d02 <HAL_SPI_Receive_DMA+0x22a>
  }

  /* Set the transaction information */
  hspi->State       = HAL_SPI_STATE_BUSY_RX;
 c005b4e:	68fb      	ldr	r3, [r7, #12]
 c005b50:	2204      	movs	r2, #4
 c005b52:	f883 205d 	strb.w	r2, [r3, #93]	; 0x5d
  hspi->ErrorCode   = HAL_SPI_ERROR_NONE;
 c005b56:	68fb      	ldr	r3, [r7, #12]
 c005b58:	2200      	movs	r2, #0
 c005b5a:	661a      	str	r2, [r3, #96]	; 0x60
  hspi->pRxBuffPtr  = (uint8_t *)pData;
 c005b5c:	68fb      	ldr	r3, [r7, #12]
 c005b5e:	68ba      	ldr	r2, [r7, #8]
 c005b60:	641a      	str	r2, [r3, #64]	; 0x40
  hspi->RxXferSize  = Size;
 c005b62:	68fb      	ldr	r3, [r7, #12]
 c005b64:	88fa      	ldrh	r2, [r7, #6]
 c005b66:	f8a3 2044 	strh.w	r2, [r3, #68]	; 0x44
  hspi->RxXferCount = Size;
 c005b6a:	68fb      	ldr	r3, [r7, #12]
 c005b6c:	88fa      	ldrh	r2, [r7, #6]
 c005b6e:	f8a3 2046 	strh.w	r2, [r3, #70]	; 0x46

  /*Init field not used in handle to zero */
  hspi->RxISR       = NULL;
 c005b72:	68fb      	ldr	r3, [r7, #12]
 c005b74:	2200      	movs	r2, #0
 c005b76:	64da      	str	r2, [r3, #76]	; 0x4c
  hspi->TxISR       = NULL;
 c005b78:	68fb      	ldr	r3, [r7, #12]
 c005b7a:	2200      	movs	r2, #0
 c005b7c:	651a      	str	r2, [r3, #80]	; 0x50
  hspi->TxXferSize  = 0U;
 c005b7e:	68fb      	ldr	r3, [r7, #12]
 c005b80:	2200      	movs	r2, #0
 c005b82:	879a      	strh	r2, [r3, #60]	; 0x3c
  hspi->TxXferCount = 0U;
 c005b84:	68fb      	ldr	r3, [r7, #12]
 c005b86:	2200      	movs	r2, #0
 c005b88:	87da      	strh	r2, [r3, #62]	; 0x3e

  /* Configure communication direction : 1Line */
  if (hspi->Init.Direction == SPI_DIRECTION_1LINE)
 c005b8a:	68fb      	ldr	r3, [r7, #12]
 c005b8c:	689b      	ldr	r3, [r3, #8]
 c005b8e:	f5b3 4f00 	cmp.w	r3, #32768	; 0x8000
 c005b92:	d10f      	bne.n	c005bb4 <HAL_SPI_Receive_DMA+0xdc>
  {
    /* Disable SPI Peripheral before set 1Line direction (BIDIOE bit) */
    __HAL_SPI_DISABLE(hspi);
 c005b94:	68fb      	ldr	r3, [r7, #12]
 c005b96:	681b      	ldr	r3, [r3, #0]
 c005b98:	681a      	ldr	r2, [r3, #0]
 c005b9a:	68fb      	ldr	r3, [r7, #12]
 c005b9c:	681b      	ldr	r3, [r3, #0]
 c005b9e:	f022 0240 	bic.w	r2, r2, #64	; 0x40
 c005ba2:	601a      	str	r2, [r3, #0]
    SPI_1LINE_RX(hspi);
 c005ba4:	68fb      	ldr	r3, [r7, #12]
 c005ba6:	681b      	ldr	r3, [r3, #0]
 c005ba8:	681a      	ldr	r2, [r3, #0]
 c005baa:	68fb      	ldr	r3, [r7, #12]
 c005bac:	681b      	ldr	r3, [r3, #0]
 c005bae:	f422 4280 	bic.w	r2, r2, #16384	; 0x4000
 c005bb2:	601a      	str	r2, [r3, #0]
    SPI_RESET_CRC(hspi);
  }
#endif /* USE_SPI_CRC */


  CLEAR_BIT(hspi->Instance->CR2, SPI_CR2_LDMARX);
 c005bb4:	68fb      	ldr	r3, [r7, #12]
 c005bb6:	681b      	ldr	r3, [r3, #0]
 c005bb8:	685a      	ldr	r2, [r3, #4]
 c005bba:	68fb      	ldr	r3, [r7, #12]
 c005bbc:	681b      	ldr	r3, [r3, #0]
 c005bbe:	f422 5200 	bic.w	r2, r2, #8192	; 0x2000
 c005bc2:	605a      	str	r2, [r3, #4]
  if (hspi->Init.DataSize > SPI_DATASIZE_8BIT)
 c005bc4:	68fb      	ldr	r3, [r7, #12]
 c005bc6:	68db      	ldr	r3, [r3, #12]
 c005bc8:	f5b3 6fe0 	cmp.w	r3, #1792	; 0x700
 c005bcc:	d908      	bls.n	c005be0 <HAL_SPI_Receive_DMA+0x108>
  {
    /* Set RX Fifo threshold according the reception data length: 16bit */
    CLEAR_BIT(hspi->Instance->CR2, SPI_RXFIFO_THRESHOLD);
 c005bce:	68fb      	ldr	r3, [r7, #12]
 c005bd0:	681b      	ldr	r3, [r3, #0]
 c005bd2:	685a      	ldr	r2, [r3, #4]
 c005bd4:	68fb      	ldr	r3, [r7, #12]
 c005bd6:	681b      	ldr	r3, [r3, #0]
 c005bd8:	f422 5280 	bic.w	r2, r2, #4096	; 0x1000
 c005bdc:	605a      	str	r2, [r3, #4]
 c005bde:	e042      	b.n	c005c66 <HAL_SPI_Receive_DMA+0x18e>
  }
  else
  {
    /* Set RX Fifo threshold according the reception data length: 8bit */
    SET_BIT(hspi->Instance->CR2, SPI_RXFIFO_THRESHOLD);
 c005be0:	68fb      	ldr	r3, [r7, #12]
 c005be2:	681b      	ldr	r3, [r3, #0]
 c005be4:	685a      	ldr	r2, [r3, #4]
 c005be6:	68fb      	ldr	r3, [r7, #12]
 c005be8:	681b      	ldr	r3, [r3, #0]
 c005bea:	f442 5280 	orr.w	r2, r2, #4096	; 0x1000
 c005bee:	605a      	str	r2, [r3, #4]

    if (hspi->hdmarx->Init.MemDataAlignment == DMA_MDATAALIGN_HALFWORD)
 c005bf0:	68fb      	ldr	r3, [r7, #12]
 c005bf2:	6d9b      	ldr	r3, [r3, #88]	; 0x58
 c005bf4:	699b      	ldr	r3, [r3, #24]
 c005bf6:	f5b3 6f80 	cmp.w	r3, #1024	; 0x400
 c005bfa:	d134      	bne.n	c005c66 <HAL_SPI_Receive_DMA+0x18e>
    {
      /* Set RX Fifo threshold according the reception data length: 16bit */
      CLEAR_BIT(hspi->Instance->CR2, SPI_RXFIFO_THRESHOLD);
 c005bfc:	68fb      	ldr	r3, [r7, #12]
 c005bfe:	681b      	ldr	r3, [r3, #0]
 c005c00:	685a      	ldr	r2, [r3, #4]
 c005c02:	68fb      	ldr	r3, [r7, #12]
 c005c04:	681b      	ldr	r3, [r3, #0]
 c005c06:	f422 5280 	bic.w	r2, r2, #4096	; 0x1000
 c005c0a:	605a      	str	r2, [r3, #4]

      if ((hspi->RxXferCount & 0x1U) == 0x0U)
 c005c0c:	68fb      	ldr	r3, [r7, #12]
 c005c0e:	f8b3 3046 	ldrh.w	r3, [r3, #70]	; 0x46
 c005c12:	b29b      	uxth	r3, r3
 c005c14:	f003 0301 	and.w	r3, r3, #1
 c005c18:	2b00      	cmp	r3, #0
 c005c1a:	d111      	bne.n	c005c40 <HAL_SPI_Receive_DMA+0x168>
      {
        CLEAR_BIT(hspi->Instance->CR2, SPI_CR2_LDMARX);
 c005c1c:	68fb      	ldr	r3, [r7, #12]
 c005c1e:	681b      	ldr	r3, [r3, #0]
 c005c20:	685a      	ldr	r2, [r3, #4]
 c005c22:	68fb      	ldr	r3, [r7, #12]
 c005c24:	681b      	ldr	r3, [r3, #0]
 c005c26:	f422 5200 	bic.w	r2, r2, #8192	; 0x2000
 c005c2a:	605a      	str	r2, [r3, #4]
        hspi->RxXferCount = hspi->RxXferCount >> 1U;
 c005c2c:	68fb      	ldr	r3, [r7, #12]
 c005c2e:	f8b3 3046 	ldrh.w	r3, [r3, #70]	; 0x46
 c005c32:	b29b      	uxth	r3, r3
 c005c34:	085b      	lsrs	r3, r3, #1
 c005c36:	b29a      	uxth	r2, r3
 c005c38:	68fb      	ldr	r3, [r7, #12]
 c005c3a:	f8a3 2046 	strh.w	r2, [r3, #70]	; 0x46
 c005c3e:	e012      	b.n	c005c66 <HAL_SPI_Receive_DMA+0x18e>
      }
      else
      {
        SET_BIT(hspi->Instance->CR2, SPI_CR2_LDMARX);
 c005c40:	68fb      	ldr	r3, [r7, #12]
 c005c42:	681b      	ldr	r3, [r3, #0]
 c005c44:	685a      	ldr	r2, [r3, #4]
 c005c46:	68fb      	ldr	r3, [r7, #12]
 c005c48:	681b      	ldr	r3, [r3, #0]
 c005c4a:	f442 5200 	orr.w	r2, r2, #8192	; 0x2000
 c005c4e:	605a      	str	r2, [r3, #4]
        hspi->RxXferCount = (hspi->RxXferCount >> 1U) + 1U;
 c005c50:	68fb      	ldr	r3, [r7, #12]
 c005c52:	f8b3 3046 	ldrh.w	r3, [r3, #70]	; 0x46
 c005c56:	b29b      	uxth	r3, r3
 c005c58:	085b      	lsrs	r3, r3, #1
 c005c5a:	b29b      	uxth	r3, r3
 c005c5c:	3301      	adds	r3, #1
 c005c5e:	b29a      	uxth	r2, r3
 c005c60:	68fb      	ldr	r3, [r7, #12]
 c005c62:	f8a3 2046 	strh.w	r2, [r3, #70]	; 0x46
      }
    }
  }

  /* Set the SPI RxDMA Half transfer complete callback */
  hspi->hdmarx->XferHalfCpltCallback = SPI_DMAHalfReceiveCplt;
 c005c66:	68fb      	ldr	r3, [r7, #12]
 c005c68:	6d9b      	ldr	r3, [r3, #88]	; 0x58
 c005c6a:	4a2a      	ldr	r2, [pc, #168]	; (c005d14 <HAL_SPI_Receive_DMA+0x23c>)
 c005c6c:	631a      	str	r2, [r3, #48]	; 0x30

  /* Set the SPI Rx DMA transfer complete callback */
  hspi->hdmarx->XferCpltCallback = SPI_DMAReceiveCplt;
 c005c6e:	68fb      	ldr	r3, [r7, #12]
 c005c70:	6d9b      	ldr	r3, [r3, #88]	; 0x58
 c005c72:	4a29      	ldr	r2, [pc, #164]	; (c005d18 <HAL_SPI_Receive_DMA+0x240>)
 c005c74:	62da      	str	r2, [r3, #44]	; 0x2c

  /* Set the DMA error callback */
  hspi->hdmarx->XferErrorCallback = SPI_DMAError;
 c005c76:	68fb      	ldr	r3, [r7, #12]
 c005c78:	6d9b      	ldr	r3, [r3, #88]	; 0x58
 c005c7a:	4a28      	ldr	r2, [pc, #160]	; (c005d1c <HAL_SPI_Receive_DMA+0x244>)
 c005c7c:	63da      	str	r2, [r3, #60]	; 0x3c

  /* Set the DMA AbortCpltCallback */
  hspi->hdmarx->XferAbortCallback = NULL;
 c005c7e:	68fb      	ldr	r3, [r7, #12]
 c005c80:	6d9b      	ldr	r3, [r3, #88]	; 0x58
 c005c82:	2200      	movs	r2, #0
 c005c84:	641a      	str	r2, [r3, #64]	; 0x40

  /* Enable the Rx DMA Stream/Channel  */
  if (HAL_OK != HAL_DMA_Start_IT(hspi->hdmarx, (uint32_t)&hspi->Instance->DR, (uint32_t)hspi->pRxBuffPtr,
 c005c86:	68fb      	ldr	r3, [r7, #12]
 c005c88:	6d98      	ldr	r0, [r3, #88]	; 0x58
 c005c8a:	68fb      	ldr	r3, [r7, #12]
 c005c8c:	681b      	ldr	r3, [r3, #0]
 c005c8e:	330c      	adds	r3, #12
 c005c90:	4619      	mov	r1, r3
 c005c92:	68fb      	ldr	r3, [r7, #12]
 c005c94:	6c1b      	ldr	r3, [r3, #64]	; 0x40
 c005c96:	461a      	mov	r2, r3
                                 hspi->RxXferCount))
 c005c98:	68fb      	ldr	r3, [r7, #12]
 c005c9a:	f8b3 3046 	ldrh.w	r3, [r3, #70]	; 0x46
 c005c9e:	b29b      	uxth	r3, r3
  if (HAL_OK != HAL_DMA_Start_IT(hspi->hdmarx, (uint32_t)&hspi->Instance->DR, (uint32_t)hspi->pRxBuffPtr,
 c005ca0:	f7fc fde8 	bl	c002874 <HAL_DMA_Start_IT>
 c005ca4:	4603      	mov	r3, r0
 c005ca6:	2b00      	cmp	r3, #0
 c005ca8:	d00c      	beq.n	c005cc4 <HAL_SPI_Receive_DMA+0x1ec>
  {
    /* Update SPI error code */
    SET_BIT(hspi->ErrorCode, HAL_SPI_ERROR_DMA);
 c005caa:	68fb      	ldr	r3, [r7, #12]
 c005cac:	6e1b      	ldr	r3, [r3, #96]	; 0x60
 c005cae:	f043 0210 	orr.w	r2, r3, #16
 c005cb2:	68fb      	ldr	r3, [r7, #12]
 c005cb4:	661a      	str	r2, [r3, #96]	; 0x60
    errorcode = HAL_ERROR;
 c005cb6:	2301      	movs	r3, #1
 c005cb8:	75fb      	strb	r3, [r7, #23]

    hspi->State = HAL_SPI_STATE_READY;
 c005cba:	68fb      	ldr	r3, [r7, #12]
 c005cbc:	2201      	movs	r2, #1
 c005cbe:	f883 205d 	strb.w	r2, [r3, #93]	; 0x5d
    goto error;
 c005cc2:	e01e      	b.n	c005d02 <HAL_SPI_Receive_DMA+0x22a>
  }

  /* Check if the SPI is already enabled */
  if ((hspi->Instance->CR1 & SPI_CR1_SPE) != SPI_CR1_SPE)
 c005cc4:	68fb      	ldr	r3, [r7, #12]
 c005cc6:	681b      	ldr	r3, [r3, #0]
 c005cc8:	681b      	ldr	r3, [r3, #0]
 c005cca:	f003 0340 	and.w	r3, r3, #64	; 0x40
 c005cce:	2b40      	cmp	r3, #64	; 0x40
 c005cd0:	d007      	beq.n	c005ce2 <HAL_SPI_Receive_DMA+0x20a>
  {
    /* Enable SPI peripheral */
    __HAL_SPI_ENABLE(hspi);
 c005cd2:	68fb      	ldr	r3, [r7, #12]
 c005cd4:	681b      	ldr	r3, [r3, #0]
 c005cd6:	681a      	ldr	r2, [r3, #0]
 c005cd8:	68fb      	ldr	r3, [r7, #12]
 c005cda:	681b      	ldr	r3, [r3, #0]
 c005cdc:	f042 0240 	orr.w	r2, r2, #64	; 0x40
 c005ce0:	601a      	str	r2, [r3, #0]
  }

  /* Enable the SPI Error Interrupt Bit */
  __HAL_SPI_ENABLE_IT(hspi, (SPI_IT_ERR));
 c005ce2:	68fb      	ldr	r3, [r7, #12]
 c005ce4:	681b      	ldr	r3, [r3, #0]
 c005ce6:	685a      	ldr	r2, [r3, #4]
 c005ce8:	68fb      	ldr	r3, [r7, #12]
 c005cea:	681b      	ldr	r3, [r3, #0]
 c005cec:	f042 0220 	orr.w	r2, r2, #32
 c005cf0:	605a      	str	r2, [r3, #4]

  /* Enable Rx DMA Request */
  SET_BIT(hspi->Instance->CR2, SPI_CR2_RXDMAEN);
 c005cf2:	68fb      	ldr	r3, [r7, #12]
 c005cf4:	681b      	ldr	r3, [r3, #0]
 c005cf6:	685a      	ldr	r2, [r3, #4]
 c005cf8:	68fb      	ldr	r3, [r7, #12]
 c005cfa:	681b      	ldr	r3, [r3, #0]
 c005cfc:	f042 0201 	orr.w	r2, r2, #1
 c005d00:	605a      	str	r2, [r3, #4]

error:
  /* Process Unlocked */
  __HAL_UNLOCK(hspi);
 c005d02:	68fb      	ldr	r3, [r7, #12]
 c005d04:	2200      	movs	r2, #0
 c005d06:	f883 205c 	strb.w	r2, [r3, #92]	; 0x5c
  return errorcode;
 c005d0a:	7dfb      	ldrb	r3, [r7, #23]
}
 c005d0c:	4618      	mov	r0, r3
 c005d0e:	3718      	adds	r7, #24
 c005d10:	46bd      	mov	sp, r7
 c005d12:	bd80      	pop	{r7, pc}
 c005d14:	0c006283 	.word	0x0c006283
 c005d18:	0c00612f 	.word	0x0c00612f
 c005d1c:	0c0062bb 	.word	0x0c0062bb

0c005d20 <HAL_SPI_TransmitReceive_DMA>:
  * @param  Size amount of data to be sent
  * @retval HAL status
  */
HAL_StatusTypeDef HAL_SPI_TransmitReceive_DMA(SPI_HandleTypeDef *hspi, uint8_t *pTxData, uint8_t *pRxData,
                                              uint16_t Size)
{
 c005d20:	b580      	push	{r7, lr}
 c005d22:	b086      	sub	sp, #24
 c005d24:	af00      	add	r7, sp, #0
 c005d26:	60f8      	str	r0, [r7, #12]
 c005d28:	60b9      	str	r1, [r7, #8]
 c005d2a:	607a      	str	r2, [r7, #4]
 c005d2c:	807b      	strh	r3, [r7, #2]
  uint32_t             tmp_mode;
  HAL_SPI_StateTypeDef tmp_state;
  HAL_StatusTypeDef errorcode = HAL_OK;
 c005d2e:	2300      	movs	r3, #0
 c005d30:	75fb      	strb	r3, [r7, #23]

  /* Check Direction parameter */
  assert_param(IS_SPI_DIRECTION_2LINES(hspi->Init.Direction));

  /* Process locked */
  __HAL_LOCK(hspi);
 c005d32:	68fb      	ldr	r3, [r7, #12]
 c005d34:	f893 305c 	ldrb.w	r3, [r3, #92]	; 0x5c
 c005d38:	2b01      	cmp	r3, #1
 c005d3a:	d101      	bne.n	c005d40 <HAL_SPI_TransmitReceive_DMA+0x20>
 c005d3c:	2302      	movs	r3, #2
 c005d3e:	e16c      	b.n	c00601a <HAL_SPI_TransmitReceive_DMA+0x2fa>
 c005d40:	68fb      	ldr	r3, [r7, #12]
 c005d42:	2201      	movs	r2, #1
 c005d44:	f883 205c 	strb.w	r2, [r3, #92]	; 0x5c

  /* Init temporary variables */
  tmp_state           = hspi->State;
 c005d48:	68fb      	ldr	r3, [r7, #12]
 c005d4a:	f893 305d 	ldrb.w	r3, [r3, #93]	; 0x5d
 c005d4e:	75bb      	strb	r3, [r7, #22]
  tmp_mode            = hspi->Init.Mode;
 c005d50:	68fb      	ldr	r3, [r7, #12]
 c005d52:	685b      	ldr	r3, [r3, #4]
 c005d54:	613b      	str	r3, [r7, #16]

  if (!((tmp_state == HAL_SPI_STATE_READY) ||
 c005d56:	7dbb      	ldrb	r3, [r7, #22]
 c005d58:	2b01      	cmp	r3, #1
 c005d5a:	d00d      	beq.n	c005d78 <HAL_SPI_TransmitReceive_DMA+0x58>
 c005d5c:	693b      	ldr	r3, [r7, #16]
 c005d5e:	f5b3 7f82 	cmp.w	r3, #260	; 0x104
 c005d62:	d106      	bne.n	c005d72 <HAL_SPI_TransmitReceive_DMA+0x52>
        ((tmp_mode == SPI_MODE_MASTER) && (hspi->Init.Direction == SPI_DIRECTION_2LINES) && (tmp_state == HAL_SPI_STATE_BUSY_RX))))
 c005d64:	68fb      	ldr	r3, [r7, #12]
 c005d66:	689b      	ldr	r3, [r3, #8]
 c005d68:	2b00      	cmp	r3, #0
 c005d6a:	d102      	bne.n	c005d72 <HAL_SPI_TransmitReceive_DMA+0x52>
 c005d6c:	7dbb      	ldrb	r3, [r7, #22]
 c005d6e:	2b04      	cmp	r3, #4
 c005d70:	d002      	beq.n	c005d78 <HAL_SPI_TransmitReceive_DMA+0x58>
  {
    errorcode = HAL_BUSY;
 c005d72:	2302      	movs	r3, #2
 c005d74:	75fb      	strb	r3, [r7, #23]
    goto error;
 c005d76:	e14b      	b.n	c006010 <HAL_SPI_TransmitReceive_DMA+0x2f0>
  }

  if ((pTxData == NULL) || (pRxData == NULL) || (Size == 0U))
 c005d78:	68bb      	ldr	r3, [r7, #8]
 c005d7a:	2b00      	cmp	r3, #0
 c005d7c:	d005      	beq.n	c005d8a <HAL_SPI_TransmitReceive_DMA+0x6a>
 c005d7e:	687b      	ldr	r3, [r7, #4]
 c005d80:	2b00      	cmp	r3, #0
 c005d82:	d002      	beq.n	c005d8a <HAL_SPI_TransmitReceive_DMA+0x6a>
 c005d84:	887b      	ldrh	r3, [r7, #2]
 c005d86:	2b00      	cmp	r3, #0
 c005d88:	d102      	bne.n	c005d90 <HAL_SPI_TransmitReceive_DMA+0x70>
  {
    errorcode = HAL_ERROR;
 c005d8a:	2301      	movs	r3, #1
 c005d8c:	75fb      	strb	r3, [r7, #23]
    goto error;
 c005d8e:	e13f      	b.n	c006010 <HAL_SPI_TransmitReceive_DMA+0x2f0>
  }

  /* Don't overwrite in case of HAL_SPI_STATE_BUSY_RX */
  if (hspi->State != HAL_SPI_STATE_BUSY_RX)
 c005d90:	68fb      	ldr	r3, [r7, #12]
 c005d92:	f893 305d 	ldrb.w	r3, [r3, #93]	; 0x5d
 c005d96:	b2db      	uxtb	r3, r3
 c005d98:	2b04      	cmp	r3, #4
 c005d9a:	d003      	beq.n	c005da4 <HAL_SPI_TransmitReceive_DMA+0x84>
  {
    hspi->State = HAL_SPI_STATE_BUSY_TX_RX;
 c005d9c:	68fb      	ldr	r3, [r7, #12]
 c005d9e:	2205      	movs	r2, #5
 c005da0:	f883 205d 	strb.w	r2, [r3, #93]	; 0x5d
  }

  /* Set the transaction information */
  hspi->ErrorCode   = HAL_SPI_ERROR_NONE;
 c005da4:	68fb      	ldr	r3, [r7, #12]
 c005da6:	2200      	movs	r2, #0
 c005da8:	661a      	str	r2, [r3, #96]	; 0x60
  hspi->pTxBuffPtr  = (uint8_t *)pTxData;
 c005daa:	68fb      	ldr	r3, [r7, #12]
 c005dac:	68ba      	ldr	r2, [r7, #8]
 c005dae:	639a      	str	r2, [r3, #56]	; 0x38
  hspi->TxXferSize  = Size;
 c005db0:	68fb      	ldr	r3, [r7, #12]
 c005db2:	887a      	ldrh	r2, [r7, #2]
 c005db4:	879a      	strh	r2, [r3, #60]	; 0x3c
  hspi->TxXferCount = Size;
 c005db6:	68fb      	ldr	r3, [r7, #12]
 c005db8:	887a      	ldrh	r2, [r7, #2]
 c005dba:	87da      	strh	r2, [r3, #62]	; 0x3e
  hspi->pRxBuffPtr  = (uint8_t *)pRxData;
 c005dbc:	68fb      	ldr	r3, [r7, #12]
 c005dbe:	687a      	ldr	r2, [r7, #4]
 c005dc0:	641a      	str	r2, [r3, #64]	; 0x40
  hspi->RxXferSize  = Size;
 c005dc2:	68fb      	ldr	r3, [r7, #12]
 c005dc4:	887a      	ldrh	r2, [r7, #2]
 c005dc6:	f8a3 2044 	strh.w	r2, [r3, #68]	; 0x44
  hspi->RxXferCount = Size;
 c005dca:	68fb      	ldr	r3, [r7, #12]
 c005dcc:	887a      	ldrh	r2, [r7, #2]
 c005dce:	f8a3 2046 	strh.w	r2, [r3, #70]	; 0x46

  /* Init field not used in handle to zero */
  hspi->RxISR       = NULL;
 c005dd2:	68fb      	ldr	r3, [r7, #12]
 c005dd4:	2200      	movs	r2, #0
 c005dd6:	64da      	str	r2, [r3, #76]	; 0x4c
  hspi->TxISR       = NULL;
 c005dd8:	68fb      	ldr	r3, [r7, #12]
 c005dda:	2200      	movs	r2, #0
 c005ddc:	651a      	str	r2, [r3, #80]	; 0x50
    SPI_RESET_CRC(hspi);
  }
#endif /* USE_SPI_CRC */

  /* Reset the threshold bit */
  CLEAR_BIT(hspi->Instance->CR2, SPI_CR2_LDMATX | SPI_CR2_LDMARX);
 c005dde:	68fb      	ldr	r3, [r7, #12]
 c005de0:	681b      	ldr	r3, [r3, #0]
 c005de2:	685a      	ldr	r2, [r3, #4]
 c005de4:	68fb      	ldr	r3, [r7, #12]
 c005de6:	681b      	ldr	r3, [r3, #0]
 c005de8:	f422 42c0 	bic.w	r2, r2, #24576	; 0x6000
 c005dec:	605a      	str	r2, [r3, #4]

  /* The packing mode management is enabled by the DMA settings according the spi data size */
  if (hspi->Init.DataSize > SPI_DATASIZE_8BIT)
 c005dee:	68fb      	ldr	r3, [r7, #12]
 c005df0:	68db      	ldr	r3, [r3, #12]
 c005df2:	f5b3 6fe0 	cmp.w	r3, #1792	; 0x700
 c005df6:	d908      	bls.n	c005e0a <HAL_SPI_TransmitReceive_DMA+0xea>
  {
    /* Set fiforxthreshold according the reception data length: 16bit */
    CLEAR_BIT(hspi->Instance->CR2, SPI_RXFIFO_THRESHOLD);
 c005df8:	68fb      	ldr	r3, [r7, #12]
 c005dfa:	681b      	ldr	r3, [r3, #0]
 c005dfc:	685a      	ldr	r2, [r3, #4]
 c005dfe:	68fb      	ldr	r3, [r7, #12]
 c005e00:	681b      	ldr	r3, [r3, #0]
 c005e02:	f422 5280 	bic.w	r2, r2, #4096	; 0x1000
 c005e06:	605a      	str	r2, [r3, #4]
 c005e08:	e06f      	b.n	c005eea <HAL_SPI_TransmitReceive_DMA+0x1ca>
  }
  else
  {
    /* Set RX Fifo threshold according the reception data length: 8bit */
    SET_BIT(hspi->Instance->CR2, SPI_RXFIFO_THRESHOLD);
 c005e0a:	68fb      	ldr	r3, [r7, #12]
 c005e0c:	681b      	ldr	r3, [r3, #0]
 c005e0e:	685a      	ldr	r2, [r3, #4]
 c005e10:	68fb      	ldr	r3, [r7, #12]
 c005e12:	681b      	ldr	r3, [r3, #0]
 c005e14:	f442 5280 	orr.w	r2, r2, #4096	; 0x1000
 c005e18:	605a      	str	r2, [r3, #4]

    if (hspi->hdmatx->Init.MemDataAlignment == DMA_MDATAALIGN_HALFWORD)
 c005e1a:	68fb      	ldr	r3, [r7, #12]
 c005e1c:	6d5b      	ldr	r3, [r3, #84]	; 0x54
 c005e1e:	699b      	ldr	r3, [r3, #24]
 c005e20:	f5b3 6f80 	cmp.w	r3, #1024	; 0x400
 c005e24:	d126      	bne.n	c005e74 <HAL_SPI_TransmitReceive_DMA+0x154>
    {
      if ((hspi->TxXferSize & 0x1U) == 0x0U)
 c005e26:	68fb      	ldr	r3, [r7, #12]
 c005e28:	8f9b      	ldrh	r3, [r3, #60]	; 0x3c
 c005e2a:	f003 0301 	and.w	r3, r3, #1
 c005e2e:	2b00      	cmp	r3, #0
 c005e30:	d10f      	bne.n	c005e52 <HAL_SPI_TransmitReceive_DMA+0x132>
      {
        CLEAR_BIT(hspi->Instance->CR2, SPI_CR2_LDMATX);
 c005e32:	68fb      	ldr	r3, [r7, #12]
 c005e34:	681b      	ldr	r3, [r3, #0]
 c005e36:	685a      	ldr	r2, [r3, #4]
 c005e38:	68fb      	ldr	r3, [r7, #12]
 c005e3a:	681b      	ldr	r3, [r3, #0]
 c005e3c:	f422 4280 	bic.w	r2, r2, #16384	; 0x4000
 c005e40:	605a      	str	r2, [r3, #4]
        hspi->TxXferCount = hspi->TxXferCount >> 1U;
 c005e42:	68fb      	ldr	r3, [r7, #12]
 c005e44:	8fdb      	ldrh	r3, [r3, #62]	; 0x3e
 c005e46:	b29b      	uxth	r3, r3
 c005e48:	085b      	lsrs	r3, r3, #1
 c005e4a:	b29a      	uxth	r2, r3
 c005e4c:	68fb      	ldr	r3, [r7, #12]
 c005e4e:	87da      	strh	r2, [r3, #62]	; 0x3e
 c005e50:	e010      	b.n	c005e74 <HAL_SPI_TransmitReceive_DMA+0x154>
      }
      else
      {
        SET_BIT(hspi->Instance->CR2, SPI_CR2_LDMATX);
 c005e52:	68fb      	ldr	r3, [r7, #12]
 c005e54:	681b      	ldr	r3, [r3, #0]
 c005e56:	685a      	ldr	r2, [r3, #4]
 c005e58:	68fb      	ldr	r3, [r7, #12]
 c005e5a:	681b      	ldr	r3, [r3, #0]
 c005e5c:	f442 4280 	orr.w	r2, r2, #16384	; 0x4000
 c005e60:	605a      	str	r2, [r3, #4]
        hspi->TxXferCount = (hspi->TxXferCount >> 1U) + 1U;
 c005e62:	68fb      	ldr	r3, [r7, #12]
 c005e64:	8fdb      	ldrh	r3, [r3, #62]	; 0x3e
 c005e66:	b29b      	uxth	r3, r3
 c005e68:	085b      	lsrs	r3, r3, #1
 c005e6a:	b29b      	uxth	r3, r3
 c005e6c:	3301      	adds	r3, #1
 c005e6e:	b29a      	uxth	r2, r3
 c005e70:	68fb      	ldr	r3, [r7, #12]
 c005e72:	87da      	strh	r2, [r3, #62]	; 0x3e
      }
    }

    if (hspi->hdmarx->Init.MemDataAlignment == DMA_MDATAALIGN_HALFWORD)
 c005e74:	68fb      	ldr	r3, [r7, #12]
 c005e76:	6d9b      	ldr	r3, [r3, #88]	; 0x58
 c005e78:	699b      	ldr	r3, [r3, #24]
 c005e7a:	f5b3 6f80 	cmp.w	r3, #1024	; 0x400
 c005e7e:	d134      	bne.n	c005eea <HAL_SPI_TransmitReceive_DMA+0x1ca>
    {
      /* Set RX Fifo threshold according the reception data length: 16bit */
      CLEAR_BIT(hspi->Instance->CR2, SPI_RXFIFO_THRESHOLD);
 c005e80:	68fb      	ldr	r3, [r7, #12]
 c005e82:	681b      	ldr	r3, [r3, #0]
 c005e84:	685a      	ldr	r2, [r3, #4]
 c005e86:	68fb      	ldr	r3, [r7, #12]
 c005e88:	681b      	ldr	r3, [r3, #0]
 c005e8a:	f422 5280 	bic.w	r2, r2, #4096	; 0x1000
 c005e8e:	605a      	str	r2, [r3, #4]

      if ((hspi->RxXferCount & 0x1U) == 0x0U)
 c005e90:	68fb      	ldr	r3, [r7, #12]
 c005e92:	f8b3 3046 	ldrh.w	r3, [r3, #70]	; 0x46
 c005e96:	b29b      	uxth	r3, r3
 c005e98:	f003 0301 	and.w	r3, r3, #1
 c005e9c:	2b00      	cmp	r3, #0
 c005e9e:	d111      	bne.n	c005ec4 <HAL_SPI_TransmitReceive_DMA+0x1a4>
      {
        CLEAR_BIT(hspi->Instance->CR2, SPI_CR2_LDMARX);
 c005ea0:	68fb      	ldr	r3, [r7, #12]
 c005ea2:	681b      	ldr	r3, [r3, #0]
 c005ea4:	685a      	ldr	r2, [r3, #4]
 c005ea6:	68fb      	ldr	r3, [r7, #12]
 c005ea8:	681b      	ldr	r3, [r3, #0]
 c005eaa:	f422 5200 	bic.w	r2, r2, #8192	; 0x2000
 c005eae:	605a      	str	r2, [r3, #4]
        hspi->RxXferCount = hspi->RxXferCount >> 1U;
 c005eb0:	68fb      	ldr	r3, [r7, #12]
 c005eb2:	f8b3 3046 	ldrh.w	r3, [r3, #70]	; 0x46
 c005eb6:	b29b      	uxth	r3, r3
 c005eb8:	085b      	lsrs	r3, r3, #1
 c005eba:	b29a      	uxth	r2, r3
 c005ebc:	68fb      	ldr	r3, [r7, #12]
 c005ebe:	f8a3 2046 	strh.w	r2, [r3, #70]	; 0x46
 c005ec2:	e012      	b.n	c005eea <HAL_SPI_TransmitReceive_DMA+0x1ca>
      }
      else
      {
        SET_BIT(hspi->Instance->CR2, SPI_CR2_LDMARX);
 c005ec4:	68fb      	ldr	r3, [r7, #12]
 c005ec6:	681b      	ldr	r3, [r3, #0]
 c005ec8:	685a      	ldr	r2, [r3, #4]
 c005eca:	68fb      	ldr	r3, [r7, #12]
 c005ecc:	681b      	ldr	r3, [r3, #0]
 c005ece:	f442 5200 	orr.w	r2, r2, #8192	; 0x2000
 c005ed2:	605a      	str	r2, [r3, #4]
        hspi->RxXferCount = (hspi->RxXferCount >> 1U) + 1U;
 c005ed4:	68fb      	ldr	r3, [r7, #12]
 c005ed6:	f8b3 3046 	ldrh.w	r3, [r3, #70]	; 0x46
 c005eda:	b29b      	uxth	r3, r3
 c005edc:	085b      	lsrs	r3, r3, #1
 c005ede:	b29b      	uxth	r3, r3
 c005ee0:	3301      	adds	r3, #1
 c005ee2:	b29a      	uxth	r2, r3
 c005ee4:	68fb      	ldr	r3, [r7, #12]
 c005ee6:	f8a3 2046 	strh.w	r2, [r3, #70]	; 0x46
      }
    }
  }

  /* Check if we are in Rx only or in Rx/Tx Mode and configure the DMA transfer complete callback */
  if (hspi->State == HAL_SPI_STATE_BUSY_RX)
 c005eea:	68fb      	ldr	r3, [r7, #12]
 c005eec:	f893 305d 	ldrb.w	r3, [r3, #93]	; 0x5d
 c005ef0:	b2db      	uxtb	r3, r3
 c005ef2:	2b04      	cmp	r3, #4
 c005ef4:	d108      	bne.n	c005f08 <HAL_SPI_TransmitReceive_DMA+0x1e8>
  {
    /* Set the SPI Rx DMA Half transfer complete callback */
    hspi->hdmarx->XferHalfCpltCallback = SPI_DMAHalfReceiveCplt;
 c005ef6:	68fb      	ldr	r3, [r7, #12]
 c005ef8:	6d9b      	ldr	r3, [r3, #88]	; 0x58
 c005efa:	4a4a      	ldr	r2, [pc, #296]	; (c006024 <HAL_SPI_TransmitReceive_DMA+0x304>)
 c005efc:	631a      	str	r2, [r3, #48]	; 0x30
    hspi->hdmarx->XferCpltCallback     = SPI_DMAReceiveCplt;
 c005efe:	68fb      	ldr	r3, [r7, #12]
 c005f00:	6d9b      	ldr	r3, [r3, #88]	; 0x58
 c005f02:	4a49      	ldr	r2, [pc, #292]	; (c006028 <HAL_SPI_TransmitReceive_DMA+0x308>)
 c005f04:	62da      	str	r2, [r3, #44]	; 0x2c
 c005f06:	e007      	b.n	c005f18 <HAL_SPI_TransmitReceive_DMA+0x1f8>
  }
  else
  {
    /* Set the SPI Tx/Rx DMA Half transfer complete callback */
    hspi->hdmarx->XferHalfCpltCallback = SPI_DMAHalfTransmitReceiveCplt;
 c005f08:	68fb      	ldr	r3, [r7, #12]
 c005f0a:	6d9b      	ldr	r3, [r3, #88]	; 0x58
 c005f0c:	4a47      	ldr	r2, [pc, #284]	; (c00602c <HAL_SPI_TransmitReceive_DMA+0x30c>)
 c005f0e:	631a      	str	r2, [r3, #48]	; 0x30
    hspi->hdmarx->XferCpltCallback     = SPI_DMATransmitReceiveCplt;
 c005f10:	68fb      	ldr	r3, [r7, #12]
 c005f12:	6d9b      	ldr	r3, [r3, #88]	; 0x58
 c005f14:	4a46      	ldr	r2, [pc, #280]	; (c006030 <HAL_SPI_TransmitReceive_DMA+0x310>)
 c005f16:	62da      	str	r2, [r3, #44]	; 0x2c
  }

  /* Set the DMA error callback */
  hspi->hdmarx->XferErrorCallback = SPI_DMAError;
 c005f18:	68fb      	ldr	r3, [r7, #12]
 c005f1a:	6d9b      	ldr	r3, [r3, #88]	; 0x58
 c005f1c:	4a45      	ldr	r2, [pc, #276]	; (c006034 <HAL_SPI_TransmitReceive_DMA+0x314>)
 c005f1e:	63da      	str	r2, [r3, #60]	; 0x3c

  /* Set the DMA AbortCpltCallback */
  hspi->hdmarx->XferAbortCallback = NULL;
 c005f20:	68fb      	ldr	r3, [r7, #12]
 c005f22:	6d9b      	ldr	r3, [r3, #88]	; 0x58
 c005f24:	2200      	movs	r2, #0
 c005f26:	641a      	str	r2, [r3, #64]	; 0x40

  /* Enable the Rx DMA Stream/Channel  */
  if (HAL_OK != HAL_DMA_Start_IT(hspi->hdmarx, (uint32_t)&hspi->Instance->DR, (uint32_t)hspi->pRxBuffPtr,
 c005f28:	68fb      	ldr	r3, [r7, #12]
 c005f2a:	6d98      	ldr	r0, [r3, #88]	; 0x58
 c005f2c:	68fb      	ldr	r3, [r7, #12]
 c005f2e:	681b      	ldr	r3, [r3, #0]
 c005f30:	330c      	adds	r3, #12
 c005f32:	4619      	mov	r1, r3
 c005f34:	68fb      	ldr	r3, [r7, #12]
 c005f36:	6c1b      	ldr	r3, [r3, #64]	; 0x40
 c005f38:	461a      	mov	r2, r3
                                 hspi->RxXferCount))
 c005f3a:	68fb      	ldr	r3, [r7, #12]
 c005f3c:	f8b3 3046 	ldrh.w	r3, [r3, #70]	; 0x46
 c005f40:	b29b      	uxth	r3, r3
  if (HAL_OK != HAL_DMA_Start_IT(hspi->hdmarx, (uint32_t)&hspi->Instance->DR, (uint32_t)hspi->pRxBuffPtr,
 c005f42:	f7fc fc97 	bl	c002874 <HAL_DMA_Start_IT>
 c005f46:	4603      	mov	r3, r0
 c005f48:	2b00      	cmp	r3, #0
 c005f4a:	d00c      	beq.n	c005f66 <HAL_SPI_TransmitReceive_DMA+0x246>
  {
    /* Update SPI error code */
    SET_BIT(hspi->ErrorCode, HAL_SPI_ERROR_DMA);
 c005f4c:	68fb      	ldr	r3, [r7, #12]
 c005f4e:	6e1b      	ldr	r3, [r3, #96]	; 0x60
 c005f50:	f043 0210 	orr.w	r2, r3, #16
 c005f54:	68fb      	ldr	r3, [r7, #12]
 c005f56:	661a      	str	r2, [r3, #96]	; 0x60
    errorcode = HAL_ERROR;
 c005f58:	2301      	movs	r3, #1
 c005f5a:	75fb      	strb	r3, [r7, #23]

    hspi->State = HAL_SPI_STATE_READY;
 c005f5c:	68fb      	ldr	r3, [r7, #12]
 c005f5e:	2201      	movs	r2, #1
 c005f60:	f883 205d 	strb.w	r2, [r3, #93]	; 0x5d
    goto error;
 c005f64:	e054      	b.n	c006010 <HAL_SPI_TransmitReceive_DMA+0x2f0>
  }

  /* Enable Rx DMA Request */
  SET_BIT(hspi->Instance->CR2, SPI_CR2_RXDMAEN);
 c005f66:	68fb      	ldr	r3, [r7, #12]
 c005f68:	681b      	ldr	r3, [r3, #0]
 c005f6a:	685a      	ldr	r2, [r3, #4]
 c005f6c:	68fb      	ldr	r3, [r7, #12]
 c005f6e:	681b      	ldr	r3, [r3, #0]
 c005f70:	f042 0201 	orr.w	r2, r2, #1
 c005f74:	605a      	str	r2, [r3, #4]

  /* Set the SPI Tx DMA transfer complete callback as NULL because the communication closing
  is performed in DMA reception complete callback  */
  hspi->hdmatx->XferHalfCpltCallback = NULL;
 c005f76:	68fb      	ldr	r3, [r7, #12]
 c005f78:	6d5b      	ldr	r3, [r3, #84]	; 0x54
 c005f7a:	2200      	movs	r2, #0
 c005f7c:	631a      	str	r2, [r3, #48]	; 0x30
  hspi->hdmatx->XferCpltCallback     = NULL;
 c005f7e:	68fb      	ldr	r3, [r7, #12]
 c005f80:	6d5b      	ldr	r3, [r3, #84]	; 0x54
 c005f82:	2200      	movs	r2, #0
 c005f84:	62da      	str	r2, [r3, #44]	; 0x2c
  hspi->hdmatx->XferErrorCallback    = NULL;
 c005f86:	68fb      	ldr	r3, [r7, #12]
 c005f88:	6d5b      	ldr	r3, [r3, #84]	; 0x54
 c005f8a:	2200      	movs	r2, #0
 c005f8c:	63da      	str	r2, [r3, #60]	; 0x3c
  hspi->hdmatx->XferAbortCallback    = NULL;
 c005f8e:	68fb      	ldr	r3, [r7, #12]
 c005f90:	6d5b      	ldr	r3, [r3, #84]	; 0x54
 c005f92:	2200      	movs	r2, #0
 c005f94:	641a      	str	r2, [r3, #64]	; 0x40

  /* Enable the Tx DMA Stream/Channel  */
  if (HAL_OK != HAL_DMA_Start_IT(hspi->hdmatx, (uint32_t)hspi->pTxBuffPtr, (uint32_t)&hspi->Instance->DR,
 c005f96:	68fb      	ldr	r3, [r7, #12]
 c005f98:	6d58      	ldr	r0, [r3, #84]	; 0x54
 c005f9a:	68fb      	ldr	r3, [r7, #12]
 c005f9c:	6b9b      	ldr	r3, [r3, #56]	; 0x38
 c005f9e:	4619      	mov	r1, r3
 c005fa0:	68fb      	ldr	r3, [r7, #12]
 c005fa2:	681b      	ldr	r3, [r3, #0]
 c005fa4:	330c      	adds	r3, #12
 c005fa6:	461a      	mov	r2, r3
                                 hspi->TxXferCount))
 c005fa8:	68fb      	ldr	r3, [r7, #12]
 c005faa:	8fdb      	ldrh	r3, [r3, #62]	; 0x3e
 c005fac:	b29b      	uxth	r3, r3
  if (HAL_OK != HAL_DMA_Start_IT(hspi->hdmatx, (uint32_t)hspi->pTxBuffPtr, (uint32_t)&hspi->Instance->DR,
 c005fae:	f7fc fc61 	bl	c002874 <HAL_DMA_Start_IT>
 c005fb2:	4603      	mov	r3, r0
 c005fb4:	2b00      	cmp	r3, #0
 c005fb6:	d00c      	beq.n	c005fd2 <HAL_SPI_TransmitReceive_DMA+0x2b2>
  {
    /* Update SPI error code */
    SET_BIT(hspi->ErrorCode, HAL_SPI_ERROR_DMA);
 c005fb8:	68fb      	ldr	r3, [r7, #12]
 c005fba:	6e1b      	ldr	r3, [r3, #96]	; 0x60
 c005fbc:	f043 0210 	orr.w	r2, r3, #16
 c005fc0:	68fb      	ldr	r3, [r7, #12]
 c005fc2:	661a      	str	r2, [r3, #96]	; 0x60
    errorcode = HAL_ERROR;
 c005fc4:	2301      	movs	r3, #1
 c005fc6:	75fb      	strb	r3, [r7, #23]

    hspi->State = HAL_SPI_STATE_READY;
 c005fc8:	68fb      	ldr	r3, [r7, #12]
 c005fca:	2201      	movs	r2, #1
 c005fcc:	f883 205d 	strb.w	r2, [r3, #93]	; 0x5d
    goto error;
 c005fd0:	e01e      	b.n	c006010 <HAL_SPI_TransmitReceive_DMA+0x2f0>
  }

  /* Check if the SPI is already enabled */
  if ((hspi->Instance->CR1 & SPI_CR1_SPE) != SPI_CR1_SPE)
 c005fd2:	68fb      	ldr	r3, [r7, #12]
 c005fd4:	681b      	ldr	r3, [r3, #0]
 c005fd6:	681b      	ldr	r3, [r3, #0]
 c005fd8:	f003 0340 	and.w	r3, r3, #64	; 0x40
 c005fdc:	2b40      	cmp	r3, #64	; 0x40
 c005fde:	d007      	beq.n	c005ff0 <HAL_SPI_TransmitReceive_DMA+0x2d0>
  {
    /* Enable SPI peripheral */
    __HAL_SPI_ENABLE(hspi);
 c005fe0:	68fb      	ldr	r3, [r7, #12]
 c005fe2:	681b      	ldr	r3, [r3, #0]
 c005fe4:	681a      	ldr	r2, [r3, #0]
 c005fe6:	68fb      	ldr	r3, [r7, #12]
 c005fe8:	681b      	ldr	r3, [r3, #0]
 c005fea:	f042 0240 	orr.w	r2, r2, #64	; 0x40
 c005fee:	601a      	str	r2, [r3, #0]
  }
  /* Enable the SPI Error Interrupt Bit */
  __HAL_SPI_ENABLE_IT(hspi, (SPI_IT_ERR));
 c005ff0:	68fb      	ldr	r3, [r7, #12]
 c005ff2:	681b      	ldr	r3, [r3, #0]
 c005ff4:	685a      	ldr	r2, [r3, #4]
 c005ff6:	68fb      	ldr	r3, [r7, #12]
 c005ff8:	681b      	ldr	r3, [r3, #0]
 c005ffa:	f042 0220 	orr.w	r2, r2, #32
 c005ffe:	605a      	str	r2, [r3, #4]

  /* Enable Tx DMA Request */
  SET_BIT(hspi->Instance->CR2, SPI_CR2_TXDMAEN);
 c006000:	68fb      	ldr	r3, [r7, #12]
 c006002:	681b      	ldr	r3, [r3, #0]
 c006004:	685a      	ldr	r2, [r3, #4]
 c006006:	68fb      	ldr	r3, [r7, #12]
 c006008:	681b      	ldr	r3, [r3, #0]
 c00600a:	f042 0202 	orr.w	r2, r2, #2
 c00600e:	605a      	str	r2, [r3, #4]

error :
  /* Process Unlocked */
  __HAL_UNLOCK(hspi);
 c006010:	68fb      	ldr	r3, [r7, #12]
 c006012:	2200      	movs	r2, #0
 c006014:	f883 205c 	strb.w	r2, [r3, #92]	; 0x5c
  return errorcode;
 c006018:	7dfb      	ldrb	r3, [r7, #23]
}
 c00601a:	4618      	mov	r0, r3
 c00601c:	3718      	adds	r7, #24
 c00601e:	46bd      	mov	sp, r7
 c006020:	bd80      	pop	{r7, pc}
 c006022:	bf00      	nop
 c006024:	0c006283 	.word	0x0c006283
 c006028:	0c00612f 	.word	0x0c00612f
 c00602c:	0c00629f 	.word	0x0c00629f
 c006030:	0c0061d7 	.word	0x0c0061d7
 c006034:	0c0062bb 	.word	0x0c0062bb

0c006038 <HAL_SPI_TxHalfCpltCallback>:
  * @param  hspi pointer to a SPI_HandleTypeDef structure that contains
  *               the configuration information for SPI module.
  * @retval None
  */
__weak void HAL_SPI_TxHalfCpltCallback(SPI_HandleTypeDef *hspi)
{
 c006038:	b480      	push	{r7}
 c00603a:	b083      	sub	sp, #12
 c00603c:	af00      	add	r7, sp, #0
 c00603e:	6078      	str	r0, [r7, #4]
  UNUSED(hspi);

  /* NOTE : This function should not be modified, when the callback is needed,
            the HAL_SPI_TxHalfCpltCallback should be implemented in the user file
   */
}
 c006040:	bf00      	nop
 c006042:	370c      	adds	r7, #12
 c006044:	46bd      	mov	sp, r7
 c006046:	f85d 7b04 	ldr.w	r7, [sp], #4
 c00604a:	4770      	bx	lr

0c00604c <HAL_SPI_RxHalfCpltCallback>:
  * @param  hspi pointer to a SPI_HandleTypeDef structure that contains
  *               the configuration information for SPI module.
  * @retval None
  */
__weak void HAL_SPI_RxHalfCpltCallback(SPI_HandleTypeDef *hspi)
{
 c00604c:	b480      	push	{r7}
 c00604e:	b083      	sub	sp, #12
 c006050:	af00      	add	r7, sp, #0
 c006052:	6078      	str	r0, [r7, #4]
  UNUSED(hspi);

  /* NOTE : This function should not be modified, when the callback is needed,
            the HAL_SPI_RxHalfCpltCallback() should be implemented in the user file
   */
}
 c006054:	bf00      	nop
 c006056:	370c      	adds	r7, #12
 c006058:	46bd      	mov	sp, r7
 c00605a:	f85d 7b04 	ldr.w	r7, [sp], #4
 c00605e:	4770      	bx	lr

0c006060 <HAL_SPI_TxRxHalfCpltCallback>:
  * @param  hspi pointer to a SPI_HandleTypeDef structure that contains
  *               the configuration information for SPI module.
  * @retval None
  */
__weak void HAL_SPI_TxRxHalfCpltCallback(SPI_HandleTypeDef *hspi)
{
 c006060:	b480      	push	{r7}
 c006062:	b083      	sub	sp, #12
 c006064:	af00      	add	r7, sp, #0
 c006066:	6078      	str	r0, [r7, #4]
  UNUSED(hspi);

  /* NOTE : This function should not be modified, when the callback is needed,
            the HAL_SPI_TxRxHalfCpltCallback() should be implemented in the user file
   */
}
 c006068:	bf00      	nop
 c00606a:	370c      	adds	r7, #12
 c00606c:	46bd      	mov	sp, r7
 c00606e:	f85d 7b04 	ldr.w	r7, [sp], #4
 c006072:	4770      	bx	lr

0c006074 <HAL_SPI_ErrorCallback>:
  * @param  hspi pointer to a SPI_HandleTypeDef structure that contains
  *               the configuration information for SPI module.
  * @retval None
  */
__weak void HAL_SPI_ErrorCallback(SPI_HandleTypeDef *hspi)
{
 c006074:	b480      	push	{r7}
 c006076:	b083      	sub	sp, #12
 c006078:	af00      	add	r7, sp, #0
 c00607a:	6078      	str	r0, [r7, #4]
            the HAL_SPI_ErrorCallback should be implemented in the user file
   */
  /* NOTE : The ErrorCode parameter in the hspi handle is updated by the SPI processes
            and user can use HAL_SPI_GetError() API to check the latest error occurred
   */
}
 c00607c:	bf00      	nop
 c00607e:	370c      	adds	r7, #12
 c006080:	46bd      	mov	sp, r7
 c006082:	f85d 7b04 	ldr.w	r7, [sp], #4
 c006086:	4770      	bx	lr

0c006088 <SPI_DMATransmitCplt>:
  * @param  hdma pointer to a DMA_HandleTypeDef structure that contains
  *               the configuration information for the specified DMA module.
  * @retval None
  */
static void SPI_DMATransmitCplt(DMA_HandleTypeDef *hdma)
{
 c006088:	b580      	push	{r7, lr}
 c00608a:	b086      	sub	sp, #24
 c00608c:	af00      	add	r7, sp, #0
 c00608e:	6078      	str	r0, [r7, #4]
  SPI_HandleTypeDef *hspi = (SPI_HandleTypeDef *)(((DMA_HandleTypeDef *)hdma)->Parent); /* Derogation MISRAC2012-Rule-11.5 */
 c006090:	687b      	ldr	r3, [r7, #4]
 c006092:	6a9b      	ldr	r3, [r3, #40]	; 0x28
 c006094:	617b      	str	r3, [r7, #20]
  uint32_t tickstart;

  /* Init tickstart for timeout management*/
  tickstart = HAL_GetTick();
 c006096:	f7fc fa05 	bl	c0024a4 <HAL_GetTick>
 c00609a:	6138      	str	r0, [r7, #16]

  /* DMA Normal Mode */
  if ((hdma->Instance->CCR & DMA_CCR_CIRC) != DMA_CCR_CIRC)
 c00609c:	687b      	ldr	r3, [r7, #4]
 c00609e:	681b      	ldr	r3, [r3, #0]
 c0060a0:	681b      	ldr	r3, [r3, #0]
 c0060a2:	f003 0320 	and.w	r3, r3, #32
 c0060a6:	2b20      	cmp	r3, #32
 c0060a8:	d03b      	beq.n	c006122 <SPI_DMATransmitCplt+0x9a>
  {
    /* Disable ERR interrupt */
    __HAL_SPI_DISABLE_IT(hspi, SPI_IT_ERR);
 c0060aa:	697b      	ldr	r3, [r7, #20]
 c0060ac:	681b      	ldr	r3, [r3, #0]
 c0060ae:	685a      	ldr	r2, [r3, #4]
 c0060b0:	697b      	ldr	r3, [r7, #20]
 c0060b2:	681b      	ldr	r3, [r3, #0]
 c0060b4:	f022 0220 	bic.w	r2, r2, #32
 c0060b8:	605a      	str	r2, [r3, #4]

    /* Disable Tx DMA Request */
    CLEAR_BIT(hspi->Instance->CR2, SPI_CR2_TXDMAEN);
 c0060ba:	697b      	ldr	r3, [r7, #20]
 c0060bc:	681b      	ldr	r3, [r3, #0]
 c0060be:	685a      	ldr	r2, [r3, #4]
 c0060c0:	697b      	ldr	r3, [r7, #20]
 c0060c2:	681b      	ldr	r3, [r3, #0]
 c0060c4:	f022 0202 	bic.w	r2, r2, #2
 c0060c8:	605a      	str	r2, [r3, #4]

    /* Check the end of the transaction */
    if (SPI_EndRxTxTransaction(hspi, SPI_DEFAULT_TIMEOUT, tickstart) != HAL_OK)
 c0060ca:	693a      	ldr	r2, [r7, #16]
 c0060cc:	2164      	movs	r1, #100	; 0x64
 c0060ce:	6978      	ldr	r0, [r7, #20]
 c0060d0:	f000 fa8a 	bl	c0065e8 <SPI_EndRxTxTransaction>
 c0060d4:	4603      	mov	r3, r0
 c0060d6:	2b00      	cmp	r3, #0
 c0060d8:	d005      	beq.n	c0060e6 <SPI_DMATransmitCplt+0x5e>
    {
      SET_BIT(hspi->ErrorCode, HAL_SPI_ERROR_FLAG);
 c0060da:	697b      	ldr	r3, [r7, #20]
 c0060dc:	6e1b      	ldr	r3, [r3, #96]	; 0x60
 c0060de:	f043 0220 	orr.w	r2, r3, #32
 c0060e2:	697b      	ldr	r3, [r7, #20]
 c0060e4:	661a      	str	r2, [r3, #96]	; 0x60
    }

    /* Clear overrun flag in 2 Lines communication mode because received data is not read */
    if (hspi->Init.Direction == SPI_DIRECTION_2LINES)
 c0060e6:	697b      	ldr	r3, [r7, #20]
 c0060e8:	689b      	ldr	r3, [r3, #8]
 c0060ea:	2b00      	cmp	r3, #0
 c0060ec:	d10a      	bne.n	c006104 <SPI_DMATransmitCplt+0x7c>
    {
      __HAL_SPI_CLEAR_OVRFLAG(hspi);
 c0060ee:	2300      	movs	r3, #0
 c0060f0:	60fb      	str	r3, [r7, #12]
 c0060f2:	697b      	ldr	r3, [r7, #20]
 c0060f4:	681b      	ldr	r3, [r3, #0]
 c0060f6:	68db      	ldr	r3, [r3, #12]
 c0060f8:	60fb      	str	r3, [r7, #12]
 c0060fa:	697b      	ldr	r3, [r7, #20]
 c0060fc:	681b      	ldr	r3, [r3, #0]
 c0060fe:	689b      	ldr	r3, [r3, #8]
 c006100:	60fb      	str	r3, [r7, #12]
 c006102:	68fb      	ldr	r3, [r7, #12]
    }

    hspi->TxXferCount = 0U;
 c006104:	697b      	ldr	r3, [r7, #20]
 c006106:	2200      	movs	r2, #0
 c006108:	87da      	strh	r2, [r3, #62]	; 0x3e
    hspi->State = HAL_SPI_STATE_READY;
 c00610a:	697b      	ldr	r3, [r7, #20]
 c00610c:	2201      	movs	r2, #1
 c00610e:	f883 205d 	strb.w	r2, [r3, #93]	; 0x5d

    if (hspi->ErrorCode != HAL_SPI_ERROR_NONE)
 c006112:	697b      	ldr	r3, [r7, #20]
 c006114:	6e1b      	ldr	r3, [r3, #96]	; 0x60
 c006116:	2b00      	cmp	r3, #0
 c006118:	d003      	beq.n	c006122 <SPI_DMATransmitCplt+0x9a>
    {
      /* Call user error callback */
#if (USE_HAL_SPI_REGISTER_CALLBACKS == 1U)
      hspi->ErrorCallback(hspi);
#else
      HAL_SPI_ErrorCallback(hspi);
 c00611a:	6978      	ldr	r0, [r7, #20]
 c00611c:	f7ff ffaa 	bl	c006074 <HAL_SPI_ErrorCallback>
#endif /* USE_HAL_SPI_REGISTER_CALLBACKS */
      return;
 c006120:	e002      	b.n	c006128 <SPI_DMATransmitCplt+0xa0>
  }
  /* Call user Tx complete callback */
#if (USE_HAL_SPI_REGISTER_CALLBACKS == 1U)
  hspi->TxCpltCallback(hspi);
#else
  HAL_SPI_TxCpltCallback(hspi);
 c006122:	6978      	ldr	r0, [r7, #20]
 c006124:	f7fa fe62 	bl	c000dec <HAL_SPI_TxCpltCallback>
#endif /* USE_HAL_SPI_REGISTER_CALLBACKS */
}
 c006128:	3718      	adds	r7, #24
 c00612a:	46bd      	mov	sp, r7
 c00612c:	bd80      	pop	{r7, pc}

0c00612e <SPI_DMAReceiveCplt>:
  * @param  hdma pointer to a DMA_HandleTypeDef structure that contains
  *               the configuration information for the specified DMA module.
  * @retval None
  */
static void SPI_DMAReceiveCplt(DMA_HandleTypeDef *hdma)
{
 c00612e:	b580      	push	{r7, lr}
 c006130:	b084      	sub	sp, #16
 c006132:	af00      	add	r7, sp, #0
 c006134:	6078      	str	r0, [r7, #4]
  SPI_HandleTypeDef *hspi = (SPI_HandleTypeDef *)(((DMA_HandleTypeDef *)hdma)->Parent); /* Derogation MISRAC2012-Rule-11.5 */
 c006136:	687b      	ldr	r3, [r7, #4]
 c006138:	6a9b      	ldr	r3, [r3, #40]	; 0x28
 c00613a:	60fb      	str	r3, [r7, #12]
  __IO uint8_t  *ptmpreg8;
  __IO uint8_t  tmpreg8 = 0;
#endif /* USE_SPI_CRC */

  /* Init tickstart for timeout management*/
  tickstart = HAL_GetTick();
 c00613c:	f7fc f9b2 	bl	c0024a4 <HAL_GetTick>
 c006140:	60b8      	str	r0, [r7, #8]

  /* DMA Normal Mode */
  if ((hdma->Instance->CCR & DMA_CCR_CIRC) != DMA_CCR_CIRC)
 c006142:	687b      	ldr	r3, [r7, #4]
 c006144:	681b      	ldr	r3, [r3, #0]
 c006146:	681b      	ldr	r3, [r3, #0]
 c006148:	f003 0320 	and.w	r3, r3, #32
 c00614c:	2b20      	cmp	r3, #32
 c00614e:	d03c      	beq.n	c0061ca <SPI_DMAReceiveCplt+0x9c>
  {
    /* Disable ERR interrupt */
    __HAL_SPI_DISABLE_IT(hspi, SPI_IT_ERR);
 c006150:	68fb      	ldr	r3, [r7, #12]
 c006152:	681b      	ldr	r3, [r3, #0]
 c006154:	685a      	ldr	r2, [r3, #4]
 c006156:	68fb      	ldr	r3, [r7, #12]
 c006158:	681b      	ldr	r3, [r3, #0]
 c00615a:	f022 0220 	bic.w	r2, r2, #32
 c00615e:	605a      	str	r2, [r3, #4]
      }
    }
#endif /* USE_SPI_CRC */

    /* Check if we are in Master RX 2 line mode */
    if ((hspi->Init.Direction == SPI_DIRECTION_2LINES) && (hspi->Init.Mode == SPI_MODE_MASTER))
 c006160:	68fb      	ldr	r3, [r7, #12]
 c006162:	689b      	ldr	r3, [r3, #8]
 c006164:	2b00      	cmp	r3, #0
 c006166:	d10d      	bne.n	c006184 <SPI_DMAReceiveCplt+0x56>
 c006168:	68fb      	ldr	r3, [r7, #12]
 c00616a:	685b      	ldr	r3, [r3, #4]
 c00616c:	f5b3 7f82 	cmp.w	r3, #260	; 0x104
 c006170:	d108      	bne.n	c006184 <SPI_DMAReceiveCplt+0x56>
    {
      /* Disable Rx/Tx DMA Request (done by default to handle the case master rx direction 2 lines) */
      CLEAR_BIT(hspi->Instance->CR2, SPI_CR2_TXDMAEN | SPI_CR2_RXDMAEN);
 c006172:	68fb      	ldr	r3, [r7, #12]
 c006174:	681b      	ldr	r3, [r3, #0]
 c006176:	685a      	ldr	r2, [r3, #4]
 c006178:	68fb      	ldr	r3, [r7, #12]
 c00617a:	681b      	ldr	r3, [r3, #0]
 c00617c:	f022 0203 	bic.w	r2, r2, #3
 c006180:	605a      	str	r2, [r3, #4]
 c006182:	e007      	b.n	c006194 <SPI_DMAReceiveCplt+0x66>
    }
    else
    {
      /* Normal case */
      CLEAR_BIT(hspi->Instance->CR2, SPI_CR2_RXDMAEN);
 c006184:	68fb      	ldr	r3, [r7, #12]
 c006186:	681b      	ldr	r3, [r3, #0]
 c006188:	685a      	ldr	r2, [r3, #4]
 c00618a:	68fb      	ldr	r3, [r7, #12]
 c00618c:	681b      	ldr	r3, [r3, #0]
 c00618e:	f022 0201 	bic.w	r2, r2, #1
 c006192:	605a      	str	r2, [r3, #4]
    }

    /* Check the end of the transaction */
    if (SPI_EndRxTransaction(hspi, SPI_DEFAULT_TIMEOUT, tickstart) != HAL_OK)
 c006194:	68ba      	ldr	r2, [r7, #8]
 c006196:	2164      	movs	r1, #100	; 0x64
 c006198:	68f8      	ldr	r0, [r7, #12]
 c00619a:	f000 f9cd 	bl	c006538 <SPI_EndRxTransaction>
 c00619e:	4603      	mov	r3, r0
 c0061a0:	2b00      	cmp	r3, #0
 c0061a2:	d002      	beq.n	c0061aa <SPI_DMAReceiveCplt+0x7c>
    {
      hspi->ErrorCode = HAL_SPI_ERROR_FLAG;
 c0061a4:	68fb      	ldr	r3, [r7, #12]
 c0061a6:	2220      	movs	r2, #32
 c0061a8:	661a      	str	r2, [r3, #96]	; 0x60
    }

    hspi->RxXferCount = 0U;
 c0061aa:	68fb      	ldr	r3, [r7, #12]
 c0061ac:	2200      	movs	r2, #0
 c0061ae:	f8a3 2046 	strh.w	r2, [r3, #70]	; 0x46
    hspi->State = HAL_SPI_STATE_READY;
 c0061b2:	68fb      	ldr	r3, [r7, #12]
 c0061b4:	2201      	movs	r2, #1
 c0061b6:	f883 205d 	strb.w	r2, [r3, #93]	; 0x5d
      SET_BIT(hspi->ErrorCode, HAL_SPI_ERROR_CRC);
      __HAL_SPI_CLEAR_CRCERRFLAG(hspi);
    }
#endif /* USE_SPI_CRC */

    if (hspi->ErrorCode != HAL_SPI_ERROR_NONE)
 c0061ba:	68fb      	ldr	r3, [r7, #12]
 c0061bc:	6e1b      	ldr	r3, [r3, #96]	; 0x60
 c0061be:	2b00      	cmp	r3, #0
 c0061c0:	d003      	beq.n	c0061ca <SPI_DMAReceiveCplt+0x9c>
    {
      /* Call user error callback */
#if (USE_HAL_SPI_REGISTER_CALLBACKS == 1U)
      hspi->ErrorCallback(hspi);
#else
      HAL_SPI_ErrorCallback(hspi);
 c0061c2:	68f8      	ldr	r0, [r7, #12]
 c0061c4:	f7ff ff56 	bl	c006074 <HAL_SPI_ErrorCallback>
#endif /* USE_HAL_SPI_REGISTER_CALLBACKS */
      return;
 c0061c8:	e002      	b.n	c0061d0 <SPI_DMAReceiveCplt+0xa2>
  }
  /* Call user Rx complete callback */
#if (USE_HAL_SPI_REGISTER_CALLBACKS == 1U)
  hspi->RxCpltCallback(hspi);
#else
  HAL_SPI_RxCpltCallback(hspi);
 c0061ca:	68f8      	ldr	r0, [r7, #12]
 c0061cc:	f7fa fe1e 	bl	c000e0c <HAL_SPI_RxCpltCallback>
#endif /* USE_HAL_SPI_REGISTER_CALLBACKS */
}
 c0061d0:	3710      	adds	r7, #16
 c0061d2:	46bd      	mov	sp, r7
 c0061d4:	bd80      	pop	{r7, pc}

0c0061d6 <SPI_DMATransmitReceiveCplt>:
  * @param  hdma pointer to a DMA_HandleTypeDef structure that contains
  *               the configuration information for the specified DMA module.
  * @retval None
  */
static void SPI_DMATransmitReceiveCplt(DMA_HandleTypeDef *hdma)
{
 c0061d6:	b580      	push	{r7, lr}
 c0061d8:	b084      	sub	sp, #16
 c0061da:	af00      	add	r7, sp, #0
 c0061dc:	6078      	str	r0, [r7, #4]
  SPI_HandleTypeDef *hspi = (SPI_HandleTypeDef *)(((DMA_HandleTypeDef *)hdma)->Parent); /* Derogation MISRAC2012-Rule-11.5 */
 c0061de:	687b      	ldr	r3, [r7, #4]
 c0061e0:	6a9b      	ldr	r3, [r3, #40]	; 0x28
 c0061e2:	60fb      	str	r3, [r7, #12]
  __IO uint8_t  *ptmpreg8;
  __IO uint8_t  tmpreg8 = 0;
#endif /* USE_SPI_CRC */

  /* Init tickstart for timeout management*/
  tickstart = HAL_GetTick();
 c0061e4:	f7fc f95e 	bl	c0024a4 <HAL_GetTick>
 c0061e8:	60b8      	str	r0, [r7, #8]

  /* DMA Normal Mode */
  if ((hdma->Instance->CCR & DMA_CCR_CIRC) != DMA_CCR_CIRC)
 c0061ea:	687b      	ldr	r3, [r7, #4]
 c0061ec:	681b      	ldr	r3, [r3, #0]
 c0061ee:	681b      	ldr	r3, [r3, #0]
 c0061f0:	f003 0320 	and.w	r3, r3, #32
 c0061f4:	2b20      	cmp	r3, #32
 c0061f6:	d030      	beq.n	c00625a <SPI_DMATransmitReceiveCplt+0x84>
  {
    /* Disable ERR interrupt */
    __HAL_SPI_DISABLE_IT(hspi, SPI_IT_ERR);
 c0061f8:	68fb      	ldr	r3, [r7, #12]
 c0061fa:	681b      	ldr	r3, [r3, #0]
 c0061fc:	685a      	ldr	r2, [r3, #4]
 c0061fe:	68fb      	ldr	r3, [r7, #12]
 c006200:	681b      	ldr	r3, [r3, #0]
 c006202:	f022 0220 	bic.w	r2, r2, #32
 c006206:	605a      	str	r2, [r3, #4]
      }
    }
#endif /* USE_SPI_CRC */

    /* Check the end of the transaction */
    if (SPI_EndRxTxTransaction(hspi, SPI_DEFAULT_TIMEOUT, tickstart) != HAL_OK)
 c006208:	68ba      	ldr	r2, [r7, #8]
 c00620a:	2164      	movs	r1, #100	; 0x64
 c00620c:	68f8      	ldr	r0, [r7, #12]
 c00620e:	f000 f9eb 	bl	c0065e8 <SPI_EndRxTxTransaction>
 c006212:	4603      	mov	r3, r0
 c006214:	2b00      	cmp	r3, #0
 c006216:	d005      	beq.n	c006224 <SPI_DMATransmitReceiveCplt+0x4e>
    {
      SET_BIT(hspi->ErrorCode, HAL_SPI_ERROR_FLAG);
 c006218:	68fb      	ldr	r3, [r7, #12]
 c00621a:	6e1b      	ldr	r3, [r3, #96]	; 0x60
 c00621c:	f043 0220 	orr.w	r2, r3, #32
 c006220:	68fb      	ldr	r3, [r7, #12]
 c006222:	661a      	str	r2, [r3, #96]	; 0x60
    }

    /* Disable Rx/Tx DMA Request */
    CLEAR_BIT(hspi->Instance->CR2, SPI_CR2_TXDMAEN | SPI_CR2_RXDMAEN);
 c006224:	68fb      	ldr	r3, [r7, #12]
 c006226:	681b      	ldr	r3, [r3, #0]
 c006228:	685a      	ldr	r2, [r3, #4]
 c00622a:	68fb      	ldr	r3, [r7, #12]
 c00622c:	681b      	ldr	r3, [r3, #0]
 c00622e:	f022 0203 	bic.w	r2, r2, #3
 c006232:	605a      	str	r2, [r3, #4]

    hspi->TxXferCount = 0U;
 c006234:	68fb      	ldr	r3, [r7, #12]
 c006236:	2200      	movs	r2, #0
 c006238:	87da      	strh	r2, [r3, #62]	; 0x3e
    hspi->RxXferCount = 0U;
 c00623a:	68fb      	ldr	r3, [r7, #12]
 c00623c:	2200      	movs	r2, #0
 c00623e:	f8a3 2046 	strh.w	r2, [r3, #70]	; 0x46
    hspi->State = HAL_SPI_STATE_READY;
 c006242:	68fb      	ldr	r3, [r7, #12]
 c006244:	2201      	movs	r2, #1
 c006246:	f883 205d 	strb.w	r2, [r3, #93]	; 0x5d
      SET_BIT(hspi->ErrorCode, HAL_SPI_ERROR_CRC);
      __HAL_SPI_CLEAR_CRCERRFLAG(hspi);
    }
#endif /* USE_SPI_CRC */

    if (hspi->ErrorCode != HAL_SPI_ERROR_NONE)
 c00624a:	68fb      	ldr	r3, [r7, #12]
 c00624c:	6e1b      	ldr	r3, [r3, #96]	; 0x60
 c00624e:	2b00      	cmp	r3, #0
 c006250:	d003      	beq.n	c00625a <SPI_DMATransmitReceiveCplt+0x84>
    {
      /* Call user error callback */
#if (USE_HAL_SPI_REGISTER_CALLBACKS == 1U)
      hspi->ErrorCallback(hspi);
#else
      HAL_SPI_ErrorCallback(hspi);
 c006252:	68f8      	ldr	r0, [r7, #12]
 c006254:	f7ff ff0e 	bl	c006074 <HAL_SPI_ErrorCallback>
#endif /* USE_HAL_SPI_REGISTER_CALLBACKS */
      return;
 c006258:	e002      	b.n	c006260 <SPI_DMATransmitReceiveCplt+0x8a>
  }
  /* Call user TxRx complete callback */
#if (USE_HAL_SPI_REGISTER_CALLBACKS == 1U)
  hspi->TxRxCpltCallback(hspi);
#else
  HAL_SPI_TxRxCpltCallback(hspi);
 c00625a:	68f8      	ldr	r0, [r7, #12]
 c00625c:	f7fa fdb6 	bl	c000dcc <HAL_SPI_TxRxCpltCallback>
#endif /* USE_HAL_SPI_REGISTER_CALLBACKS */
}
 c006260:	3710      	adds	r7, #16
 c006262:	46bd      	mov	sp, r7
 c006264:	bd80      	pop	{r7, pc}

0c006266 <SPI_DMAHalfTransmitCplt>:
  * @param  hdma pointer to a DMA_HandleTypeDef structure that contains
  *               the configuration information for the specified DMA module.
  * @retval None
  */
static void SPI_DMAHalfTransmitCplt(DMA_HandleTypeDef *hdma)
{
 c006266:	b580      	push	{r7, lr}
 c006268:	b084      	sub	sp, #16
 c00626a:	af00      	add	r7, sp, #0
 c00626c:	6078      	str	r0, [r7, #4]
  SPI_HandleTypeDef *hspi = (SPI_HandleTypeDef *)(((DMA_HandleTypeDef *)hdma)->Parent); /* Derogation MISRAC2012-Rule-11.5 */
 c00626e:	687b      	ldr	r3, [r7, #4]
 c006270:	6a9b      	ldr	r3, [r3, #40]	; 0x28
 c006272:	60fb      	str	r3, [r7, #12]

  /* Call user Tx half complete callback */
#if (USE_HAL_SPI_REGISTER_CALLBACKS == 1U)
  hspi->TxHalfCpltCallback(hspi);
#else
  HAL_SPI_TxHalfCpltCallback(hspi);
 c006274:	68f8      	ldr	r0, [r7, #12]
 c006276:	f7ff fedf 	bl	c006038 <HAL_SPI_TxHalfCpltCallback>
#endif /* USE_HAL_SPI_REGISTER_CALLBACKS */
}
 c00627a:	bf00      	nop
 c00627c:	3710      	adds	r7, #16
 c00627e:	46bd      	mov	sp, r7
 c006280:	bd80      	pop	{r7, pc}

0c006282 <SPI_DMAHalfReceiveCplt>:
  * @param  hdma pointer to a DMA_HandleTypeDef structure that contains
  *               the configuration information for the specified DMA module.
  * @retval None
  */
static void SPI_DMAHalfReceiveCplt(DMA_HandleTypeDef *hdma)
{
 c006282:	b580      	push	{r7, lr}
 c006284:	b084      	sub	sp, #16
 c006286:	af00      	add	r7, sp, #0
 c006288:	6078      	str	r0, [r7, #4]
  SPI_HandleTypeDef *hspi = (SPI_HandleTypeDef *)(((DMA_HandleTypeDef *)hdma)->Parent); /* Derogation MISRAC2012-Rule-11.5 */
 c00628a:	687b      	ldr	r3, [r7, #4]
 c00628c:	6a9b      	ldr	r3, [r3, #40]	; 0x28
 c00628e:	60fb      	str	r3, [r7, #12]

  /* Call user Rx half complete callback */
#if (USE_HAL_SPI_REGISTER_CALLBACKS == 1U)
  hspi->RxHalfCpltCallback(hspi);
#else
  HAL_SPI_RxHalfCpltCallback(hspi);
 c006290:	68f8      	ldr	r0, [r7, #12]
 c006292:	f7ff fedb 	bl	c00604c <HAL_SPI_RxHalfCpltCallback>
#endif /* USE_HAL_SPI_REGISTER_CALLBACKS */
}
 c006296:	bf00      	nop
 c006298:	3710      	adds	r7, #16
 c00629a:	46bd      	mov	sp, r7
 c00629c:	bd80      	pop	{r7, pc}

0c00629e <SPI_DMAHalfTransmitReceiveCplt>:
  * @param  hdma pointer to a DMA_HandleTypeDef structure that contains
  *               the configuration information for the specified DMA module.
  * @retval None
  */
static void SPI_DMAHalfTransmitReceiveCplt(DMA_HandleTypeDef *hdma)
{
 c00629e:	b580      	push	{r7, lr}
 c0062a0:	b084      	sub	sp, #16
 c0062a2:	af00      	add	r7, sp, #0
 c0062a4:	6078      	str	r0, [r7, #4]
  SPI_HandleTypeDef *hspi = (SPI_HandleTypeDef *)(((DMA_HandleTypeDef *)hdma)->Parent); /* Derogation MISRAC2012-Rule-11.5 */
 c0062a6:	687b      	ldr	r3, [r7, #4]
 c0062a8:	6a9b      	ldr	r3, [r3, #40]	; 0x28
 c0062aa:	60fb      	str	r3, [r7, #12]

  /* Call user TxRx half complete callback */
#if (USE_HAL_SPI_REGISTER_CALLBACKS == 1U)
  hspi->TxRxHalfCpltCallback(hspi);
#else
  HAL_SPI_TxRxHalfCpltCallback(hspi);
 c0062ac:	68f8      	ldr	r0, [r7, #12]
 c0062ae:	f7ff fed7 	bl	c006060 <HAL_SPI_TxRxHalfCpltCallback>
#endif /* USE_HAL_SPI_REGISTER_CALLBACKS */
}
 c0062b2:	bf00      	nop
 c0062b4:	3710      	adds	r7, #16
 c0062b6:	46bd      	mov	sp, r7
 c0062b8:	bd80      	pop	{r7, pc}

0c0062ba <SPI_DMAError>:
  * @param  hdma pointer to a DMA_HandleTypeDef structure that contains
  *               the configuration information for the specified DMA module.
  * @retval None
  */
static void SPI_DMAError(DMA_HandleTypeDef *hdma)
{
 c0062ba:	b580      	push	{r7, lr}
 c0062bc:	b084      	sub	sp, #16
 c0062be:	af00      	add	r7, sp, #0
 c0062c0:	6078      	str	r0, [r7, #4]
  SPI_HandleTypeDef *hspi = (SPI_HandleTypeDef *)(((DMA_HandleTypeDef *)hdma)->Parent); /* Derogation MISRAC2012-Rule-11.5 */
 c0062c2:	687b      	ldr	r3, [r7, #4]
 c0062c4:	6a9b      	ldr	r3, [r3, #40]	; 0x28
 c0062c6:	60fb      	str	r3, [r7, #12]

  /* Stop the disable DMA transfer on SPI side */
  CLEAR_BIT(hspi->Instance->CR2, SPI_CR2_TXDMAEN | SPI_CR2_RXDMAEN);
 c0062c8:	68fb      	ldr	r3, [r7, #12]
 c0062ca:	681b      	ldr	r3, [r3, #0]
 c0062cc:	685a      	ldr	r2, [r3, #4]
 c0062ce:	68fb      	ldr	r3, [r7, #12]
 c0062d0:	681b      	ldr	r3, [r3, #0]
 c0062d2:	f022 0203 	bic.w	r2, r2, #3
 c0062d6:	605a      	str	r2, [r3, #4]

  SET_BIT(hspi->ErrorCode, HAL_SPI_ERROR_DMA);
 c0062d8:	68fb      	ldr	r3, [r7, #12]
 c0062da:	6e1b      	ldr	r3, [r3, #96]	; 0x60
 c0062dc:	f043 0210 	orr.w	r2, r3, #16
 c0062e0:	68fb      	ldr	r3, [r7, #12]
 c0062e2:	661a      	str	r2, [r3, #96]	; 0x60
  hspi->State = HAL_SPI_STATE_READY;
 c0062e4:	68fb      	ldr	r3, [r7, #12]
 c0062e6:	2201      	movs	r2, #1
 c0062e8:	f883 205d 	strb.w	r2, [r3, #93]	; 0x5d
  /* Call user error callback */
#if (USE_HAL_SPI_REGISTER_CALLBACKS == 1U)
  hspi->ErrorCallback(hspi);
#else
  HAL_SPI_ErrorCallback(hspi);
 c0062ec:	68f8      	ldr	r0, [r7, #12]
 c0062ee:	f7ff fec1 	bl	c006074 <HAL_SPI_ErrorCallback>
#endif /* USE_HAL_SPI_REGISTER_CALLBACKS */
}
 c0062f2:	bf00      	nop
 c0062f4:	3710      	adds	r7, #16
 c0062f6:	46bd      	mov	sp, r7
 c0062f8:	bd80      	pop	{r7, pc}
	...

0c0062fc <SPI_WaitFlagStateUntilTimeout>:
  * @param  Tickstart tick start value
  * @retval HAL status
  */
static HAL_StatusTypeDef SPI_WaitFlagStateUntilTimeout(SPI_HandleTypeDef *hspi, uint32_t Flag, FlagStatus State,
                                                       uint32_t Timeout, uint32_t Tickstart)
{
 c0062fc:	b580      	push	{r7, lr}
 c0062fe:	b088      	sub	sp, #32
 c006300:	af00      	add	r7, sp, #0
 c006302:	60f8      	str	r0, [r7, #12]
 c006304:	60b9      	str	r1, [r7, #8]
 c006306:	603b      	str	r3, [r7, #0]
 c006308:	4613      	mov	r3, r2
 c00630a:	71fb      	strb	r3, [r7, #7]
  __IO uint32_t count;
  uint32_t tmp_timeout;
  uint32_t tmp_tickstart;

  /* Adjust Timeout value  in case of end of transfer */
  tmp_timeout   = Timeout - (HAL_GetTick() - Tickstart);
 c00630c:	f7fc f8ca 	bl	c0024a4 <HAL_GetTick>
 c006310:	4602      	mov	r2, r0
 c006312:	6abb      	ldr	r3, [r7, #40]	; 0x28
 c006314:	1a9b      	subs	r3, r3, r2
 c006316:	683a      	ldr	r2, [r7, #0]
 c006318:	4413      	add	r3, r2
 c00631a:	61fb      	str	r3, [r7, #28]
  tmp_tickstart = HAL_GetTick();
 c00631c:	f7fc f8c2 	bl	c0024a4 <HAL_GetTick>
 c006320:	61b8      	str	r0, [r7, #24]

  /* Calculate Timeout based on a software loop to avoid blocking issue if Systick is disabled */
  count = tmp_timeout * ((SystemCoreClock * 32U) >> 20U);
 c006322:	4b39      	ldr	r3, [pc, #228]	; (c006408 <SPI_WaitFlagStateUntilTimeout+0x10c>)
 c006324:	681b      	ldr	r3, [r3, #0]
 c006326:	015b      	lsls	r3, r3, #5
 c006328:	0d1b      	lsrs	r3, r3, #20
 c00632a:	69fa      	ldr	r2, [r7, #28]
 c00632c:	fb02 f303 	mul.w	r3, r2, r3
 c006330:	617b      	str	r3, [r7, #20]

  while ((__HAL_SPI_GET_FLAG(hspi, Flag) ? SET : RESET) != State)
 c006332:	e054      	b.n	c0063de <SPI_WaitFlagStateUntilTimeout+0xe2>
  {
    if (Timeout != HAL_MAX_DELAY)
 c006334:	683b      	ldr	r3, [r7, #0]
 c006336:	f1b3 3fff 	cmp.w	r3, #4294967295
 c00633a:	d050      	beq.n	c0063de <SPI_WaitFlagStateUntilTimeout+0xe2>
    {
      if (((HAL_GetTick() - tmp_tickstart) >= tmp_timeout) || (tmp_timeout == 0U))
 c00633c:	f7fc f8b2 	bl	c0024a4 <HAL_GetTick>
 c006340:	4602      	mov	r2, r0
 c006342:	69bb      	ldr	r3, [r7, #24]
 c006344:	1ad3      	subs	r3, r2, r3
 c006346:	69fa      	ldr	r2, [r7, #28]
 c006348:	429a      	cmp	r2, r3
 c00634a:	d902      	bls.n	c006352 <SPI_WaitFlagStateUntilTimeout+0x56>
 c00634c:	69fb      	ldr	r3, [r7, #28]
 c00634e:	2b00      	cmp	r3, #0
 c006350:	d13d      	bne.n	c0063ce <SPI_WaitFlagStateUntilTimeout+0xd2>
        /* Disable the SPI and reset the CRC: the CRC value should be cleared
           on both master and slave sides in order to resynchronize the master
           and slave for their respective CRC calculation */

        /* Disable TXE, RXNE and ERR interrupts for the interrupt process */
        __HAL_SPI_DISABLE_IT(hspi, (SPI_IT_TXE | SPI_IT_RXNE | SPI_IT_ERR));
 c006352:	68fb      	ldr	r3, [r7, #12]
 c006354:	681b      	ldr	r3, [r3, #0]
 c006356:	685a      	ldr	r2, [r3, #4]
 c006358:	68fb      	ldr	r3, [r7, #12]
 c00635a:	681b      	ldr	r3, [r3, #0]
 c00635c:	f022 02e0 	bic.w	r2, r2, #224	; 0xe0
 c006360:	605a      	str	r2, [r3, #4]

        if ((hspi->Init.Mode == SPI_MODE_MASTER) && ((hspi->Init.Direction == SPI_DIRECTION_1LINE)
 c006362:	68fb      	ldr	r3, [r7, #12]
 c006364:	685b      	ldr	r3, [r3, #4]
 c006366:	f5b3 7f82 	cmp.w	r3, #260	; 0x104
 c00636a:	d111      	bne.n	c006390 <SPI_WaitFlagStateUntilTimeout+0x94>
 c00636c:	68fb      	ldr	r3, [r7, #12]
 c00636e:	689b      	ldr	r3, [r3, #8]
 c006370:	f5b3 4f00 	cmp.w	r3, #32768	; 0x8000
 c006374:	d004      	beq.n	c006380 <SPI_WaitFlagStateUntilTimeout+0x84>
                                                     || (hspi->Init.Direction == SPI_DIRECTION_2LINES_RXONLY)))
 c006376:	68fb      	ldr	r3, [r7, #12]
 c006378:	689b      	ldr	r3, [r3, #8]
 c00637a:	f5b3 6f80 	cmp.w	r3, #1024	; 0x400
 c00637e:	d107      	bne.n	c006390 <SPI_WaitFlagStateUntilTimeout+0x94>
        {
          /* Disable SPI peripheral */
          __HAL_SPI_DISABLE(hspi);
 c006380:	68fb      	ldr	r3, [r7, #12]
 c006382:	681b      	ldr	r3, [r3, #0]
 c006384:	681a      	ldr	r2, [r3, #0]
 c006386:	68fb      	ldr	r3, [r7, #12]
 c006388:	681b      	ldr	r3, [r3, #0]
 c00638a:	f022 0240 	bic.w	r2, r2, #64	; 0x40
 c00638e:	601a      	str	r2, [r3, #0]
        }

        /* Reset CRC Calculation */
        if (hspi->Init.CRCCalculation == SPI_CRCCALCULATION_ENABLE)
 c006390:	68fb      	ldr	r3, [r7, #12]
 c006392:	6a9b      	ldr	r3, [r3, #40]	; 0x28
 c006394:	f5b3 5f00 	cmp.w	r3, #8192	; 0x2000
 c006398:	d10f      	bne.n	c0063ba <SPI_WaitFlagStateUntilTimeout+0xbe>
        {
          SPI_RESET_CRC(hspi);
 c00639a:	68fb      	ldr	r3, [r7, #12]
 c00639c:	681b      	ldr	r3, [r3, #0]
 c00639e:	681a      	ldr	r2, [r3, #0]
 c0063a0:	68fb      	ldr	r3, [r7, #12]
 c0063a2:	681b      	ldr	r3, [r3, #0]
 c0063a4:	f422 5200 	bic.w	r2, r2, #8192	; 0x2000
 c0063a8:	601a      	str	r2, [r3, #0]
 c0063aa:	68fb      	ldr	r3, [r7, #12]
 c0063ac:	681b      	ldr	r3, [r3, #0]
 c0063ae:	681a      	ldr	r2, [r3, #0]
 c0063b0:	68fb      	ldr	r3, [r7, #12]
 c0063b2:	681b      	ldr	r3, [r3, #0]
 c0063b4:	f442 5200 	orr.w	r2, r2, #8192	; 0x2000
 c0063b8:	601a      	str	r2, [r3, #0]
        }

        hspi->State = HAL_SPI_STATE_READY;
 c0063ba:	68fb      	ldr	r3, [r7, #12]
 c0063bc:	2201      	movs	r2, #1
 c0063be:	f883 205d 	strb.w	r2, [r3, #93]	; 0x5d

        /* Process Unlocked */
        __HAL_UNLOCK(hspi);
 c0063c2:	68fb      	ldr	r3, [r7, #12]
 c0063c4:	2200      	movs	r2, #0
 c0063c6:	f883 205c 	strb.w	r2, [r3, #92]	; 0x5c

        return HAL_TIMEOUT;
 c0063ca:	2303      	movs	r3, #3
 c0063cc:	e017      	b.n	c0063fe <SPI_WaitFlagStateUntilTimeout+0x102>
      }
      /* If Systick is disabled or not incremented, deactivate timeout to go in disable loop procedure */
      if (count == 0U)
 c0063ce:	697b      	ldr	r3, [r7, #20]
 c0063d0:	2b00      	cmp	r3, #0
 c0063d2:	d101      	bne.n	c0063d8 <SPI_WaitFlagStateUntilTimeout+0xdc>
      {
        tmp_timeout = 0U;
 c0063d4:	2300      	movs	r3, #0
 c0063d6:	61fb      	str	r3, [r7, #28]
      }
      count--;
 c0063d8:	697b      	ldr	r3, [r7, #20]
 c0063da:	3b01      	subs	r3, #1
 c0063dc:	617b      	str	r3, [r7, #20]
  while ((__HAL_SPI_GET_FLAG(hspi, Flag) ? SET : RESET) != State)
 c0063de:	68fb      	ldr	r3, [r7, #12]
 c0063e0:	681b      	ldr	r3, [r3, #0]
 c0063e2:	689a      	ldr	r2, [r3, #8]
 c0063e4:	68bb      	ldr	r3, [r7, #8]
 c0063e6:	4013      	ands	r3, r2
 c0063e8:	68ba      	ldr	r2, [r7, #8]
 c0063ea:	429a      	cmp	r2, r3
 c0063ec:	bf0c      	ite	eq
 c0063ee:	2301      	moveq	r3, #1
 c0063f0:	2300      	movne	r3, #0
 c0063f2:	b2db      	uxtb	r3, r3
 c0063f4:	461a      	mov	r2, r3
 c0063f6:	79fb      	ldrb	r3, [r7, #7]
 c0063f8:	429a      	cmp	r2, r3
 c0063fa:	d19b      	bne.n	c006334 <SPI_WaitFlagStateUntilTimeout+0x38>
    }
  }

  return HAL_OK;
 c0063fc:	2300      	movs	r3, #0
}
 c0063fe:	4618      	mov	r0, r3
 c006400:	3720      	adds	r7, #32
 c006402:	46bd      	mov	sp, r7
 c006404:	bd80      	pop	{r7, pc}
 c006406:	bf00      	nop
 c006408:	300000f8 	.word	0x300000f8

0c00640c <SPI_WaitFifoStateUntilTimeout>:
  * @param  Tickstart tick start value
  * @retval HAL status
  */
static HAL_StatusTypeDef SPI_WaitFifoStateUntilTimeout(SPI_HandleTypeDef *hspi, uint32_t Fifo, uint32_t State,
                                                       uint32_t Timeout, uint32_t Tickstart)
{
 c00640c:	b580      	push	{r7, lr}
 c00640e:	b08a      	sub	sp, #40	; 0x28
 c006410:	af00      	add	r7, sp, #0
 c006412:	60f8      	str	r0, [r7, #12]
 c006414:	60b9      	str	r1, [r7, #8]
 c006416:	607a      	str	r2, [r7, #4]
 c006418:	603b      	str	r3, [r7, #0]
  __IO uint32_t count;
  uint32_t tmp_timeout;
  uint32_t tmp_tickstart;
  __IO uint8_t  *ptmpreg8;
  __IO uint8_t  tmpreg8 = 0;
 c00641a:	2300      	movs	r3, #0
 c00641c:	75fb      	strb	r3, [r7, #23]

  /* Adjust Timeout value  in case of end of transfer */
  tmp_timeout = Timeout - (HAL_GetTick() - Tickstart);
 c00641e:	f7fc f841 	bl	c0024a4 <HAL_GetTick>
 c006422:	4602      	mov	r2, r0
 c006424:	6b3b      	ldr	r3, [r7, #48]	; 0x30
 c006426:	1a9b      	subs	r3, r3, r2
 c006428:	683a      	ldr	r2, [r7, #0]
 c00642a:	4413      	add	r3, r2
 c00642c:	627b      	str	r3, [r7, #36]	; 0x24
  tmp_tickstart = HAL_GetTick();
 c00642e:	f7fc f839 	bl	c0024a4 <HAL_GetTick>
 c006432:	6238      	str	r0, [r7, #32]

  /* Initialize the 8bit temporary pointer */
  ptmpreg8 = (__IO uint8_t *)&hspi->Instance->DR;
 c006434:	68fb      	ldr	r3, [r7, #12]
 c006436:	681b      	ldr	r3, [r3, #0]
 c006438:	330c      	adds	r3, #12
 c00643a:	61fb      	str	r3, [r7, #28]

  /* Calculate Timeout based on a software loop to avoid blocking issue if Systick is disabled */
  count = tmp_timeout * ((SystemCoreClock * 35U) >> 20U);
 c00643c:	4b3d      	ldr	r3, [pc, #244]	; (c006534 <SPI_WaitFifoStateUntilTimeout+0x128>)
 c00643e:	681a      	ldr	r2, [r3, #0]
 c006440:	4613      	mov	r3, r2
 c006442:	009b      	lsls	r3, r3, #2
 c006444:	4413      	add	r3, r2
 c006446:	00da      	lsls	r2, r3, #3
 c006448:	1ad3      	subs	r3, r2, r3
 c00644a:	0d1b      	lsrs	r3, r3, #20
 c00644c:	6a7a      	ldr	r2, [r7, #36]	; 0x24
 c00644e:	fb02 f303 	mul.w	r3, r2, r3
 c006452:	61bb      	str	r3, [r7, #24]

  while ((hspi->Instance->SR & Fifo) != State)
 c006454:	e060      	b.n	c006518 <SPI_WaitFifoStateUntilTimeout+0x10c>
  {
    if ((Fifo == SPI_SR_FRLVL) && (State == SPI_FRLVL_EMPTY))
 c006456:	68bb      	ldr	r3, [r7, #8]
 c006458:	f5b3 6fc0 	cmp.w	r3, #1536	; 0x600
 c00645c:	d107      	bne.n	c00646e <SPI_WaitFifoStateUntilTimeout+0x62>
 c00645e:	687b      	ldr	r3, [r7, #4]
 c006460:	2b00      	cmp	r3, #0
 c006462:	d104      	bne.n	c00646e <SPI_WaitFifoStateUntilTimeout+0x62>
    {
      /* Flush Data Register by a blank read */
      tmpreg8 = *ptmpreg8;
 c006464:	69fb      	ldr	r3, [r7, #28]
 c006466:	781b      	ldrb	r3, [r3, #0]
 c006468:	b2db      	uxtb	r3, r3
 c00646a:	75fb      	strb	r3, [r7, #23]
      /* To avoid GCC warning */
      UNUSED(tmpreg8);
 c00646c:	7dfb      	ldrb	r3, [r7, #23]
    }

    if (Timeout != HAL_MAX_DELAY)
 c00646e:	683b      	ldr	r3, [r7, #0]
 c006470:	f1b3 3fff 	cmp.w	r3, #4294967295
 c006474:	d050      	beq.n	c006518 <SPI_WaitFifoStateUntilTimeout+0x10c>
    {
      if (((HAL_GetTick() - tmp_tickstart) >= tmp_timeout) || (tmp_timeout == 0U))
 c006476:	f7fc f815 	bl	c0024a4 <HAL_GetTick>
 c00647a:	4602      	mov	r2, r0
 c00647c:	6a3b      	ldr	r3, [r7, #32]
 c00647e:	1ad3      	subs	r3, r2, r3
 c006480:	6a7a      	ldr	r2, [r7, #36]	; 0x24
 c006482:	429a      	cmp	r2, r3
 c006484:	d902      	bls.n	c00648c <SPI_WaitFifoStateUntilTimeout+0x80>
 c006486:	6a7b      	ldr	r3, [r7, #36]	; 0x24
 c006488:	2b00      	cmp	r3, #0
 c00648a:	d13d      	bne.n	c006508 <SPI_WaitFifoStateUntilTimeout+0xfc>
        /* Disable the SPI and reset the CRC: the CRC value should be cleared
           on both master and slave sides in order to resynchronize the master
           and slave for their respective CRC calculation */

        /* Disable TXE, RXNE and ERR interrupts for the interrupt process */
        __HAL_SPI_DISABLE_IT(hspi, (SPI_IT_TXE | SPI_IT_RXNE | SPI_IT_ERR));
 c00648c:	68fb      	ldr	r3, [r7, #12]
 c00648e:	681b      	ldr	r3, [r3, #0]
 c006490:	685a      	ldr	r2, [r3, #4]
 c006492:	68fb      	ldr	r3, [r7, #12]
 c006494:	681b      	ldr	r3, [r3, #0]
 c006496:	f022 02e0 	bic.w	r2, r2, #224	; 0xe0
 c00649a:	605a      	str	r2, [r3, #4]

        if ((hspi->Init.Mode == SPI_MODE_MASTER) && ((hspi->Init.Direction == SPI_DIRECTION_1LINE)
 c00649c:	68fb      	ldr	r3, [r7, #12]
 c00649e:	685b      	ldr	r3, [r3, #4]
 c0064a0:	f5b3 7f82 	cmp.w	r3, #260	; 0x104
 c0064a4:	d111      	bne.n	c0064ca <SPI_WaitFifoStateUntilTimeout+0xbe>
 c0064a6:	68fb      	ldr	r3, [r7, #12]
 c0064a8:	689b      	ldr	r3, [r3, #8]
 c0064aa:	f5b3 4f00 	cmp.w	r3, #32768	; 0x8000
 c0064ae:	d004      	beq.n	c0064ba <SPI_WaitFifoStateUntilTimeout+0xae>
                                                     || (hspi->Init.Direction == SPI_DIRECTION_2LINES_RXONLY)))
 c0064b0:	68fb      	ldr	r3, [r7, #12]
 c0064b2:	689b      	ldr	r3, [r3, #8]
 c0064b4:	f5b3 6f80 	cmp.w	r3, #1024	; 0x400
 c0064b8:	d107      	bne.n	c0064ca <SPI_WaitFifoStateUntilTimeout+0xbe>
        {
          /* Disable SPI peripheral */
          __HAL_SPI_DISABLE(hspi);
 c0064ba:	68fb      	ldr	r3, [r7, #12]
 c0064bc:	681b      	ldr	r3, [r3, #0]
 c0064be:	681a      	ldr	r2, [r3, #0]
 c0064c0:	68fb      	ldr	r3, [r7, #12]
 c0064c2:	681b      	ldr	r3, [r3, #0]
 c0064c4:	f022 0240 	bic.w	r2, r2, #64	; 0x40
 c0064c8:	601a      	str	r2, [r3, #0]
        }

        /* Reset CRC Calculation */
        if (hspi->Init.CRCCalculation == SPI_CRCCALCULATION_ENABLE)
 c0064ca:	68fb      	ldr	r3, [r7, #12]
 c0064cc:	6a9b      	ldr	r3, [r3, #40]	; 0x28
 c0064ce:	f5b3 5f00 	cmp.w	r3, #8192	; 0x2000
 c0064d2:	d10f      	bne.n	c0064f4 <SPI_WaitFifoStateUntilTimeout+0xe8>
        {
          SPI_RESET_CRC(hspi);
 c0064d4:	68fb      	ldr	r3, [r7, #12]
 c0064d6:	681b      	ldr	r3, [r3, #0]
 c0064d8:	681a      	ldr	r2, [r3, #0]
 c0064da:	68fb      	ldr	r3, [r7, #12]
 c0064dc:	681b      	ldr	r3, [r3, #0]
 c0064de:	f422 5200 	bic.w	r2, r2, #8192	; 0x2000
 c0064e2:	601a      	str	r2, [r3, #0]
 c0064e4:	68fb      	ldr	r3, [r7, #12]
 c0064e6:	681b      	ldr	r3, [r3, #0]
 c0064e8:	681a      	ldr	r2, [r3, #0]
 c0064ea:	68fb      	ldr	r3, [r7, #12]
 c0064ec:	681b      	ldr	r3, [r3, #0]
 c0064ee:	f442 5200 	orr.w	r2, r2, #8192	; 0x2000
 c0064f2:	601a      	str	r2, [r3, #0]
        }

        hspi->State = HAL_SPI_STATE_READY;
 c0064f4:	68fb      	ldr	r3, [r7, #12]
 c0064f6:	2201      	movs	r2, #1
 c0064f8:	f883 205d 	strb.w	r2, [r3, #93]	; 0x5d

        /* Process Unlocked */
        __HAL_UNLOCK(hspi);
 c0064fc:	68fb      	ldr	r3, [r7, #12]
 c0064fe:	2200      	movs	r2, #0
 c006500:	f883 205c 	strb.w	r2, [r3, #92]	; 0x5c

        return HAL_TIMEOUT;
 c006504:	2303      	movs	r3, #3
 c006506:	e010      	b.n	c00652a <SPI_WaitFifoStateUntilTimeout+0x11e>
      }
      /* If Systick is disabled or not incremented, deactivate timeout to go in disable loop procedure */
      if (count == 0U)
 c006508:	69bb      	ldr	r3, [r7, #24]
 c00650a:	2b00      	cmp	r3, #0
 c00650c:	d101      	bne.n	c006512 <SPI_WaitFifoStateUntilTimeout+0x106>
      {
        tmp_timeout = 0U;
 c00650e:	2300      	movs	r3, #0
 c006510:	627b      	str	r3, [r7, #36]	; 0x24
      }
      count--;
 c006512:	69bb      	ldr	r3, [r7, #24]
 c006514:	3b01      	subs	r3, #1
 c006516:	61bb      	str	r3, [r7, #24]
  while ((hspi->Instance->SR & Fifo) != State)
 c006518:	68fb      	ldr	r3, [r7, #12]
 c00651a:	681b      	ldr	r3, [r3, #0]
 c00651c:	689a      	ldr	r2, [r3, #8]
 c00651e:	68bb      	ldr	r3, [r7, #8]
 c006520:	4013      	ands	r3, r2
 c006522:	687a      	ldr	r2, [r7, #4]
 c006524:	429a      	cmp	r2, r3
 c006526:	d196      	bne.n	c006456 <SPI_WaitFifoStateUntilTimeout+0x4a>
    }
  }

  return HAL_OK;
 c006528:	2300      	movs	r3, #0
}
 c00652a:	4618      	mov	r0, r3
 c00652c:	3728      	adds	r7, #40	; 0x28
 c00652e:	46bd      	mov	sp, r7
 c006530:	bd80      	pop	{r7, pc}
 c006532:	bf00      	nop
 c006534:	300000f8 	.word	0x300000f8

0c006538 <SPI_EndRxTransaction>:
  * @param  Timeout Timeout duration
  * @param  Tickstart tick start value
  * @retval HAL status
  */
static HAL_StatusTypeDef SPI_EndRxTransaction(SPI_HandleTypeDef *hspi,  uint32_t Timeout, uint32_t Tickstart)
{
 c006538:	b580      	push	{r7, lr}
 c00653a:	b086      	sub	sp, #24
 c00653c:	af02      	add	r7, sp, #8
 c00653e:	60f8      	str	r0, [r7, #12]
 c006540:	60b9      	str	r1, [r7, #8]
 c006542:	607a      	str	r2, [r7, #4]
  if ((hspi->Init.Mode == SPI_MODE_MASTER) && ((hspi->Init.Direction == SPI_DIRECTION_1LINE)
 c006544:	68fb      	ldr	r3, [r7, #12]
 c006546:	685b      	ldr	r3, [r3, #4]
 c006548:	f5b3 7f82 	cmp.w	r3, #260	; 0x104
 c00654c:	d111      	bne.n	c006572 <SPI_EndRxTransaction+0x3a>
 c00654e:	68fb      	ldr	r3, [r7, #12]
 c006550:	689b      	ldr	r3, [r3, #8]
 c006552:	f5b3 4f00 	cmp.w	r3, #32768	; 0x8000
 c006556:	d004      	beq.n	c006562 <SPI_EndRxTransaction+0x2a>
                                               || (hspi->Init.Direction == SPI_DIRECTION_2LINES_RXONLY)))
 c006558:	68fb      	ldr	r3, [r7, #12]
 c00655a:	689b      	ldr	r3, [r3, #8]
 c00655c:	f5b3 6f80 	cmp.w	r3, #1024	; 0x400
 c006560:	d107      	bne.n	c006572 <SPI_EndRxTransaction+0x3a>
  {
    /* Disable SPI peripheral */
    __HAL_SPI_DISABLE(hspi);
 c006562:	68fb      	ldr	r3, [r7, #12]
 c006564:	681b      	ldr	r3, [r3, #0]
 c006566:	681a      	ldr	r2, [r3, #0]
 c006568:	68fb      	ldr	r3, [r7, #12]
 c00656a:	681b      	ldr	r3, [r3, #0]
 c00656c:	f022 0240 	bic.w	r2, r2, #64	; 0x40
 c006570:	601a      	str	r2, [r3, #0]
  }

  /* Control the BSY flag */
  if (SPI_WaitFlagStateUntilTimeout(hspi, SPI_FLAG_BSY, RESET, Timeout, Tickstart) != HAL_OK)
 c006572:	687b      	ldr	r3, [r7, #4]
 c006574:	9300      	str	r3, [sp, #0]
 c006576:	68bb      	ldr	r3, [r7, #8]
 c006578:	2200      	movs	r2, #0
 c00657a:	2180      	movs	r1, #128	; 0x80
 c00657c:	68f8      	ldr	r0, [r7, #12]
 c00657e:	f7ff febd 	bl	c0062fc <SPI_WaitFlagStateUntilTimeout>
 c006582:	4603      	mov	r3, r0
 c006584:	2b00      	cmp	r3, #0
 c006586:	d007      	beq.n	c006598 <SPI_EndRxTransaction+0x60>
  {
    SET_BIT(hspi->ErrorCode, HAL_SPI_ERROR_FLAG);
 c006588:	68fb      	ldr	r3, [r7, #12]
 c00658a:	6e1b      	ldr	r3, [r3, #96]	; 0x60
 c00658c:	f043 0220 	orr.w	r2, r3, #32
 c006590:	68fb      	ldr	r3, [r7, #12]
 c006592:	661a      	str	r2, [r3, #96]	; 0x60
    return HAL_TIMEOUT;
 c006594:	2303      	movs	r3, #3
 c006596:	e023      	b.n	c0065e0 <SPI_EndRxTransaction+0xa8>
  }

  if ((hspi->Init.Mode == SPI_MODE_MASTER) && ((hspi->Init.Direction == SPI_DIRECTION_1LINE)
 c006598:	68fb      	ldr	r3, [r7, #12]
 c00659a:	685b      	ldr	r3, [r3, #4]
 c00659c:	f5b3 7f82 	cmp.w	r3, #260	; 0x104
 c0065a0:	d11d      	bne.n	c0065de <SPI_EndRxTransaction+0xa6>
 c0065a2:	68fb      	ldr	r3, [r7, #12]
 c0065a4:	689b      	ldr	r3, [r3, #8]
 c0065a6:	f5b3 4f00 	cmp.w	r3, #32768	; 0x8000
 c0065aa:	d004      	beq.n	c0065b6 <SPI_EndRxTransaction+0x7e>
                                               || (hspi->Init.Direction == SPI_DIRECTION_2LINES_RXONLY)))
 c0065ac:	68fb      	ldr	r3, [r7, #12]
 c0065ae:	689b      	ldr	r3, [r3, #8]
 c0065b0:	f5b3 6f80 	cmp.w	r3, #1024	; 0x400
 c0065b4:	d113      	bne.n	c0065de <SPI_EndRxTransaction+0xa6>
  {
    /* Empty the FRLVL fifo */
    if (SPI_WaitFifoStateUntilTimeout(hspi, SPI_FLAG_FRLVL, SPI_FRLVL_EMPTY, Timeout, Tickstart) != HAL_OK)
 c0065b6:	687b      	ldr	r3, [r7, #4]
 c0065b8:	9300      	str	r3, [sp, #0]
 c0065ba:	68bb      	ldr	r3, [r7, #8]
 c0065bc:	2200      	movs	r2, #0
 c0065be:	f44f 61c0 	mov.w	r1, #1536	; 0x600
 c0065c2:	68f8      	ldr	r0, [r7, #12]
 c0065c4:	f7ff ff22 	bl	c00640c <SPI_WaitFifoStateUntilTimeout>
 c0065c8:	4603      	mov	r3, r0
 c0065ca:	2b00      	cmp	r3, #0
 c0065cc:	d007      	beq.n	c0065de <SPI_EndRxTransaction+0xa6>
    {
      SET_BIT(hspi->ErrorCode, HAL_SPI_ERROR_FLAG);
 c0065ce:	68fb      	ldr	r3, [r7, #12]
 c0065d0:	6e1b      	ldr	r3, [r3, #96]	; 0x60
 c0065d2:	f043 0220 	orr.w	r2, r3, #32
 c0065d6:	68fb      	ldr	r3, [r7, #12]
 c0065d8:	661a      	str	r2, [r3, #96]	; 0x60
      return HAL_TIMEOUT;
 c0065da:	2303      	movs	r3, #3
 c0065dc:	e000      	b.n	c0065e0 <SPI_EndRxTransaction+0xa8>
    }
  }
  return HAL_OK;
 c0065de:	2300      	movs	r3, #0
}
 c0065e0:	4618      	mov	r0, r3
 c0065e2:	3710      	adds	r7, #16
 c0065e4:	46bd      	mov	sp, r7
 c0065e6:	bd80      	pop	{r7, pc}

0c0065e8 <SPI_EndRxTxTransaction>:
  * @param  Timeout Timeout duration
  * @param  Tickstart tick start value
  * @retval HAL status
  */
static HAL_StatusTypeDef SPI_EndRxTxTransaction(SPI_HandleTypeDef *hspi, uint32_t Timeout, uint32_t Tickstart)
{
 c0065e8:	b580      	push	{r7, lr}
 c0065ea:	b086      	sub	sp, #24
 c0065ec:	af02      	add	r7, sp, #8
 c0065ee:	60f8      	str	r0, [r7, #12]
 c0065f0:	60b9      	str	r1, [r7, #8]
 c0065f2:	607a      	str	r2, [r7, #4]
  /* Control if the TX fifo is empty */
  if (SPI_WaitFifoStateUntilTimeout(hspi, SPI_FLAG_FTLVL, SPI_FTLVL_EMPTY, Timeout, Tickstart) != HAL_OK)
 c0065f4:	687b      	ldr	r3, [r7, #4]
 c0065f6:	9300      	str	r3, [sp, #0]
 c0065f8:	68bb      	ldr	r3, [r7, #8]
 c0065fa:	2200      	movs	r2, #0
 c0065fc:	f44f 51c0 	mov.w	r1, #6144	; 0x1800
 c006600:	68f8      	ldr	r0, [r7, #12]
 c006602:	f7ff ff03 	bl	c00640c <SPI_WaitFifoStateUntilTimeout>
 c006606:	4603      	mov	r3, r0
 c006608:	2b00      	cmp	r3, #0
 c00660a:	d007      	beq.n	c00661c <SPI_EndRxTxTransaction+0x34>
  {
    SET_BIT(hspi->ErrorCode, HAL_SPI_ERROR_FLAG);
 c00660c:	68fb      	ldr	r3, [r7, #12]
 c00660e:	6e1b      	ldr	r3, [r3, #96]	; 0x60
 c006610:	f043 0220 	orr.w	r2, r3, #32
 c006614:	68fb      	ldr	r3, [r7, #12]
 c006616:	661a      	str	r2, [r3, #96]	; 0x60
    return HAL_TIMEOUT;
 c006618:	2303      	movs	r3, #3
 c00661a:	e027      	b.n	c00666c <SPI_EndRxTxTransaction+0x84>
  }

  /* Control the BSY flag */
  if (SPI_WaitFlagStateUntilTimeout(hspi, SPI_FLAG_BSY, RESET, Timeout, Tickstart) != HAL_OK)
 c00661c:	687b      	ldr	r3, [r7, #4]
 c00661e:	9300      	str	r3, [sp, #0]
 c006620:	68bb      	ldr	r3, [r7, #8]
 c006622:	2200      	movs	r2, #0
 c006624:	2180      	movs	r1, #128	; 0x80
 c006626:	68f8      	ldr	r0, [r7, #12]
 c006628:	f7ff fe68 	bl	c0062fc <SPI_WaitFlagStateUntilTimeout>
 c00662c:	4603      	mov	r3, r0
 c00662e:	2b00      	cmp	r3, #0
 c006630:	d007      	beq.n	c006642 <SPI_EndRxTxTransaction+0x5a>
  {
    SET_BIT(hspi->ErrorCode, HAL_SPI_ERROR_FLAG);
 c006632:	68fb      	ldr	r3, [r7, #12]
 c006634:	6e1b      	ldr	r3, [r3, #96]	; 0x60
 c006636:	f043 0220 	orr.w	r2, r3, #32
 c00663a:	68fb      	ldr	r3, [r7, #12]
 c00663c:	661a      	str	r2, [r3, #96]	; 0x60
    return HAL_TIMEOUT;
 c00663e:	2303      	movs	r3, #3
 c006640:	e014      	b.n	c00666c <SPI_EndRxTxTransaction+0x84>
  }

  /* Control if the RX fifo is empty */
  if (SPI_WaitFifoStateUntilTimeout(hspi, SPI_FLAG_FRLVL, SPI_FRLVL_EMPTY, Timeout, Tickstart) != HAL_OK)
 c006642:	687b      	ldr	r3, [r7, #4]
 c006644:	9300      	str	r3, [sp, #0]
 c006646:	68bb      	ldr	r3, [r7, #8]
 c006648:	2200      	movs	r2, #0
 c00664a:	f44f 61c0 	mov.w	r1, #1536	; 0x600
 c00664e:	68f8      	ldr	r0, [r7, #12]
 c006650:	f7ff fedc 	bl	c00640c <SPI_WaitFifoStateUntilTimeout>
 c006654:	4603      	mov	r3, r0
 c006656:	2b00      	cmp	r3, #0
 c006658:	d007      	beq.n	c00666a <SPI_EndRxTxTransaction+0x82>
  {
    SET_BIT(hspi->ErrorCode, HAL_SPI_ERROR_FLAG);
 c00665a:	68fb      	ldr	r3, [r7, #12]
 c00665c:	6e1b      	ldr	r3, [r3, #96]	; 0x60
 c00665e:	f043 0220 	orr.w	r2, r3, #32
 c006662:	68fb      	ldr	r3, [r7, #12]
 c006664:	661a      	str	r2, [r3, #96]	; 0x60
    return HAL_TIMEOUT;
 c006666:	2303      	movs	r3, #3
 c006668:	e000      	b.n	c00666c <SPI_EndRxTxTransaction+0x84>
  }

  return HAL_OK;
 c00666a:	2300      	movs	r3, #0
}
 c00666c:	4618      	mov	r0, r3
 c00666e:	3710      	adds	r7, #16
 c006670:	46bd      	mov	sp, r7
 c006672:	bd80      	pop	{r7, pc}

0c006674 <HAL_UART_Init>:
  *        parameters in the UART_InitTypeDef and initialize the associated handle.
  * @param huart UART handle.
  * @retval HAL status
  */
HAL_StatusTypeDef HAL_UART_Init(UART_HandleTypeDef *huart)
{
 c006674:	b580      	push	{r7, lr}
 c006676:	b082      	sub	sp, #8
 c006678:	af00      	add	r7, sp, #0
 c00667a:	6078      	str	r0, [r7, #4]
  /* Check the UART handle allocation */
  if (huart == NULL)
 c00667c:	687b      	ldr	r3, [r7, #4]
 c00667e:	2b00      	cmp	r3, #0
 c006680:	d101      	bne.n	c006686 <HAL_UART_Init+0x12>
  {
    return HAL_ERROR;
 c006682:	2301      	movs	r3, #1
 c006684:	e042      	b.n	c00670c <HAL_UART_Init+0x98>
  {
    /* Check the parameters */
    assert_param((IS_UART_INSTANCE(huart->Instance)) || (IS_LPUART_INSTANCE(huart->Instance)));
  }

  if (huart->gState == HAL_UART_STATE_RESET)
 c006686:	687b      	ldr	r3, [r7, #4]
 c006688:	f8d3 3088 	ldr.w	r3, [r3, #136]	; 0x88
 c00668c:	2b00      	cmp	r3, #0
 c00668e:	d106      	bne.n	c00669e <HAL_UART_Init+0x2a>
  {
    /* Allocate lock resource and initialize it */
    huart->Lock = HAL_UNLOCKED;
 c006690:	687b      	ldr	r3, [r7, #4]
 c006692:	2200      	movs	r2, #0
 c006694:	f883 2084 	strb.w	r2, [r3, #132]	; 0x84

    /* Init the low level hardware */
    huart->MspInitCallback(huart);
#else
    /* Init the low level hardware : GPIO, CLOCK */
    HAL_UART_MspInit(huart);
 c006698:	6878      	ldr	r0, [r7, #4]
 c00669a:	f7fb fb8f 	bl	c001dbc <HAL_UART_MspInit>
#endif /* (USE_HAL_UART_REGISTER_CALLBACKS) */
  }

  huart->gState = HAL_UART_STATE_BUSY;
 c00669e:	687b      	ldr	r3, [r7, #4]
 c0066a0:	2224      	movs	r2, #36	; 0x24
 c0066a2:	f8c3 2088 	str.w	r2, [r3, #136]	; 0x88

  __HAL_UART_DISABLE(huart);
 c0066a6:	687b      	ldr	r3, [r7, #4]
 c0066a8:	681b      	ldr	r3, [r3, #0]
 c0066aa:	681a      	ldr	r2, [r3, #0]
 c0066ac:	687b      	ldr	r3, [r7, #4]
 c0066ae:	681b      	ldr	r3, [r3, #0]
 c0066b0:	f022 0201 	bic.w	r2, r2, #1
 c0066b4:	601a      	str	r2, [r3, #0]

  /* Set the UART Communication parameters */
  if (UART_SetConfig(huart) == HAL_ERROR)
 c0066b6:	6878      	ldr	r0, [r7, #4]
 c0066b8:	f000 f8ba 	bl	c006830 <UART_SetConfig>
 c0066bc:	4603      	mov	r3, r0
 c0066be:	2b01      	cmp	r3, #1
 c0066c0:	d101      	bne.n	c0066c6 <HAL_UART_Init+0x52>
  {
    return HAL_ERROR;
 c0066c2:	2301      	movs	r3, #1
 c0066c4:	e022      	b.n	c00670c <HAL_UART_Init+0x98>
  }

  if (huart->AdvancedInit.AdvFeatureInit != UART_ADVFEATURE_NO_INIT)
 c0066c6:	687b      	ldr	r3, [r7, #4]
 c0066c8:	6a9b      	ldr	r3, [r3, #40]	; 0x28
 c0066ca:	2b00      	cmp	r3, #0
 c0066cc:	d002      	beq.n	c0066d4 <HAL_UART_Init+0x60>
  {
    UART_AdvFeatureConfig(huart);
 c0066ce:	6878      	ldr	r0, [r7, #4]
 c0066d0:	f000 fbac 	bl	c006e2c <UART_AdvFeatureConfig>
  }

  /* In asynchronous mode, the following bits must be kept cleared:
  - LINEN and CLKEN bits in the USART_CR2 register,
  - SCEN, HDSEL and IREN  bits in the USART_CR3 register.*/
  CLEAR_BIT(huart->Instance->CR2, (USART_CR2_LINEN | USART_CR2_CLKEN));
 c0066d4:	687b      	ldr	r3, [r7, #4]
 c0066d6:	681b      	ldr	r3, [r3, #0]
 c0066d8:	685a      	ldr	r2, [r3, #4]
 c0066da:	687b      	ldr	r3, [r7, #4]
 c0066dc:	681b      	ldr	r3, [r3, #0]
 c0066de:	f422 4290 	bic.w	r2, r2, #18432	; 0x4800
 c0066e2:	605a      	str	r2, [r3, #4]
  CLEAR_BIT(huart->Instance->CR3, (USART_CR3_SCEN | USART_CR3_HDSEL | USART_CR3_IREN));
 c0066e4:	687b      	ldr	r3, [r7, #4]
 c0066e6:	681b      	ldr	r3, [r3, #0]
 c0066e8:	689a      	ldr	r2, [r3, #8]
 c0066ea:	687b      	ldr	r3, [r7, #4]
 c0066ec:	681b      	ldr	r3, [r3, #0]
 c0066ee:	f022 022a 	bic.w	r2, r2, #42	; 0x2a
 c0066f2:	609a      	str	r2, [r3, #8]

  __HAL_UART_ENABLE(huart);
 c0066f4:	687b      	ldr	r3, [r7, #4]
 c0066f6:	681b      	ldr	r3, [r3, #0]
 c0066f8:	681a      	ldr	r2, [r3, #0]
 c0066fa:	687b      	ldr	r3, [r7, #4]
 c0066fc:	681b      	ldr	r3, [r3, #0]
 c0066fe:	f042 0201 	orr.w	r2, r2, #1
 c006702:	601a      	str	r2, [r3, #0]

  /* TEACK and/or REACK to check before moving huart->gState and huart->RxState to Ready */
  return (UART_CheckIdleState(huart));
 c006704:	6878      	ldr	r0, [r7, #4]
 c006706:	f000 fc33 	bl	c006f70 <UART_CheckIdleState>
 c00670a:	4603      	mov	r3, r0
}
 c00670c:	4618      	mov	r0, r3
 c00670e:	3708      	adds	r7, #8
 c006710:	46bd      	mov	sp, r7
 c006712:	bd80      	pop	{r7, pc}

0c006714 <HAL_UART_Transmit>:
  * @param Size    Amount of data elements (u8 or u16) to be sent.
  * @param Timeout Timeout duration.
  * @retval HAL status
  */
HAL_StatusTypeDef HAL_UART_Transmit(UART_HandleTypeDef *huart, const uint8_t *pData, uint16_t Size, uint32_t Timeout)
{
 c006714:	b580      	push	{r7, lr}
 c006716:	b08a      	sub	sp, #40	; 0x28
 c006718:	af02      	add	r7, sp, #8
 c00671a:	60f8      	str	r0, [r7, #12]
 c00671c:	60b9      	str	r1, [r7, #8]
 c00671e:	603b      	str	r3, [r7, #0]
 c006720:	4613      	mov	r3, r2
 c006722:	80fb      	strh	r3, [r7, #6]
  const uint8_t  *pdata8bits;
  const uint16_t *pdata16bits;
  uint32_t tickstart;

  /* Check that a Tx process is not already ongoing */
  if (huart->gState == HAL_UART_STATE_READY)
 c006724:	68fb      	ldr	r3, [r7, #12]
 c006726:	f8d3 3088 	ldr.w	r3, [r3, #136]	; 0x88
 c00672a:	2b20      	cmp	r3, #32
 c00672c:	d17b      	bne.n	c006826 <HAL_UART_Transmit+0x112>
  {
    if ((pData == NULL) || (Size == 0U))
 c00672e:	68bb      	ldr	r3, [r7, #8]
 c006730:	2b00      	cmp	r3, #0
 c006732:	d002      	beq.n	c00673a <HAL_UART_Transmit+0x26>
 c006734:	88fb      	ldrh	r3, [r7, #6]
 c006736:	2b00      	cmp	r3, #0
 c006738:	d101      	bne.n	c00673e <HAL_UART_Transmit+0x2a>
    {
      return  HAL_ERROR;
 c00673a:	2301      	movs	r3, #1
 c00673c:	e074      	b.n	c006828 <HAL_UART_Transmit+0x114>
    }

    huart->ErrorCode = HAL_UART_ERROR_NONE;
 c00673e:	68fb      	ldr	r3, [r7, #12]
 c006740:	2200      	movs	r2, #0
 c006742:	f8c3 2090 	str.w	r2, [r3, #144]	; 0x90
    huart->gState = HAL_UART_STATE_BUSY_TX;
 c006746:	68fb      	ldr	r3, [r7, #12]
 c006748:	2221      	movs	r2, #33	; 0x21
 c00674a:	f8c3 2088 	str.w	r2, [r3, #136]	; 0x88

    /* Init tickstart for timeout management */
    tickstart = HAL_GetTick();
 c00674e:	f7fb fea9 	bl	c0024a4 <HAL_GetTick>
 c006752:	6178      	str	r0, [r7, #20]

    huart->TxXferSize  = Size;
 c006754:	68fb      	ldr	r3, [r7, #12]
 c006756:	88fa      	ldrh	r2, [r7, #6]
 c006758:	f8a3 2054 	strh.w	r2, [r3, #84]	; 0x54
    huart->TxXferCount = Size;
 c00675c:	68fb      	ldr	r3, [r7, #12]
 c00675e:	88fa      	ldrh	r2, [r7, #6]
 c006760:	f8a3 2056 	strh.w	r2, [r3, #86]	; 0x56

    /* In case of 9bits/No Parity transfer, pData needs to be handled as a uint16_t pointer */
    if ((huart->Init.WordLength == UART_WORDLENGTH_9B) && (huart->Init.Parity == UART_PARITY_NONE))
 c006764:	68fb      	ldr	r3, [r7, #12]
 c006766:	689b      	ldr	r3, [r3, #8]
 c006768:	f5b3 5f80 	cmp.w	r3, #4096	; 0x1000
 c00676c:	d108      	bne.n	c006780 <HAL_UART_Transmit+0x6c>
 c00676e:	68fb      	ldr	r3, [r7, #12]
 c006770:	691b      	ldr	r3, [r3, #16]
 c006772:	2b00      	cmp	r3, #0
 c006774:	d104      	bne.n	c006780 <HAL_UART_Transmit+0x6c>
    {
      pdata8bits  = NULL;
 c006776:	2300      	movs	r3, #0
 c006778:	61fb      	str	r3, [r7, #28]
      pdata16bits = (const uint16_t *) pData;
 c00677a:	68bb      	ldr	r3, [r7, #8]
 c00677c:	61bb      	str	r3, [r7, #24]
 c00677e:	e003      	b.n	c006788 <HAL_UART_Transmit+0x74>
    }
    else
    {
      pdata8bits  = pData;
 c006780:	68bb      	ldr	r3, [r7, #8]
 c006782:	61fb      	str	r3, [r7, #28]
      pdata16bits = NULL;
 c006784:	2300      	movs	r3, #0
 c006786:	61bb      	str	r3, [r7, #24]
    }

    while (huart->TxXferCount > 0U)
 c006788:	e030      	b.n	c0067ec <HAL_UART_Transmit+0xd8>
    {
      if (UART_WaitOnFlagUntilTimeout(huart, UART_FLAG_TXE, RESET, tickstart, Timeout) != HAL_OK)
 c00678a:	683b      	ldr	r3, [r7, #0]
 c00678c:	9300      	str	r3, [sp, #0]
 c00678e:	697b      	ldr	r3, [r7, #20]
 c006790:	2200      	movs	r2, #0
 c006792:	2180      	movs	r1, #128	; 0x80
 c006794:	68f8      	ldr	r0, [r7, #12]
 c006796:	f000 fc95 	bl	c0070c4 <UART_WaitOnFlagUntilTimeout>
 c00679a:	4603      	mov	r3, r0
 c00679c:	2b00      	cmp	r3, #0
 c00679e:	d005      	beq.n	c0067ac <HAL_UART_Transmit+0x98>
      {

        huart->gState = HAL_UART_STATE_READY;
 c0067a0:	68fb      	ldr	r3, [r7, #12]
 c0067a2:	2220      	movs	r2, #32
 c0067a4:	f8c3 2088 	str.w	r2, [r3, #136]	; 0x88

        return HAL_TIMEOUT;
 c0067a8:	2303      	movs	r3, #3
 c0067aa:	e03d      	b.n	c006828 <HAL_UART_Transmit+0x114>
      }
      if (pdata8bits == NULL)
 c0067ac:	69fb      	ldr	r3, [r7, #28]
 c0067ae:	2b00      	cmp	r3, #0
 c0067b0:	d10b      	bne.n	c0067ca <HAL_UART_Transmit+0xb6>
      {
        huart->Instance->TDR = (uint16_t)(*pdata16bits & 0x01FFU);
 c0067b2:	69bb      	ldr	r3, [r7, #24]
 c0067b4:	881b      	ldrh	r3, [r3, #0]
 c0067b6:	461a      	mov	r2, r3
 c0067b8:	68fb      	ldr	r3, [r7, #12]
 c0067ba:	681b      	ldr	r3, [r3, #0]
 c0067bc:	f3c2 0208 	ubfx	r2, r2, #0, #9
 c0067c0:	629a      	str	r2, [r3, #40]	; 0x28
        pdata16bits++;
 c0067c2:	69bb      	ldr	r3, [r7, #24]
 c0067c4:	3302      	adds	r3, #2
 c0067c6:	61bb      	str	r3, [r7, #24]
 c0067c8:	e007      	b.n	c0067da <HAL_UART_Transmit+0xc6>
      }
      else
      {
        huart->Instance->TDR = (uint8_t)(*pdata8bits & 0xFFU);
 c0067ca:	69fb      	ldr	r3, [r7, #28]
 c0067cc:	781a      	ldrb	r2, [r3, #0]
 c0067ce:	68fb      	ldr	r3, [r7, #12]
 c0067d0:	681b      	ldr	r3, [r3, #0]
 c0067d2:	629a      	str	r2, [r3, #40]	; 0x28
        pdata8bits++;
 c0067d4:	69fb      	ldr	r3, [r7, #28]
 c0067d6:	3301      	adds	r3, #1
 c0067d8:	61fb      	str	r3, [r7, #28]
      }
      huart->TxXferCount--;
 c0067da:	68fb      	ldr	r3, [r7, #12]
 c0067dc:	f8b3 3056 	ldrh.w	r3, [r3, #86]	; 0x56
 c0067e0:	b29b      	uxth	r3, r3
 c0067e2:	3b01      	subs	r3, #1
 c0067e4:	b29a      	uxth	r2, r3
 c0067e6:	68fb      	ldr	r3, [r7, #12]
 c0067e8:	f8a3 2056 	strh.w	r2, [r3, #86]	; 0x56
    while (huart->TxXferCount > 0U)
 c0067ec:	68fb      	ldr	r3, [r7, #12]
 c0067ee:	f8b3 3056 	ldrh.w	r3, [r3, #86]	; 0x56
 c0067f2:	b29b      	uxth	r3, r3
 c0067f4:	2b00      	cmp	r3, #0
 c0067f6:	d1c8      	bne.n	c00678a <HAL_UART_Transmit+0x76>
    }

    if (UART_WaitOnFlagUntilTimeout(huart, UART_FLAG_TC, RESET, tickstart, Timeout) != HAL_OK)
 c0067f8:	683b      	ldr	r3, [r7, #0]
 c0067fa:	9300      	str	r3, [sp, #0]
 c0067fc:	697b      	ldr	r3, [r7, #20]
 c0067fe:	2200      	movs	r2, #0
 c006800:	2140      	movs	r1, #64	; 0x40
 c006802:	68f8      	ldr	r0, [r7, #12]
 c006804:	f000 fc5e 	bl	c0070c4 <UART_WaitOnFlagUntilTimeout>
 c006808:	4603      	mov	r3, r0
 c00680a:	2b00      	cmp	r3, #0
 c00680c:	d005      	beq.n	c00681a <HAL_UART_Transmit+0x106>
    {
      huart->gState = HAL_UART_STATE_READY;
 c00680e:	68fb      	ldr	r3, [r7, #12]
 c006810:	2220      	movs	r2, #32
 c006812:	f8c3 2088 	str.w	r2, [r3, #136]	; 0x88

      return HAL_TIMEOUT;
 c006816:	2303      	movs	r3, #3
 c006818:	e006      	b.n	c006828 <HAL_UART_Transmit+0x114>
    }

    /* At end of Tx process, restore huart->gState to Ready */
    huart->gState = HAL_UART_STATE_READY;
 c00681a:	68fb      	ldr	r3, [r7, #12]
 c00681c:	2220      	movs	r2, #32
 c00681e:	f8c3 2088 	str.w	r2, [r3, #136]	; 0x88

    return HAL_OK;
 c006822:	2300      	movs	r3, #0
 c006824:	e000      	b.n	c006828 <HAL_UART_Transmit+0x114>
  }
  else
  {
    return HAL_BUSY;
 c006826:	2302      	movs	r3, #2
  }
}
 c006828:	4618      	mov	r0, r3
 c00682a:	3720      	adds	r7, #32
 c00682c:	46bd      	mov	sp, r7
 c00682e:	bd80      	pop	{r7, pc}

0c006830 <UART_SetConfig>:
  * @brief Configure the UART peripheral.
  * @param huart UART handle.
  * @retval HAL status
  */
HAL_StatusTypeDef UART_SetConfig(UART_HandleTypeDef *huart)
{
 c006830:	e92d 4fb0 	stmdb	sp!, {r4, r5, r7, r8, r9, sl, fp, lr}
 c006834:	b08c      	sub	sp, #48	; 0x30
 c006836:	af00      	add	r7, sp, #0
 c006838:	6178      	str	r0, [r7, #20]
  uint32_t tmpreg;
  uint16_t brrtemp;
  UART_ClockSourceTypeDef clocksource;
  uint32_t usartdiv;
  HAL_StatusTypeDef ret               = HAL_OK;
 c00683a:	2300      	movs	r3, #0
 c00683c:	f887 302a 	strb.w	r3, [r7, #42]	; 0x2a
  *  the UART Word Length, Parity, Mode and oversampling:
  *  set the M bits according to huart->Init.WordLength value
  *  set PCE and PS bits according to huart->Init.Parity value
  *  set TE and RE bits according to huart->Init.Mode value
  *  set OVER8 bit according to huart->Init.OverSampling value */
  tmpreg = (uint32_t)huart->Init.WordLength | huart->Init.Parity | huart->Init.Mode | huart->Init.OverSampling ;
 c006840:	697b      	ldr	r3, [r7, #20]
 c006842:	689a      	ldr	r2, [r3, #8]
 c006844:	697b      	ldr	r3, [r7, #20]
 c006846:	691b      	ldr	r3, [r3, #16]
 c006848:	431a      	orrs	r2, r3
 c00684a:	697b      	ldr	r3, [r7, #20]
 c00684c:	695b      	ldr	r3, [r3, #20]
 c00684e:	431a      	orrs	r2, r3
 c006850:	697b      	ldr	r3, [r7, #20]
 c006852:	69db      	ldr	r3, [r3, #28]
 c006854:	4313      	orrs	r3, r2
 c006856:	62fb      	str	r3, [r7, #44]	; 0x2c
  MODIFY_REG(huart->Instance->CR1, USART_CR1_FIELDS, tmpreg);
 c006858:	697b      	ldr	r3, [r7, #20]
 c00685a:	681b      	ldr	r3, [r3, #0]
 c00685c:	681a      	ldr	r2, [r3, #0]
 c00685e:	4baa      	ldr	r3, [pc, #680]	; (c006b08 <UART_SetConfig+0x2d8>)
 c006860:	4013      	ands	r3, r2
 c006862:	697a      	ldr	r2, [r7, #20]
 c006864:	6812      	ldr	r2, [r2, #0]
 c006866:	6af9      	ldr	r1, [r7, #44]	; 0x2c
 c006868:	430b      	orrs	r3, r1
 c00686a:	6013      	str	r3, [r2, #0]

  /*-------------------------- USART CR2 Configuration -----------------------*/
  /* Configure the UART Stop Bits: Set STOP[13:12] bits according
  * to huart->Init.StopBits value */
  MODIFY_REG(huart->Instance->CR2, USART_CR2_STOP, huart->Init.StopBits);
 c00686c:	697b      	ldr	r3, [r7, #20]
 c00686e:	681b      	ldr	r3, [r3, #0]
 c006870:	685b      	ldr	r3, [r3, #4]
 c006872:	f423 5140 	bic.w	r1, r3, #12288	; 0x3000
 c006876:	697b      	ldr	r3, [r7, #20]
 c006878:	68da      	ldr	r2, [r3, #12]
 c00687a:	697b      	ldr	r3, [r7, #20]
 c00687c:	681b      	ldr	r3, [r3, #0]
 c00687e:	430a      	orrs	r2, r1
 c006880:	605a      	str	r2, [r3, #4]
  /* Configure
  * - UART HardWare Flow Control: set CTSE and RTSE bits according
  *   to huart->Init.HwFlowCtl value
  * - one-bit sampling method versus three samples' majority rule according
  *   to huart->Init.OneBitSampling (not applicable to LPUART) */
  tmpreg = (uint32_t)huart->Init.HwFlowCtl;
 c006882:	697b      	ldr	r3, [r7, #20]
 c006884:	699b      	ldr	r3, [r3, #24]
 c006886:	62fb      	str	r3, [r7, #44]	; 0x2c

  if (!(UART_INSTANCE_LOWPOWER(huart)))
 c006888:	697b      	ldr	r3, [r7, #20]
 c00688a:	681b      	ldr	r3, [r3, #0]
 c00688c:	4a9f      	ldr	r2, [pc, #636]	; (c006b0c <UART_SetConfig+0x2dc>)
 c00688e:	4293      	cmp	r3, r2
 c006890:	d004      	beq.n	c00689c <UART_SetConfig+0x6c>
  {
    tmpreg |= huart->Init.OneBitSampling;
 c006892:	697b      	ldr	r3, [r7, #20]
 c006894:	6a1b      	ldr	r3, [r3, #32]
 c006896:	6afa      	ldr	r2, [r7, #44]	; 0x2c
 c006898:	4313      	orrs	r3, r2
 c00689a:	62fb      	str	r3, [r7, #44]	; 0x2c
  }
  MODIFY_REG(huart->Instance->CR3, USART_CR3_FIELDS, tmpreg);
 c00689c:	697b      	ldr	r3, [r7, #20]
 c00689e:	681b      	ldr	r3, [r3, #0]
 c0068a0:	689b      	ldr	r3, [r3, #8]
 c0068a2:	f023 436e 	bic.w	r3, r3, #3992977408	; 0xee000000
 c0068a6:	f423 6330 	bic.w	r3, r3, #2816	; 0xb00
 c0068aa:	697a      	ldr	r2, [r7, #20]
 c0068ac:	6812      	ldr	r2, [r2, #0]
 c0068ae:	6af9      	ldr	r1, [r7, #44]	; 0x2c
 c0068b0:	430b      	orrs	r3, r1
 c0068b2:	6093      	str	r3, [r2, #8]

  /*-------------------------- USART PRESC Configuration -----------------------*/
  /* Configure
  * - UART Clock Prescaler : set PRESCALER according to huart->Init.ClockPrescaler value */
  MODIFY_REG(huart->Instance->PRESC, USART_PRESC_PRESCALER, huart->Init.ClockPrescaler);
 c0068b4:	697b      	ldr	r3, [r7, #20]
 c0068b6:	681b      	ldr	r3, [r3, #0]
 c0068b8:	6adb      	ldr	r3, [r3, #44]	; 0x2c
 c0068ba:	f023 010f 	bic.w	r1, r3, #15
 c0068be:	697b      	ldr	r3, [r7, #20]
 c0068c0:	6a5a      	ldr	r2, [r3, #36]	; 0x24
 c0068c2:	697b      	ldr	r3, [r7, #20]
 c0068c4:	681b      	ldr	r3, [r3, #0]
 c0068c6:	430a      	orrs	r2, r1
 c0068c8:	62da      	str	r2, [r3, #44]	; 0x2c

  /*-------------------------- USART BRR Configuration -----------------------*/
  UART_GETCLOCKSOURCE(huart, clocksource);
 c0068ca:	697b      	ldr	r3, [r7, #20]
 c0068cc:	681b      	ldr	r3, [r3, #0]
 c0068ce:	4a90      	ldr	r2, [pc, #576]	; (c006b10 <UART_SetConfig+0x2e0>)
 c0068d0:	4293      	cmp	r3, r2
 c0068d2:	d125      	bne.n	c006920 <UART_SetConfig+0xf0>
 c0068d4:	4b8f      	ldr	r3, [pc, #572]	; (c006b14 <UART_SetConfig+0x2e4>)
 c0068d6:	f8d3 3088 	ldr.w	r3, [r3, #136]	; 0x88
 c0068da:	f003 0303 	and.w	r3, r3, #3
 c0068de:	2b03      	cmp	r3, #3
 c0068e0:	d81a      	bhi.n	c006918 <UART_SetConfig+0xe8>
 c0068e2:	a201      	add	r2, pc, #4	; (adr r2, c0068e8 <UART_SetConfig+0xb8>)
 c0068e4:	f852 f023 	ldr.w	pc, [r2, r3, lsl #2]
 c0068e8:	0c0068f9 	.word	0x0c0068f9
 c0068ec:	0c006909 	.word	0x0c006909
 c0068f0:	0c006901 	.word	0x0c006901
 c0068f4:	0c006911 	.word	0x0c006911
 c0068f8:	2301      	movs	r3, #1
 c0068fa:	f887 302b 	strb.w	r3, [r7, #43]	; 0x2b
 c0068fe:	e114      	b.n	c006b2a <UART_SetConfig+0x2fa>
 c006900:	2302      	movs	r3, #2
 c006902:	f887 302b 	strb.w	r3, [r7, #43]	; 0x2b
 c006906:	e110      	b.n	c006b2a <UART_SetConfig+0x2fa>
 c006908:	2304      	movs	r3, #4
 c00690a:	f887 302b 	strb.w	r3, [r7, #43]	; 0x2b
 c00690e:	e10c      	b.n	c006b2a <UART_SetConfig+0x2fa>
 c006910:	2308      	movs	r3, #8
 c006912:	f887 302b 	strb.w	r3, [r7, #43]	; 0x2b
 c006916:	e108      	b.n	c006b2a <UART_SetConfig+0x2fa>
 c006918:	2310      	movs	r3, #16
 c00691a:	f887 302b 	strb.w	r3, [r7, #43]	; 0x2b
 c00691e:	e104      	b.n	c006b2a <UART_SetConfig+0x2fa>
 c006920:	697b      	ldr	r3, [r7, #20]
 c006922:	681b      	ldr	r3, [r3, #0]
 c006924:	4a7c      	ldr	r2, [pc, #496]	; (c006b18 <UART_SetConfig+0x2e8>)
 c006926:	4293      	cmp	r3, r2
 c006928:	d138      	bne.n	c00699c <UART_SetConfig+0x16c>
 c00692a:	4b7a      	ldr	r3, [pc, #488]	; (c006b14 <UART_SetConfig+0x2e4>)
 c00692c:	f8d3 3088 	ldr.w	r3, [r3, #136]	; 0x88
 c006930:	f003 030c 	and.w	r3, r3, #12
 c006934:	2b0c      	cmp	r3, #12
 c006936:	d82d      	bhi.n	c006994 <UART_SetConfig+0x164>
 c006938:	a201      	add	r2, pc, #4	; (adr r2, c006940 <UART_SetConfig+0x110>)
 c00693a:	f852 f023 	ldr.w	pc, [r2, r3, lsl #2]
 c00693e:	bf00      	nop
 c006940:	0c006975 	.word	0x0c006975
 c006944:	0c006995 	.word	0x0c006995
 c006948:	0c006995 	.word	0x0c006995
 c00694c:	0c006995 	.word	0x0c006995
 c006950:	0c006985 	.word	0x0c006985
 c006954:	0c006995 	.word	0x0c006995
 c006958:	0c006995 	.word	0x0c006995
 c00695c:	0c006995 	.word	0x0c006995
 c006960:	0c00697d 	.word	0x0c00697d
 c006964:	0c006995 	.word	0x0c006995
 c006968:	0c006995 	.word	0x0c006995
 c00696c:	0c006995 	.word	0x0c006995
 c006970:	0c00698d 	.word	0x0c00698d
 c006974:	2300      	movs	r3, #0
 c006976:	f887 302b 	strb.w	r3, [r7, #43]	; 0x2b
 c00697a:	e0d6      	b.n	c006b2a <UART_SetConfig+0x2fa>
 c00697c:	2302      	movs	r3, #2
 c00697e:	f887 302b 	strb.w	r3, [r7, #43]	; 0x2b
 c006982:	e0d2      	b.n	c006b2a <UART_SetConfig+0x2fa>
 c006984:	2304      	movs	r3, #4
 c006986:	f887 302b 	strb.w	r3, [r7, #43]	; 0x2b
 c00698a:	e0ce      	b.n	c006b2a <UART_SetConfig+0x2fa>
 c00698c:	2308      	movs	r3, #8
 c00698e:	f887 302b 	strb.w	r3, [r7, #43]	; 0x2b
 c006992:	e0ca      	b.n	c006b2a <UART_SetConfig+0x2fa>
 c006994:	2310      	movs	r3, #16
 c006996:	f887 302b 	strb.w	r3, [r7, #43]	; 0x2b
 c00699a:	e0c6      	b.n	c006b2a <UART_SetConfig+0x2fa>
 c00699c:	697b      	ldr	r3, [r7, #20]
 c00699e:	681b      	ldr	r3, [r3, #0]
 c0069a0:	4a5e      	ldr	r2, [pc, #376]	; (c006b1c <UART_SetConfig+0x2ec>)
 c0069a2:	4293      	cmp	r3, r2
 c0069a4:	d125      	bne.n	c0069f2 <UART_SetConfig+0x1c2>
 c0069a6:	4b5b      	ldr	r3, [pc, #364]	; (c006b14 <UART_SetConfig+0x2e4>)
 c0069a8:	f8d3 3088 	ldr.w	r3, [r3, #136]	; 0x88
 c0069ac:	f003 0330 	and.w	r3, r3, #48	; 0x30
 c0069b0:	2b30      	cmp	r3, #48	; 0x30
 c0069b2:	d016      	beq.n	c0069e2 <UART_SetConfig+0x1b2>
 c0069b4:	2b30      	cmp	r3, #48	; 0x30
 c0069b6:	d818      	bhi.n	c0069ea <UART_SetConfig+0x1ba>
 c0069b8:	2b20      	cmp	r3, #32
 c0069ba:	d00a      	beq.n	c0069d2 <UART_SetConfig+0x1a2>
 c0069bc:	2b20      	cmp	r3, #32
 c0069be:	d814      	bhi.n	c0069ea <UART_SetConfig+0x1ba>
 c0069c0:	2b00      	cmp	r3, #0
 c0069c2:	d002      	beq.n	c0069ca <UART_SetConfig+0x19a>
 c0069c4:	2b10      	cmp	r3, #16
 c0069c6:	d008      	beq.n	c0069da <UART_SetConfig+0x1aa>
 c0069c8:	e00f      	b.n	c0069ea <UART_SetConfig+0x1ba>
 c0069ca:	2300      	movs	r3, #0
 c0069cc:	f887 302b 	strb.w	r3, [r7, #43]	; 0x2b
 c0069d0:	e0ab      	b.n	c006b2a <UART_SetConfig+0x2fa>
 c0069d2:	2302      	movs	r3, #2
 c0069d4:	f887 302b 	strb.w	r3, [r7, #43]	; 0x2b
 c0069d8:	e0a7      	b.n	c006b2a <UART_SetConfig+0x2fa>
 c0069da:	2304      	movs	r3, #4
 c0069dc:	f887 302b 	strb.w	r3, [r7, #43]	; 0x2b
 c0069e0:	e0a3      	b.n	c006b2a <UART_SetConfig+0x2fa>
 c0069e2:	2308      	movs	r3, #8
 c0069e4:	f887 302b 	strb.w	r3, [r7, #43]	; 0x2b
 c0069e8:	e09f      	b.n	c006b2a <UART_SetConfig+0x2fa>
 c0069ea:	2310      	movs	r3, #16
 c0069ec:	f887 302b 	strb.w	r3, [r7, #43]	; 0x2b
 c0069f0:	e09b      	b.n	c006b2a <UART_SetConfig+0x2fa>
 c0069f2:	697b      	ldr	r3, [r7, #20]
 c0069f4:	681b      	ldr	r3, [r3, #0]
 c0069f6:	4a4a      	ldr	r2, [pc, #296]	; (c006b20 <UART_SetConfig+0x2f0>)
 c0069f8:	4293      	cmp	r3, r2
 c0069fa:	d125      	bne.n	c006a48 <UART_SetConfig+0x218>
 c0069fc:	4b45      	ldr	r3, [pc, #276]	; (c006b14 <UART_SetConfig+0x2e4>)
 c0069fe:	f8d3 3088 	ldr.w	r3, [r3, #136]	; 0x88
 c006a02:	f003 03c0 	and.w	r3, r3, #192	; 0xc0
 c006a06:	2bc0      	cmp	r3, #192	; 0xc0
 c006a08:	d016      	beq.n	c006a38 <UART_SetConfig+0x208>
 c006a0a:	2bc0      	cmp	r3, #192	; 0xc0
 c006a0c:	d818      	bhi.n	c006a40 <UART_SetConfig+0x210>
 c006a0e:	2b80      	cmp	r3, #128	; 0x80
 c006a10:	d00a      	beq.n	c006a28 <UART_SetConfig+0x1f8>
 c006a12:	2b80      	cmp	r3, #128	; 0x80
 c006a14:	d814      	bhi.n	c006a40 <UART_SetConfig+0x210>
 c006a16:	2b00      	cmp	r3, #0
 c006a18:	d002      	beq.n	c006a20 <UART_SetConfig+0x1f0>
 c006a1a:	2b40      	cmp	r3, #64	; 0x40
 c006a1c:	d008      	beq.n	c006a30 <UART_SetConfig+0x200>
 c006a1e:	e00f      	b.n	c006a40 <UART_SetConfig+0x210>
 c006a20:	2300      	movs	r3, #0
 c006a22:	f887 302b 	strb.w	r3, [r7, #43]	; 0x2b
 c006a26:	e080      	b.n	c006b2a <UART_SetConfig+0x2fa>
 c006a28:	2302      	movs	r3, #2
 c006a2a:	f887 302b 	strb.w	r3, [r7, #43]	; 0x2b
 c006a2e:	e07c      	b.n	c006b2a <UART_SetConfig+0x2fa>
 c006a30:	2304      	movs	r3, #4
 c006a32:	f887 302b 	strb.w	r3, [r7, #43]	; 0x2b
 c006a36:	e078      	b.n	c006b2a <UART_SetConfig+0x2fa>
 c006a38:	2308      	movs	r3, #8
 c006a3a:	f887 302b 	strb.w	r3, [r7, #43]	; 0x2b
 c006a3e:	e074      	b.n	c006b2a <UART_SetConfig+0x2fa>
 c006a40:	2310      	movs	r3, #16
 c006a42:	f887 302b 	strb.w	r3, [r7, #43]	; 0x2b
 c006a46:	e070      	b.n	c006b2a <UART_SetConfig+0x2fa>
 c006a48:	697b      	ldr	r3, [r7, #20]
 c006a4a:	681b      	ldr	r3, [r3, #0]
 c006a4c:	f1b3 2f50 	cmp.w	r3, #1342197760	; 0x50005000
 c006a50:	d12a      	bne.n	c006aa8 <UART_SetConfig+0x278>
 c006a52:	4b30      	ldr	r3, [pc, #192]	; (c006b14 <UART_SetConfig+0x2e4>)
 c006a54:	f8d3 3088 	ldr.w	r3, [r3, #136]	; 0x88
 c006a58:	f403 7340 	and.w	r3, r3, #768	; 0x300
 c006a5c:	f5b3 7f40 	cmp.w	r3, #768	; 0x300
 c006a60:	d01a      	beq.n	c006a98 <UART_SetConfig+0x268>
 c006a62:	f5b3 7f40 	cmp.w	r3, #768	; 0x300
 c006a66:	d81b      	bhi.n	c006aa0 <UART_SetConfig+0x270>
 c006a68:	f5b3 7f00 	cmp.w	r3, #512	; 0x200
 c006a6c:	d00c      	beq.n	c006a88 <UART_SetConfig+0x258>
 c006a6e:	f5b3 7f00 	cmp.w	r3, #512	; 0x200
 c006a72:	d815      	bhi.n	c006aa0 <UART_SetConfig+0x270>
 c006a74:	2b00      	cmp	r3, #0
 c006a76:	d003      	beq.n	c006a80 <UART_SetConfig+0x250>
 c006a78:	f5b3 7f80 	cmp.w	r3, #256	; 0x100
 c006a7c:	d008      	beq.n	c006a90 <UART_SetConfig+0x260>
 c006a7e:	e00f      	b.n	c006aa0 <UART_SetConfig+0x270>
 c006a80:	2300      	movs	r3, #0
 c006a82:	f887 302b 	strb.w	r3, [r7, #43]	; 0x2b
 c006a86:	e050      	b.n	c006b2a <UART_SetConfig+0x2fa>
 c006a88:	2302      	movs	r3, #2
 c006a8a:	f887 302b 	strb.w	r3, [r7, #43]	; 0x2b
 c006a8e:	e04c      	b.n	c006b2a <UART_SetConfig+0x2fa>
 c006a90:	2304      	movs	r3, #4
 c006a92:	f887 302b 	strb.w	r3, [r7, #43]	; 0x2b
 c006a96:	e048      	b.n	c006b2a <UART_SetConfig+0x2fa>
 c006a98:	2308      	movs	r3, #8
 c006a9a:	f887 302b 	strb.w	r3, [r7, #43]	; 0x2b
 c006a9e:	e044      	b.n	c006b2a <UART_SetConfig+0x2fa>
 c006aa0:	2310      	movs	r3, #16
 c006aa2:	f887 302b 	strb.w	r3, [r7, #43]	; 0x2b
 c006aa6:	e040      	b.n	c006b2a <UART_SetConfig+0x2fa>
 c006aa8:	697b      	ldr	r3, [r7, #20]
 c006aaa:	681b      	ldr	r3, [r3, #0]
 c006aac:	4a17      	ldr	r2, [pc, #92]	; (c006b0c <UART_SetConfig+0x2dc>)
 c006aae:	4293      	cmp	r3, r2
 c006ab0:	d138      	bne.n	c006b24 <UART_SetConfig+0x2f4>
 c006ab2:	4b18      	ldr	r3, [pc, #96]	; (c006b14 <UART_SetConfig+0x2e4>)
 c006ab4:	f8d3 3088 	ldr.w	r3, [r3, #136]	; 0x88
 c006ab8:	f403 6340 	and.w	r3, r3, #3072	; 0xc00
 c006abc:	f5b3 6f40 	cmp.w	r3, #3072	; 0xc00
 c006ac0:	d01a      	beq.n	c006af8 <UART_SetConfig+0x2c8>
 c006ac2:	f5b3 6f40 	cmp.w	r3, #3072	; 0xc00
 c006ac6:	d81b      	bhi.n	c006b00 <UART_SetConfig+0x2d0>
 c006ac8:	f5b3 6f00 	cmp.w	r3, #2048	; 0x800
 c006acc:	d00c      	beq.n	c006ae8 <UART_SetConfig+0x2b8>
 c006ace:	f5b3 6f00 	cmp.w	r3, #2048	; 0x800
 c006ad2:	d815      	bhi.n	c006b00 <UART_SetConfig+0x2d0>
 c006ad4:	2b00      	cmp	r3, #0
 c006ad6:	d003      	beq.n	c006ae0 <UART_SetConfig+0x2b0>
 c006ad8:	f5b3 6f80 	cmp.w	r3, #1024	; 0x400
 c006adc:	d008      	beq.n	c006af0 <UART_SetConfig+0x2c0>
 c006ade:	e00f      	b.n	c006b00 <UART_SetConfig+0x2d0>
 c006ae0:	2300      	movs	r3, #0
 c006ae2:	f887 302b 	strb.w	r3, [r7, #43]	; 0x2b
 c006ae6:	e020      	b.n	c006b2a <UART_SetConfig+0x2fa>
 c006ae8:	2302      	movs	r3, #2
 c006aea:	f887 302b 	strb.w	r3, [r7, #43]	; 0x2b
 c006aee:	e01c      	b.n	c006b2a <UART_SetConfig+0x2fa>
 c006af0:	2304      	movs	r3, #4
 c006af2:	f887 302b 	strb.w	r3, [r7, #43]	; 0x2b
 c006af6:	e018      	b.n	c006b2a <UART_SetConfig+0x2fa>
 c006af8:	2308      	movs	r3, #8
 c006afa:	f887 302b 	strb.w	r3, [r7, #43]	; 0x2b
 c006afe:	e014      	b.n	c006b2a <UART_SetConfig+0x2fa>
 c006b00:	2310      	movs	r3, #16
 c006b02:	f887 302b 	strb.w	r3, [r7, #43]	; 0x2b
 c006b06:	e010      	b.n	c006b2a <UART_SetConfig+0x2fa>
 c006b08:	cfff69f3 	.word	0xcfff69f3
 c006b0c:	50008000 	.word	0x50008000
 c006b10:	50013800 	.word	0x50013800
 c006b14:	50021000 	.word	0x50021000
 c006b18:	50004400 	.word	0x50004400
 c006b1c:	50004800 	.word	0x50004800
 c006b20:	50004c00 	.word	0x50004c00
 c006b24:	2310      	movs	r3, #16
 c006b26:	f887 302b 	strb.w	r3, [r7, #43]	; 0x2b

  /* Check LPUART instance */
  if (UART_INSTANCE_LOWPOWER(huart))
 c006b2a:	697b      	ldr	r3, [r7, #20]
 c006b2c:	681b      	ldr	r3, [r3, #0]
 c006b2e:	4ab0      	ldr	r2, [pc, #704]	; (c006df0 <UART_SetConfig+0x5c0>)
 c006b30:	4293      	cmp	r3, r2
 c006b32:	f040 809b 	bne.w	c006c6c <UART_SetConfig+0x43c>
  {
    /* Retrieve frequency clock */
    switch (clocksource)
 c006b36:	f897 302b 	ldrb.w	r3, [r7, #43]	; 0x2b
 c006b3a:	2b08      	cmp	r3, #8
 c006b3c:	d827      	bhi.n	c006b8e <UART_SetConfig+0x35e>
 c006b3e:	a201      	add	r2, pc, #4	; (adr r2, c006b44 <UART_SetConfig+0x314>)
 c006b40:	f852 f023 	ldr.w	pc, [r2, r3, lsl #2]
 c006b44:	0c006b69 	.word	0x0c006b69
 c006b48:	0c006b71 	.word	0x0c006b71
 c006b4c:	0c006b79 	.word	0x0c006b79
 c006b50:	0c006b8f 	.word	0x0c006b8f
 c006b54:	0c006b7f 	.word	0x0c006b7f
 c006b58:	0c006b8f 	.word	0x0c006b8f
 c006b5c:	0c006b8f 	.word	0x0c006b8f
 c006b60:	0c006b8f 	.word	0x0c006b8f
 c006b64:	0c006b87 	.word	0x0c006b87
    {
      case UART_CLOCKSOURCE_PCLK1:
        pclk = HAL_RCC_GetPCLK1Freq();
 c006b68:	f7fe f80e 	bl	c004b88 <HAL_RCC_GetPCLK1Freq>
 c006b6c:	6278      	str	r0, [r7, #36]	; 0x24
        break;
 c006b6e:	e014      	b.n	c006b9a <UART_SetConfig+0x36a>
      case UART_CLOCKSOURCE_PCLK2:
        pclk = HAL_RCC_GetPCLK2Freq();
 c006b70:	f7fe f81e 	bl	c004bb0 <HAL_RCC_GetPCLK2Freq>
 c006b74:	6278      	str	r0, [r7, #36]	; 0x24
        break;
 c006b76:	e010      	b.n	c006b9a <UART_SetConfig+0x36a>
      case UART_CLOCKSOURCE_HSI:
        pclk = (uint32_t) HSI_VALUE;
 c006b78:	4b9e      	ldr	r3, [pc, #632]	; (c006df4 <UART_SetConfig+0x5c4>)
 c006b7a:	627b      	str	r3, [r7, #36]	; 0x24
        break;
 c006b7c:	e00d      	b.n	c006b9a <UART_SetConfig+0x36a>
      case UART_CLOCKSOURCE_SYSCLK:
        pclk = HAL_RCC_GetSysClockFreq();
 c006b7e:	f7fd ff51 	bl	c004a24 <HAL_RCC_GetSysClockFreq>
 c006b82:	6278      	str	r0, [r7, #36]	; 0x24
        break;
 c006b84:	e009      	b.n	c006b9a <UART_SetConfig+0x36a>
      case UART_CLOCKSOURCE_LSE:
        pclk = (uint32_t) LSE_VALUE;
 c006b86:	f44f 4300 	mov.w	r3, #32768	; 0x8000
 c006b8a:	627b      	str	r3, [r7, #36]	; 0x24
        break;
 c006b8c:	e005      	b.n	c006b9a <UART_SetConfig+0x36a>
      default:
        pclk = 0U;
 c006b8e:	2300      	movs	r3, #0
 c006b90:	627b      	str	r3, [r7, #36]	; 0x24
        ret = HAL_ERROR;
 c006b92:	2301      	movs	r3, #1
 c006b94:	f887 302a 	strb.w	r3, [r7, #42]	; 0x2a
        break;
 c006b98:	bf00      	nop
    }

    /* If proper clock source reported */
    if (pclk != 0U)
 c006b9a:	6a7b      	ldr	r3, [r7, #36]	; 0x24
 c006b9c:	2b00      	cmp	r3, #0
 c006b9e:	f000 8130 	beq.w	c006e02 <UART_SetConfig+0x5d2>
    {
      /* Compute clock after Prescaler */
      lpuart_ker_ck_pres = (pclk / UARTPrescTable[huart->Init.ClockPrescaler]);
 c006ba2:	697b      	ldr	r3, [r7, #20]
 c006ba4:	6a5b      	ldr	r3, [r3, #36]	; 0x24
 c006ba6:	4a94      	ldr	r2, [pc, #592]	; (c006df8 <UART_SetConfig+0x5c8>)
 c006ba8:	f832 3013 	ldrh.w	r3, [r2, r3, lsl #1]
 c006bac:	461a      	mov	r2, r3
 c006bae:	6a7b      	ldr	r3, [r7, #36]	; 0x24
 c006bb0:	fbb3 f3f2 	udiv	r3, r3, r2
 c006bb4:	61bb      	str	r3, [r7, #24]

      /* Ensure that Frequency clock is in the range [3 * baudrate, 4096 * baudrate] */
      if ((lpuart_ker_ck_pres < (3U * huart->Init.BaudRate)) ||
 c006bb6:	697b      	ldr	r3, [r7, #20]
 c006bb8:	685a      	ldr	r2, [r3, #4]
 c006bba:	4613      	mov	r3, r2
 c006bbc:	005b      	lsls	r3, r3, #1
 c006bbe:	4413      	add	r3, r2
 c006bc0:	69ba      	ldr	r2, [r7, #24]
 c006bc2:	429a      	cmp	r2, r3
 c006bc4:	d305      	bcc.n	c006bd2 <UART_SetConfig+0x3a2>
          (lpuart_ker_ck_pres > (4096U * huart->Init.BaudRate)))
 c006bc6:	697b      	ldr	r3, [r7, #20]
 c006bc8:	685b      	ldr	r3, [r3, #4]
 c006bca:	031b      	lsls	r3, r3, #12
      if ((lpuart_ker_ck_pres < (3U * huart->Init.BaudRate)) ||
 c006bcc:	69ba      	ldr	r2, [r7, #24]
 c006bce:	429a      	cmp	r2, r3
 c006bd0:	d903      	bls.n	c006bda <UART_SetConfig+0x3aa>
      {
        ret = HAL_ERROR;
 c006bd2:	2301      	movs	r3, #1
 c006bd4:	f887 302a 	strb.w	r3, [r7, #42]	; 0x2a
 c006bd8:	e113      	b.n	c006e02 <UART_SetConfig+0x5d2>
      }
      else
      {
        /* Check computed UsartDiv value is in allocated range
           (it is forbidden to write values lower than 0x300 in the LPUART_BRR register) */
        usartdiv = (uint32_t)(UART_DIV_LPUART(pclk, huart->Init.BaudRate, huart->Init.ClockPrescaler));
 c006bda:	6a7b      	ldr	r3, [r7, #36]	; 0x24
 c006bdc:	2200      	movs	r2, #0
 c006bde:	60bb      	str	r3, [r7, #8]
 c006be0:	60fa      	str	r2, [r7, #12]
 c006be2:	697b      	ldr	r3, [r7, #20]
 c006be4:	6a5b      	ldr	r3, [r3, #36]	; 0x24
 c006be6:	4a84      	ldr	r2, [pc, #528]	; (c006df8 <UART_SetConfig+0x5c8>)
 c006be8:	f832 3013 	ldrh.w	r3, [r2, r3, lsl #1]
 c006bec:	b29b      	uxth	r3, r3
 c006bee:	2200      	movs	r2, #0
 c006bf0:	603b      	str	r3, [r7, #0]
 c006bf2:	607a      	str	r2, [r7, #4]
 c006bf4:	e9d7 2300 	ldrd	r2, r3, [r7]
 c006bf8:	e9d7 0102 	ldrd	r0, r1, [r7, #8]
 c006bfc:	f7f9 fb8e 	bl	c00031c <__aeabi_uldivmod>
 c006c00:	4602      	mov	r2, r0
 c006c02:	460b      	mov	r3, r1
 c006c04:	4610      	mov	r0, r2
 c006c06:	4619      	mov	r1, r3
 c006c08:	f04f 0200 	mov.w	r2, #0
 c006c0c:	f04f 0300 	mov.w	r3, #0
 c006c10:	020b      	lsls	r3, r1, #8
 c006c12:	ea43 6310 	orr.w	r3, r3, r0, lsr #24
 c006c16:	0202      	lsls	r2, r0, #8
 c006c18:	6979      	ldr	r1, [r7, #20]
 c006c1a:	6849      	ldr	r1, [r1, #4]
 c006c1c:	0849      	lsrs	r1, r1, #1
 c006c1e:	2000      	movs	r0, #0
 c006c20:	460c      	mov	r4, r1
 c006c22:	4605      	mov	r5, r0
 c006c24:	eb12 0804 	adds.w	r8, r2, r4
 c006c28:	eb43 0905 	adc.w	r9, r3, r5
 c006c2c:	697b      	ldr	r3, [r7, #20]
 c006c2e:	685b      	ldr	r3, [r3, #4]
 c006c30:	2200      	movs	r2, #0
 c006c32:	469a      	mov	sl, r3
 c006c34:	4693      	mov	fp, r2
 c006c36:	4652      	mov	r2, sl
 c006c38:	465b      	mov	r3, fp
 c006c3a:	4640      	mov	r0, r8
 c006c3c:	4649      	mov	r1, r9
 c006c3e:	f7f9 fb6d 	bl	c00031c <__aeabi_uldivmod>
 c006c42:	4602      	mov	r2, r0
 c006c44:	460b      	mov	r3, r1
 c006c46:	4613      	mov	r3, r2
 c006c48:	623b      	str	r3, [r7, #32]
        if ((usartdiv >= LPUART_BRR_MIN) && (usartdiv <= LPUART_BRR_MAX))
 c006c4a:	6a3b      	ldr	r3, [r7, #32]
 c006c4c:	f5b3 7f40 	cmp.w	r3, #768	; 0x300
 c006c50:	d308      	bcc.n	c006c64 <UART_SetConfig+0x434>
 c006c52:	6a3b      	ldr	r3, [r7, #32]
 c006c54:	f5b3 1f80 	cmp.w	r3, #1048576	; 0x100000
 c006c58:	d204      	bcs.n	c006c64 <UART_SetConfig+0x434>
        {
          huart->Instance->BRR = usartdiv;
 c006c5a:	697b      	ldr	r3, [r7, #20]
 c006c5c:	681b      	ldr	r3, [r3, #0]
 c006c5e:	6a3a      	ldr	r2, [r7, #32]
 c006c60:	60da      	str	r2, [r3, #12]
 c006c62:	e0ce      	b.n	c006e02 <UART_SetConfig+0x5d2>
        }
        else
        {
          ret = HAL_ERROR;
 c006c64:	2301      	movs	r3, #1
 c006c66:	f887 302a 	strb.w	r3, [r7, #42]	; 0x2a
 c006c6a:	e0ca      	b.n	c006e02 <UART_SetConfig+0x5d2>
      } /* if ( (lpuart_ker_ck_pres < (3 * huart->Init.BaudRate) ) ||
                (lpuart_ker_ck_pres > (4096 * huart->Init.BaudRate) )) */
    } /* if (pclk != 0) */
  }
  /* Check UART Over Sampling to set Baud Rate Register */
  else if (huart->Init.OverSampling == UART_OVERSAMPLING_8)
 c006c6c:	697b      	ldr	r3, [r7, #20]
 c006c6e:	69db      	ldr	r3, [r3, #28]
 c006c70:	f5b3 4f00 	cmp.w	r3, #32768	; 0x8000
 c006c74:	d166      	bne.n	c006d44 <UART_SetConfig+0x514>
  {
    switch (clocksource)
 c006c76:	f897 302b 	ldrb.w	r3, [r7, #43]	; 0x2b
 c006c7a:	2b08      	cmp	r3, #8
 c006c7c:	d827      	bhi.n	c006cce <UART_SetConfig+0x49e>
 c006c7e:	a201      	add	r2, pc, #4	; (adr r2, c006c84 <UART_SetConfig+0x454>)
 c006c80:	f852 f023 	ldr.w	pc, [r2, r3, lsl #2]
 c006c84:	0c006ca9 	.word	0x0c006ca9
 c006c88:	0c006cb1 	.word	0x0c006cb1
 c006c8c:	0c006cb9 	.word	0x0c006cb9
 c006c90:	0c006ccf 	.word	0x0c006ccf
 c006c94:	0c006cbf 	.word	0x0c006cbf
 c006c98:	0c006ccf 	.word	0x0c006ccf
 c006c9c:	0c006ccf 	.word	0x0c006ccf
 c006ca0:	0c006ccf 	.word	0x0c006ccf
 c006ca4:	0c006cc7 	.word	0x0c006cc7
    {
      case UART_CLOCKSOURCE_PCLK1:
        pclk = HAL_RCC_GetPCLK1Freq();
 c006ca8:	f7fd ff6e 	bl	c004b88 <HAL_RCC_GetPCLK1Freq>
 c006cac:	6278      	str	r0, [r7, #36]	; 0x24
        break;
 c006cae:	e014      	b.n	c006cda <UART_SetConfig+0x4aa>
      case UART_CLOCKSOURCE_PCLK2:
        pclk = HAL_RCC_GetPCLK2Freq();
 c006cb0:	f7fd ff7e 	bl	c004bb0 <HAL_RCC_GetPCLK2Freq>
 c006cb4:	6278      	str	r0, [r7, #36]	; 0x24
        break;
 c006cb6:	e010      	b.n	c006cda <UART_SetConfig+0x4aa>
      case UART_CLOCKSOURCE_HSI:
        pclk = (uint32_t) HSI_VALUE;
 c006cb8:	4b4e      	ldr	r3, [pc, #312]	; (c006df4 <UART_SetConfig+0x5c4>)
 c006cba:	627b      	str	r3, [r7, #36]	; 0x24
        break;
 c006cbc:	e00d      	b.n	c006cda <UART_SetConfig+0x4aa>
      case UART_CLOCKSOURCE_SYSCLK:
        pclk = HAL_RCC_GetSysClockFreq();
 c006cbe:	f7fd feb1 	bl	c004a24 <HAL_RCC_GetSysClockFreq>
 c006cc2:	6278      	str	r0, [r7, #36]	; 0x24
        break;
 c006cc4:	e009      	b.n	c006cda <UART_SetConfig+0x4aa>
      case UART_CLOCKSOURCE_LSE:
        pclk = (uint32_t) LSE_VALUE;
 c006cc6:	f44f 4300 	mov.w	r3, #32768	; 0x8000
 c006cca:	627b      	str	r3, [r7, #36]	; 0x24
        break;
 c006ccc:	e005      	b.n	c006cda <UART_SetConfig+0x4aa>
      default:
        pclk = 0U;
 c006cce:	2300      	movs	r3, #0
 c006cd0:	627b      	str	r3, [r7, #36]	; 0x24
        ret = HAL_ERROR;
 c006cd2:	2301      	movs	r3, #1
 c006cd4:	f887 302a 	strb.w	r3, [r7, #42]	; 0x2a
        break;
 c006cd8:	bf00      	nop
    }

    /* USARTDIV must be greater than or equal to 0d16 */
    if (pclk != 0U)
 c006cda:	6a7b      	ldr	r3, [r7, #36]	; 0x24
 c006cdc:	2b00      	cmp	r3, #0
 c006cde:	f000 8090 	beq.w	c006e02 <UART_SetConfig+0x5d2>
    {
      usartdiv = (uint32_t)(UART_DIV_SAMPLING8(pclk, huart->Init.BaudRate, huart->Init.ClockPrescaler));
 c006ce2:	697b      	ldr	r3, [r7, #20]
 c006ce4:	6a5b      	ldr	r3, [r3, #36]	; 0x24
 c006ce6:	4a44      	ldr	r2, [pc, #272]	; (c006df8 <UART_SetConfig+0x5c8>)
 c006ce8:	f832 3013 	ldrh.w	r3, [r2, r3, lsl #1]
 c006cec:	461a      	mov	r2, r3
 c006cee:	6a7b      	ldr	r3, [r7, #36]	; 0x24
 c006cf0:	fbb3 f3f2 	udiv	r3, r3, r2
 c006cf4:	005a      	lsls	r2, r3, #1
 c006cf6:	697b      	ldr	r3, [r7, #20]
 c006cf8:	685b      	ldr	r3, [r3, #4]
 c006cfa:	085b      	lsrs	r3, r3, #1
 c006cfc:	441a      	add	r2, r3
 c006cfe:	697b      	ldr	r3, [r7, #20]
 c006d00:	685b      	ldr	r3, [r3, #4]
 c006d02:	fbb2 f3f3 	udiv	r3, r2, r3
 c006d06:	623b      	str	r3, [r7, #32]
      if ((usartdiv >= UART_BRR_MIN) && (usartdiv <= UART_BRR_MAX))
 c006d08:	6a3b      	ldr	r3, [r7, #32]
 c006d0a:	2b0f      	cmp	r3, #15
 c006d0c:	d916      	bls.n	c006d3c <UART_SetConfig+0x50c>
 c006d0e:	6a3b      	ldr	r3, [r7, #32]
 c006d10:	f5b3 3f80 	cmp.w	r3, #65536	; 0x10000
 c006d14:	d212      	bcs.n	c006d3c <UART_SetConfig+0x50c>
      {
        brrtemp = (uint16_t)(usartdiv & 0xFFF0U);
 c006d16:	6a3b      	ldr	r3, [r7, #32]
 c006d18:	b29b      	uxth	r3, r3
 c006d1a:	f023 030f 	bic.w	r3, r3, #15
 c006d1e:	83fb      	strh	r3, [r7, #30]
        brrtemp |= (uint16_t)((usartdiv & (uint16_t)0x000FU) >> 1U);
 c006d20:	6a3b      	ldr	r3, [r7, #32]
 c006d22:	085b      	lsrs	r3, r3, #1
 c006d24:	b29b      	uxth	r3, r3
 c006d26:	f003 0307 	and.w	r3, r3, #7
 c006d2a:	b29a      	uxth	r2, r3
 c006d2c:	8bfb      	ldrh	r3, [r7, #30]
 c006d2e:	4313      	orrs	r3, r2
 c006d30:	83fb      	strh	r3, [r7, #30]
        huart->Instance->BRR = brrtemp;
 c006d32:	697b      	ldr	r3, [r7, #20]
 c006d34:	681b      	ldr	r3, [r3, #0]
 c006d36:	8bfa      	ldrh	r2, [r7, #30]
 c006d38:	60da      	str	r2, [r3, #12]
 c006d3a:	e062      	b.n	c006e02 <UART_SetConfig+0x5d2>
      }
      else
      {
        ret = HAL_ERROR;
 c006d3c:	2301      	movs	r3, #1
 c006d3e:	f887 302a 	strb.w	r3, [r7, #42]	; 0x2a
 c006d42:	e05e      	b.n	c006e02 <UART_SetConfig+0x5d2>
      }
    }
  }
  else
  {
    switch (clocksource)
 c006d44:	f897 302b 	ldrb.w	r3, [r7, #43]	; 0x2b
 c006d48:	2b08      	cmp	r3, #8
 c006d4a:	d828      	bhi.n	c006d9e <UART_SetConfig+0x56e>
 c006d4c:	a201      	add	r2, pc, #4	; (adr r2, c006d54 <UART_SetConfig+0x524>)
 c006d4e:	f852 f023 	ldr.w	pc, [r2, r3, lsl #2]
 c006d52:	bf00      	nop
 c006d54:	0c006d79 	.word	0x0c006d79
 c006d58:	0c006d81 	.word	0x0c006d81
 c006d5c:	0c006d89 	.word	0x0c006d89
 c006d60:	0c006d9f 	.word	0x0c006d9f
 c006d64:	0c006d8f 	.word	0x0c006d8f
 c006d68:	0c006d9f 	.word	0x0c006d9f
 c006d6c:	0c006d9f 	.word	0x0c006d9f
 c006d70:	0c006d9f 	.word	0x0c006d9f
 c006d74:	0c006d97 	.word	0x0c006d97
    {
      case UART_CLOCKSOURCE_PCLK1:
        pclk = HAL_RCC_GetPCLK1Freq();
 c006d78:	f7fd ff06 	bl	c004b88 <HAL_RCC_GetPCLK1Freq>
 c006d7c:	6278      	str	r0, [r7, #36]	; 0x24
        break;
 c006d7e:	e014      	b.n	c006daa <UART_SetConfig+0x57a>
      case UART_CLOCKSOURCE_PCLK2:
        pclk = HAL_RCC_GetPCLK2Freq();
 c006d80:	f7fd ff16 	bl	c004bb0 <HAL_RCC_GetPCLK2Freq>
 c006d84:	6278      	str	r0, [r7, #36]	; 0x24
        break;
 c006d86:	e010      	b.n	c006daa <UART_SetConfig+0x57a>
      case UART_CLOCKSOURCE_HSI:
        pclk = (uint32_t) HSI_VALUE;
 c006d88:	4b1a      	ldr	r3, [pc, #104]	; (c006df4 <UART_SetConfig+0x5c4>)
 c006d8a:	627b      	str	r3, [r7, #36]	; 0x24
        break;
 c006d8c:	e00d      	b.n	c006daa <UART_SetConfig+0x57a>
      case UART_CLOCKSOURCE_SYSCLK:
        pclk = HAL_RCC_GetSysClockFreq();
 c006d8e:	f7fd fe49 	bl	c004a24 <HAL_RCC_GetSysClockFreq>
 c006d92:	6278      	str	r0, [r7, #36]	; 0x24
        break;
 c006d94:	e009      	b.n	c006daa <UART_SetConfig+0x57a>
      case UART_CLOCKSOURCE_LSE:
        pclk = (uint32_t) LSE_VALUE;
 c006d96:	f44f 4300 	mov.w	r3, #32768	; 0x8000
 c006d9a:	627b      	str	r3, [r7, #36]	; 0x24
        break;
 c006d9c:	e005      	b.n	c006daa <UART_SetConfig+0x57a>
      default:
        pclk = 0U;
 c006d9e:	2300      	movs	r3, #0
 c006da0:	627b      	str	r3, [r7, #36]	; 0x24
        ret = HAL_ERROR;
 c006da2:	2301      	movs	r3, #1
 c006da4:	f887 302a 	strb.w	r3, [r7, #42]	; 0x2a
        break;
 c006da8:	bf00      	nop
    }

    if (pclk != 0U)
 c006daa:	6a7b      	ldr	r3, [r7, #36]	; 0x24
 c006dac:	2b00      	cmp	r3, #0
 c006dae:	d028      	beq.n	c006e02 <UART_SetConfig+0x5d2>
    {
      /* USARTDIV must be greater than or equal to 0d16 */
      usartdiv = (uint32_t)(UART_DIV_SAMPLING16(pclk, huart->Init.BaudRate, huart->Init.ClockPrescaler));
 c006db0:	697b      	ldr	r3, [r7, #20]
 c006db2:	6a5b      	ldr	r3, [r3, #36]	; 0x24
 c006db4:	4a10      	ldr	r2, [pc, #64]	; (c006df8 <UART_SetConfig+0x5c8>)
 c006db6:	f832 3013 	ldrh.w	r3, [r2, r3, lsl #1]
 c006dba:	461a      	mov	r2, r3
 c006dbc:	6a7b      	ldr	r3, [r7, #36]	; 0x24
 c006dbe:	fbb3 f2f2 	udiv	r2, r3, r2
 c006dc2:	697b      	ldr	r3, [r7, #20]
 c006dc4:	685b      	ldr	r3, [r3, #4]
 c006dc6:	085b      	lsrs	r3, r3, #1
 c006dc8:	441a      	add	r2, r3
 c006dca:	697b      	ldr	r3, [r7, #20]
 c006dcc:	685b      	ldr	r3, [r3, #4]
 c006dce:	fbb2 f3f3 	udiv	r3, r2, r3
 c006dd2:	623b      	str	r3, [r7, #32]
      if ((usartdiv >= UART_BRR_MIN) && (usartdiv <= UART_BRR_MAX))
 c006dd4:	6a3b      	ldr	r3, [r7, #32]
 c006dd6:	2b0f      	cmp	r3, #15
 c006dd8:	d910      	bls.n	c006dfc <UART_SetConfig+0x5cc>
 c006dda:	6a3b      	ldr	r3, [r7, #32]
 c006ddc:	f5b3 3f80 	cmp.w	r3, #65536	; 0x10000
 c006de0:	d20c      	bcs.n	c006dfc <UART_SetConfig+0x5cc>
      {
        huart->Instance->BRR = (uint16_t)usartdiv;
 c006de2:	6a3b      	ldr	r3, [r7, #32]
 c006de4:	b29a      	uxth	r2, r3
 c006de6:	697b      	ldr	r3, [r7, #20]
 c006de8:	681b      	ldr	r3, [r3, #0]
 c006dea:	60da      	str	r2, [r3, #12]
 c006dec:	e009      	b.n	c006e02 <UART_SetConfig+0x5d2>
 c006dee:	bf00      	nop
 c006df0:	50008000 	.word	0x50008000
 c006df4:	00f42400 	.word	0x00f42400
 c006df8:	0c008d60 	.word	0x0c008d60
      }
      else
      {
        ret = HAL_ERROR;
 c006dfc:	2301      	movs	r3, #1
 c006dfe:	f887 302a 	strb.w	r3, [r7, #42]	; 0x2a
      }
    }
  }

  /* Initialize the number of data to process during RX/TX ISR execution */
  huart->NbTxDataToProcess = 1;
 c006e02:	697b      	ldr	r3, [r7, #20]
 c006e04:	2201      	movs	r2, #1
 c006e06:	f8a3 206a 	strh.w	r2, [r3, #106]	; 0x6a
  huart->NbRxDataToProcess = 1;
 c006e0a:	697b      	ldr	r3, [r7, #20]
 c006e0c:	2201      	movs	r2, #1
 c006e0e:	f8a3 2068 	strh.w	r2, [r3, #104]	; 0x68

  /* Clear ISR function pointers */
  huart->RxISR = NULL;
 c006e12:	697b      	ldr	r3, [r7, #20]
 c006e14:	2200      	movs	r2, #0
 c006e16:	675a      	str	r2, [r3, #116]	; 0x74
  huart->TxISR = NULL;
 c006e18:	697b      	ldr	r3, [r7, #20]
 c006e1a:	2200      	movs	r2, #0
 c006e1c:	679a      	str	r2, [r3, #120]	; 0x78

  return ret;
 c006e1e:	f897 302a 	ldrb.w	r3, [r7, #42]	; 0x2a
}
 c006e22:	4618      	mov	r0, r3
 c006e24:	3730      	adds	r7, #48	; 0x30
 c006e26:	46bd      	mov	sp, r7
 c006e28:	e8bd 8fb0 	ldmia.w	sp!, {r4, r5, r7, r8, r9, sl, fp, pc}

0c006e2c <UART_AdvFeatureConfig>:
  * @brief Configure the UART peripheral advanced features.
  * @param huart UART handle.
  * @retval None
  */
void UART_AdvFeatureConfig(UART_HandleTypeDef *huart)
{
 c006e2c:	b480      	push	{r7}
 c006e2e:	b083      	sub	sp, #12
 c006e30:	af00      	add	r7, sp, #0
 c006e32:	6078      	str	r0, [r7, #4]
  /* Check whether the set of advanced features to configure is properly set */
  assert_param(IS_UART_ADVFEATURE_INIT(huart->AdvancedInit.AdvFeatureInit));

  /* if required, configure TX pin active level inversion */
  if (HAL_IS_BIT_SET(huart->AdvancedInit.AdvFeatureInit, UART_ADVFEATURE_TXINVERT_INIT))
 c006e34:	687b      	ldr	r3, [r7, #4]
 c006e36:	6a9b      	ldr	r3, [r3, #40]	; 0x28
 c006e38:	f003 0301 	and.w	r3, r3, #1
 c006e3c:	2b00      	cmp	r3, #0
 c006e3e:	d00a      	beq.n	c006e56 <UART_AdvFeatureConfig+0x2a>
  {
    assert_param(IS_UART_ADVFEATURE_TXINV(huart->AdvancedInit.TxPinLevelInvert));
    MODIFY_REG(huart->Instance->CR2, USART_CR2_TXINV, huart->AdvancedInit.TxPinLevelInvert);
 c006e40:	687b      	ldr	r3, [r7, #4]
 c006e42:	681b      	ldr	r3, [r3, #0]
 c006e44:	685b      	ldr	r3, [r3, #4]
 c006e46:	f423 3100 	bic.w	r1, r3, #131072	; 0x20000
 c006e4a:	687b      	ldr	r3, [r7, #4]
 c006e4c:	6ada      	ldr	r2, [r3, #44]	; 0x2c
 c006e4e:	687b      	ldr	r3, [r7, #4]
 c006e50:	681b      	ldr	r3, [r3, #0]
 c006e52:	430a      	orrs	r2, r1
 c006e54:	605a      	str	r2, [r3, #4]
  }

  /* if required, configure RX pin active level inversion */
  if (HAL_IS_BIT_SET(huart->AdvancedInit.AdvFeatureInit, UART_ADVFEATURE_RXINVERT_INIT))
 c006e56:	687b      	ldr	r3, [r7, #4]
 c006e58:	6a9b      	ldr	r3, [r3, #40]	; 0x28
 c006e5a:	f003 0302 	and.w	r3, r3, #2
 c006e5e:	2b00      	cmp	r3, #0
 c006e60:	d00a      	beq.n	c006e78 <UART_AdvFeatureConfig+0x4c>
  {
    assert_param(IS_UART_ADVFEATURE_RXINV(huart->AdvancedInit.RxPinLevelInvert));
    MODIFY_REG(huart->Instance->CR2, USART_CR2_RXINV, huart->AdvancedInit.RxPinLevelInvert);
 c006e62:	687b      	ldr	r3, [r7, #4]
 c006e64:	681b      	ldr	r3, [r3, #0]
 c006e66:	685b      	ldr	r3, [r3, #4]
 c006e68:	f423 3180 	bic.w	r1, r3, #65536	; 0x10000
 c006e6c:	687b      	ldr	r3, [r7, #4]
 c006e6e:	6b1a      	ldr	r2, [r3, #48]	; 0x30
 c006e70:	687b      	ldr	r3, [r7, #4]
 c006e72:	681b      	ldr	r3, [r3, #0]
 c006e74:	430a      	orrs	r2, r1
 c006e76:	605a      	str	r2, [r3, #4]
  }

  /* if required, configure data inversion */
  if (HAL_IS_BIT_SET(huart->AdvancedInit.AdvFeatureInit, UART_ADVFEATURE_DATAINVERT_INIT))
 c006e78:	687b      	ldr	r3, [r7, #4]
 c006e7a:	6a9b      	ldr	r3, [r3, #40]	; 0x28
 c006e7c:	f003 0304 	and.w	r3, r3, #4
 c006e80:	2b00      	cmp	r3, #0
 c006e82:	d00a      	beq.n	c006e9a <UART_AdvFeatureConfig+0x6e>
  {
    assert_param(IS_UART_ADVFEATURE_DATAINV(huart->AdvancedInit.DataInvert));
    MODIFY_REG(huart->Instance->CR2, USART_CR2_DATAINV, huart->AdvancedInit.DataInvert);
 c006e84:	687b      	ldr	r3, [r7, #4]
 c006e86:	681b      	ldr	r3, [r3, #0]
 c006e88:	685b      	ldr	r3, [r3, #4]
 c006e8a:	f423 2180 	bic.w	r1, r3, #262144	; 0x40000
 c006e8e:	687b      	ldr	r3, [r7, #4]
 c006e90:	6b5a      	ldr	r2, [r3, #52]	; 0x34
 c006e92:	687b      	ldr	r3, [r7, #4]
 c006e94:	681b      	ldr	r3, [r3, #0]
 c006e96:	430a      	orrs	r2, r1
 c006e98:	605a      	str	r2, [r3, #4]
  }

  /* if required, configure RX/TX pins swap */
  if (HAL_IS_BIT_SET(huart->AdvancedInit.AdvFeatureInit, UART_ADVFEATURE_SWAP_INIT))
 c006e9a:	687b      	ldr	r3, [r7, #4]
 c006e9c:	6a9b      	ldr	r3, [r3, #40]	; 0x28
 c006e9e:	f003 0308 	and.w	r3, r3, #8
 c006ea2:	2b00      	cmp	r3, #0
 c006ea4:	d00a      	beq.n	c006ebc <UART_AdvFeatureConfig+0x90>
  {
    assert_param(IS_UART_ADVFEATURE_SWAP(huart->AdvancedInit.Swap));
    MODIFY_REG(huart->Instance->CR2, USART_CR2_SWAP, huart->AdvancedInit.Swap);
 c006ea6:	687b      	ldr	r3, [r7, #4]
 c006ea8:	681b      	ldr	r3, [r3, #0]
 c006eaa:	685b      	ldr	r3, [r3, #4]
 c006eac:	f423 4100 	bic.w	r1, r3, #32768	; 0x8000
 c006eb0:	687b      	ldr	r3, [r7, #4]
 c006eb2:	6b9a      	ldr	r2, [r3, #56]	; 0x38
 c006eb4:	687b      	ldr	r3, [r7, #4]
 c006eb6:	681b      	ldr	r3, [r3, #0]
 c006eb8:	430a      	orrs	r2, r1
 c006eba:	605a      	str	r2, [r3, #4]
  }

  /* if required, configure RX overrun detection disabling */
  if (HAL_IS_BIT_SET(huart->AdvancedInit.AdvFeatureInit, UART_ADVFEATURE_RXOVERRUNDISABLE_INIT))
 c006ebc:	687b      	ldr	r3, [r7, #4]
 c006ebe:	6a9b      	ldr	r3, [r3, #40]	; 0x28
 c006ec0:	f003 0310 	and.w	r3, r3, #16
 c006ec4:	2b00      	cmp	r3, #0
 c006ec6:	d00a      	beq.n	c006ede <UART_AdvFeatureConfig+0xb2>
  {
    assert_param(IS_UART_OVERRUN(huart->AdvancedInit.OverrunDisable));
    MODIFY_REG(huart->Instance->CR3, USART_CR3_OVRDIS, huart->AdvancedInit.OverrunDisable);
 c006ec8:	687b      	ldr	r3, [r7, #4]
 c006eca:	681b      	ldr	r3, [r3, #0]
 c006ecc:	689b      	ldr	r3, [r3, #8]
 c006ece:	f423 5180 	bic.w	r1, r3, #4096	; 0x1000
 c006ed2:	687b      	ldr	r3, [r7, #4]
 c006ed4:	6bda      	ldr	r2, [r3, #60]	; 0x3c
 c006ed6:	687b      	ldr	r3, [r7, #4]
 c006ed8:	681b      	ldr	r3, [r3, #0]
 c006eda:	430a      	orrs	r2, r1
 c006edc:	609a      	str	r2, [r3, #8]
  }

  /* if required, configure DMA disabling on reception error */
  if (HAL_IS_BIT_SET(huart->AdvancedInit.AdvFeatureInit, UART_ADVFEATURE_DMADISABLEONERROR_INIT))
 c006ede:	687b      	ldr	r3, [r7, #4]
 c006ee0:	6a9b      	ldr	r3, [r3, #40]	; 0x28
 c006ee2:	f003 0320 	and.w	r3, r3, #32
 c006ee6:	2b00      	cmp	r3, #0
 c006ee8:	d00a      	beq.n	c006f00 <UART_AdvFeatureConfig+0xd4>
  {
    assert_param(IS_UART_ADVFEATURE_DMAONRXERROR(huart->AdvancedInit.DMADisableonRxError));
    MODIFY_REG(huart->Instance->CR3, USART_CR3_DDRE, huart->AdvancedInit.DMADisableonRxError);
 c006eea:	687b      	ldr	r3, [r7, #4]
 c006eec:	681b      	ldr	r3, [r3, #0]
 c006eee:	689b      	ldr	r3, [r3, #8]
 c006ef0:	f423 5100 	bic.w	r1, r3, #8192	; 0x2000
 c006ef4:	687b      	ldr	r3, [r7, #4]
 c006ef6:	6c1a      	ldr	r2, [r3, #64]	; 0x40
 c006ef8:	687b      	ldr	r3, [r7, #4]
 c006efa:	681b      	ldr	r3, [r3, #0]
 c006efc:	430a      	orrs	r2, r1
 c006efe:	609a      	str	r2, [r3, #8]
  }

  /* if required, configure auto Baud rate detection scheme */
  if (HAL_IS_BIT_SET(huart->AdvancedInit.AdvFeatureInit, UART_ADVFEATURE_AUTOBAUDRATE_INIT))
 c006f00:	687b      	ldr	r3, [r7, #4]
 c006f02:	6a9b      	ldr	r3, [r3, #40]	; 0x28
 c006f04:	f003 0340 	and.w	r3, r3, #64	; 0x40
 c006f08:	2b00      	cmp	r3, #0
 c006f0a:	d01a      	beq.n	c006f42 <UART_AdvFeatureConfig+0x116>
  {
    assert_param(IS_USART_AUTOBAUDRATE_DETECTION_INSTANCE(huart->Instance));
    assert_param(IS_UART_ADVFEATURE_AUTOBAUDRATE(huart->AdvancedInit.AutoBaudRateEnable));
    MODIFY_REG(huart->Instance->CR2, USART_CR2_ABREN, huart->AdvancedInit.AutoBaudRateEnable);
 c006f0c:	687b      	ldr	r3, [r7, #4]
 c006f0e:	681b      	ldr	r3, [r3, #0]
 c006f10:	685b      	ldr	r3, [r3, #4]
 c006f12:	f423 1180 	bic.w	r1, r3, #1048576	; 0x100000
 c006f16:	687b      	ldr	r3, [r7, #4]
 c006f18:	6c5a      	ldr	r2, [r3, #68]	; 0x44
 c006f1a:	687b      	ldr	r3, [r7, #4]
 c006f1c:	681b      	ldr	r3, [r3, #0]
 c006f1e:	430a      	orrs	r2, r1
 c006f20:	605a      	str	r2, [r3, #4]
    /* set auto Baudrate detection parameters if detection is enabled */
    if (huart->AdvancedInit.AutoBaudRateEnable == UART_ADVFEATURE_AUTOBAUDRATE_ENABLE)
 c006f22:	687b      	ldr	r3, [r7, #4]
 c006f24:	6c5b      	ldr	r3, [r3, #68]	; 0x44
 c006f26:	f5b3 1f80 	cmp.w	r3, #1048576	; 0x100000
 c006f2a:	d10a      	bne.n	c006f42 <UART_AdvFeatureConfig+0x116>
    {
      assert_param(IS_UART_ADVFEATURE_AUTOBAUDRATEMODE(huart->AdvancedInit.AutoBaudRateMode));
      MODIFY_REG(huart->Instance->CR2, USART_CR2_ABRMODE, huart->AdvancedInit.AutoBaudRateMode);
 c006f2c:	687b      	ldr	r3, [r7, #4]
 c006f2e:	681b      	ldr	r3, [r3, #0]
 c006f30:	685b      	ldr	r3, [r3, #4]
 c006f32:	f423 01c0 	bic.w	r1, r3, #6291456	; 0x600000
 c006f36:	687b      	ldr	r3, [r7, #4]
 c006f38:	6c9a      	ldr	r2, [r3, #72]	; 0x48
 c006f3a:	687b      	ldr	r3, [r7, #4]
 c006f3c:	681b      	ldr	r3, [r3, #0]
 c006f3e:	430a      	orrs	r2, r1
 c006f40:	605a      	str	r2, [r3, #4]
    }
  }

  /* if required, configure MSB first on communication line */
  if (HAL_IS_BIT_SET(huart->AdvancedInit.AdvFeatureInit, UART_ADVFEATURE_MSBFIRST_INIT))
 c006f42:	687b      	ldr	r3, [r7, #4]
 c006f44:	6a9b      	ldr	r3, [r3, #40]	; 0x28
 c006f46:	f003 0380 	and.w	r3, r3, #128	; 0x80
 c006f4a:	2b00      	cmp	r3, #0
 c006f4c:	d00a      	beq.n	c006f64 <UART_AdvFeatureConfig+0x138>
  {
    assert_param(IS_UART_ADVFEATURE_MSBFIRST(huart->AdvancedInit.MSBFirst));
    MODIFY_REG(huart->Instance->CR2, USART_CR2_MSBFIRST, huart->AdvancedInit.MSBFirst);
 c006f4e:	687b      	ldr	r3, [r7, #4]
 c006f50:	681b      	ldr	r3, [r3, #0]
 c006f52:	685b      	ldr	r3, [r3, #4]
 c006f54:	f423 2100 	bic.w	r1, r3, #524288	; 0x80000
 c006f58:	687b      	ldr	r3, [r7, #4]
 c006f5a:	6cda      	ldr	r2, [r3, #76]	; 0x4c
 c006f5c:	687b      	ldr	r3, [r7, #4]
 c006f5e:	681b      	ldr	r3, [r3, #0]
 c006f60:	430a      	orrs	r2, r1
 c006f62:	605a      	str	r2, [r3, #4]
  }
}
 c006f64:	bf00      	nop
 c006f66:	370c      	adds	r7, #12
 c006f68:	46bd      	mov	sp, r7
 c006f6a:	f85d 7b04 	ldr.w	r7, [sp], #4
 c006f6e:	4770      	bx	lr

0c006f70 <UART_CheckIdleState>:
  * @brief Check the UART Idle State.
  * @param huart UART handle.
  * @retval HAL status
  */
HAL_StatusTypeDef UART_CheckIdleState(UART_HandleTypeDef *huart)
{
 c006f70:	b580      	push	{r7, lr}
 c006f72:	b098      	sub	sp, #96	; 0x60
 c006f74:	af02      	add	r7, sp, #8
 c006f76:	6078      	str	r0, [r7, #4]
  uint32_t tickstart;

  /* Initialize the UART ErrorCode */
  huart->ErrorCode = HAL_UART_ERROR_NONE;
 c006f78:	687b      	ldr	r3, [r7, #4]
 c006f7a:	2200      	movs	r2, #0
 c006f7c:	f8c3 2090 	str.w	r2, [r3, #144]	; 0x90

  /* Init tickstart for timeout management */
  tickstart = HAL_GetTick();
 c006f80:	f7fb fa90 	bl	c0024a4 <HAL_GetTick>
 c006f84:	6578      	str	r0, [r7, #84]	; 0x54

  /* Check if the Transmitter is enabled */
  if ((huart->Instance->CR1 & USART_CR1_TE) == USART_CR1_TE)
 c006f86:	687b      	ldr	r3, [r7, #4]
 c006f88:	681b      	ldr	r3, [r3, #0]
 c006f8a:	681b      	ldr	r3, [r3, #0]
 c006f8c:	f003 0308 	and.w	r3, r3, #8
 c006f90:	2b08      	cmp	r3, #8
 c006f92:	d12f      	bne.n	c006ff4 <UART_CheckIdleState+0x84>
  {
    /* Wait until TEACK flag is set */
    if (UART_WaitOnFlagUntilTimeout(huart, USART_ISR_TEACK, RESET, tickstart, HAL_UART_TIMEOUT_VALUE) != HAL_OK)
 c006f94:	f06f 437e 	mvn.w	r3, #4261412864	; 0xfe000000
 c006f98:	9300      	str	r3, [sp, #0]
 c006f9a:	6d7b      	ldr	r3, [r7, #84]	; 0x54
 c006f9c:	2200      	movs	r2, #0
 c006f9e:	f44f 1100 	mov.w	r1, #2097152	; 0x200000
 c006fa2:	6878      	ldr	r0, [r7, #4]
 c006fa4:	f000 f88e 	bl	c0070c4 <UART_WaitOnFlagUntilTimeout>
 c006fa8:	4603      	mov	r3, r0
 c006faa:	2b00      	cmp	r3, #0
 c006fac:	d022      	beq.n	c006ff4 <UART_CheckIdleState+0x84>
    {
      /* Disable TXE interrupt for the interrupt process */
      ATOMIC_CLEAR_BIT(huart->Instance->CR1, (USART_CR1_TXEIE_TXFNFIE));
 c006fae:	687b      	ldr	r3, [r7, #4]
 c006fb0:	681b      	ldr	r3, [r3, #0]
 c006fb2:	63bb      	str	r3, [r7, #56]	; 0x38
 */
__STATIC_FORCEINLINE uint32_t __LDREXW(volatile uint32_t *addr)
{
    uint32_t result;

   __ASM volatile ("ldrex %0, %1" : "=r" (result) : "Q" (*addr) );
 c006fb4:	6bbb      	ldr	r3, [r7, #56]	; 0x38
 c006fb6:	e853 3f00 	ldrex	r3, [r3]
 c006fba:	637b      	str	r3, [r7, #52]	; 0x34
   return(result);
 c006fbc:	6b7b      	ldr	r3, [r7, #52]	; 0x34
 c006fbe:	f023 0380 	bic.w	r3, r3, #128	; 0x80
 c006fc2:	653b      	str	r3, [r7, #80]	; 0x50
 c006fc4:	687b      	ldr	r3, [r7, #4]
 c006fc6:	681b      	ldr	r3, [r3, #0]
 c006fc8:	461a      	mov	r2, r3
 c006fca:	6d3b      	ldr	r3, [r7, #80]	; 0x50
 c006fcc:	647b      	str	r3, [r7, #68]	; 0x44
 c006fce:	643a      	str	r2, [r7, #64]	; 0x40
 */
__STATIC_FORCEINLINE uint32_t __STREXW(uint32_t value, volatile uint32_t *addr)
{
   uint32_t result;

   __ASM volatile ("strex %0, %2, %1" : "=&r" (result), "=Q" (*addr) : "r" (value) );
 c006fd0:	6c39      	ldr	r1, [r7, #64]	; 0x40
 c006fd2:	6c7a      	ldr	r2, [r7, #68]	; 0x44
 c006fd4:	e841 2300 	strex	r3, r2, [r1]
 c006fd8:	63fb      	str	r3, [r7, #60]	; 0x3c
   return(result);
 c006fda:	6bfb      	ldr	r3, [r7, #60]	; 0x3c
 c006fdc:	2b00      	cmp	r3, #0
 c006fde:	d1e6      	bne.n	c006fae <UART_CheckIdleState+0x3e>

      huart->gState = HAL_UART_STATE_READY;
 c006fe0:	687b      	ldr	r3, [r7, #4]
 c006fe2:	2220      	movs	r2, #32
 c006fe4:	f8c3 2088 	str.w	r2, [r3, #136]	; 0x88

      __HAL_UNLOCK(huart);
 c006fe8:	687b      	ldr	r3, [r7, #4]
 c006fea:	2200      	movs	r2, #0
 c006fec:	f883 2084 	strb.w	r2, [r3, #132]	; 0x84

      /* Timeout occurred */
      return HAL_TIMEOUT;
 c006ff0:	2303      	movs	r3, #3
 c006ff2:	e063      	b.n	c0070bc <UART_CheckIdleState+0x14c>
    }
  }

  /* Check if the Receiver is enabled */
  if ((huart->Instance->CR1 & USART_CR1_RE) == USART_CR1_RE)
 c006ff4:	687b      	ldr	r3, [r7, #4]
 c006ff6:	681b      	ldr	r3, [r3, #0]
 c006ff8:	681b      	ldr	r3, [r3, #0]
 c006ffa:	f003 0304 	and.w	r3, r3, #4
 c006ffe:	2b04      	cmp	r3, #4
 c007000:	d149      	bne.n	c007096 <UART_CheckIdleState+0x126>
  {
    /* Wait until REACK flag is set */
    if (UART_WaitOnFlagUntilTimeout(huart, USART_ISR_REACK, RESET, tickstart, HAL_UART_TIMEOUT_VALUE) != HAL_OK)
 c007002:	f06f 437e 	mvn.w	r3, #4261412864	; 0xfe000000
 c007006:	9300      	str	r3, [sp, #0]
 c007008:	6d7b      	ldr	r3, [r7, #84]	; 0x54
 c00700a:	2200      	movs	r2, #0
 c00700c:	f44f 0180 	mov.w	r1, #4194304	; 0x400000
 c007010:	6878      	ldr	r0, [r7, #4]
 c007012:	f000 f857 	bl	c0070c4 <UART_WaitOnFlagUntilTimeout>
 c007016:	4603      	mov	r3, r0
 c007018:	2b00      	cmp	r3, #0
 c00701a:	d03c      	beq.n	c007096 <UART_CheckIdleState+0x126>
    {
      /* Disable RXNE, PE and ERR (Frame error, noise error, overrun error)
      interrupts for the interrupt process */
      ATOMIC_CLEAR_BIT(huart->Instance->CR1, (USART_CR1_RXNEIE_RXFNEIE | USART_CR1_PEIE));
 c00701c:	687b      	ldr	r3, [r7, #4]
 c00701e:	681b      	ldr	r3, [r3, #0]
 c007020:	627b      	str	r3, [r7, #36]	; 0x24
   __ASM volatile ("ldrex %0, %1" : "=r" (result) : "Q" (*addr) );
 c007022:	6a7b      	ldr	r3, [r7, #36]	; 0x24
 c007024:	e853 3f00 	ldrex	r3, [r3]
 c007028:	623b      	str	r3, [r7, #32]
   return(result);
 c00702a:	6a3b      	ldr	r3, [r7, #32]
 c00702c:	f423 7390 	bic.w	r3, r3, #288	; 0x120
 c007030:	64fb      	str	r3, [r7, #76]	; 0x4c
 c007032:	687b      	ldr	r3, [r7, #4]
 c007034:	681b      	ldr	r3, [r3, #0]
 c007036:	461a      	mov	r2, r3
 c007038:	6cfb      	ldr	r3, [r7, #76]	; 0x4c
 c00703a:	633b      	str	r3, [r7, #48]	; 0x30
 c00703c:	62fa      	str	r2, [r7, #44]	; 0x2c
   __ASM volatile ("strex %0, %2, %1" : "=&r" (result), "=Q" (*addr) : "r" (value) );
 c00703e:	6af9      	ldr	r1, [r7, #44]	; 0x2c
 c007040:	6b3a      	ldr	r2, [r7, #48]	; 0x30
 c007042:	e841 2300 	strex	r3, r2, [r1]
 c007046:	62bb      	str	r3, [r7, #40]	; 0x28
   return(result);
 c007048:	6abb      	ldr	r3, [r7, #40]	; 0x28
 c00704a:	2b00      	cmp	r3, #0
 c00704c:	d1e6      	bne.n	c00701c <UART_CheckIdleState+0xac>
      ATOMIC_CLEAR_BIT(huart->Instance->CR3, USART_CR3_EIE);
 c00704e:	687b      	ldr	r3, [r7, #4]
 c007050:	681b      	ldr	r3, [r3, #0]
 c007052:	3308      	adds	r3, #8
 c007054:	613b      	str	r3, [r7, #16]
   __ASM volatile ("ldrex %0, %1" : "=r" (result) : "Q" (*addr) );
 c007056:	693b      	ldr	r3, [r7, #16]
 c007058:	e853 3f00 	ldrex	r3, [r3]
 c00705c:	60fb      	str	r3, [r7, #12]
   return(result);
 c00705e:	68fb      	ldr	r3, [r7, #12]
 c007060:	f023 0301 	bic.w	r3, r3, #1
 c007064:	64bb      	str	r3, [r7, #72]	; 0x48
 c007066:	687b      	ldr	r3, [r7, #4]
 c007068:	681b      	ldr	r3, [r3, #0]
 c00706a:	3308      	adds	r3, #8
 c00706c:	6cba      	ldr	r2, [r7, #72]	; 0x48
 c00706e:	61fa      	str	r2, [r7, #28]
 c007070:	61bb      	str	r3, [r7, #24]
   __ASM volatile ("strex %0, %2, %1" : "=&r" (result), "=Q" (*addr) : "r" (value) );
 c007072:	69b9      	ldr	r1, [r7, #24]
 c007074:	69fa      	ldr	r2, [r7, #28]
 c007076:	e841 2300 	strex	r3, r2, [r1]
 c00707a:	617b      	str	r3, [r7, #20]
   return(result);
 c00707c:	697b      	ldr	r3, [r7, #20]
 c00707e:	2b00      	cmp	r3, #0
 c007080:	d1e5      	bne.n	c00704e <UART_CheckIdleState+0xde>

      huart->RxState = HAL_UART_STATE_READY;
 c007082:	687b      	ldr	r3, [r7, #4]
 c007084:	2220      	movs	r2, #32
 c007086:	f8c3 208c 	str.w	r2, [r3, #140]	; 0x8c

      __HAL_UNLOCK(huart);
 c00708a:	687b      	ldr	r3, [r7, #4]
 c00708c:	2200      	movs	r2, #0
 c00708e:	f883 2084 	strb.w	r2, [r3, #132]	; 0x84

      /* Timeout occurred */
      return HAL_TIMEOUT;
 c007092:	2303      	movs	r3, #3
 c007094:	e012      	b.n	c0070bc <UART_CheckIdleState+0x14c>
    }
  }

  /* Initialize the UART State */
  huart->gState = HAL_UART_STATE_READY;
 c007096:	687b      	ldr	r3, [r7, #4]
 c007098:	2220      	movs	r2, #32
 c00709a:	f8c3 2088 	str.w	r2, [r3, #136]	; 0x88
  huart->RxState = HAL_UART_STATE_READY;
 c00709e:	687b      	ldr	r3, [r7, #4]
 c0070a0:	2220      	movs	r2, #32
 c0070a2:	f8c3 208c 	str.w	r2, [r3, #140]	; 0x8c
  huart->ReceptionType = HAL_UART_RECEPTION_STANDARD;
 c0070a6:	687b      	ldr	r3, [r7, #4]
 c0070a8:	2200      	movs	r2, #0
 c0070aa:	66da      	str	r2, [r3, #108]	; 0x6c
  huart->RxEventType = HAL_UART_RXEVENT_TC;
 c0070ac:	687b      	ldr	r3, [r7, #4]
 c0070ae:	2200      	movs	r2, #0
 c0070b0:	671a      	str	r2, [r3, #112]	; 0x70

  __HAL_UNLOCK(huart);
 c0070b2:	687b      	ldr	r3, [r7, #4]
 c0070b4:	2200      	movs	r2, #0
 c0070b6:	f883 2084 	strb.w	r2, [r3, #132]	; 0x84

  return HAL_OK;
 c0070ba:	2300      	movs	r3, #0
}
 c0070bc:	4618      	mov	r0, r3
 c0070be:	3758      	adds	r7, #88	; 0x58
 c0070c0:	46bd      	mov	sp, r7
 c0070c2:	bd80      	pop	{r7, pc}

0c0070c4 <UART_WaitOnFlagUntilTimeout>:
  * @param Timeout   Timeout duration
  * @retval HAL status
  */
HAL_StatusTypeDef UART_WaitOnFlagUntilTimeout(UART_HandleTypeDef *huart, uint32_t Flag, FlagStatus Status,
                                              uint32_t Tickstart, uint32_t Timeout)
{
 c0070c4:	b580      	push	{r7, lr}
 c0070c6:	b084      	sub	sp, #16
 c0070c8:	af00      	add	r7, sp, #0
 c0070ca:	60f8      	str	r0, [r7, #12]
 c0070cc:	60b9      	str	r1, [r7, #8]
 c0070ce:	603b      	str	r3, [r7, #0]
 c0070d0:	4613      	mov	r3, r2
 c0070d2:	71fb      	strb	r3, [r7, #7]
  /* Wait until flag is set */
  while ((__HAL_UART_GET_FLAG(huart, Flag) ? SET : RESET) == Status)
 c0070d4:	e049      	b.n	c00716a <UART_WaitOnFlagUntilTimeout+0xa6>
  {
    /* Check for the Timeout */
    if (Timeout != HAL_MAX_DELAY)
 c0070d6:	69bb      	ldr	r3, [r7, #24]
 c0070d8:	f1b3 3fff 	cmp.w	r3, #4294967295
 c0070dc:	d045      	beq.n	c00716a <UART_WaitOnFlagUntilTimeout+0xa6>
    {
      if (((HAL_GetTick() - Tickstart) > Timeout) || (Timeout == 0U))
 c0070de:	f7fb f9e1 	bl	c0024a4 <HAL_GetTick>
 c0070e2:	4602      	mov	r2, r0
 c0070e4:	683b      	ldr	r3, [r7, #0]
 c0070e6:	1ad3      	subs	r3, r2, r3
 c0070e8:	69ba      	ldr	r2, [r7, #24]
 c0070ea:	429a      	cmp	r2, r3
 c0070ec:	d302      	bcc.n	c0070f4 <UART_WaitOnFlagUntilTimeout+0x30>
 c0070ee:	69bb      	ldr	r3, [r7, #24]
 c0070f0:	2b00      	cmp	r3, #0
 c0070f2:	d101      	bne.n	c0070f8 <UART_WaitOnFlagUntilTimeout+0x34>
      {

        return HAL_TIMEOUT;
 c0070f4:	2303      	movs	r3, #3
 c0070f6:	e048      	b.n	c00718a <UART_WaitOnFlagUntilTimeout+0xc6>
      }

      if (READ_BIT(huart->Instance->CR1, USART_CR1_RE) != 0U)
 c0070f8:	68fb      	ldr	r3, [r7, #12]
 c0070fa:	681b      	ldr	r3, [r3, #0]
 c0070fc:	681b      	ldr	r3, [r3, #0]
 c0070fe:	f003 0304 	and.w	r3, r3, #4
 c007102:	2b00      	cmp	r3, #0
 c007104:	d031      	beq.n	c00716a <UART_WaitOnFlagUntilTimeout+0xa6>
      {
        if (__HAL_UART_GET_FLAG(huart, UART_FLAG_ORE) == SET)
 c007106:	68fb      	ldr	r3, [r7, #12]
 c007108:	681b      	ldr	r3, [r3, #0]
 c00710a:	69db      	ldr	r3, [r3, #28]
 c00710c:	f003 0308 	and.w	r3, r3, #8
 c007110:	2b08      	cmp	r3, #8
 c007112:	d110      	bne.n	c007136 <UART_WaitOnFlagUntilTimeout+0x72>
        {
           /* Clear Overrun Error flag*/
           __HAL_UART_CLEAR_FLAG(huart, UART_CLEAR_OREF);
 c007114:	68fb      	ldr	r3, [r7, #12]
 c007116:	681b      	ldr	r3, [r3, #0]
 c007118:	2208      	movs	r2, #8
 c00711a:	621a      	str	r2, [r3, #32]

           /* Blocking error : transfer is aborted
           Set the UART state ready to be able to start again the process,
           Disable Rx Interrupts if ongoing */
           UART_EndRxTransfer(huart);
 c00711c:	68f8      	ldr	r0, [r7, #12]
 c00711e:	f000 f838 	bl	c007192 <UART_EndRxTransfer>

           huart->ErrorCode = HAL_UART_ERROR_ORE;
 c007122:	68fb      	ldr	r3, [r7, #12]
 c007124:	2208      	movs	r2, #8
 c007126:	f8c3 2090 	str.w	r2, [r3, #144]	; 0x90

           /* Process Unlocked */
           __HAL_UNLOCK(huart);
 c00712a:	68fb      	ldr	r3, [r7, #12]
 c00712c:	2200      	movs	r2, #0
 c00712e:	f883 2084 	strb.w	r2, [r3, #132]	; 0x84

           return HAL_ERROR;
 c007132:	2301      	movs	r3, #1
 c007134:	e029      	b.n	c00718a <UART_WaitOnFlagUntilTimeout+0xc6>
        }
        if (__HAL_UART_GET_FLAG(huart, UART_FLAG_RTOF) == SET)
 c007136:	68fb      	ldr	r3, [r7, #12]
 c007138:	681b      	ldr	r3, [r3, #0]
 c00713a:	69db      	ldr	r3, [r3, #28]
 c00713c:	f403 6300 	and.w	r3, r3, #2048	; 0x800
 c007140:	f5b3 6f00 	cmp.w	r3, #2048	; 0x800
 c007144:	d111      	bne.n	c00716a <UART_WaitOnFlagUntilTimeout+0xa6>
        {
          /* Clear Receiver Timeout flag*/
          __HAL_UART_CLEAR_FLAG(huart, UART_CLEAR_RTOF);
 c007146:	68fb      	ldr	r3, [r7, #12]
 c007148:	681b      	ldr	r3, [r3, #0]
 c00714a:	f44f 6200 	mov.w	r2, #2048	; 0x800
 c00714e:	621a      	str	r2, [r3, #32]

          /* Blocking error : transfer is aborted
          Set the UART state ready to be able to start again the process,
          Disable Rx Interrupts if ongoing */
          UART_EndRxTransfer(huart);
 c007150:	68f8      	ldr	r0, [r7, #12]
 c007152:	f000 f81e 	bl	c007192 <UART_EndRxTransfer>

          huart->ErrorCode = HAL_UART_ERROR_RTO;
 c007156:	68fb      	ldr	r3, [r7, #12]
 c007158:	2220      	movs	r2, #32
 c00715a:	f8c3 2090 	str.w	r2, [r3, #144]	; 0x90

          /* Process Unlocked */
          __HAL_UNLOCK(huart);
 c00715e:	68fb      	ldr	r3, [r7, #12]
 c007160:	2200      	movs	r2, #0
 c007162:	f883 2084 	strb.w	r2, [r3, #132]	; 0x84

          return HAL_TIMEOUT;
 c007166:	2303      	movs	r3, #3
 c007168:	e00f      	b.n	c00718a <UART_WaitOnFlagUntilTimeout+0xc6>
  while ((__HAL_UART_GET_FLAG(huart, Flag) ? SET : RESET) == Status)
 c00716a:	68fb      	ldr	r3, [r7, #12]
 c00716c:	681b      	ldr	r3, [r3, #0]
 c00716e:	69da      	ldr	r2, [r3, #28]
 c007170:	68bb      	ldr	r3, [r7, #8]
 c007172:	4013      	ands	r3, r2
 c007174:	68ba      	ldr	r2, [r7, #8]
 c007176:	429a      	cmp	r2, r3
 c007178:	bf0c      	ite	eq
 c00717a:	2301      	moveq	r3, #1
 c00717c:	2300      	movne	r3, #0
 c00717e:	b2db      	uxtb	r3, r3
 c007180:	461a      	mov	r2, r3
 c007182:	79fb      	ldrb	r3, [r7, #7]
 c007184:	429a      	cmp	r2, r3
 c007186:	d0a6      	beq.n	c0070d6 <UART_WaitOnFlagUntilTimeout+0x12>
        }
      }
    }
  }
  return HAL_OK;
 c007188:	2300      	movs	r3, #0
}
 c00718a:	4618      	mov	r0, r3
 c00718c:	3710      	adds	r7, #16
 c00718e:	46bd      	mov	sp, r7
 c007190:	bd80      	pop	{r7, pc}

0c007192 <UART_EndRxTransfer>:
  * @brief  End ongoing Rx transfer on UART peripheral (following error detection or Reception completion).
  * @param  huart UART handle.
  * @retval None
  */
static void UART_EndRxTransfer(UART_HandleTypeDef *huart)
{
 c007192:	b480      	push	{r7}
 c007194:	b095      	sub	sp, #84	; 0x54
 c007196:	af00      	add	r7, sp, #0
 c007198:	6078      	str	r0, [r7, #4]
  /* Disable RXNE, PE and ERR (Frame error, noise error, overrun error) interrupts */
  ATOMIC_CLEAR_BIT(huart->Instance->CR1, (USART_CR1_RXNEIE_RXFNEIE | USART_CR1_PEIE));
 c00719a:	687b      	ldr	r3, [r7, #4]
 c00719c:	681b      	ldr	r3, [r3, #0]
 c00719e:	637b      	str	r3, [r7, #52]	; 0x34
   __ASM volatile ("ldrex %0, %1" : "=r" (result) : "Q" (*addr) );
 c0071a0:	6b7b      	ldr	r3, [r7, #52]	; 0x34
 c0071a2:	e853 3f00 	ldrex	r3, [r3]
 c0071a6:	633b      	str	r3, [r7, #48]	; 0x30
   return(result);
 c0071a8:	6b3b      	ldr	r3, [r7, #48]	; 0x30
 c0071aa:	f423 7390 	bic.w	r3, r3, #288	; 0x120
 c0071ae:	64fb      	str	r3, [r7, #76]	; 0x4c
 c0071b0:	687b      	ldr	r3, [r7, #4]
 c0071b2:	681b      	ldr	r3, [r3, #0]
 c0071b4:	461a      	mov	r2, r3
 c0071b6:	6cfb      	ldr	r3, [r7, #76]	; 0x4c
 c0071b8:	643b      	str	r3, [r7, #64]	; 0x40
 c0071ba:	63fa      	str	r2, [r7, #60]	; 0x3c
   __ASM volatile ("strex %0, %2, %1" : "=&r" (result), "=Q" (*addr) : "r" (value) );
 c0071bc:	6bf9      	ldr	r1, [r7, #60]	; 0x3c
 c0071be:	6c3a      	ldr	r2, [r7, #64]	; 0x40
 c0071c0:	e841 2300 	strex	r3, r2, [r1]
 c0071c4:	63bb      	str	r3, [r7, #56]	; 0x38
   return(result);
 c0071c6:	6bbb      	ldr	r3, [r7, #56]	; 0x38
 c0071c8:	2b00      	cmp	r3, #0
 c0071ca:	d1e6      	bne.n	c00719a <UART_EndRxTransfer+0x8>
  ATOMIC_CLEAR_BIT(huart->Instance->CR3, (USART_CR3_EIE | USART_CR3_RXFTIE));
 c0071cc:	687b      	ldr	r3, [r7, #4]
 c0071ce:	681b      	ldr	r3, [r3, #0]
 c0071d0:	3308      	adds	r3, #8
 c0071d2:	623b      	str	r3, [r7, #32]
   __ASM volatile ("ldrex %0, %1" : "=r" (result) : "Q" (*addr) );
 c0071d4:	6a3b      	ldr	r3, [r7, #32]
 c0071d6:	e853 3f00 	ldrex	r3, [r3]
 c0071da:	61fb      	str	r3, [r7, #28]
   return(result);
 c0071dc:	69fb      	ldr	r3, [r7, #28]
 c0071de:	f023 5380 	bic.w	r3, r3, #268435456	; 0x10000000
 c0071e2:	f023 0301 	bic.w	r3, r3, #1
 c0071e6:	64bb      	str	r3, [r7, #72]	; 0x48
 c0071e8:	687b      	ldr	r3, [r7, #4]
 c0071ea:	681b      	ldr	r3, [r3, #0]
 c0071ec:	3308      	adds	r3, #8
 c0071ee:	6cba      	ldr	r2, [r7, #72]	; 0x48
 c0071f0:	62fa      	str	r2, [r7, #44]	; 0x2c
 c0071f2:	62bb      	str	r3, [r7, #40]	; 0x28
   __ASM volatile ("strex %0, %2, %1" : "=&r" (result), "=Q" (*addr) : "r" (value) );
 c0071f4:	6ab9      	ldr	r1, [r7, #40]	; 0x28
 c0071f6:	6afa      	ldr	r2, [r7, #44]	; 0x2c
 c0071f8:	e841 2300 	strex	r3, r2, [r1]
 c0071fc:	627b      	str	r3, [r7, #36]	; 0x24
   return(result);
 c0071fe:	6a7b      	ldr	r3, [r7, #36]	; 0x24
 c007200:	2b00      	cmp	r3, #0
 c007202:	d1e3      	bne.n	c0071cc <UART_EndRxTransfer+0x3a>

  /* In case of reception waiting for IDLE event, disable also the IDLE IE interrupt source */
  if (huart->ReceptionType == HAL_UART_RECEPTION_TOIDLE)
 c007204:	687b      	ldr	r3, [r7, #4]
 c007206:	6edb      	ldr	r3, [r3, #108]	; 0x6c
 c007208:	2b01      	cmp	r3, #1
 c00720a:	d118      	bne.n	c00723e <UART_EndRxTransfer+0xac>
  {
    ATOMIC_CLEAR_BIT(huart->Instance->CR1, USART_CR1_IDLEIE);
 c00720c:	687b      	ldr	r3, [r7, #4]
 c00720e:	681b      	ldr	r3, [r3, #0]
 c007210:	60fb      	str	r3, [r7, #12]
   __ASM volatile ("ldrex %0, %1" : "=r" (result) : "Q" (*addr) );
 c007212:	68fb      	ldr	r3, [r7, #12]
 c007214:	e853 3f00 	ldrex	r3, [r3]
 c007218:	60bb      	str	r3, [r7, #8]
   return(result);
 c00721a:	68bb      	ldr	r3, [r7, #8]
 c00721c:	f023 0310 	bic.w	r3, r3, #16
 c007220:	647b      	str	r3, [r7, #68]	; 0x44
 c007222:	687b      	ldr	r3, [r7, #4]
 c007224:	681b      	ldr	r3, [r3, #0]
 c007226:	461a      	mov	r2, r3
 c007228:	6c7b      	ldr	r3, [r7, #68]	; 0x44
 c00722a:	61bb      	str	r3, [r7, #24]
 c00722c:	617a      	str	r2, [r7, #20]
   __ASM volatile ("strex %0, %2, %1" : "=&r" (result), "=Q" (*addr) : "r" (value) );
 c00722e:	6979      	ldr	r1, [r7, #20]
 c007230:	69ba      	ldr	r2, [r7, #24]
 c007232:	e841 2300 	strex	r3, r2, [r1]
 c007236:	613b      	str	r3, [r7, #16]
   return(result);
 c007238:	693b      	ldr	r3, [r7, #16]
 c00723a:	2b00      	cmp	r3, #0
 c00723c:	d1e6      	bne.n	c00720c <UART_EndRxTransfer+0x7a>
  }

  /* At end of Rx process, restore huart->RxState to Ready */
  huart->RxState = HAL_UART_STATE_READY;
 c00723e:	687b      	ldr	r3, [r7, #4]
 c007240:	2220      	movs	r2, #32
 c007242:	f8c3 208c 	str.w	r2, [r3, #140]	; 0x8c
  huart->ReceptionType = HAL_UART_RECEPTION_STANDARD;
 c007246:	687b      	ldr	r3, [r7, #4]
 c007248:	2200      	movs	r2, #0
 c00724a:	66da      	str	r2, [r3, #108]	; 0x6c

  /* Reset RxIsr function pointer */
  huart->RxISR = NULL;
 c00724c:	687b      	ldr	r3, [r7, #4]
 c00724e:	2200      	movs	r2, #0
 c007250:	675a      	str	r2, [r3, #116]	; 0x74
}
 c007252:	bf00      	nop
 c007254:	3754      	adds	r7, #84	; 0x54
 c007256:	46bd      	mov	sp, r7
 c007258:	f85d 7b04 	ldr.w	r7, [sp], #4
 c00725c:	4770      	bx	lr

0c00725e <HAL_UARTEx_DisableFifoMode>:
  * @brief  Disable the FIFO mode.
  * @param huart      UART handle.
  * @retval HAL status
  */
HAL_StatusTypeDef HAL_UARTEx_DisableFifoMode(UART_HandleTypeDef *huart)
{
 c00725e:	b480      	push	{r7}
 c007260:	b085      	sub	sp, #20
 c007262:	af00      	add	r7, sp, #0
 c007264:	6078      	str	r0, [r7, #4]

  /* Check parameters */
  assert_param(IS_UART_FIFO_INSTANCE(huart->Instance));

  /* Process Locked */
  __HAL_LOCK(huart);
 c007266:	687b      	ldr	r3, [r7, #4]
 c007268:	f893 3084 	ldrb.w	r3, [r3, #132]	; 0x84
 c00726c:	2b01      	cmp	r3, #1
 c00726e:	d101      	bne.n	c007274 <HAL_UARTEx_DisableFifoMode+0x16>
 c007270:	2302      	movs	r3, #2
 c007272:	e027      	b.n	c0072c4 <HAL_UARTEx_DisableFifoMode+0x66>
 c007274:	687b      	ldr	r3, [r7, #4]
 c007276:	2201      	movs	r2, #1
 c007278:	f883 2084 	strb.w	r2, [r3, #132]	; 0x84

  huart->gState = HAL_UART_STATE_BUSY;
 c00727c:	687b      	ldr	r3, [r7, #4]
 c00727e:	2224      	movs	r2, #36	; 0x24
 c007280:	f8c3 2088 	str.w	r2, [r3, #136]	; 0x88

  /* Save actual UART configuration */
  tmpcr1 = READ_REG(huart->Instance->CR1);
 c007284:	687b      	ldr	r3, [r7, #4]
 c007286:	681b      	ldr	r3, [r3, #0]
 c007288:	681b      	ldr	r3, [r3, #0]
 c00728a:	60fb      	str	r3, [r7, #12]

  /* Disable UART */
  __HAL_UART_DISABLE(huart);
 c00728c:	687b      	ldr	r3, [r7, #4]
 c00728e:	681b      	ldr	r3, [r3, #0]
 c007290:	681a      	ldr	r2, [r3, #0]
 c007292:	687b      	ldr	r3, [r7, #4]
 c007294:	681b      	ldr	r3, [r3, #0]
 c007296:	f022 0201 	bic.w	r2, r2, #1
 c00729a:	601a      	str	r2, [r3, #0]

  /* Enable FIFO mode */
  CLEAR_BIT(tmpcr1, USART_CR1_FIFOEN);
 c00729c:	68fb      	ldr	r3, [r7, #12]
 c00729e:	f023 5300 	bic.w	r3, r3, #536870912	; 0x20000000
 c0072a2:	60fb      	str	r3, [r7, #12]
  huart->FifoMode = UART_FIFOMODE_DISABLE;
 c0072a4:	687b      	ldr	r3, [r7, #4]
 c0072a6:	2200      	movs	r2, #0
 c0072a8:	665a      	str	r2, [r3, #100]	; 0x64

  /* Restore UART configuration */
  WRITE_REG(huart->Instance->CR1, tmpcr1);
 c0072aa:	687b      	ldr	r3, [r7, #4]
 c0072ac:	681b      	ldr	r3, [r3, #0]
 c0072ae:	68fa      	ldr	r2, [r7, #12]
 c0072b0:	601a      	str	r2, [r3, #0]

  huart->gState = HAL_UART_STATE_READY;
 c0072b2:	687b      	ldr	r3, [r7, #4]
 c0072b4:	2220      	movs	r2, #32
 c0072b6:	f8c3 2088 	str.w	r2, [r3, #136]	; 0x88

  /* Process Unlocked */
  __HAL_UNLOCK(huart);
 c0072ba:	687b      	ldr	r3, [r7, #4]
 c0072bc:	2200      	movs	r2, #0
 c0072be:	f883 2084 	strb.w	r2, [r3, #132]	; 0x84

  return HAL_OK;
 c0072c2:	2300      	movs	r3, #0
}
 c0072c4:	4618      	mov	r0, r3
 c0072c6:	3714      	adds	r7, #20
 c0072c8:	46bd      	mov	sp, r7
 c0072ca:	f85d 7b04 	ldr.w	r7, [sp], #4
 c0072ce:	4770      	bx	lr

0c0072d0 <HAL_UARTEx_SetTxFifoThreshold>:
  *            @arg @ref UART_TXFIFO_THRESHOLD_7_8
  *            @arg @ref UART_TXFIFO_THRESHOLD_8_8
  * @retval HAL status
  */
HAL_StatusTypeDef HAL_UARTEx_SetTxFifoThreshold(UART_HandleTypeDef *huart, uint32_t Threshold)
{
 c0072d0:	b580      	push	{r7, lr}
 c0072d2:	b084      	sub	sp, #16
 c0072d4:	af00      	add	r7, sp, #0
 c0072d6:	6078      	str	r0, [r7, #4]
 c0072d8:	6039      	str	r1, [r7, #0]
  /* Check parameters */
  assert_param(IS_UART_FIFO_INSTANCE(huart->Instance));
  assert_param(IS_UART_TXFIFO_THRESHOLD(Threshold));

  /* Process Locked */
  __HAL_LOCK(huart);
 c0072da:	687b      	ldr	r3, [r7, #4]
 c0072dc:	f893 3084 	ldrb.w	r3, [r3, #132]	; 0x84
 c0072e0:	2b01      	cmp	r3, #1
 c0072e2:	d101      	bne.n	c0072e8 <HAL_UARTEx_SetTxFifoThreshold+0x18>
 c0072e4:	2302      	movs	r3, #2
 c0072e6:	e02d      	b.n	c007344 <HAL_UARTEx_SetTxFifoThreshold+0x74>
 c0072e8:	687b      	ldr	r3, [r7, #4]
 c0072ea:	2201      	movs	r2, #1
 c0072ec:	f883 2084 	strb.w	r2, [r3, #132]	; 0x84

  huart->gState = HAL_UART_STATE_BUSY;
 c0072f0:	687b      	ldr	r3, [r7, #4]
 c0072f2:	2224      	movs	r2, #36	; 0x24
 c0072f4:	f8c3 2088 	str.w	r2, [r3, #136]	; 0x88

  /* Save actual UART configuration */
  tmpcr1 = READ_REG(huart->Instance->CR1);
 c0072f8:	687b      	ldr	r3, [r7, #4]
 c0072fa:	681b      	ldr	r3, [r3, #0]
 c0072fc:	681b      	ldr	r3, [r3, #0]
 c0072fe:	60fb      	str	r3, [r7, #12]

  /* Disable UART */
  __HAL_UART_DISABLE(huart);
 c007300:	687b      	ldr	r3, [r7, #4]
 c007302:	681b      	ldr	r3, [r3, #0]
 c007304:	681a      	ldr	r2, [r3, #0]
 c007306:	687b      	ldr	r3, [r7, #4]
 c007308:	681b      	ldr	r3, [r3, #0]
 c00730a:	f022 0201 	bic.w	r2, r2, #1
 c00730e:	601a      	str	r2, [r3, #0]

  /* Update TX threshold configuration */
  MODIFY_REG(huart->Instance->CR3, USART_CR3_TXFTCFG, Threshold);
 c007310:	687b      	ldr	r3, [r7, #4]
 c007312:	681b      	ldr	r3, [r3, #0]
 c007314:	689b      	ldr	r3, [r3, #8]
 c007316:	f023 4160 	bic.w	r1, r3, #3758096384	; 0xe0000000
 c00731a:	687b      	ldr	r3, [r7, #4]
 c00731c:	681b      	ldr	r3, [r3, #0]
 c00731e:	683a      	ldr	r2, [r7, #0]
 c007320:	430a      	orrs	r2, r1
 c007322:	609a      	str	r2, [r3, #8]

  /* Determine the number of data to process during RX/TX ISR execution */
  UARTEx_SetNbDataToProcess(huart);
 c007324:	6878      	ldr	r0, [r7, #4]
 c007326:	f000 f84f 	bl	c0073c8 <UARTEx_SetNbDataToProcess>

  /* Restore UART configuration */
  WRITE_REG(huart->Instance->CR1, tmpcr1);
 c00732a:	687b      	ldr	r3, [r7, #4]
 c00732c:	681b      	ldr	r3, [r3, #0]
 c00732e:	68fa      	ldr	r2, [r7, #12]
 c007330:	601a      	str	r2, [r3, #0]

  huart->gState = HAL_UART_STATE_READY;
 c007332:	687b      	ldr	r3, [r7, #4]
 c007334:	2220      	movs	r2, #32
 c007336:	f8c3 2088 	str.w	r2, [r3, #136]	; 0x88

  /* Process Unlocked */
  __HAL_UNLOCK(huart);
 c00733a:	687b      	ldr	r3, [r7, #4]
 c00733c:	2200      	movs	r2, #0
 c00733e:	f883 2084 	strb.w	r2, [r3, #132]	; 0x84

  return HAL_OK;
 c007342:	2300      	movs	r3, #0
}
 c007344:	4618      	mov	r0, r3
 c007346:	3710      	adds	r7, #16
 c007348:	46bd      	mov	sp, r7
 c00734a:	bd80      	pop	{r7, pc}

0c00734c <HAL_UARTEx_SetRxFifoThreshold>:
  *            @arg @ref UART_RXFIFO_THRESHOLD_7_8
  *            @arg @ref UART_RXFIFO_THRESHOLD_8_8
  * @retval HAL status
  */
HAL_StatusTypeDef HAL_UARTEx_SetRxFifoThreshold(UART_HandleTypeDef *huart, uint32_t Threshold)
{
 c00734c:	b580      	push	{r7, lr}
 c00734e:	b084      	sub	sp, #16
 c007350:	af00      	add	r7, sp, #0
 c007352:	6078      	str	r0, [r7, #4]
 c007354:	6039      	str	r1, [r7, #0]
  /* Check the parameters */
  assert_param(IS_UART_FIFO_INSTANCE(huart->Instance));
  assert_param(IS_UART_RXFIFO_THRESHOLD(Threshold));

  /* Process Locked */
  __HAL_LOCK(huart);
 c007356:	687b      	ldr	r3, [r7, #4]
 c007358:	f893 3084 	ldrb.w	r3, [r3, #132]	; 0x84
 c00735c:	2b01      	cmp	r3, #1
 c00735e:	d101      	bne.n	c007364 <HAL_UARTEx_SetRxFifoThreshold+0x18>
 c007360:	2302      	movs	r3, #2
 c007362:	e02d      	b.n	c0073c0 <HAL_UARTEx_SetRxFifoThreshold+0x74>
 c007364:	687b      	ldr	r3, [r7, #4]
 c007366:	2201      	movs	r2, #1
 c007368:	f883 2084 	strb.w	r2, [r3, #132]	; 0x84

  huart->gState = HAL_UART_STATE_BUSY;
 c00736c:	687b      	ldr	r3, [r7, #4]
 c00736e:	2224      	movs	r2, #36	; 0x24
 c007370:	f8c3 2088 	str.w	r2, [r3, #136]	; 0x88

  /* Save actual UART configuration */
  tmpcr1 = READ_REG(huart->Instance->CR1);
 c007374:	687b      	ldr	r3, [r7, #4]
 c007376:	681b      	ldr	r3, [r3, #0]
 c007378:	681b      	ldr	r3, [r3, #0]
 c00737a:	60fb      	str	r3, [r7, #12]

  /* Disable UART */
  __HAL_UART_DISABLE(huart);
 c00737c:	687b      	ldr	r3, [r7, #4]
 c00737e:	681b      	ldr	r3, [r3, #0]
 c007380:	681a      	ldr	r2, [r3, #0]
 c007382:	687b      	ldr	r3, [r7, #4]
 c007384:	681b      	ldr	r3, [r3, #0]
 c007386:	f022 0201 	bic.w	r2, r2, #1
 c00738a:	601a      	str	r2, [r3, #0]

  /* Update RX threshold configuration */
  MODIFY_REG(huart->Instance->CR3, USART_CR3_RXFTCFG, Threshold);
 c00738c:	687b      	ldr	r3, [r7, #4]
 c00738e:	681b      	ldr	r3, [r3, #0]
 c007390:	689b      	ldr	r3, [r3, #8]
 c007392:	f023 6160 	bic.w	r1, r3, #234881024	; 0xe000000
 c007396:	687b      	ldr	r3, [r7, #4]
 c007398:	681b      	ldr	r3, [r3, #0]
 c00739a:	683a      	ldr	r2, [r7, #0]
 c00739c:	430a      	orrs	r2, r1
 c00739e:	609a      	str	r2, [r3, #8]

  /* Determine the number of data to process during RX/TX ISR execution */
  UARTEx_SetNbDataToProcess(huart);
 c0073a0:	6878      	ldr	r0, [r7, #4]
 c0073a2:	f000 f811 	bl	c0073c8 <UARTEx_SetNbDataToProcess>

  /* Restore UART configuration */
  WRITE_REG(huart->Instance->CR1, tmpcr1);
 c0073a6:	687b      	ldr	r3, [r7, #4]
 c0073a8:	681b      	ldr	r3, [r3, #0]
 c0073aa:	68fa      	ldr	r2, [r7, #12]
 c0073ac:	601a      	str	r2, [r3, #0]

  huart->gState = HAL_UART_STATE_READY;
 c0073ae:	687b      	ldr	r3, [r7, #4]
 c0073b0:	2220      	movs	r2, #32
 c0073b2:	f8c3 2088 	str.w	r2, [r3, #136]	; 0x88

  /* Process Unlocked */
  __HAL_UNLOCK(huart);
 c0073b6:	687b      	ldr	r3, [r7, #4]
 c0073b8:	2200      	movs	r2, #0
 c0073ba:	f883 2084 	strb.w	r2, [r3, #132]	; 0x84

  return HAL_OK;
 c0073be:	2300      	movs	r3, #0
}
 c0073c0:	4618      	mov	r0, r3
 c0073c2:	3710      	adds	r7, #16
 c0073c4:	46bd      	mov	sp, r7
 c0073c6:	bd80      	pop	{r7, pc}

0c0073c8 <UARTEx_SetNbDataToProcess>:
  *       the UART configuration registers.
  * @param huart UART handle.
  * @retval None
  */
static void UARTEx_SetNbDataToProcess(UART_HandleTypeDef *huart)
{
 c0073c8:	b480      	push	{r7}
 c0073ca:	b085      	sub	sp, #20
 c0073cc:	af00      	add	r7, sp, #0
 c0073ce:	6078      	str	r0, [r7, #4]
  uint8_t rx_fifo_threshold;
  uint8_t tx_fifo_threshold;
  static const uint8_t numerator[] = {1U, 1U, 1U, 3U, 7U, 1U, 0U, 0U};
  static const uint8_t denominator[] = {8U, 4U, 2U, 4U, 8U, 1U, 1U, 1U};

  if (huart->FifoMode == UART_FIFOMODE_DISABLE)
 c0073d0:	687b      	ldr	r3, [r7, #4]
 c0073d2:	6e5b      	ldr	r3, [r3, #100]	; 0x64
 c0073d4:	2b00      	cmp	r3, #0
 c0073d6:	d108      	bne.n	c0073ea <UARTEx_SetNbDataToProcess+0x22>
  {
    huart->NbTxDataToProcess = 1U;
 c0073d8:	687b      	ldr	r3, [r7, #4]
 c0073da:	2201      	movs	r2, #1
 c0073dc:	f8a3 206a 	strh.w	r2, [r3, #106]	; 0x6a
    huart->NbRxDataToProcess = 1U;
 c0073e0:	687b      	ldr	r3, [r7, #4]
 c0073e2:	2201      	movs	r2, #1
 c0073e4:	f8a3 2068 	strh.w	r2, [r3, #104]	; 0x68
    huart->NbTxDataToProcess = ((uint16_t)tx_fifo_depth * numerator[tx_fifo_threshold]) /
                               (uint16_t)denominator[tx_fifo_threshold];
    huart->NbRxDataToProcess = ((uint16_t)rx_fifo_depth * numerator[rx_fifo_threshold]) /
                               (uint16_t)denominator[rx_fifo_threshold];
  }
}
 c0073e8:	e031      	b.n	c00744e <UARTEx_SetNbDataToProcess+0x86>
    rx_fifo_depth = RX_FIFO_DEPTH;
 c0073ea:	2308      	movs	r3, #8
 c0073ec:	73fb      	strb	r3, [r7, #15]
    tx_fifo_depth = TX_FIFO_DEPTH;
 c0073ee:	2308      	movs	r3, #8
 c0073f0:	73bb      	strb	r3, [r7, #14]
    rx_fifo_threshold = (uint8_t)(READ_BIT(huart->Instance->CR3, USART_CR3_RXFTCFG) >> USART_CR3_RXFTCFG_Pos);
 c0073f2:	687b      	ldr	r3, [r7, #4]
 c0073f4:	681b      	ldr	r3, [r3, #0]
 c0073f6:	689b      	ldr	r3, [r3, #8]
 c0073f8:	0e5b      	lsrs	r3, r3, #25
 c0073fa:	b2db      	uxtb	r3, r3
 c0073fc:	f003 0307 	and.w	r3, r3, #7
 c007400:	737b      	strb	r3, [r7, #13]
    tx_fifo_threshold = (uint8_t)(READ_BIT(huart->Instance->CR3, USART_CR3_TXFTCFG) >> USART_CR3_TXFTCFG_Pos);
 c007402:	687b      	ldr	r3, [r7, #4]
 c007404:	681b      	ldr	r3, [r3, #0]
 c007406:	689b      	ldr	r3, [r3, #8]
 c007408:	0f5b      	lsrs	r3, r3, #29
 c00740a:	b2db      	uxtb	r3, r3
 c00740c:	f003 0307 	and.w	r3, r3, #7
 c007410:	733b      	strb	r3, [r7, #12]
    huart->NbTxDataToProcess = ((uint16_t)tx_fifo_depth * numerator[tx_fifo_threshold]) /
 c007412:	7bbb      	ldrb	r3, [r7, #14]
 c007414:	7b3a      	ldrb	r2, [r7, #12]
 c007416:	4911      	ldr	r1, [pc, #68]	; (c00745c <UARTEx_SetNbDataToProcess+0x94>)
 c007418:	5c8a      	ldrb	r2, [r1, r2]
 c00741a:	fb02 f303 	mul.w	r3, r2, r3
                               (uint16_t)denominator[tx_fifo_threshold];
 c00741e:	7b3a      	ldrb	r2, [r7, #12]
 c007420:	490f      	ldr	r1, [pc, #60]	; (c007460 <UARTEx_SetNbDataToProcess+0x98>)
 c007422:	5c8a      	ldrb	r2, [r1, r2]
    huart->NbTxDataToProcess = ((uint16_t)tx_fifo_depth * numerator[tx_fifo_threshold]) /
 c007424:	fb93 f3f2 	sdiv	r3, r3, r2
 c007428:	b29a      	uxth	r2, r3
 c00742a:	687b      	ldr	r3, [r7, #4]
 c00742c:	f8a3 206a 	strh.w	r2, [r3, #106]	; 0x6a
    huart->NbRxDataToProcess = ((uint16_t)rx_fifo_depth * numerator[rx_fifo_threshold]) /
 c007430:	7bfb      	ldrb	r3, [r7, #15]
 c007432:	7b7a      	ldrb	r2, [r7, #13]
 c007434:	4909      	ldr	r1, [pc, #36]	; (c00745c <UARTEx_SetNbDataToProcess+0x94>)
 c007436:	5c8a      	ldrb	r2, [r1, r2]
 c007438:	fb02 f303 	mul.w	r3, r2, r3
                               (uint16_t)denominator[rx_fifo_threshold];
 c00743c:	7b7a      	ldrb	r2, [r7, #13]
 c00743e:	4908      	ldr	r1, [pc, #32]	; (c007460 <UARTEx_SetNbDataToProcess+0x98>)
 c007440:	5c8a      	ldrb	r2, [r1, r2]
    huart->NbRxDataToProcess = ((uint16_t)rx_fifo_depth * numerator[rx_fifo_threshold]) /
 c007442:	fb93 f3f2 	sdiv	r3, r3, r2
 c007446:	b29a      	uxth	r2, r3
 c007448:	687b      	ldr	r3, [r7, #4]
 c00744a:	f8a3 2068 	strh.w	r2, [r3, #104]	; 0x68
}
 c00744e:	bf00      	nop
 c007450:	3714      	adds	r7, #20
 c007452:	46bd      	mov	sp, r7
 c007454:	f85d 7b04 	ldr.w	r7, [sp], #4
 c007458:	4770      	bx	lr
 c00745a:	bf00      	nop
 c00745c:	0c008d78 	.word	0x0c008d78
 c007460:	0c008d80 	.word	0x0c008d80

0c007464 <__errno>:
 c007464:	4b01      	ldr	r3, [pc, #4]	; (c00746c <__errno+0x8>)
 c007466:	6818      	ldr	r0, [r3, #0]
 c007468:	4770      	bx	lr
 c00746a:	bf00      	nop
 c00746c:	30000104 	.word	0x30000104

0c007470 <__libc_init_array>:
 c007470:	b570      	push	{r4, r5, r6, lr}
 c007472:	4d0d      	ldr	r5, [pc, #52]	; (c0074a8 <__libc_init_array+0x38>)
 c007474:	2600      	movs	r6, #0
 c007476:	4c0d      	ldr	r4, [pc, #52]	; (c0074ac <__libc_init_array+0x3c>)
 c007478:	1b64      	subs	r4, r4, r5
 c00747a:	10a4      	asrs	r4, r4, #2
 c00747c:	42a6      	cmp	r6, r4
 c00747e:	d109      	bne.n	c007494 <__libc_init_array+0x24>
 c007480:	4d0b      	ldr	r5, [pc, #44]	; (c0074b0 <__libc_init_array+0x40>)
 c007482:	2600      	movs	r6, #0
 c007484:	4c0b      	ldr	r4, [pc, #44]	; (c0074b4 <__libc_init_array+0x44>)
 c007486:	f001 f9bb 	bl	c008800 <_init>
 c00748a:	1b64      	subs	r4, r4, r5
 c00748c:	10a4      	asrs	r4, r4, #2
 c00748e:	42a6      	cmp	r6, r4
 c007490:	d105      	bne.n	c00749e <__libc_init_array+0x2e>
 c007492:	bd70      	pop	{r4, r5, r6, pc}
 c007494:	f855 3b04 	ldr.w	r3, [r5], #4
 c007498:	3601      	adds	r6, #1
 c00749a:	4798      	blx	r3
 c00749c:	e7ee      	b.n	c00747c <__libc_init_array+0xc>
 c00749e:	f855 3b04 	ldr.w	r3, [r5], #4
 c0074a2:	3601      	adds	r6, #1
 c0074a4:	4798      	blx	r3
 c0074a6:	e7f2      	b.n	c00748e <__libc_init_array+0x1e>
 c0074a8:	0c008e28 	.word	0x0c008e28
 c0074ac:	0c008e28 	.word	0x0c008e28
 c0074b0:	0c008e28 	.word	0x0c008e28
 c0074b4:	0c008e2c 	.word	0x0c008e2c

0c0074b8 <memcmp>:
 c0074b8:	3901      	subs	r1, #1
 c0074ba:	4402      	add	r2, r0
 c0074bc:	b510      	push	{r4, lr}
 c0074be:	4290      	cmp	r0, r2
 c0074c0:	d101      	bne.n	c0074c6 <memcmp+0xe>
 c0074c2:	2000      	movs	r0, #0
 c0074c4:	e005      	b.n	c0074d2 <memcmp+0x1a>
 c0074c6:	7803      	ldrb	r3, [r0, #0]
 c0074c8:	f811 4f01 	ldrb.w	r4, [r1, #1]!
 c0074cc:	42a3      	cmp	r3, r4
 c0074ce:	d001      	beq.n	c0074d4 <memcmp+0x1c>
 c0074d0:	1b18      	subs	r0, r3, r4
 c0074d2:	bd10      	pop	{r4, pc}
 c0074d4:	3001      	adds	r0, #1
 c0074d6:	e7f2      	b.n	c0074be <memcmp+0x6>

0c0074d8 <memset>:
 c0074d8:	4402      	add	r2, r0
 c0074da:	4603      	mov	r3, r0
 c0074dc:	4293      	cmp	r3, r2
 c0074de:	d100      	bne.n	c0074e2 <memset+0xa>
 c0074e0:	4770      	bx	lr
 c0074e2:	f803 1b01 	strb.w	r1, [r3], #1
 c0074e6:	e7f9      	b.n	c0074dc <memset+0x4>

0c0074e8 <iprintf>:
 c0074e8:	b40f      	push	{r0, r1, r2, r3}
 c0074ea:	4b0a      	ldr	r3, [pc, #40]	; (c007514 <iprintf+0x2c>)
 c0074ec:	b513      	push	{r0, r1, r4, lr}
 c0074ee:	681c      	ldr	r4, [r3, #0]
 c0074f0:	b124      	cbz	r4, c0074fc <iprintf+0x14>
 c0074f2:	69a3      	ldr	r3, [r4, #24]
 c0074f4:	b913      	cbnz	r3, c0074fc <iprintf+0x14>
 c0074f6:	4620      	mov	r0, r4
 c0074f8:	f000 f89a 	bl	c007630 <__sinit>
 c0074fc:	ab05      	add	r3, sp, #20
 c0074fe:	9a04      	ldr	r2, [sp, #16]
 c007500:	68a1      	ldr	r1, [r4, #8]
 c007502:	4620      	mov	r0, r4
 c007504:	9301      	str	r3, [sp, #4]
 c007506:	f000 fb4d 	bl	c007ba4 <_vfiprintf_r>
 c00750a:	b002      	add	sp, #8
 c00750c:	e8bd 4010 	ldmia.w	sp!, {r4, lr}
 c007510:	b004      	add	sp, #16
 c007512:	4770      	bx	lr
 c007514:	30000104 	.word	0x30000104

0c007518 <sniprintf>:
 c007518:	b40c      	push	{r2, r3}
 c00751a:	4b18      	ldr	r3, [pc, #96]	; (c00757c <sniprintf+0x64>)
 c00751c:	b530      	push	{r4, r5, lr}
 c00751e:	1e0c      	subs	r4, r1, #0
 c007520:	b09d      	sub	sp, #116	; 0x74
 c007522:	681d      	ldr	r5, [r3, #0]
 c007524:	da08      	bge.n	c007538 <sniprintf+0x20>
 c007526:	238b      	movs	r3, #139	; 0x8b
 c007528:	f04f 30ff 	mov.w	r0, #4294967295
 c00752c:	602b      	str	r3, [r5, #0]
 c00752e:	b01d      	add	sp, #116	; 0x74
 c007530:	e8bd 4030 	ldmia.w	sp!, {r4, r5, lr}
 c007534:	b002      	add	sp, #8
 c007536:	4770      	bx	lr
 c007538:	f44f 7302 	mov.w	r3, #520	; 0x208
 c00753c:	9002      	str	r0, [sp, #8]
 c00753e:	9006      	str	r0, [sp, #24]
 c007540:	a902      	add	r1, sp, #8
 c007542:	f8ad 3014 	strh.w	r3, [sp, #20]
 c007546:	bf14      	ite	ne
 c007548:	f104 33ff 	addne.w	r3, r4, #4294967295
 c00754c:	4623      	moveq	r3, r4
 c00754e:	9a20      	ldr	r2, [sp, #128]	; 0x80
 c007550:	4628      	mov	r0, r5
 c007552:	9304      	str	r3, [sp, #16]
 c007554:	9307      	str	r3, [sp, #28]
 c007556:	f64f 73ff 	movw	r3, #65535	; 0xffff
 c00755a:	f8ad 3016 	strh.w	r3, [sp, #22]
 c00755e:	ab21      	add	r3, sp, #132	; 0x84
 c007560:	9301      	str	r3, [sp, #4]
 c007562:	f000 f9f5 	bl	c007950 <_svfiprintf_r>
 c007566:	1c43      	adds	r3, r0, #1
 c007568:	bfbc      	itt	lt
 c00756a:	238b      	movlt	r3, #139	; 0x8b
 c00756c:	602b      	strlt	r3, [r5, #0]
 c00756e:	2c00      	cmp	r4, #0
 c007570:	d0dd      	beq.n	c00752e <sniprintf+0x16>
 c007572:	9b02      	ldr	r3, [sp, #8]
 c007574:	2200      	movs	r2, #0
 c007576:	701a      	strb	r2, [r3, #0]
 c007578:	e7d9      	b.n	c00752e <sniprintf+0x16>
 c00757a:	bf00      	nop
 c00757c:	30000104 	.word	0x30000104

0c007580 <std>:
 c007580:	2300      	movs	r3, #0
 c007582:	b510      	push	{r4, lr}
 c007584:	4604      	mov	r4, r0
 c007586:	6083      	str	r3, [r0, #8]
 c007588:	8181      	strh	r1, [r0, #12]
 c00758a:	4619      	mov	r1, r3
 c00758c:	6643      	str	r3, [r0, #100]	; 0x64
 c00758e:	81c2      	strh	r2, [r0, #14]
 c007590:	2208      	movs	r2, #8
 c007592:	6183      	str	r3, [r0, #24]
 c007594:	e9c0 3300 	strd	r3, r3, [r0]
 c007598:	e9c0 3304 	strd	r3, r3, [r0, #16]
 c00759c:	305c      	adds	r0, #92	; 0x5c
 c00759e:	f7ff ff9b 	bl	c0074d8 <memset>
 c0075a2:	4b05      	ldr	r3, [pc, #20]	; (c0075b8 <std+0x38>)
 c0075a4:	6224      	str	r4, [r4, #32]
 c0075a6:	6263      	str	r3, [r4, #36]	; 0x24
 c0075a8:	4b04      	ldr	r3, [pc, #16]	; (c0075bc <std+0x3c>)
 c0075aa:	62a3      	str	r3, [r4, #40]	; 0x28
 c0075ac:	4b04      	ldr	r3, [pc, #16]	; (c0075c0 <std+0x40>)
 c0075ae:	62e3      	str	r3, [r4, #44]	; 0x2c
 c0075b0:	4b04      	ldr	r3, [pc, #16]	; (c0075c4 <std+0x44>)
 c0075b2:	6323      	str	r3, [r4, #48]	; 0x30
 c0075b4:	bd10      	pop	{r4, pc}
 c0075b6:	bf00      	nop
 c0075b8:	0c008151 	.word	0x0c008151
 c0075bc:	0c008173 	.word	0x0c008173
 c0075c0:	0c0081ab 	.word	0x0c0081ab
 c0075c4:	0c0081cf 	.word	0x0c0081cf

0c0075c8 <_cleanup_r>:
 c0075c8:	4901      	ldr	r1, [pc, #4]	; (c0075d0 <_cleanup_r+0x8>)
 c0075ca:	f000 b8af 	b.w	c00772c <_fwalk_reent>
 c0075ce:	bf00      	nop
 c0075d0:	0c0084a5 	.word	0x0c0084a5

0c0075d4 <__sfmoreglue>:
 c0075d4:	b570      	push	{r4, r5, r6, lr}
 c0075d6:	2268      	movs	r2, #104	; 0x68
 c0075d8:	1e4d      	subs	r5, r1, #1
 c0075da:	460e      	mov	r6, r1
 c0075dc:	4355      	muls	r5, r2
 c0075de:	f105 0174 	add.w	r1, r5, #116	; 0x74
 c0075e2:	f000 f8e5 	bl	c0077b0 <_malloc_r>
 c0075e6:	4604      	mov	r4, r0
 c0075e8:	b140      	cbz	r0, c0075fc <__sfmoreglue+0x28>
 c0075ea:	2100      	movs	r1, #0
 c0075ec:	f105 0268 	add.w	r2, r5, #104	; 0x68
 c0075f0:	e9c0 1600 	strd	r1, r6, [r0]
 c0075f4:	300c      	adds	r0, #12
 c0075f6:	60a0      	str	r0, [r4, #8]
 c0075f8:	f7ff ff6e 	bl	c0074d8 <memset>
 c0075fc:	4620      	mov	r0, r4
 c0075fe:	bd70      	pop	{r4, r5, r6, pc}

0c007600 <__sfp_lock_acquire>:
 c007600:	4801      	ldr	r0, [pc, #4]	; (c007608 <__sfp_lock_acquire+0x8>)
 c007602:	f000 b8b3 	b.w	c00776c <__retarget_lock_acquire_recursive>
 c007606:	bf00      	nop
 c007608:	30001ca9 	.word	0x30001ca9

0c00760c <__sfp_lock_release>:
 c00760c:	4801      	ldr	r0, [pc, #4]	; (c007614 <__sfp_lock_release+0x8>)
 c00760e:	f000 b8ae 	b.w	c00776e <__retarget_lock_release_recursive>
 c007612:	bf00      	nop
 c007614:	30001ca9 	.word	0x30001ca9

0c007618 <__sinit_lock_acquire>:
 c007618:	4801      	ldr	r0, [pc, #4]	; (c007620 <__sinit_lock_acquire+0x8>)
 c00761a:	f000 b8a7 	b.w	c00776c <__retarget_lock_acquire_recursive>
 c00761e:	bf00      	nop
 c007620:	30001caa 	.word	0x30001caa

0c007624 <__sinit_lock_release>:
 c007624:	4801      	ldr	r0, [pc, #4]	; (c00762c <__sinit_lock_release+0x8>)
 c007626:	f000 b8a2 	b.w	c00776e <__retarget_lock_release_recursive>
 c00762a:	bf00      	nop
 c00762c:	30001caa 	.word	0x30001caa

0c007630 <__sinit>:
 c007630:	b510      	push	{r4, lr}
 c007632:	4604      	mov	r4, r0
 c007634:	f7ff fff0 	bl	c007618 <__sinit_lock_acquire>
 c007638:	69a3      	ldr	r3, [r4, #24]
 c00763a:	b11b      	cbz	r3, c007644 <__sinit+0x14>
 c00763c:	e8bd 4010 	ldmia.w	sp!, {r4, lr}
 c007640:	f7ff bff0 	b.w	c007624 <__sinit_lock_release>
 c007644:	e9c4 3312 	strd	r3, r3, [r4, #72]	; 0x48
 c007648:	6523      	str	r3, [r4, #80]	; 0x50
 c00764a:	4620      	mov	r0, r4
 c00764c:	4b12      	ldr	r3, [pc, #72]	; (c007698 <__sinit+0x68>)
 c00764e:	4a13      	ldr	r2, [pc, #76]	; (c00769c <__sinit+0x6c>)
 c007650:	681b      	ldr	r3, [r3, #0]
 c007652:	62a2      	str	r2, [r4, #40]	; 0x28
 c007654:	42a3      	cmp	r3, r4
 c007656:	bf04      	itt	eq
 c007658:	2301      	moveq	r3, #1
 c00765a:	61a3      	streq	r3, [r4, #24]
 c00765c:	f000 f820 	bl	c0076a0 <__sfp>
 c007660:	6060      	str	r0, [r4, #4]
 c007662:	4620      	mov	r0, r4
 c007664:	f000 f81c 	bl	c0076a0 <__sfp>
 c007668:	60a0      	str	r0, [r4, #8]
 c00766a:	4620      	mov	r0, r4
 c00766c:	f000 f818 	bl	c0076a0 <__sfp>
 c007670:	2200      	movs	r2, #0
 c007672:	2104      	movs	r1, #4
 c007674:	60e0      	str	r0, [r4, #12]
 c007676:	6860      	ldr	r0, [r4, #4]
 c007678:	f7ff ff82 	bl	c007580 <std>
 c00767c:	2201      	movs	r2, #1
 c00767e:	2109      	movs	r1, #9
 c007680:	68a0      	ldr	r0, [r4, #8]
 c007682:	f7ff ff7d 	bl	c007580 <std>
 c007686:	2202      	movs	r2, #2
 c007688:	2112      	movs	r1, #18
 c00768a:	68e0      	ldr	r0, [r4, #12]
 c00768c:	f7ff ff78 	bl	c007580 <std>
 c007690:	2301      	movs	r3, #1
 c007692:	61a3      	str	r3, [r4, #24]
 c007694:	e7d2      	b.n	c00763c <__sinit+0xc>
 c007696:	bf00      	nop
 c007698:	0c008d88 	.word	0x0c008d88
 c00769c:	0c0075c9 	.word	0x0c0075c9

0c0076a0 <__sfp>:
 c0076a0:	b5f8      	push	{r3, r4, r5, r6, r7, lr}
 c0076a2:	4607      	mov	r7, r0
 c0076a4:	f7ff ffac 	bl	c007600 <__sfp_lock_acquire>
 c0076a8:	4b1e      	ldr	r3, [pc, #120]	; (c007724 <__sfp+0x84>)
 c0076aa:	681e      	ldr	r6, [r3, #0]
 c0076ac:	69b3      	ldr	r3, [r6, #24]
 c0076ae:	b913      	cbnz	r3, c0076b6 <__sfp+0x16>
 c0076b0:	4630      	mov	r0, r6
 c0076b2:	f7ff ffbd 	bl	c007630 <__sinit>
 c0076b6:	3648      	adds	r6, #72	; 0x48
 c0076b8:	e9d6 3401 	ldrd	r3, r4, [r6, #4]
 c0076bc:	3b01      	subs	r3, #1
 c0076be:	d503      	bpl.n	c0076c8 <__sfp+0x28>
 c0076c0:	6833      	ldr	r3, [r6, #0]
 c0076c2:	b30b      	cbz	r3, c007708 <__sfp+0x68>
 c0076c4:	6836      	ldr	r6, [r6, #0]
 c0076c6:	e7f7      	b.n	c0076b8 <__sfp+0x18>
 c0076c8:	f9b4 500c 	ldrsh.w	r5, [r4, #12]
 c0076cc:	b9d5      	cbnz	r5, c007704 <__sfp+0x64>
 c0076ce:	4b16      	ldr	r3, [pc, #88]	; (c007728 <__sfp+0x88>)
 c0076d0:	f104 0058 	add.w	r0, r4, #88	; 0x58
 c0076d4:	6665      	str	r5, [r4, #100]	; 0x64
 c0076d6:	60e3      	str	r3, [r4, #12]
 c0076d8:	f000 f847 	bl	c00776a <__retarget_lock_init_recursive>
 c0076dc:	f7ff ff96 	bl	c00760c <__sfp_lock_release>
 c0076e0:	2208      	movs	r2, #8
 c0076e2:	4629      	mov	r1, r5
 c0076e4:	f104 005c 	add.w	r0, r4, #92	; 0x5c
 c0076e8:	6025      	str	r5, [r4, #0]
 c0076ea:	61a5      	str	r5, [r4, #24]
 c0076ec:	e9c4 5501 	strd	r5, r5, [r4, #4]
 c0076f0:	e9c4 5504 	strd	r5, r5, [r4, #16]
 c0076f4:	f7ff fef0 	bl	c0074d8 <memset>
 c0076f8:	e9c4 550d 	strd	r5, r5, [r4, #52]	; 0x34
 c0076fc:	e9c4 5512 	strd	r5, r5, [r4, #72]	; 0x48
 c007700:	4620      	mov	r0, r4
 c007702:	bdf8      	pop	{r3, r4, r5, r6, r7, pc}
 c007704:	3468      	adds	r4, #104	; 0x68
 c007706:	e7d9      	b.n	c0076bc <__sfp+0x1c>
 c007708:	2104      	movs	r1, #4
 c00770a:	4638      	mov	r0, r7
 c00770c:	f7ff ff62 	bl	c0075d4 <__sfmoreglue>
 c007710:	4604      	mov	r4, r0
 c007712:	6030      	str	r0, [r6, #0]
 c007714:	2800      	cmp	r0, #0
 c007716:	d1d5      	bne.n	c0076c4 <__sfp+0x24>
 c007718:	f7ff ff78 	bl	c00760c <__sfp_lock_release>
 c00771c:	230c      	movs	r3, #12
 c00771e:	603b      	str	r3, [r7, #0]
 c007720:	e7ee      	b.n	c007700 <__sfp+0x60>
 c007722:	bf00      	nop
 c007724:	0c008d88 	.word	0x0c008d88
 c007728:	ffff0001 	.word	0xffff0001

0c00772c <_fwalk_reent>:
 c00772c:	e92d 43f8 	stmdb	sp!, {r3, r4, r5, r6, r7, r8, r9, lr}
 c007730:	4606      	mov	r6, r0
 c007732:	4688      	mov	r8, r1
 c007734:	f100 0448 	add.w	r4, r0, #72	; 0x48
 c007738:	2700      	movs	r7, #0
 c00773a:	e9d4 9501 	ldrd	r9, r5, [r4, #4]
 c00773e:	f1b9 0901 	subs.w	r9, r9, #1
 c007742:	d505      	bpl.n	c007750 <_fwalk_reent+0x24>
 c007744:	6824      	ldr	r4, [r4, #0]
 c007746:	2c00      	cmp	r4, #0
 c007748:	d1f7      	bne.n	c00773a <_fwalk_reent+0xe>
 c00774a:	4638      	mov	r0, r7
 c00774c:	e8bd 83f8 	ldmia.w	sp!, {r3, r4, r5, r6, r7, r8, r9, pc}
 c007750:	89ab      	ldrh	r3, [r5, #12]
 c007752:	2b01      	cmp	r3, #1
 c007754:	d907      	bls.n	c007766 <_fwalk_reent+0x3a>
 c007756:	f9b5 300e 	ldrsh.w	r3, [r5, #14]
 c00775a:	3301      	adds	r3, #1
 c00775c:	d003      	beq.n	c007766 <_fwalk_reent+0x3a>
 c00775e:	4629      	mov	r1, r5
 c007760:	4630      	mov	r0, r6
 c007762:	47c0      	blx	r8
 c007764:	4307      	orrs	r7, r0
 c007766:	3568      	adds	r5, #104	; 0x68
 c007768:	e7e9      	b.n	c00773e <_fwalk_reent+0x12>

0c00776a <__retarget_lock_init_recursive>:
 c00776a:	4770      	bx	lr

0c00776c <__retarget_lock_acquire_recursive>:
 c00776c:	4770      	bx	lr

0c00776e <__retarget_lock_release_recursive>:
 c00776e:	4770      	bx	lr

0c007770 <sbrk_aligned>:
 c007770:	b570      	push	{r4, r5, r6, lr}
 c007772:	4e0e      	ldr	r6, [pc, #56]	; (c0077ac <sbrk_aligned+0x3c>)
 c007774:	460c      	mov	r4, r1
 c007776:	4605      	mov	r5, r0
 c007778:	6831      	ldr	r1, [r6, #0]
 c00777a:	b911      	cbnz	r1, c007782 <sbrk_aligned+0x12>
 c00777c:	f000 fcd8 	bl	c008130 <_sbrk_r>
 c007780:	6030      	str	r0, [r6, #0]
 c007782:	4621      	mov	r1, r4
 c007784:	4628      	mov	r0, r5
 c007786:	f000 fcd3 	bl	c008130 <_sbrk_r>
 c00778a:	1c43      	adds	r3, r0, #1
 c00778c:	d00a      	beq.n	c0077a4 <sbrk_aligned+0x34>
 c00778e:	1cc4      	adds	r4, r0, #3
 c007790:	f024 0403 	bic.w	r4, r4, #3
 c007794:	42a0      	cmp	r0, r4
 c007796:	d007      	beq.n	c0077a8 <sbrk_aligned+0x38>
 c007798:	1a21      	subs	r1, r4, r0
 c00779a:	4628      	mov	r0, r5
 c00779c:	f000 fcc8 	bl	c008130 <_sbrk_r>
 c0077a0:	3001      	adds	r0, #1
 c0077a2:	d101      	bne.n	c0077a8 <sbrk_aligned+0x38>
 c0077a4:	f04f 34ff 	mov.w	r4, #4294967295
 c0077a8:	4620      	mov	r0, r4
 c0077aa:	bd70      	pop	{r4, r5, r6, pc}
 c0077ac:	30001cb0 	.word	0x30001cb0

0c0077b0 <_malloc_r>:
 c0077b0:	e92d 41f0 	stmdb	sp!, {r4, r5, r6, r7, r8, lr}
 c0077b4:	1ccd      	adds	r5, r1, #3
 c0077b6:	4607      	mov	r7, r0
 c0077b8:	f025 0503 	bic.w	r5, r5, #3
 c0077bc:	3508      	adds	r5, #8
 c0077be:	2d0c      	cmp	r5, #12
 c0077c0:	bf38      	it	cc
 c0077c2:	250c      	movcc	r5, #12
 c0077c4:	2d00      	cmp	r5, #0
 c0077c6:	db01      	blt.n	c0077cc <_malloc_r+0x1c>
 c0077c8:	42a9      	cmp	r1, r5
 c0077ca:	d905      	bls.n	c0077d8 <_malloc_r+0x28>
 c0077cc:	230c      	movs	r3, #12
 c0077ce:	2600      	movs	r6, #0
 c0077d0:	603b      	str	r3, [r7, #0]
 c0077d2:	4630      	mov	r0, r6
 c0077d4:	e8bd 81f0 	ldmia.w	sp!, {r4, r5, r6, r7, r8, pc}
 c0077d8:	4e2e      	ldr	r6, [pc, #184]	; (c007894 <_malloc_r+0xe4>)
 c0077da:	f000 ff4d 	bl	c008678 <__malloc_lock>
 c0077de:	6833      	ldr	r3, [r6, #0]
 c0077e0:	461c      	mov	r4, r3
 c0077e2:	bb34      	cbnz	r4, c007832 <_malloc_r+0x82>
 c0077e4:	4629      	mov	r1, r5
 c0077e6:	4638      	mov	r0, r7
 c0077e8:	f7ff ffc2 	bl	c007770 <sbrk_aligned>
 c0077ec:	1c43      	adds	r3, r0, #1
 c0077ee:	4604      	mov	r4, r0
 c0077f0:	d14d      	bne.n	c00788e <_malloc_r+0xde>
 c0077f2:	6834      	ldr	r4, [r6, #0]
 c0077f4:	4626      	mov	r6, r4
 c0077f6:	2e00      	cmp	r6, #0
 c0077f8:	d140      	bne.n	c00787c <_malloc_r+0xcc>
 c0077fa:	6823      	ldr	r3, [r4, #0]
 c0077fc:	4631      	mov	r1, r6
 c0077fe:	4638      	mov	r0, r7
 c007800:	eb04 0803 	add.w	r8, r4, r3
 c007804:	f000 fc94 	bl	c008130 <_sbrk_r>
 c007808:	4580      	cmp	r8, r0
 c00780a:	d13a      	bne.n	c007882 <_malloc_r+0xd2>
 c00780c:	6821      	ldr	r1, [r4, #0]
 c00780e:	3503      	adds	r5, #3
 c007810:	4638      	mov	r0, r7
 c007812:	1a6d      	subs	r5, r5, r1
 c007814:	f025 0503 	bic.w	r5, r5, #3
 c007818:	3508      	adds	r5, #8
 c00781a:	2d0c      	cmp	r5, #12
 c00781c:	bf38      	it	cc
 c00781e:	250c      	movcc	r5, #12
 c007820:	4629      	mov	r1, r5
 c007822:	f7ff ffa5 	bl	c007770 <sbrk_aligned>
 c007826:	3001      	adds	r0, #1
 c007828:	d02b      	beq.n	c007882 <_malloc_r+0xd2>
 c00782a:	6823      	ldr	r3, [r4, #0]
 c00782c:	442b      	add	r3, r5
 c00782e:	6023      	str	r3, [r4, #0]
 c007830:	e00e      	b.n	c007850 <_malloc_r+0xa0>
 c007832:	6822      	ldr	r2, [r4, #0]
 c007834:	1b52      	subs	r2, r2, r5
 c007836:	d41e      	bmi.n	c007876 <_malloc_r+0xc6>
 c007838:	2a0b      	cmp	r2, #11
 c00783a:	d916      	bls.n	c00786a <_malloc_r+0xba>
 c00783c:	1961      	adds	r1, r4, r5
 c00783e:	42a3      	cmp	r3, r4
 c007840:	6025      	str	r5, [r4, #0]
 c007842:	bf18      	it	ne
 c007844:	6059      	strne	r1, [r3, #4]
 c007846:	6863      	ldr	r3, [r4, #4]
 c007848:	bf08      	it	eq
 c00784a:	6031      	streq	r1, [r6, #0]
 c00784c:	5162      	str	r2, [r4, r5]
 c00784e:	604b      	str	r3, [r1, #4]
 c007850:	f104 060b 	add.w	r6, r4, #11
 c007854:	4638      	mov	r0, r7
 c007856:	f000 ff15 	bl	c008684 <__malloc_unlock>
 c00785a:	1d23      	adds	r3, r4, #4
 c00785c:	f026 0607 	bic.w	r6, r6, #7
 c007860:	1af2      	subs	r2, r6, r3
 c007862:	d0b6      	beq.n	c0077d2 <_malloc_r+0x22>
 c007864:	1b9b      	subs	r3, r3, r6
 c007866:	50a3      	str	r3, [r4, r2]
 c007868:	e7b3      	b.n	c0077d2 <_malloc_r+0x22>
 c00786a:	6862      	ldr	r2, [r4, #4]
 c00786c:	42a3      	cmp	r3, r4
 c00786e:	bf0c      	ite	eq
 c007870:	6032      	streq	r2, [r6, #0]
 c007872:	605a      	strne	r2, [r3, #4]
 c007874:	e7ec      	b.n	c007850 <_malloc_r+0xa0>
 c007876:	4623      	mov	r3, r4
 c007878:	6864      	ldr	r4, [r4, #4]
 c00787a:	e7b2      	b.n	c0077e2 <_malloc_r+0x32>
 c00787c:	4634      	mov	r4, r6
 c00787e:	6876      	ldr	r6, [r6, #4]
 c007880:	e7b9      	b.n	c0077f6 <_malloc_r+0x46>
 c007882:	230c      	movs	r3, #12
 c007884:	4638      	mov	r0, r7
 c007886:	603b      	str	r3, [r7, #0]
 c007888:	f000 fefc 	bl	c008684 <__malloc_unlock>
 c00788c:	e7a1      	b.n	c0077d2 <_malloc_r+0x22>
 c00788e:	6025      	str	r5, [r4, #0]
 c007890:	e7de      	b.n	c007850 <_malloc_r+0xa0>
 c007892:	bf00      	nop
 c007894:	30001cac 	.word	0x30001cac

0c007898 <__ssputs_r>:
 c007898:	e92d 47f0 	stmdb	sp!, {r4, r5, r6, r7, r8, r9, sl, lr}
 c00789c:	688e      	ldr	r6, [r1, #8]
 c00789e:	4682      	mov	sl, r0
 c0078a0:	460c      	mov	r4, r1
 c0078a2:	4690      	mov	r8, r2
 c0078a4:	429e      	cmp	r6, r3
 c0078a6:	461f      	mov	r7, r3
 c0078a8:	d838      	bhi.n	c00791c <__ssputs_r+0x84>
 c0078aa:	898a      	ldrh	r2, [r1, #12]
 c0078ac:	f412 6f90 	tst.w	r2, #1152	; 0x480
 c0078b0:	d032      	beq.n	c007918 <__ssputs_r+0x80>
 c0078b2:	6825      	ldr	r5, [r4, #0]
 c0078b4:	3301      	adds	r3, #1
 c0078b6:	6909      	ldr	r1, [r1, #16]
 c0078b8:	eba5 0901 	sub.w	r9, r5, r1
 c0078bc:	6965      	ldr	r5, [r4, #20]
 c0078be:	eb05 0545 	add.w	r5, r5, r5, lsl #1
 c0078c2:	444b      	add	r3, r9
 c0078c4:	eb05 75d5 	add.w	r5, r5, r5, lsr #31
 c0078c8:	106d      	asrs	r5, r5, #1
 c0078ca:	429d      	cmp	r5, r3
 c0078cc:	bf38      	it	cc
 c0078ce:	461d      	movcc	r5, r3
 c0078d0:	0553      	lsls	r3, r2, #21
 c0078d2:	d531      	bpl.n	c007938 <__ssputs_r+0xa0>
 c0078d4:	4629      	mov	r1, r5
 c0078d6:	f7ff ff6b 	bl	c0077b0 <_malloc_r>
 c0078da:	4606      	mov	r6, r0
 c0078dc:	b950      	cbnz	r0, c0078f4 <__ssputs_r+0x5c>
 c0078de:	230c      	movs	r3, #12
 c0078e0:	f04f 30ff 	mov.w	r0, #4294967295
 c0078e4:	f8ca 3000 	str.w	r3, [sl]
 c0078e8:	89a3      	ldrh	r3, [r4, #12]
 c0078ea:	f043 0340 	orr.w	r3, r3, #64	; 0x40
 c0078ee:	81a3      	strh	r3, [r4, #12]
 c0078f0:	e8bd 87f0 	ldmia.w	sp!, {r4, r5, r6, r7, r8, r9, sl, pc}
 c0078f4:	464a      	mov	r2, r9
 c0078f6:	6921      	ldr	r1, [r4, #16]
 c0078f8:	f000 fe96 	bl	c008628 <memcpy>
 c0078fc:	89a3      	ldrh	r3, [r4, #12]
 c0078fe:	f423 6390 	bic.w	r3, r3, #1152	; 0x480
 c007902:	f043 0380 	orr.w	r3, r3, #128	; 0x80
 c007906:	81a3      	strh	r3, [r4, #12]
 c007908:	6126      	str	r6, [r4, #16]
 c00790a:	444e      	add	r6, r9
 c00790c:	6165      	str	r5, [r4, #20]
 c00790e:	eba5 0509 	sub.w	r5, r5, r9
 c007912:	6026      	str	r6, [r4, #0]
 c007914:	463e      	mov	r6, r7
 c007916:	60a5      	str	r5, [r4, #8]
 c007918:	42be      	cmp	r6, r7
 c00791a:	d900      	bls.n	c00791e <__ssputs_r+0x86>
 c00791c:	463e      	mov	r6, r7
 c00791e:	4632      	mov	r2, r6
 c007920:	4641      	mov	r1, r8
 c007922:	6820      	ldr	r0, [r4, #0]
 c007924:	f000 fe8d 	bl	c008642 <memmove>
 c007928:	68a3      	ldr	r3, [r4, #8]
 c00792a:	2000      	movs	r0, #0
 c00792c:	1b9b      	subs	r3, r3, r6
 c00792e:	60a3      	str	r3, [r4, #8]
 c007930:	6823      	ldr	r3, [r4, #0]
 c007932:	4433      	add	r3, r6
 c007934:	6023      	str	r3, [r4, #0]
 c007936:	e7db      	b.n	c0078f0 <__ssputs_r+0x58>
 c007938:	462a      	mov	r2, r5
 c00793a:	f000 fef5 	bl	c008728 <_realloc_r>
 c00793e:	4606      	mov	r6, r0
 c007940:	2800      	cmp	r0, #0
 c007942:	d1e1      	bne.n	c007908 <__ssputs_r+0x70>
 c007944:	6921      	ldr	r1, [r4, #16]
 c007946:	4650      	mov	r0, sl
 c007948:	f000 fea2 	bl	c008690 <_free_r>
 c00794c:	e7c7      	b.n	c0078de <__ssputs_r+0x46>
	...

0c007950 <_svfiprintf_r>:
 c007950:	e92d 4ff0 	stmdb	sp!, {r4, r5, r6, r7, r8, r9, sl, fp, lr}
 c007954:	4698      	mov	r8, r3
 c007956:	898b      	ldrh	r3, [r1, #12]
 c007958:	b09d      	sub	sp, #116	; 0x74
 c00795a:	4607      	mov	r7, r0
 c00795c:	061b      	lsls	r3, r3, #24
 c00795e:	460d      	mov	r5, r1
 c007960:	4614      	mov	r4, r2
 c007962:	d50e      	bpl.n	c007982 <_svfiprintf_r+0x32>
 c007964:	690b      	ldr	r3, [r1, #16]
 c007966:	b963      	cbnz	r3, c007982 <_svfiprintf_r+0x32>
 c007968:	2140      	movs	r1, #64	; 0x40
 c00796a:	f7ff ff21 	bl	c0077b0 <_malloc_r>
 c00796e:	6028      	str	r0, [r5, #0]
 c007970:	6128      	str	r0, [r5, #16]
 c007972:	b920      	cbnz	r0, c00797e <_svfiprintf_r+0x2e>
 c007974:	230c      	movs	r3, #12
 c007976:	603b      	str	r3, [r7, #0]
 c007978:	f04f 30ff 	mov.w	r0, #4294967295
 c00797c:	e0d1      	b.n	c007b22 <_svfiprintf_r+0x1d2>
 c00797e:	2340      	movs	r3, #64	; 0x40
 c007980:	616b      	str	r3, [r5, #20]
 c007982:	2300      	movs	r3, #0
 c007984:	f8cd 800c 	str.w	r8, [sp, #12]
 c007988:	f04f 0901 	mov.w	r9, #1
 c00798c:	f8df 81ac 	ldr.w	r8, [pc, #428]	; c007b3c <_svfiprintf_r+0x1ec>
 c007990:	9309      	str	r3, [sp, #36]	; 0x24
 c007992:	2320      	movs	r3, #32
 c007994:	f88d 3029 	strb.w	r3, [sp, #41]	; 0x29
 c007998:	2330      	movs	r3, #48	; 0x30
 c00799a:	f88d 302a 	strb.w	r3, [sp, #42]	; 0x2a
 c00799e:	4623      	mov	r3, r4
 c0079a0:	469a      	mov	sl, r3
 c0079a2:	f813 2b01 	ldrb.w	r2, [r3], #1
 c0079a6:	b10a      	cbz	r2, c0079ac <_svfiprintf_r+0x5c>
 c0079a8:	2a25      	cmp	r2, #37	; 0x25
 c0079aa:	d1f9      	bne.n	c0079a0 <_svfiprintf_r+0x50>
 c0079ac:	ebba 0b04 	subs.w	fp, sl, r4
 c0079b0:	d00b      	beq.n	c0079ca <_svfiprintf_r+0x7a>
 c0079b2:	465b      	mov	r3, fp
 c0079b4:	4622      	mov	r2, r4
 c0079b6:	4629      	mov	r1, r5
 c0079b8:	4638      	mov	r0, r7
 c0079ba:	f7ff ff6d 	bl	c007898 <__ssputs_r>
 c0079be:	3001      	adds	r0, #1
 c0079c0:	f000 80aa 	beq.w	c007b18 <_svfiprintf_r+0x1c8>
 c0079c4:	9a09      	ldr	r2, [sp, #36]	; 0x24
 c0079c6:	445a      	add	r2, fp
 c0079c8:	9209      	str	r2, [sp, #36]	; 0x24
 c0079ca:	f89a 3000 	ldrb.w	r3, [sl]
 c0079ce:	2b00      	cmp	r3, #0
 c0079d0:	f000 80a2 	beq.w	c007b18 <_svfiprintf_r+0x1c8>
 c0079d4:	2300      	movs	r3, #0
 c0079d6:	f04f 32ff 	mov.w	r2, #4294967295
 c0079da:	f10a 0a01 	add.w	sl, sl, #1
 c0079de:	9304      	str	r3, [sp, #16]
 c0079e0:	9307      	str	r3, [sp, #28]
 c0079e2:	f88d 3053 	strb.w	r3, [sp, #83]	; 0x53
 c0079e6:	931a      	str	r3, [sp, #104]	; 0x68
 c0079e8:	e9cd 2305 	strd	r2, r3, [sp, #20]
 c0079ec:	4654      	mov	r4, sl
 c0079ee:	2205      	movs	r2, #5
 c0079f0:	4852      	ldr	r0, [pc, #328]	; (c007b3c <_svfiprintf_r+0x1ec>)
 c0079f2:	f814 1b01 	ldrb.w	r1, [r4], #1
 c0079f6:	f000 fe09 	bl	c00860c <memchr>
 c0079fa:	9a04      	ldr	r2, [sp, #16]
 c0079fc:	b9d8      	cbnz	r0, c007a36 <_svfiprintf_r+0xe6>
 c0079fe:	06d0      	lsls	r0, r2, #27
 c007a00:	bf44      	itt	mi
 c007a02:	2320      	movmi	r3, #32
 c007a04:	f88d 3053 	strbmi.w	r3, [sp, #83]	; 0x53
 c007a08:	0711      	lsls	r1, r2, #28
 c007a0a:	bf44      	itt	mi
 c007a0c:	232b      	movmi	r3, #43	; 0x2b
 c007a0e:	f88d 3053 	strbmi.w	r3, [sp, #83]	; 0x53
 c007a12:	f89a 3000 	ldrb.w	r3, [sl]
 c007a16:	2b2a      	cmp	r3, #42	; 0x2a
 c007a18:	d015      	beq.n	c007a46 <_svfiprintf_r+0xf6>
 c007a1a:	9a07      	ldr	r2, [sp, #28]
 c007a1c:	4654      	mov	r4, sl
 c007a1e:	2000      	movs	r0, #0
 c007a20:	f04f 0c0a 	mov.w	ip, #10
 c007a24:	4621      	mov	r1, r4
 c007a26:	f811 3b01 	ldrb.w	r3, [r1], #1
 c007a2a:	3b30      	subs	r3, #48	; 0x30
 c007a2c:	2b09      	cmp	r3, #9
 c007a2e:	d94e      	bls.n	c007ace <_svfiprintf_r+0x17e>
 c007a30:	b1b0      	cbz	r0, c007a60 <_svfiprintf_r+0x110>
 c007a32:	9207      	str	r2, [sp, #28]
 c007a34:	e014      	b.n	c007a60 <_svfiprintf_r+0x110>
 c007a36:	eba0 0308 	sub.w	r3, r0, r8
 c007a3a:	46a2      	mov	sl, r4
 c007a3c:	fa09 f303 	lsl.w	r3, r9, r3
 c007a40:	4313      	orrs	r3, r2
 c007a42:	9304      	str	r3, [sp, #16]
 c007a44:	e7d2      	b.n	c0079ec <_svfiprintf_r+0x9c>
 c007a46:	9b03      	ldr	r3, [sp, #12]
 c007a48:	1d19      	adds	r1, r3, #4
 c007a4a:	681b      	ldr	r3, [r3, #0]
 c007a4c:	2b00      	cmp	r3, #0
 c007a4e:	9103      	str	r1, [sp, #12]
 c007a50:	bfbb      	ittet	lt
 c007a52:	425b      	neglt	r3, r3
 c007a54:	f042 0202 	orrlt.w	r2, r2, #2
 c007a58:	9307      	strge	r3, [sp, #28]
 c007a5a:	9307      	strlt	r3, [sp, #28]
 c007a5c:	bfb8      	it	lt
 c007a5e:	9204      	strlt	r2, [sp, #16]
 c007a60:	7823      	ldrb	r3, [r4, #0]
 c007a62:	2b2e      	cmp	r3, #46	; 0x2e
 c007a64:	d10c      	bne.n	c007a80 <_svfiprintf_r+0x130>
 c007a66:	7863      	ldrb	r3, [r4, #1]
 c007a68:	2b2a      	cmp	r3, #42	; 0x2a
 c007a6a:	d135      	bne.n	c007ad8 <_svfiprintf_r+0x188>
 c007a6c:	9b03      	ldr	r3, [sp, #12]
 c007a6e:	3402      	adds	r4, #2
 c007a70:	1d1a      	adds	r2, r3, #4
 c007a72:	681b      	ldr	r3, [r3, #0]
 c007a74:	2b00      	cmp	r3, #0
 c007a76:	9203      	str	r2, [sp, #12]
 c007a78:	bfb8      	it	lt
 c007a7a:	f04f 33ff 	movlt.w	r3, #4294967295
 c007a7e:	9305      	str	r3, [sp, #20]
 c007a80:	f8df a0c8 	ldr.w	sl, [pc, #200]	; c007b4c <_svfiprintf_r+0x1fc>
 c007a84:	2203      	movs	r2, #3
 c007a86:	7821      	ldrb	r1, [r4, #0]
 c007a88:	4650      	mov	r0, sl
 c007a8a:	f000 fdbf 	bl	c00860c <memchr>
 c007a8e:	b140      	cbz	r0, c007aa2 <_svfiprintf_r+0x152>
 c007a90:	2340      	movs	r3, #64	; 0x40
 c007a92:	eba0 000a 	sub.w	r0, r0, sl
 c007a96:	3401      	adds	r4, #1
 c007a98:	fa03 f000 	lsl.w	r0, r3, r0
 c007a9c:	9b04      	ldr	r3, [sp, #16]
 c007a9e:	4303      	orrs	r3, r0
 c007aa0:	9304      	str	r3, [sp, #16]
 c007aa2:	f814 1b01 	ldrb.w	r1, [r4], #1
 c007aa6:	2206      	movs	r2, #6
 c007aa8:	4825      	ldr	r0, [pc, #148]	; (c007b40 <_svfiprintf_r+0x1f0>)
 c007aaa:	f88d 1028 	strb.w	r1, [sp, #40]	; 0x28
 c007aae:	f000 fdad 	bl	c00860c <memchr>
 c007ab2:	2800      	cmp	r0, #0
 c007ab4:	d038      	beq.n	c007b28 <_svfiprintf_r+0x1d8>
 c007ab6:	4b23      	ldr	r3, [pc, #140]	; (c007b44 <_svfiprintf_r+0x1f4>)
 c007ab8:	bb1b      	cbnz	r3, c007b02 <_svfiprintf_r+0x1b2>
 c007aba:	9b03      	ldr	r3, [sp, #12]
 c007abc:	3307      	adds	r3, #7
 c007abe:	f023 0307 	bic.w	r3, r3, #7
 c007ac2:	3308      	adds	r3, #8
 c007ac4:	9303      	str	r3, [sp, #12]
 c007ac6:	9b09      	ldr	r3, [sp, #36]	; 0x24
 c007ac8:	4433      	add	r3, r6
 c007aca:	9309      	str	r3, [sp, #36]	; 0x24
 c007acc:	e767      	b.n	c00799e <_svfiprintf_r+0x4e>
 c007ace:	fb0c 3202 	mla	r2, ip, r2, r3
 c007ad2:	460c      	mov	r4, r1
 c007ad4:	2001      	movs	r0, #1
 c007ad6:	e7a5      	b.n	c007a24 <_svfiprintf_r+0xd4>
 c007ad8:	2300      	movs	r3, #0
 c007ada:	3401      	adds	r4, #1
 c007adc:	f04f 0c0a 	mov.w	ip, #10
 c007ae0:	4619      	mov	r1, r3
 c007ae2:	9305      	str	r3, [sp, #20]
 c007ae4:	4620      	mov	r0, r4
 c007ae6:	f810 2b01 	ldrb.w	r2, [r0], #1
 c007aea:	3a30      	subs	r2, #48	; 0x30
 c007aec:	2a09      	cmp	r2, #9
 c007aee:	d903      	bls.n	c007af8 <_svfiprintf_r+0x1a8>
 c007af0:	2b00      	cmp	r3, #0
 c007af2:	d0c5      	beq.n	c007a80 <_svfiprintf_r+0x130>
 c007af4:	9105      	str	r1, [sp, #20]
 c007af6:	e7c3      	b.n	c007a80 <_svfiprintf_r+0x130>
 c007af8:	fb0c 2101 	mla	r1, ip, r1, r2
 c007afc:	4604      	mov	r4, r0
 c007afe:	2301      	movs	r3, #1
 c007b00:	e7f0      	b.n	c007ae4 <_svfiprintf_r+0x194>
 c007b02:	ab03      	add	r3, sp, #12
 c007b04:	462a      	mov	r2, r5
 c007b06:	a904      	add	r1, sp, #16
 c007b08:	4638      	mov	r0, r7
 c007b0a:	9300      	str	r3, [sp, #0]
 c007b0c:	4b0e      	ldr	r3, [pc, #56]	; (c007b48 <_svfiprintf_r+0x1f8>)
 c007b0e:	e000      	b.n	c007b12 <_svfiprintf_r+0x1c2>
 c007b10:	bf00      	nop
 c007b12:	1c42      	adds	r2, r0, #1
 c007b14:	4606      	mov	r6, r0
 c007b16:	d1d6      	bne.n	c007ac6 <_svfiprintf_r+0x176>
 c007b18:	89ab      	ldrh	r3, [r5, #12]
 c007b1a:	065b      	lsls	r3, r3, #25
 c007b1c:	f53f af2c 	bmi.w	c007978 <_svfiprintf_r+0x28>
 c007b20:	9809      	ldr	r0, [sp, #36]	; 0x24
 c007b22:	b01d      	add	sp, #116	; 0x74
 c007b24:	e8bd 8ff0 	ldmia.w	sp!, {r4, r5, r6, r7, r8, r9, sl, fp, pc}
 c007b28:	ab03      	add	r3, sp, #12
 c007b2a:	462a      	mov	r2, r5
 c007b2c:	a904      	add	r1, sp, #16
 c007b2e:	4638      	mov	r0, r7
 c007b30:	9300      	str	r3, [sp, #0]
 c007b32:	4b05      	ldr	r3, [pc, #20]	; (c007b48 <_svfiprintf_r+0x1f8>)
 c007b34:	f000 f9d6 	bl	c007ee4 <_printf_i>
 c007b38:	e7eb      	b.n	c007b12 <_svfiprintf_r+0x1c2>
 c007b3a:	bf00      	nop
 c007b3c:	0c008dec 	.word	0x0c008dec
 c007b40:	0c008df6 	.word	0x0c008df6
 c007b44:	00000000 	.word	0x00000000
 c007b48:	0c007899 	.word	0x0c007899
 c007b4c:	0c008df2 	.word	0x0c008df2

0c007b50 <__sfputc_r>:
 c007b50:	6893      	ldr	r3, [r2, #8]
 c007b52:	3b01      	subs	r3, #1
 c007b54:	2b00      	cmp	r3, #0
 c007b56:	6093      	str	r3, [r2, #8]
 c007b58:	b410      	push	{r4}
 c007b5a:	da08      	bge.n	c007b6e <__sfputc_r+0x1e>
 c007b5c:	6994      	ldr	r4, [r2, #24]
 c007b5e:	42a3      	cmp	r3, r4
 c007b60:	db01      	blt.n	c007b66 <__sfputc_r+0x16>
 c007b62:	290a      	cmp	r1, #10
 c007b64:	d103      	bne.n	c007b6e <__sfputc_r+0x1e>
 c007b66:	f85d 4b04 	ldr.w	r4, [sp], #4
 c007b6a:	f000 bb35 	b.w	c0081d8 <__swbuf_r>
 c007b6e:	6813      	ldr	r3, [r2, #0]
 c007b70:	1c58      	adds	r0, r3, #1
 c007b72:	6010      	str	r0, [r2, #0]
 c007b74:	4608      	mov	r0, r1
 c007b76:	7019      	strb	r1, [r3, #0]
 c007b78:	f85d 4b04 	ldr.w	r4, [sp], #4
 c007b7c:	4770      	bx	lr

0c007b7e <__sfputs_r>:
 c007b7e:	b5f8      	push	{r3, r4, r5, r6, r7, lr}
 c007b80:	4606      	mov	r6, r0
 c007b82:	460f      	mov	r7, r1
 c007b84:	4614      	mov	r4, r2
 c007b86:	18d5      	adds	r5, r2, r3
 c007b88:	42ac      	cmp	r4, r5
 c007b8a:	d101      	bne.n	c007b90 <__sfputs_r+0x12>
 c007b8c:	2000      	movs	r0, #0
 c007b8e:	e007      	b.n	c007ba0 <__sfputs_r+0x22>
 c007b90:	463a      	mov	r2, r7
 c007b92:	f814 1b01 	ldrb.w	r1, [r4], #1
 c007b96:	4630      	mov	r0, r6
 c007b98:	f7ff ffda 	bl	c007b50 <__sfputc_r>
 c007b9c:	1c43      	adds	r3, r0, #1
 c007b9e:	d1f3      	bne.n	c007b88 <__sfputs_r+0xa>
 c007ba0:	bdf8      	pop	{r3, r4, r5, r6, r7, pc}
	...

0c007ba4 <_vfiprintf_r>:
 c007ba4:	e92d 4ff0 	stmdb	sp!, {r4, r5, r6, r7, r8, r9, sl, fp, lr}
 c007ba8:	460d      	mov	r5, r1
 c007baa:	b09d      	sub	sp, #116	; 0x74
 c007bac:	4614      	mov	r4, r2
 c007bae:	4698      	mov	r8, r3
 c007bb0:	4606      	mov	r6, r0
 c007bb2:	b118      	cbz	r0, c007bbc <_vfiprintf_r+0x18>
 c007bb4:	6983      	ldr	r3, [r0, #24]
 c007bb6:	b90b      	cbnz	r3, c007bbc <_vfiprintf_r+0x18>
 c007bb8:	f7ff fd3a 	bl	c007630 <__sinit>
 c007bbc:	4b89      	ldr	r3, [pc, #548]	; (c007de4 <_vfiprintf_r+0x240>)
 c007bbe:	429d      	cmp	r5, r3
 c007bc0:	d11b      	bne.n	c007bfa <_vfiprintf_r+0x56>
 c007bc2:	6875      	ldr	r5, [r6, #4]
 c007bc4:	6e6b      	ldr	r3, [r5, #100]	; 0x64
 c007bc6:	07d9      	lsls	r1, r3, #31
 c007bc8:	d405      	bmi.n	c007bd6 <_vfiprintf_r+0x32>
 c007bca:	89ab      	ldrh	r3, [r5, #12]
 c007bcc:	059a      	lsls	r2, r3, #22
 c007bce:	d402      	bmi.n	c007bd6 <_vfiprintf_r+0x32>
 c007bd0:	6da8      	ldr	r0, [r5, #88]	; 0x58
 c007bd2:	f7ff fdcb 	bl	c00776c <__retarget_lock_acquire_recursive>
 c007bd6:	89ab      	ldrh	r3, [r5, #12]
 c007bd8:	071b      	lsls	r3, r3, #28
 c007bda:	d501      	bpl.n	c007be0 <_vfiprintf_r+0x3c>
 c007bdc:	692b      	ldr	r3, [r5, #16]
 c007bde:	b9eb      	cbnz	r3, c007c1c <_vfiprintf_r+0x78>
 c007be0:	4629      	mov	r1, r5
 c007be2:	4630      	mov	r0, r6
 c007be4:	f000 fb5c 	bl	c0082a0 <__swsetup_r>
 c007be8:	b1c0      	cbz	r0, c007c1c <_vfiprintf_r+0x78>
 c007bea:	6e6b      	ldr	r3, [r5, #100]	; 0x64
 c007bec:	07dc      	lsls	r4, r3, #31
 c007bee:	d50e      	bpl.n	c007c0e <_vfiprintf_r+0x6a>
 c007bf0:	f04f 30ff 	mov.w	r0, #4294967295
 c007bf4:	b01d      	add	sp, #116	; 0x74
 c007bf6:	e8bd 8ff0 	ldmia.w	sp!, {r4, r5, r6, r7, r8, r9, sl, fp, pc}
 c007bfa:	4b7b      	ldr	r3, [pc, #492]	; (c007de8 <_vfiprintf_r+0x244>)
 c007bfc:	429d      	cmp	r5, r3
 c007bfe:	d101      	bne.n	c007c04 <_vfiprintf_r+0x60>
 c007c00:	68b5      	ldr	r5, [r6, #8]
 c007c02:	e7df      	b.n	c007bc4 <_vfiprintf_r+0x20>
 c007c04:	4b79      	ldr	r3, [pc, #484]	; (c007dec <_vfiprintf_r+0x248>)
 c007c06:	429d      	cmp	r5, r3
 c007c08:	bf08      	it	eq
 c007c0a:	68f5      	ldreq	r5, [r6, #12]
 c007c0c:	e7da      	b.n	c007bc4 <_vfiprintf_r+0x20>
 c007c0e:	89ab      	ldrh	r3, [r5, #12]
 c007c10:	0598      	lsls	r0, r3, #22
 c007c12:	d4ed      	bmi.n	c007bf0 <_vfiprintf_r+0x4c>
 c007c14:	6da8      	ldr	r0, [r5, #88]	; 0x58
 c007c16:	f7ff fdaa 	bl	c00776e <__retarget_lock_release_recursive>
 c007c1a:	e7e9      	b.n	c007bf0 <_vfiprintf_r+0x4c>
 c007c1c:	2300      	movs	r3, #0
 c007c1e:	f8cd 800c 	str.w	r8, [sp, #12]
 c007c22:	f04f 0901 	mov.w	r9, #1
 c007c26:	f8df 81c8 	ldr.w	r8, [pc, #456]	; c007df0 <_vfiprintf_r+0x24c>
 c007c2a:	9309      	str	r3, [sp, #36]	; 0x24
 c007c2c:	2320      	movs	r3, #32
 c007c2e:	f88d 3029 	strb.w	r3, [sp, #41]	; 0x29
 c007c32:	2330      	movs	r3, #48	; 0x30
 c007c34:	f88d 302a 	strb.w	r3, [sp, #42]	; 0x2a
 c007c38:	4623      	mov	r3, r4
 c007c3a:	469a      	mov	sl, r3
 c007c3c:	f813 2b01 	ldrb.w	r2, [r3], #1
 c007c40:	b10a      	cbz	r2, c007c46 <_vfiprintf_r+0xa2>
 c007c42:	2a25      	cmp	r2, #37	; 0x25
 c007c44:	d1f9      	bne.n	c007c3a <_vfiprintf_r+0x96>
 c007c46:	ebba 0b04 	subs.w	fp, sl, r4
 c007c4a:	d00b      	beq.n	c007c64 <_vfiprintf_r+0xc0>
 c007c4c:	465b      	mov	r3, fp
 c007c4e:	4622      	mov	r2, r4
 c007c50:	4629      	mov	r1, r5
 c007c52:	4630      	mov	r0, r6
 c007c54:	f7ff ff93 	bl	c007b7e <__sfputs_r>
 c007c58:	3001      	adds	r0, #1
 c007c5a:	f000 80aa 	beq.w	c007db2 <_vfiprintf_r+0x20e>
 c007c5e:	9a09      	ldr	r2, [sp, #36]	; 0x24
 c007c60:	445a      	add	r2, fp
 c007c62:	9209      	str	r2, [sp, #36]	; 0x24
 c007c64:	f89a 3000 	ldrb.w	r3, [sl]
 c007c68:	2b00      	cmp	r3, #0
 c007c6a:	f000 80a2 	beq.w	c007db2 <_vfiprintf_r+0x20e>
 c007c6e:	2300      	movs	r3, #0
 c007c70:	f04f 32ff 	mov.w	r2, #4294967295
 c007c74:	f10a 0a01 	add.w	sl, sl, #1
 c007c78:	9304      	str	r3, [sp, #16]
 c007c7a:	9307      	str	r3, [sp, #28]
 c007c7c:	f88d 3053 	strb.w	r3, [sp, #83]	; 0x53
 c007c80:	931a      	str	r3, [sp, #104]	; 0x68
 c007c82:	e9cd 2305 	strd	r2, r3, [sp, #20]
 c007c86:	4654      	mov	r4, sl
 c007c88:	2205      	movs	r2, #5
 c007c8a:	4859      	ldr	r0, [pc, #356]	; (c007df0 <_vfiprintf_r+0x24c>)
 c007c8c:	f814 1b01 	ldrb.w	r1, [r4], #1
 c007c90:	f000 fcbc 	bl	c00860c <memchr>
 c007c94:	9a04      	ldr	r2, [sp, #16]
 c007c96:	b9d8      	cbnz	r0, c007cd0 <_vfiprintf_r+0x12c>
 c007c98:	06d1      	lsls	r1, r2, #27
 c007c9a:	bf44      	itt	mi
 c007c9c:	2320      	movmi	r3, #32
 c007c9e:	f88d 3053 	strbmi.w	r3, [sp, #83]	; 0x53
 c007ca2:	0713      	lsls	r3, r2, #28
 c007ca4:	bf44      	itt	mi
 c007ca6:	232b      	movmi	r3, #43	; 0x2b
 c007ca8:	f88d 3053 	strbmi.w	r3, [sp, #83]	; 0x53
 c007cac:	f89a 3000 	ldrb.w	r3, [sl]
 c007cb0:	2b2a      	cmp	r3, #42	; 0x2a
 c007cb2:	d015      	beq.n	c007ce0 <_vfiprintf_r+0x13c>
 c007cb4:	9a07      	ldr	r2, [sp, #28]
 c007cb6:	4654      	mov	r4, sl
 c007cb8:	2000      	movs	r0, #0
 c007cba:	f04f 0c0a 	mov.w	ip, #10
 c007cbe:	4621      	mov	r1, r4
 c007cc0:	f811 3b01 	ldrb.w	r3, [r1], #1
 c007cc4:	3b30      	subs	r3, #48	; 0x30
 c007cc6:	2b09      	cmp	r3, #9
 c007cc8:	d94e      	bls.n	c007d68 <_vfiprintf_r+0x1c4>
 c007cca:	b1b0      	cbz	r0, c007cfa <_vfiprintf_r+0x156>
 c007ccc:	9207      	str	r2, [sp, #28]
 c007cce:	e014      	b.n	c007cfa <_vfiprintf_r+0x156>
 c007cd0:	eba0 0308 	sub.w	r3, r0, r8
 c007cd4:	46a2      	mov	sl, r4
 c007cd6:	fa09 f303 	lsl.w	r3, r9, r3
 c007cda:	4313      	orrs	r3, r2
 c007cdc:	9304      	str	r3, [sp, #16]
 c007cde:	e7d2      	b.n	c007c86 <_vfiprintf_r+0xe2>
 c007ce0:	9b03      	ldr	r3, [sp, #12]
 c007ce2:	1d19      	adds	r1, r3, #4
 c007ce4:	681b      	ldr	r3, [r3, #0]
 c007ce6:	2b00      	cmp	r3, #0
 c007ce8:	9103      	str	r1, [sp, #12]
 c007cea:	bfbb      	ittet	lt
 c007cec:	425b      	neglt	r3, r3
 c007cee:	f042 0202 	orrlt.w	r2, r2, #2
 c007cf2:	9307      	strge	r3, [sp, #28]
 c007cf4:	9307      	strlt	r3, [sp, #28]
 c007cf6:	bfb8      	it	lt
 c007cf8:	9204      	strlt	r2, [sp, #16]
 c007cfa:	7823      	ldrb	r3, [r4, #0]
 c007cfc:	2b2e      	cmp	r3, #46	; 0x2e
 c007cfe:	d10c      	bne.n	c007d1a <_vfiprintf_r+0x176>
 c007d00:	7863      	ldrb	r3, [r4, #1]
 c007d02:	2b2a      	cmp	r3, #42	; 0x2a
 c007d04:	d135      	bne.n	c007d72 <_vfiprintf_r+0x1ce>
 c007d06:	9b03      	ldr	r3, [sp, #12]
 c007d08:	3402      	adds	r4, #2
 c007d0a:	1d1a      	adds	r2, r3, #4
 c007d0c:	681b      	ldr	r3, [r3, #0]
 c007d0e:	2b00      	cmp	r3, #0
 c007d10:	9203      	str	r2, [sp, #12]
 c007d12:	bfb8      	it	lt
 c007d14:	f04f 33ff 	movlt.w	r3, #4294967295
 c007d18:	9305      	str	r3, [sp, #20]
 c007d1a:	f8df a0e4 	ldr.w	sl, [pc, #228]	; c007e00 <_vfiprintf_r+0x25c>
 c007d1e:	2203      	movs	r2, #3
 c007d20:	7821      	ldrb	r1, [r4, #0]
 c007d22:	4650      	mov	r0, sl
 c007d24:	f000 fc72 	bl	c00860c <memchr>
 c007d28:	b140      	cbz	r0, c007d3c <_vfiprintf_r+0x198>
 c007d2a:	2340      	movs	r3, #64	; 0x40
 c007d2c:	eba0 000a 	sub.w	r0, r0, sl
 c007d30:	3401      	adds	r4, #1
 c007d32:	fa03 f000 	lsl.w	r0, r3, r0
 c007d36:	9b04      	ldr	r3, [sp, #16]
 c007d38:	4303      	orrs	r3, r0
 c007d3a:	9304      	str	r3, [sp, #16]
 c007d3c:	f814 1b01 	ldrb.w	r1, [r4], #1
 c007d40:	2206      	movs	r2, #6
 c007d42:	482c      	ldr	r0, [pc, #176]	; (c007df4 <_vfiprintf_r+0x250>)
 c007d44:	f88d 1028 	strb.w	r1, [sp, #40]	; 0x28
 c007d48:	f000 fc60 	bl	c00860c <memchr>
 c007d4c:	2800      	cmp	r0, #0
 c007d4e:	d03f      	beq.n	c007dd0 <_vfiprintf_r+0x22c>
 c007d50:	4b29      	ldr	r3, [pc, #164]	; (c007df8 <_vfiprintf_r+0x254>)
 c007d52:	bb1b      	cbnz	r3, c007d9c <_vfiprintf_r+0x1f8>
 c007d54:	9b03      	ldr	r3, [sp, #12]
 c007d56:	3307      	adds	r3, #7
 c007d58:	f023 0307 	bic.w	r3, r3, #7
 c007d5c:	3308      	adds	r3, #8
 c007d5e:	9303      	str	r3, [sp, #12]
 c007d60:	9b09      	ldr	r3, [sp, #36]	; 0x24
 c007d62:	443b      	add	r3, r7
 c007d64:	9309      	str	r3, [sp, #36]	; 0x24
 c007d66:	e767      	b.n	c007c38 <_vfiprintf_r+0x94>
 c007d68:	fb0c 3202 	mla	r2, ip, r2, r3
 c007d6c:	460c      	mov	r4, r1
 c007d6e:	2001      	movs	r0, #1
 c007d70:	e7a5      	b.n	c007cbe <_vfiprintf_r+0x11a>
 c007d72:	2300      	movs	r3, #0
 c007d74:	3401      	adds	r4, #1
 c007d76:	f04f 0c0a 	mov.w	ip, #10
 c007d7a:	4619      	mov	r1, r3
 c007d7c:	9305      	str	r3, [sp, #20]
 c007d7e:	4620      	mov	r0, r4
 c007d80:	f810 2b01 	ldrb.w	r2, [r0], #1
 c007d84:	3a30      	subs	r2, #48	; 0x30
 c007d86:	2a09      	cmp	r2, #9
 c007d88:	d903      	bls.n	c007d92 <_vfiprintf_r+0x1ee>
 c007d8a:	2b00      	cmp	r3, #0
 c007d8c:	d0c5      	beq.n	c007d1a <_vfiprintf_r+0x176>
 c007d8e:	9105      	str	r1, [sp, #20]
 c007d90:	e7c3      	b.n	c007d1a <_vfiprintf_r+0x176>
 c007d92:	fb0c 2101 	mla	r1, ip, r1, r2
 c007d96:	4604      	mov	r4, r0
 c007d98:	2301      	movs	r3, #1
 c007d9a:	e7f0      	b.n	c007d7e <_vfiprintf_r+0x1da>
 c007d9c:	ab03      	add	r3, sp, #12
 c007d9e:	462a      	mov	r2, r5
 c007da0:	a904      	add	r1, sp, #16
 c007da2:	4630      	mov	r0, r6
 c007da4:	9300      	str	r3, [sp, #0]
 c007da6:	4b15      	ldr	r3, [pc, #84]	; (c007dfc <_vfiprintf_r+0x258>)
 c007da8:	e000      	b.n	c007dac <_vfiprintf_r+0x208>
 c007daa:	bf00      	nop
 c007dac:	4607      	mov	r7, r0
 c007dae:	1c78      	adds	r0, r7, #1
 c007db0:	d1d6      	bne.n	c007d60 <_vfiprintf_r+0x1bc>
 c007db2:	6e6b      	ldr	r3, [r5, #100]	; 0x64
 c007db4:	07d9      	lsls	r1, r3, #31
 c007db6:	d405      	bmi.n	c007dc4 <_vfiprintf_r+0x220>
 c007db8:	89ab      	ldrh	r3, [r5, #12]
 c007dba:	059a      	lsls	r2, r3, #22
 c007dbc:	d402      	bmi.n	c007dc4 <_vfiprintf_r+0x220>
 c007dbe:	6da8      	ldr	r0, [r5, #88]	; 0x58
 c007dc0:	f7ff fcd5 	bl	c00776e <__retarget_lock_release_recursive>
 c007dc4:	89ab      	ldrh	r3, [r5, #12]
 c007dc6:	065b      	lsls	r3, r3, #25
 c007dc8:	f53f af12 	bmi.w	c007bf0 <_vfiprintf_r+0x4c>
 c007dcc:	9809      	ldr	r0, [sp, #36]	; 0x24
 c007dce:	e711      	b.n	c007bf4 <_vfiprintf_r+0x50>
 c007dd0:	ab03      	add	r3, sp, #12
 c007dd2:	462a      	mov	r2, r5
 c007dd4:	a904      	add	r1, sp, #16
 c007dd6:	4630      	mov	r0, r6
 c007dd8:	9300      	str	r3, [sp, #0]
 c007dda:	4b08      	ldr	r3, [pc, #32]	; (c007dfc <_vfiprintf_r+0x258>)
 c007ddc:	f000 f882 	bl	c007ee4 <_printf_i>
 c007de0:	e7e4      	b.n	c007dac <_vfiprintf_r+0x208>
 c007de2:	bf00      	nop
 c007de4:	0c008dac 	.word	0x0c008dac
 c007de8:	0c008dcc 	.word	0x0c008dcc
 c007dec:	0c008d8c 	.word	0x0c008d8c
 c007df0:	0c008dec 	.word	0x0c008dec
 c007df4:	0c008df6 	.word	0x0c008df6
 c007df8:	00000000 	.word	0x00000000
 c007dfc:	0c007b7f 	.word	0x0c007b7f
 c007e00:	0c008df2 	.word	0x0c008df2

0c007e04 <_printf_common>:
 c007e04:	e92d 47f0 	stmdb	sp!, {r4, r5, r6, r7, r8, r9, sl, lr}
 c007e08:	4616      	mov	r6, r2
 c007e0a:	4699      	mov	r9, r3
 c007e0c:	688a      	ldr	r2, [r1, #8]
 c007e0e:	4607      	mov	r7, r0
 c007e10:	690b      	ldr	r3, [r1, #16]
 c007e12:	460c      	mov	r4, r1
 c007e14:	f8dd 8020 	ldr.w	r8, [sp, #32]
 c007e18:	4293      	cmp	r3, r2
 c007e1a:	bfb8      	it	lt
 c007e1c:	4613      	movlt	r3, r2
 c007e1e:	6033      	str	r3, [r6, #0]
 c007e20:	f891 2043 	ldrb.w	r2, [r1, #67]	; 0x43
 c007e24:	b10a      	cbz	r2, c007e2a <_printf_common+0x26>
 c007e26:	3301      	adds	r3, #1
 c007e28:	6033      	str	r3, [r6, #0]
 c007e2a:	6823      	ldr	r3, [r4, #0]
 c007e2c:	0699      	lsls	r1, r3, #26
 c007e2e:	bf42      	ittt	mi
 c007e30:	6833      	ldrmi	r3, [r6, #0]
 c007e32:	3302      	addmi	r3, #2
 c007e34:	6033      	strmi	r3, [r6, #0]
 c007e36:	6825      	ldr	r5, [r4, #0]
 c007e38:	f015 0506 	ands.w	r5, r5, #6
 c007e3c:	d106      	bne.n	c007e4c <_printf_common+0x48>
 c007e3e:	f104 0a19 	add.w	sl, r4, #25
 c007e42:	68e3      	ldr	r3, [r4, #12]
 c007e44:	6832      	ldr	r2, [r6, #0]
 c007e46:	1a9b      	subs	r3, r3, r2
 c007e48:	42ab      	cmp	r3, r5
 c007e4a:	dc29      	bgt.n	c007ea0 <_printf_common+0x9c>
 c007e4c:	f894 2043 	ldrb.w	r2, [r4, #67]	; 0x43
 c007e50:	1e13      	subs	r3, r2, #0
 c007e52:	6822      	ldr	r2, [r4, #0]
 c007e54:	bf18      	it	ne
 c007e56:	2301      	movne	r3, #1
 c007e58:	0692      	lsls	r2, r2, #26
 c007e5a:	d42e      	bmi.n	c007eba <_printf_common+0xb6>
 c007e5c:	f104 0243 	add.w	r2, r4, #67	; 0x43
 c007e60:	4649      	mov	r1, r9
 c007e62:	4638      	mov	r0, r7
 c007e64:	47c0      	blx	r8
 c007e66:	3001      	adds	r0, #1
 c007e68:	d021      	beq.n	c007eae <_printf_common+0xaa>
 c007e6a:	6823      	ldr	r3, [r4, #0]
 c007e6c:	341a      	adds	r4, #26
 c007e6e:	f854 5c0e 	ldr.w	r5, [r4, #-14]
 c007e72:	f003 0306 	and.w	r3, r3, #6
 c007e76:	6832      	ldr	r2, [r6, #0]
 c007e78:	2600      	movs	r6, #0
 c007e7a:	2b04      	cmp	r3, #4
 c007e7c:	f854 3c12 	ldr.w	r3, [r4, #-18]
 c007e80:	bf08      	it	eq
 c007e82:	1aad      	subeq	r5, r5, r2
 c007e84:	f854 2c0a 	ldr.w	r2, [r4, #-10]
 c007e88:	bf14      	ite	ne
 c007e8a:	2500      	movne	r5, #0
 c007e8c:	ea25 75e5 	biceq.w	r5, r5, r5, asr #31
 c007e90:	4293      	cmp	r3, r2
 c007e92:	bfc4      	itt	gt
 c007e94:	1a9b      	subgt	r3, r3, r2
 c007e96:	18ed      	addgt	r5, r5, r3
 c007e98:	42b5      	cmp	r5, r6
 c007e9a:	d11a      	bne.n	c007ed2 <_printf_common+0xce>
 c007e9c:	2000      	movs	r0, #0
 c007e9e:	e008      	b.n	c007eb2 <_printf_common+0xae>
 c007ea0:	2301      	movs	r3, #1
 c007ea2:	4652      	mov	r2, sl
 c007ea4:	4649      	mov	r1, r9
 c007ea6:	4638      	mov	r0, r7
 c007ea8:	47c0      	blx	r8
 c007eaa:	3001      	adds	r0, #1
 c007eac:	d103      	bne.n	c007eb6 <_printf_common+0xb2>
 c007eae:	f04f 30ff 	mov.w	r0, #4294967295
 c007eb2:	e8bd 87f0 	ldmia.w	sp!, {r4, r5, r6, r7, r8, r9, sl, pc}
 c007eb6:	3501      	adds	r5, #1
 c007eb8:	e7c3      	b.n	c007e42 <_printf_common+0x3e>
 c007eba:	18e1      	adds	r1, r4, r3
 c007ebc:	1c5a      	adds	r2, r3, #1
 c007ebe:	2030      	movs	r0, #48	; 0x30
 c007ec0:	3302      	adds	r3, #2
 c007ec2:	4422      	add	r2, r4
 c007ec4:	f881 0043 	strb.w	r0, [r1, #67]	; 0x43
 c007ec8:	f894 1045 	ldrb.w	r1, [r4, #69]	; 0x45
 c007ecc:	f882 1043 	strb.w	r1, [r2, #67]	; 0x43
 c007ed0:	e7c4      	b.n	c007e5c <_printf_common+0x58>
 c007ed2:	2301      	movs	r3, #1
 c007ed4:	4622      	mov	r2, r4
 c007ed6:	4649      	mov	r1, r9
 c007ed8:	4638      	mov	r0, r7
 c007eda:	47c0      	blx	r8
 c007edc:	3001      	adds	r0, #1
 c007ede:	d0e6      	beq.n	c007eae <_printf_common+0xaa>
 c007ee0:	3601      	adds	r6, #1
 c007ee2:	e7d9      	b.n	c007e98 <_printf_common+0x94>

0c007ee4 <_printf_i>:
 c007ee4:	e92d 47ff 	stmdb	sp!, {r0, r1, r2, r3, r4, r5, r6, r7, r8, r9, sl, lr}
 c007ee8:	7e0f      	ldrb	r7, [r1, #24]
 c007eea:	4691      	mov	r9, r2
 c007eec:	4680      	mov	r8, r0
 c007eee:	460c      	mov	r4, r1
 c007ef0:	2f78      	cmp	r7, #120	; 0x78
 c007ef2:	469a      	mov	sl, r3
 c007ef4:	9d0c      	ldr	r5, [sp, #48]	; 0x30
 c007ef6:	f101 0243 	add.w	r2, r1, #67	; 0x43
 c007efa:	d807      	bhi.n	c007f0c <_printf_i+0x28>
 c007efc:	2f62      	cmp	r7, #98	; 0x62
 c007efe:	d80a      	bhi.n	c007f16 <_printf_i+0x32>
 c007f00:	2f00      	cmp	r7, #0
 c007f02:	f000 80d8 	beq.w	c0080b6 <_printf_i+0x1d2>
 c007f06:	2f58      	cmp	r7, #88	; 0x58
 c007f08:	f000 80a3 	beq.w	c008052 <_printf_i+0x16e>
 c007f0c:	f104 0542 	add.w	r5, r4, #66	; 0x42
 c007f10:	f884 7042 	strb.w	r7, [r4, #66]	; 0x42
 c007f14:	e03a      	b.n	c007f8c <_printf_i+0xa8>
 c007f16:	f1a7 0363 	sub.w	r3, r7, #99	; 0x63
 c007f1a:	2b15      	cmp	r3, #21
 c007f1c:	d8f6      	bhi.n	c007f0c <_printf_i+0x28>
 c007f1e:	a101      	add	r1, pc, #4	; (adr r1, c007f24 <_printf_i+0x40>)
 c007f20:	f851 f023 	ldr.w	pc, [r1, r3, lsl #2]
 c007f24:	0c007f7d 	.word	0x0c007f7d
 c007f28:	0c007f91 	.word	0x0c007f91
 c007f2c:	0c007f0d 	.word	0x0c007f0d
 c007f30:	0c007f0d 	.word	0x0c007f0d
 c007f34:	0c007f0d 	.word	0x0c007f0d
 c007f38:	0c007f0d 	.word	0x0c007f0d
 c007f3c:	0c007f91 	.word	0x0c007f91
 c007f40:	0c007f0d 	.word	0x0c007f0d
 c007f44:	0c007f0d 	.word	0x0c007f0d
 c007f48:	0c007f0d 	.word	0x0c007f0d
 c007f4c:	0c007f0d 	.word	0x0c007f0d
 c007f50:	0c00809d 	.word	0x0c00809d
 c007f54:	0c007fc1 	.word	0x0c007fc1
 c007f58:	0c00807f 	.word	0x0c00807f
 c007f5c:	0c007f0d 	.word	0x0c007f0d
 c007f60:	0c007f0d 	.word	0x0c007f0d
 c007f64:	0c0080bf 	.word	0x0c0080bf
 c007f68:	0c007f0d 	.word	0x0c007f0d
 c007f6c:	0c007fc1 	.word	0x0c007fc1
 c007f70:	0c007f0d 	.word	0x0c007f0d
 c007f74:	0c007f0d 	.word	0x0c007f0d
 c007f78:	0c008087 	.word	0x0c008087
 c007f7c:	682b      	ldr	r3, [r5, #0]
 c007f7e:	1d1a      	adds	r2, r3, #4
 c007f80:	681b      	ldr	r3, [r3, #0]
 c007f82:	602a      	str	r2, [r5, #0]
 c007f84:	f104 0542 	add.w	r5, r4, #66	; 0x42
 c007f88:	f884 3042 	strb.w	r3, [r4, #66]	; 0x42
 c007f8c:	2301      	movs	r3, #1
 c007f8e:	e0a3      	b.n	c0080d8 <_printf_i+0x1f4>
 c007f90:	6820      	ldr	r0, [r4, #0]
 c007f92:	6829      	ldr	r1, [r5, #0]
 c007f94:	0606      	lsls	r6, r0, #24
 c007f96:	f101 0304 	add.w	r3, r1, #4
 c007f9a:	d50a      	bpl.n	c007fb2 <_printf_i+0xce>
 c007f9c:	680e      	ldr	r6, [r1, #0]
 c007f9e:	602b      	str	r3, [r5, #0]
 c007fa0:	2e00      	cmp	r6, #0
 c007fa2:	da03      	bge.n	c007fac <_printf_i+0xc8>
 c007fa4:	232d      	movs	r3, #45	; 0x2d
 c007fa6:	4276      	negs	r6, r6
 c007fa8:	f884 3043 	strb.w	r3, [r4, #67]	; 0x43
 c007fac:	485e      	ldr	r0, [pc, #376]	; (c008128 <_printf_i+0x244>)
 c007fae:	230a      	movs	r3, #10
 c007fb0:	e019      	b.n	c007fe6 <_printf_i+0x102>
 c007fb2:	680e      	ldr	r6, [r1, #0]
 c007fb4:	f010 0f40 	tst.w	r0, #64	; 0x40
 c007fb8:	602b      	str	r3, [r5, #0]
 c007fba:	bf18      	it	ne
 c007fbc:	b236      	sxthne	r6, r6
 c007fbe:	e7ef      	b.n	c007fa0 <_printf_i+0xbc>
 c007fc0:	682b      	ldr	r3, [r5, #0]
 c007fc2:	6820      	ldr	r0, [r4, #0]
 c007fc4:	1d19      	adds	r1, r3, #4
 c007fc6:	6029      	str	r1, [r5, #0]
 c007fc8:	0601      	lsls	r1, r0, #24
 c007fca:	d501      	bpl.n	c007fd0 <_printf_i+0xec>
 c007fcc:	681e      	ldr	r6, [r3, #0]
 c007fce:	e002      	b.n	c007fd6 <_printf_i+0xf2>
 c007fd0:	0646      	lsls	r6, r0, #25
 c007fd2:	d5fb      	bpl.n	c007fcc <_printf_i+0xe8>
 c007fd4:	881e      	ldrh	r6, [r3, #0]
 c007fd6:	2f6f      	cmp	r7, #111	; 0x6f
 c007fd8:	4853      	ldr	r0, [pc, #332]	; (c008128 <_printf_i+0x244>)
 c007fda:	bf0c      	ite	eq
 c007fdc:	2308      	moveq	r3, #8
 c007fde:	230a      	movne	r3, #10
 c007fe0:	2100      	movs	r1, #0
 c007fe2:	f884 1043 	strb.w	r1, [r4, #67]	; 0x43
 c007fe6:	6865      	ldr	r5, [r4, #4]
 c007fe8:	2d00      	cmp	r5, #0
 c007fea:	60a5      	str	r5, [r4, #8]
 c007fec:	bfa2      	ittt	ge
 c007fee:	6821      	ldrge	r1, [r4, #0]
 c007ff0:	f021 0104 	bicge.w	r1, r1, #4
 c007ff4:	6021      	strge	r1, [r4, #0]
 c007ff6:	b90e      	cbnz	r6, c007ffc <_printf_i+0x118>
 c007ff8:	2d00      	cmp	r5, #0
 c007ffa:	d04d      	beq.n	c008098 <_printf_i+0x1b4>
 c007ffc:	4615      	mov	r5, r2
 c007ffe:	fbb6 f1f3 	udiv	r1, r6, r3
 c008002:	fb03 6711 	mls	r7, r3, r1, r6
 c008006:	5dc7      	ldrb	r7, [r0, r7]
 c008008:	f805 7d01 	strb.w	r7, [r5, #-1]!
 c00800c:	4637      	mov	r7, r6
 c00800e:	460e      	mov	r6, r1
 c008010:	42bb      	cmp	r3, r7
 c008012:	d9f4      	bls.n	c007ffe <_printf_i+0x11a>
 c008014:	2b08      	cmp	r3, #8
 c008016:	d10b      	bne.n	c008030 <_printf_i+0x14c>
 c008018:	6823      	ldr	r3, [r4, #0]
 c00801a:	07de      	lsls	r6, r3, #31
 c00801c:	d508      	bpl.n	c008030 <_printf_i+0x14c>
 c00801e:	6923      	ldr	r3, [r4, #16]
 c008020:	6861      	ldr	r1, [r4, #4]
 c008022:	4299      	cmp	r1, r3
 c008024:	bfde      	ittt	le
 c008026:	2330      	movle	r3, #48	; 0x30
 c008028:	f805 3c01 	strble.w	r3, [r5, #-1]
 c00802c:	f105 35ff 	addle.w	r5, r5, #4294967295
 c008030:	1b52      	subs	r2, r2, r5
 c008032:	6122      	str	r2, [r4, #16]
 c008034:	464b      	mov	r3, r9
 c008036:	aa03      	add	r2, sp, #12
 c008038:	4621      	mov	r1, r4
 c00803a:	4640      	mov	r0, r8
 c00803c:	f8cd a000 	str.w	sl, [sp]
 c008040:	f7ff fee0 	bl	c007e04 <_printf_common>
 c008044:	3001      	adds	r0, #1
 c008046:	d14c      	bne.n	c0080e2 <_printf_i+0x1fe>
 c008048:	f04f 30ff 	mov.w	r0, #4294967295
 c00804c:	b004      	add	sp, #16
 c00804e:	e8bd 87f0 	ldmia.w	sp!, {r4, r5, r6, r7, r8, r9, sl, pc}
 c008052:	4835      	ldr	r0, [pc, #212]	; (c008128 <_printf_i+0x244>)
 c008054:	f881 7045 	strb.w	r7, [r1, #69]	; 0x45
 c008058:	6829      	ldr	r1, [r5, #0]
 c00805a:	6823      	ldr	r3, [r4, #0]
 c00805c:	f851 6b04 	ldr.w	r6, [r1], #4
 c008060:	6029      	str	r1, [r5, #0]
 c008062:	061d      	lsls	r5, r3, #24
 c008064:	d514      	bpl.n	c008090 <_printf_i+0x1ac>
 c008066:	07df      	lsls	r7, r3, #31
 c008068:	bf44      	itt	mi
 c00806a:	f043 0320 	orrmi.w	r3, r3, #32
 c00806e:	6023      	strmi	r3, [r4, #0]
 c008070:	b91e      	cbnz	r6, c00807a <_printf_i+0x196>
 c008072:	6823      	ldr	r3, [r4, #0]
 c008074:	f023 0320 	bic.w	r3, r3, #32
 c008078:	6023      	str	r3, [r4, #0]
 c00807a:	2310      	movs	r3, #16
 c00807c:	e7b0      	b.n	c007fe0 <_printf_i+0xfc>
 c00807e:	6823      	ldr	r3, [r4, #0]
 c008080:	f043 0320 	orr.w	r3, r3, #32
 c008084:	6023      	str	r3, [r4, #0]
 c008086:	2378      	movs	r3, #120	; 0x78
 c008088:	4828      	ldr	r0, [pc, #160]	; (c00812c <_printf_i+0x248>)
 c00808a:	f884 3045 	strb.w	r3, [r4, #69]	; 0x45
 c00808e:	e7e3      	b.n	c008058 <_printf_i+0x174>
 c008090:	0659      	lsls	r1, r3, #25
 c008092:	bf48      	it	mi
 c008094:	b2b6      	uxthmi	r6, r6
 c008096:	e7e6      	b.n	c008066 <_printf_i+0x182>
 c008098:	4615      	mov	r5, r2
 c00809a:	e7bb      	b.n	c008014 <_printf_i+0x130>
 c00809c:	682b      	ldr	r3, [r5, #0]
 c00809e:	6826      	ldr	r6, [r4, #0]
 c0080a0:	1d18      	adds	r0, r3, #4
 c0080a2:	6961      	ldr	r1, [r4, #20]
 c0080a4:	6028      	str	r0, [r5, #0]
 c0080a6:	0635      	lsls	r5, r6, #24
 c0080a8:	681b      	ldr	r3, [r3, #0]
 c0080aa:	d501      	bpl.n	c0080b0 <_printf_i+0x1cc>
 c0080ac:	6019      	str	r1, [r3, #0]
 c0080ae:	e002      	b.n	c0080b6 <_printf_i+0x1d2>
 c0080b0:	0670      	lsls	r0, r6, #25
 c0080b2:	d5fb      	bpl.n	c0080ac <_printf_i+0x1c8>
 c0080b4:	8019      	strh	r1, [r3, #0]
 c0080b6:	2300      	movs	r3, #0
 c0080b8:	4615      	mov	r5, r2
 c0080ba:	6123      	str	r3, [r4, #16]
 c0080bc:	e7ba      	b.n	c008034 <_printf_i+0x150>
 c0080be:	682b      	ldr	r3, [r5, #0]
 c0080c0:	2100      	movs	r1, #0
 c0080c2:	1d1a      	adds	r2, r3, #4
 c0080c4:	602a      	str	r2, [r5, #0]
 c0080c6:	681d      	ldr	r5, [r3, #0]
 c0080c8:	6862      	ldr	r2, [r4, #4]
 c0080ca:	4628      	mov	r0, r5
 c0080cc:	f000 fa9e 	bl	c00860c <memchr>
 c0080d0:	b108      	cbz	r0, c0080d6 <_printf_i+0x1f2>
 c0080d2:	1b40      	subs	r0, r0, r5
 c0080d4:	6060      	str	r0, [r4, #4]
 c0080d6:	6863      	ldr	r3, [r4, #4]
 c0080d8:	6123      	str	r3, [r4, #16]
 c0080da:	2300      	movs	r3, #0
 c0080dc:	f884 3043 	strb.w	r3, [r4, #67]	; 0x43
 c0080e0:	e7a8      	b.n	c008034 <_printf_i+0x150>
 c0080e2:	6923      	ldr	r3, [r4, #16]
 c0080e4:	462a      	mov	r2, r5
 c0080e6:	4649      	mov	r1, r9
 c0080e8:	4640      	mov	r0, r8
 c0080ea:	47d0      	blx	sl
 c0080ec:	3001      	adds	r0, #1
 c0080ee:	d0ab      	beq.n	c008048 <_printf_i+0x164>
 c0080f0:	6823      	ldr	r3, [r4, #0]
 c0080f2:	079b      	lsls	r3, r3, #30
 c0080f4:	d413      	bmi.n	c00811e <_printf_i+0x23a>
 c0080f6:	68e0      	ldr	r0, [r4, #12]
 c0080f8:	9b03      	ldr	r3, [sp, #12]
 c0080fa:	4298      	cmp	r0, r3
 c0080fc:	bfb8      	it	lt
 c0080fe:	4618      	movlt	r0, r3
 c008100:	e7a4      	b.n	c00804c <_printf_i+0x168>
 c008102:	2301      	movs	r3, #1
 c008104:	4632      	mov	r2, r6
 c008106:	4649      	mov	r1, r9
 c008108:	4640      	mov	r0, r8
 c00810a:	47d0      	blx	sl
 c00810c:	3001      	adds	r0, #1
 c00810e:	d09b      	beq.n	c008048 <_printf_i+0x164>
 c008110:	3501      	adds	r5, #1
 c008112:	68e3      	ldr	r3, [r4, #12]
 c008114:	9903      	ldr	r1, [sp, #12]
 c008116:	1a5b      	subs	r3, r3, r1
 c008118:	42ab      	cmp	r3, r5
 c00811a:	dcf2      	bgt.n	c008102 <_printf_i+0x21e>
 c00811c:	e7eb      	b.n	c0080f6 <_printf_i+0x212>
 c00811e:	2500      	movs	r5, #0
 c008120:	f104 0619 	add.w	r6, r4, #25
 c008124:	e7f5      	b.n	c008112 <_printf_i+0x22e>
 c008126:	bf00      	nop
 c008128:	0c008dfd 	.word	0x0c008dfd
 c00812c:	0c008e0e 	.word	0x0c008e0e

0c008130 <_sbrk_r>:
 c008130:	b538      	push	{r3, r4, r5, lr}
 c008132:	2300      	movs	r3, #0
 c008134:	4d05      	ldr	r5, [pc, #20]	; (c00814c <_sbrk_r+0x1c>)
 c008136:	4604      	mov	r4, r0
 c008138:	4608      	mov	r0, r1
 c00813a:	602b      	str	r3, [r5, #0]
 c00813c:	f7f9 ff60 	bl	c002000 <_sbrk>
 c008140:	1c43      	adds	r3, r0, #1
 c008142:	d102      	bne.n	c00814a <_sbrk_r+0x1a>
 c008144:	682b      	ldr	r3, [r5, #0]
 c008146:	b103      	cbz	r3, c00814a <_sbrk_r+0x1a>
 c008148:	6023      	str	r3, [r4, #0]
 c00814a:	bd38      	pop	{r3, r4, r5, pc}
 c00814c:	30001cb4 	.word	0x30001cb4

0c008150 <__sread>:
 c008150:	b510      	push	{r4, lr}
 c008152:	460c      	mov	r4, r1
 c008154:	f9b1 100e 	ldrsh.w	r1, [r1, #14]
 c008158:	f000 fb16 	bl	c008788 <_read_r>
 c00815c:	2800      	cmp	r0, #0
 c00815e:	bfab      	itete	ge
 c008160:	6d63      	ldrge	r3, [r4, #84]	; 0x54
 c008162:	89a3      	ldrhlt	r3, [r4, #12]
 c008164:	181b      	addge	r3, r3, r0
 c008166:	f423 5380 	biclt.w	r3, r3, #4096	; 0x1000
 c00816a:	bfac      	ite	ge
 c00816c:	6563      	strge	r3, [r4, #84]	; 0x54
 c00816e:	81a3      	strhlt	r3, [r4, #12]
 c008170:	bd10      	pop	{r4, pc}

0c008172 <__swrite>:
 c008172:	e92d 41f0 	stmdb	sp!, {r4, r5, r6, r7, r8, lr}
 c008176:	461f      	mov	r7, r3
 c008178:	898b      	ldrh	r3, [r1, #12]
 c00817a:	4605      	mov	r5, r0
 c00817c:	460c      	mov	r4, r1
 c00817e:	05db      	lsls	r3, r3, #23
 c008180:	4616      	mov	r6, r2
 c008182:	d505      	bpl.n	c008190 <__swrite+0x1e>
 c008184:	2302      	movs	r3, #2
 c008186:	2200      	movs	r2, #0
 c008188:	f9b1 100e 	ldrsh.w	r1, [r1, #14]
 c00818c:	f000 f9c6 	bl	c00851c <_lseek_r>
 c008190:	89a3      	ldrh	r3, [r4, #12]
 c008192:	4632      	mov	r2, r6
 c008194:	f9b4 100e 	ldrsh.w	r1, [r4, #14]
 c008198:	4628      	mov	r0, r5
 c00819a:	f423 5380 	bic.w	r3, r3, #4096	; 0x1000
 c00819e:	81a3      	strh	r3, [r4, #12]
 c0081a0:	463b      	mov	r3, r7
 c0081a2:	e8bd 41f0 	ldmia.w	sp!, {r4, r5, r6, r7, r8, lr}
 c0081a6:	f000 b869 	b.w	c00827c <_write_r>

0c0081aa <__sseek>:
 c0081aa:	b510      	push	{r4, lr}
 c0081ac:	460c      	mov	r4, r1
 c0081ae:	f9b1 100e 	ldrsh.w	r1, [r1, #14]
 c0081b2:	f000 f9b3 	bl	c00851c <_lseek_r>
 c0081b6:	1c43      	adds	r3, r0, #1
 c0081b8:	89a3      	ldrh	r3, [r4, #12]
 c0081ba:	bf15      	itete	ne
 c0081bc:	6560      	strne	r0, [r4, #84]	; 0x54
 c0081be:	f423 5380 	biceq.w	r3, r3, #4096	; 0x1000
 c0081c2:	f443 5380 	orrne.w	r3, r3, #4096	; 0x1000
 c0081c6:	81a3      	strheq	r3, [r4, #12]
 c0081c8:	bf18      	it	ne
 c0081ca:	81a3      	strhne	r3, [r4, #12]
 c0081cc:	bd10      	pop	{r4, pc}

0c0081ce <__sclose>:
 c0081ce:	f9b1 100e 	ldrsh.w	r1, [r1, #14]
 c0081d2:	f000 b8d3 	b.w	c00837c <_close_r>
	...

0c0081d8 <__swbuf_r>:
 c0081d8:	b5f8      	push	{r3, r4, r5, r6, r7, lr}
 c0081da:	460e      	mov	r6, r1
 c0081dc:	4614      	mov	r4, r2
 c0081de:	4605      	mov	r5, r0
 c0081e0:	b118      	cbz	r0, c0081ea <__swbuf_r+0x12>
 c0081e2:	6983      	ldr	r3, [r0, #24]
 c0081e4:	b90b      	cbnz	r3, c0081ea <__swbuf_r+0x12>
 c0081e6:	f7ff fa23 	bl	c007630 <__sinit>
 c0081ea:	4b21      	ldr	r3, [pc, #132]	; (c008270 <__swbuf_r+0x98>)
 c0081ec:	429c      	cmp	r4, r3
 c0081ee:	d12b      	bne.n	c008248 <__swbuf_r+0x70>
 c0081f0:	686c      	ldr	r4, [r5, #4]
 c0081f2:	69a3      	ldr	r3, [r4, #24]
 c0081f4:	60a3      	str	r3, [r4, #8]
 c0081f6:	89a3      	ldrh	r3, [r4, #12]
 c0081f8:	071a      	lsls	r2, r3, #28
 c0081fa:	d52f      	bpl.n	c00825c <__swbuf_r+0x84>
 c0081fc:	6923      	ldr	r3, [r4, #16]
 c0081fe:	b36b      	cbz	r3, c00825c <__swbuf_r+0x84>
 c008200:	6923      	ldr	r3, [r4, #16]
 c008202:	b2f6      	uxtb	r6, r6
 c008204:	6820      	ldr	r0, [r4, #0]
 c008206:	4637      	mov	r7, r6
 c008208:	1ac0      	subs	r0, r0, r3
 c00820a:	6963      	ldr	r3, [r4, #20]
 c00820c:	4283      	cmp	r3, r0
 c00820e:	dc04      	bgt.n	c00821a <__swbuf_r+0x42>
 c008210:	4621      	mov	r1, r4
 c008212:	4628      	mov	r0, r5
 c008214:	f000 f946 	bl	c0084a4 <_fflush_r>
 c008218:	bb30      	cbnz	r0, c008268 <__swbuf_r+0x90>
 c00821a:	68a3      	ldr	r3, [r4, #8]
 c00821c:	3001      	adds	r0, #1
 c00821e:	3b01      	subs	r3, #1
 c008220:	60a3      	str	r3, [r4, #8]
 c008222:	6823      	ldr	r3, [r4, #0]
 c008224:	1c5a      	adds	r2, r3, #1
 c008226:	6022      	str	r2, [r4, #0]
 c008228:	701e      	strb	r6, [r3, #0]
 c00822a:	6963      	ldr	r3, [r4, #20]
 c00822c:	4283      	cmp	r3, r0
 c00822e:	d004      	beq.n	c00823a <__swbuf_r+0x62>
 c008230:	89a3      	ldrh	r3, [r4, #12]
 c008232:	07db      	lsls	r3, r3, #31
 c008234:	d506      	bpl.n	c008244 <__swbuf_r+0x6c>
 c008236:	2e0a      	cmp	r6, #10
 c008238:	d104      	bne.n	c008244 <__swbuf_r+0x6c>
 c00823a:	4621      	mov	r1, r4
 c00823c:	4628      	mov	r0, r5
 c00823e:	f000 f931 	bl	c0084a4 <_fflush_r>
 c008242:	b988      	cbnz	r0, c008268 <__swbuf_r+0x90>
 c008244:	4638      	mov	r0, r7
 c008246:	bdf8      	pop	{r3, r4, r5, r6, r7, pc}
 c008248:	4b0a      	ldr	r3, [pc, #40]	; (c008274 <__swbuf_r+0x9c>)
 c00824a:	429c      	cmp	r4, r3
 c00824c:	d101      	bne.n	c008252 <__swbuf_r+0x7a>
 c00824e:	68ac      	ldr	r4, [r5, #8]
 c008250:	e7cf      	b.n	c0081f2 <__swbuf_r+0x1a>
 c008252:	4b09      	ldr	r3, [pc, #36]	; (c008278 <__swbuf_r+0xa0>)
 c008254:	429c      	cmp	r4, r3
 c008256:	bf08      	it	eq
 c008258:	68ec      	ldreq	r4, [r5, #12]
 c00825a:	e7ca      	b.n	c0081f2 <__swbuf_r+0x1a>
 c00825c:	4621      	mov	r1, r4
 c00825e:	4628      	mov	r0, r5
 c008260:	f000 f81e 	bl	c0082a0 <__swsetup_r>
 c008264:	2800      	cmp	r0, #0
 c008266:	d0cb      	beq.n	c008200 <__swbuf_r+0x28>
 c008268:	f04f 37ff 	mov.w	r7, #4294967295
 c00826c:	e7ea      	b.n	c008244 <__swbuf_r+0x6c>
 c00826e:	bf00      	nop
 c008270:	0c008dac 	.word	0x0c008dac
 c008274:	0c008dcc 	.word	0x0c008dcc
 c008278:	0c008d8c 	.word	0x0c008d8c

0c00827c <_write_r>:
 c00827c:	b538      	push	{r3, r4, r5, lr}
 c00827e:	4604      	mov	r4, r0
 c008280:	4d06      	ldr	r5, [pc, #24]	; (c00829c <_write_r+0x20>)
 c008282:	4608      	mov	r0, r1
 c008284:	4611      	mov	r1, r2
 c008286:	2200      	movs	r2, #0
 c008288:	602a      	str	r2, [r5, #0]
 c00828a:	461a      	mov	r2, r3
 c00828c:	f7f9 fe67 	bl	c001f5e <_write>
 c008290:	1c43      	adds	r3, r0, #1
 c008292:	d102      	bne.n	c00829a <_write_r+0x1e>
 c008294:	682b      	ldr	r3, [r5, #0]
 c008296:	b103      	cbz	r3, c00829a <_write_r+0x1e>
 c008298:	6023      	str	r3, [r4, #0]
 c00829a:	bd38      	pop	{r3, r4, r5, pc}
 c00829c:	30001cb4 	.word	0x30001cb4

0c0082a0 <__swsetup_r>:
 c0082a0:	4b32      	ldr	r3, [pc, #200]	; (c00836c <__swsetup_r+0xcc>)
 c0082a2:	b570      	push	{r4, r5, r6, lr}
 c0082a4:	681d      	ldr	r5, [r3, #0]
 c0082a6:	4606      	mov	r6, r0
 c0082a8:	460c      	mov	r4, r1
 c0082aa:	b125      	cbz	r5, c0082b6 <__swsetup_r+0x16>
 c0082ac:	69ab      	ldr	r3, [r5, #24]
 c0082ae:	b913      	cbnz	r3, c0082b6 <__swsetup_r+0x16>
 c0082b0:	4628      	mov	r0, r5
 c0082b2:	f7ff f9bd 	bl	c007630 <__sinit>
 c0082b6:	4b2e      	ldr	r3, [pc, #184]	; (c008370 <__swsetup_r+0xd0>)
 c0082b8:	429c      	cmp	r4, r3
 c0082ba:	d10f      	bne.n	c0082dc <__swsetup_r+0x3c>
 c0082bc:	686c      	ldr	r4, [r5, #4]
 c0082be:	89a3      	ldrh	r3, [r4, #12]
 c0082c0:	f9b4 200c 	ldrsh.w	r2, [r4, #12]
 c0082c4:	0719      	lsls	r1, r3, #28
 c0082c6:	d42c      	bmi.n	c008322 <__swsetup_r+0x82>
 c0082c8:	06dd      	lsls	r5, r3, #27
 c0082ca:	d411      	bmi.n	c0082f0 <__swsetup_r+0x50>
 c0082cc:	2309      	movs	r3, #9
 c0082ce:	6033      	str	r3, [r6, #0]
 c0082d0:	f042 0340 	orr.w	r3, r2, #64	; 0x40
 c0082d4:	f04f 30ff 	mov.w	r0, #4294967295
 c0082d8:	81a3      	strh	r3, [r4, #12]
 c0082da:	e03e      	b.n	c00835a <__swsetup_r+0xba>
 c0082dc:	4b25      	ldr	r3, [pc, #148]	; (c008374 <__swsetup_r+0xd4>)
 c0082de:	429c      	cmp	r4, r3
 c0082e0:	d101      	bne.n	c0082e6 <__swsetup_r+0x46>
 c0082e2:	68ac      	ldr	r4, [r5, #8]
 c0082e4:	e7eb      	b.n	c0082be <__swsetup_r+0x1e>
 c0082e6:	4b24      	ldr	r3, [pc, #144]	; (c008378 <__swsetup_r+0xd8>)
 c0082e8:	429c      	cmp	r4, r3
 c0082ea:	bf08      	it	eq
 c0082ec:	68ec      	ldreq	r4, [r5, #12]
 c0082ee:	e7e6      	b.n	c0082be <__swsetup_r+0x1e>
 c0082f0:	0758      	lsls	r0, r3, #29
 c0082f2:	d512      	bpl.n	c00831a <__swsetup_r+0x7a>
 c0082f4:	6b61      	ldr	r1, [r4, #52]	; 0x34
 c0082f6:	b141      	cbz	r1, c00830a <__swsetup_r+0x6a>
 c0082f8:	f104 0344 	add.w	r3, r4, #68	; 0x44
 c0082fc:	4299      	cmp	r1, r3
 c0082fe:	d002      	beq.n	c008306 <__swsetup_r+0x66>
 c008300:	4630      	mov	r0, r6
 c008302:	f000 f9c5 	bl	c008690 <_free_r>
 c008306:	2300      	movs	r3, #0
 c008308:	6363      	str	r3, [r4, #52]	; 0x34
 c00830a:	89a3      	ldrh	r3, [r4, #12]
 c00830c:	f023 0324 	bic.w	r3, r3, #36	; 0x24
 c008310:	81a3      	strh	r3, [r4, #12]
 c008312:	2300      	movs	r3, #0
 c008314:	6063      	str	r3, [r4, #4]
 c008316:	6923      	ldr	r3, [r4, #16]
 c008318:	6023      	str	r3, [r4, #0]
 c00831a:	89a3      	ldrh	r3, [r4, #12]
 c00831c:	f043 0308 	orr.w	r3, r3, #8
 c008320:	81a3      	strh	r3, [r4, #12]
 c008322:	6923      	ldr	r3, [r4, #16]
 c008324:	b94b      	cbnz	r3, c00833a <__swsetup_r+0x9a>
 c008326:	89a3      	ldrh	r3, [r4, #12]
 c008328:	f403 7320 	and.w	r3, r3, #640	; 0x280
 c00832c:	f5b3 7f00 	cmp.w	r3, #512	; 0x200
 c008330:	d003      	beq.n	c00833a <__swsetup_r+0x9a>
 c008332:	4621      	mov	r1, r4
 c008334:	4630      	mov	r0, r6
 c008336:	f000 f929 	bl	c00858c <__smakebuf_r>
 c00833a:	89a0      	ldrh	r0, [r4, #12]
 c00833c:	f9b4 200c 	ldrsh.w	r2, [r4, #12]
 c008340:	f010 0301 	ands.w	r3, r0, #1
 c008344:	d00a      	beq.n	c00835c <__swsetup_r+0xbc>
 c008346:	2300      	movs	r3, #0
 c008348:	60a3      	str	r3, [r4, #8]
 c00834a:	6963      	ldr	r3, [r4, #20]
 c00834c:	425b      	negs	r3, r3
 c00834e:	61a3      	str	r3, [r4, #24]
 c008350:	6923      	ldr	r3, [r4, #16]
 c008352:	b943      	cbnz	r3, c008366 <__swsetup_r+0xc6>
 c008354:	f010 0080 	ands.w	r0, r0, #128	; 0x80
 c008358:	d1ba      	bne.n	c0082d0 <__swsetup_r+0x30>
 c00835a:	bd70      	pop	{r4, r5, r6, pc}
 c00835c:	0781      	lsls	r1, r0, #30
 c00835e:	bf58      	it	pl
 c008360:	6963      	ldrpl	r3, [r4, #20]
 c008362:	60a3      	str	r3, [r4, #8]
 c008364:	e7f4      	b.n	c008350 <__swsetup_r+0xb0>
 c008366:	2000      	movs	r0, #0
 c008368:	e7f7      	b.n	c00835a <__swsetup_r+0xba>
 c00836a:	bf00      	nop
 c00836c:	30000104 	.word	0x30000104
 c008370:	0c008dac 	.word	0x0c008dac
 c008374:	0c008dcc 	.word	0x0c008dcc
 c008378:	0c008d8c 	.word	0x0c008d8c

0c00837c <_close_r>:
 c00837c:	b538      	push	{r3, r4, r5, lr}
 c00837e:	2300      	movs	r3, #0
 c008380:	4d05      	ldr	r5, [pc, #20]	; (c008398 <_close_r+0x1c>)
 c008382:	4604      	mov	r4, r0
 c008384:	4608      	mov	r0, r1
 c008386:	602b      	str	r3, [r5, #0]
 c008388:	f7f9 fe05 	bl	c001f96 <_close>
 c00838c:	1c43      	adds	r3, r0, #1
 c00838e:	d102      	bne.n	c008396 <_close_r+0x1a>
 c008390:	682b      	ldr	r3, [r5, #0]
 c008392:	b103      	cbz	r3, c008396 <_close_r+0x1a>
 c008394:	6023      	str	r3, [r4, #0]
 c008396:	bd38      	pop	{r3, r4, r5, pc}
 c008398:	30001cb4 	.word	0x30001cb4

0c00839c <__sflush_r>:
 c00839c:	898a      	ldrh	r2, [r1, #12]
 c00839e:	e92d 41f0 	stmdb	sp!, {r4, r5, r6, r7, r8, lr}
 c0083a2:	4605      	mov	r5, r0
 c0083a4:	0710      	lsls	r0, r2, #28
 c0083a6:	460c      	mov	r4, r1
 c0083a8:	d458      	bmi.n	c00845c <__sflush_r+0xc0>
 c0083aa:	684b      	ldr	r3, [r1, #4]
 c0083ac:	2b00      	cmp	r3, #0
 c0083ae:	dc05      	bgt.n	c0083bc <__sflush_r+0x20>
 c0083b0:	6c0b      	ldr	r3, [r1, #64]	; 0x40
 c0083b2:	2b00      	cmp	r3, #0
 c0083b4:	dc02      	bgt.n	c0083bc <__sflush_r+0x20>
 c0083b6:	2000      	movs	r0, #0
 c0083b8:	e8bd 81f0 	ldmia.w	sp!, {r4, r5, r6, r7, r8, pc}
 c0083bc:	6ae6      	ldr	r6, [r4, #44]	; 0x2c
 c0083be:	2e00      	cmp	r6, #0
 c0083c0:	d0f9      	beq.n	c0083b6 <__sflush_r+0x1a>
 c0083c2:	2300      	movs	r3, #0
 c0083c4:	f412 5280 	ands.w	r2, r2, #4096	; 0x1000
 c0083c8:	682f      	ldr	r7, [r5, #0]
 c0083ca:	602b      	str	r3, [r5, #0]
 c0083cc:	d032      	beq.n	c008434 <__sflush_r+0x98>
 c0083ce:	6d60      	ldr	r0, [r4, #84]	; 0x54
 c0083d0:	89a3      	ldrh	r3, [r4, #12]
 c0083d2:	075a      	lsls	r2, r3, #29
 c0083d4:	d505      	bpl.n	c0083e2 <__sflush_r+0x46>
 c0083d6:	6863      	ldr	r3, [r4, #4]
 c0083d8:	1ac0      	subs	r0, r0, r3
 c0083da:	6b63      	ldr	r3, [r4, #52]	; 0x34
 c0083dc:	b10b      	cbz	r3, c0083e2 <__sflush_r+0x46>
 c0083de:	6c23      	ldr	r3, [r4, #64]	; 0x40
 c0083e0:	1ac0      	subs	r0, r0, r3
 c0083e2:	2300      	movs	r3, #0
 c0083e4:	4602      	mov	r2, r0
 c0083e6:	6ae6      	ldr	r6, [r4, #44]	; 0x2c
 c0083e8:	4628      	mov	r0, r5
 c0083ea:	6a21      	ldr	r1, [r4, #32]
 c0083ec:	47b0      	blx	r6
 c0083ee:	1c43      	adds	r3, r0, #1
 c0083f0:	89a3      	ldrh	r3, [r4, #12]
 c0083f2:	d106      	bne.n	c008402 <__sflush_r+0x66>
 c0083f4:	6829      	ldr	r1, [r5, #0]
 c0083f6:	291d      	cmp	r1, #29
 c0083f8:	d82c      	bhi.n	c008454 <__sflush_r+0xb8>
 c0083fa:	4a29      	ldr	r2, [pc, #164]	; (c0084a0 <__sflush_r+0x104>)
 c0083fc:	40ca      	lsrs	r2, r1
 c0083fe:	07d6      	lsls	r6, r2, #31
 c008400:	d528      	bpl.n	c008454 <__sflush_r+0xb8>
 c008402:	2200      	movs	r2, #0
 c008404:	04d9      	lsls	r1, r3, #19
 c008406:	6062      	str	r2, [r4, #4]
 c008408:	6922      	ldr	r2, [r4, #16]
 c00840a:	6022      	str	r2, [r4, #0]
 c00840c:	d504      	bpl.n	c008418 <__sflush_r+0x7c>
 c00840e:	1c42      	adds	r2, r0, #1
 c008410:	d101      	bne.n	c008416 <__sflush_r+0x7a>
 c008412:	682b      	ldr	r3, [r5, #0]
 c008414:	b903      	cbnz	r3, c008418 <__sflush_r+0x7c>
 c008416:	6560      	str	r0, [r4, #84]	; 0x54
 c008418:	6b61      	ldr	r1, [r4, #52]	; 0x34
 c00841a:	602f      	str	r7, [r5, #0]
 c00841c:	2900      	cmp	r1, #0
 c00841e:	d0ca      	beq.n	c0083b6 <__sflush_r+0x1a>
 c008420:	f104 0344 	add.w	r3, r4, #68	; 0x44
 c008424:	4299      	cmp	r1, r3
 c008426:	d002      	beq.n	c00842e <__sflush_r+0x92>
 c008428:	4628      	mov	r0, r5
 c00842a:	f000 f931 	bl	c008690 <_free_r>
 c00842e:	2000      	movs	r0, #0
 c008430:	6360      	str	r0, [r4, #52]	; 0x34
 c008432:	e7c1      	b.n	c0083b8 <__sflush_r+0x1c>
 c008434:	6a21      	ldr	r1, [r4, #32]
 c008436:	2301      	movs	r3, #1
 c008438:	4628      	mov	r0, r5
 c00843a:	47b0      	blx	r6
 c00843c:	1c41      	adds	r1, r0, #1
 c00843e:	d1c7      	bne.n	c0083d0 <__sflush_r+0x34>
 c008440:	682b      	ldr	r3, [r5, #0]
 c008442:	2b00      	cmp	r3, #0
 c008444:	d0c4      	beq.n	c0083d0 <__sflush_r+0x34>
 c008446:	2b1d      	cmp	r3, #29
 c008448:	d001      	beq.n	c00844e <__sflush_r+0xb2>
 c00844a:	2b16      	cmp	r3, #22
 c00844c:	d101      	bne.n	c008452 <__sflush_r+0xb6>
 c00844e:	602f      	str	r7, [r5, #0]
 c008450:	e7b1      	b.n	c0083b6 <__sflush_r+0x1a>
 c008452:	89a3      	ldrh	r3, [r4, #12]
 c008454:	f043 0340 	orr.w	r3, r3, #64	; 0x40
 c008458:	81a3      	strh	r3, [r4, #12]
 c00845a:	e7ad      	b.n	c0083b8 <__sflush_r+0x1c>
 c00845c:	690f      	ldr	r7, [r1, #16]
 c00845e:	2f00      	cmp	r7, #0
 c008460:	d0a9      	beq.n	c0083b6 <__sflush_r+0x1a>
 c008462:	0793      	lsls	r3, r2, #30
 c008464:	680e      	ldr	r6, [r1, #0]
 c008466:	600f      	str	r7, [r1, #0]
 c008468:	bf0c      	ite	eq
 c00846a:	694b      	ldreq	r3, [r1, #20]
 c00846c:	2300      	movne	r3, #0
 c00846e:	eba6 0807 	sub.w	r8, r6, r7
 c008472:	608b      	str	r3, [r1, #8]
 c008474:	f1b8 0f00 	cmp.w	r8, #0
 c008478:	dd9d      	ble.n	c0083b6 <__sflush_r+0x1a>
 c00847a:	4643      	mov	r3, r8
 c00847c:	463a      	mov	r2, r7
 c00847e:	6a21      	ldr	r1, [r4, #32]
 c008480:	4628      	mov	r0, r5
 c008482:	6aa6      	ldr	r6, [r4, #40]	; 0x28
 c008484:	47b0      	blx	r6
 c008486:	2800      	cmp	r0, #0
 c008488:	dc06      	bgt.n	c008498 <__sflush_r+0xfc>
 c00848a:	89a3      	ldrh	r3, [r4, #12]
 c00848c:	f04f 30ff 	mov.w	r0, #4294967295
 c008490:	f043 0340 	orr.w	r3, r3, #64	; 0x40
 c008494:	81a3      	strh	r3, [r4, #12]
 c008496:	e78f      	b.n	c0083b8 <__sflush_r+0x1c>
 c008498:	4407      	add	r7, r0
 c00849a:	eba8 0800 	sub.w	r8, r8, r0
 c00849e:	e7e9      	b.n	c008474 <__sflush_r+0xd8>
 c0084a0:	20400001 	.word	0x20400001

0c0084a4 <_fflush_r>:
 c0084a4:	b538      	push	{r3, r4, r5, lr}
 c0084a6:	690b      	ldr	r3, [r1, #16]
 c0084a8:	4605      	mov	r5, r0
 c0084aa:	460c      	mov	r4, r1
 c0084ac:	b913      	cbnz	r3, c0084b4 <_fflush_r+0x10>
 c0084ae:	2500      	movs	r5, #0
 c0084b0:	4628      	mov	r0, r5
 c0084b2:	bd38      	pop	{r3, r4, r5, pc}
 c0084b4:	b118      	cbz	r0, c0084be <_fflush_r+0x1a>
 c0084b6:	6983      	ldr	r3, [r0, #24]
 c0084b8:	b90b      	cbnz	r3, c0084be <_fflush_r+0x1a>
 c0084ba:	f7ff f8b9 	bl	c007630 <__sinit>
 c0084be:	4b14      	ldr	r3, [pc, #80]	; (c008510 <_fflush_r+0x6c>)
 c0084c0:	429c      	cmp	r4, r3
 c0084c2:	d11b      	bne.n	c0084fc <_fflush_r+0x58>
 c0084c4:	686c      	ldr	r4, [r5, #4]
 c0084c6:	f9b4 300c 	ldrsh.w	r3, [r4, #12]
 c0084ca:	2b00      	cmp	r3, #0
 c0084cc:	d0ef      	beq.n	c0084ae <_fflush_r+0xa>
 c0084ce:	6e62      	ldr	r2, [r4, #100]	; 0x64
 c0084d0:	07d0      	lsls	r0, r2, #31
 c0084d2:	d404      	bmi.n	c0084de <_fflush_r+0x3a>
 c0084d4:	0599      	lsls	r1, r3, #22
 c0084d6:	d402      	bmi.n	c0084de <_fflush_r+0x3a>
 c0084d8:	6da0      	ldr	r0, [r4, #88]	; 0x58
 c0084da:	f7ff f947 	bl	c00776c <__retarget_lock_acquire_recursive>
 c0084de:	4628      	mov	r0, r5
 c0084e0:	4621      	mov	r1, r4
 c0084e2:	f7ff ff5b 	bl	c00839c <__sflush_r>
 c0084e6:	6e63      	ldr	r3, [r4, #100]	; 0x64
 c0084e8:	4605      	mov	r5, r0
 c0084ea:	07da      	lsls	r2, r3, #31
 c0084ec:	d4e0      	bmi.n	c0084b0 <_fflush_r+0xc>
 c0084ee:	89a3      	ldrh	r3, [r4, #12]
 c0084f0:	059b      	lsls	r3, r3, #22
 c0084f2:	d4dd      	bmi.n	c0084b0 <_fflush_r+0xc>
 c0084f4:	6da0      	ldr	r0, [r4, #88]	; 0x58
 c0084f6:	f7ff f93a 	bl	c00776e <__retarget_lock_release_recursive>
 c0084fa:	e7d9      	b.n	c0084b0 <_fflush_r+0xc>
 c0084fc:	4b05      	ldr	r3, [pc, #20]	; (c008514 <_fflush_r+0x70>)
 c0084fe:	429c      	cmp	r4, r3
 c008500:	d101      	bne.n	c008506 <_fflush_r+0x62>
 c008502:	68ac      	ldr	r4, [r5, #8]
 c008504:	e7df      	b.n	c0084c6 <_fflush_r+0x22>
 c008506:	4b04      	ldr	r3, [pc, #16]	; (c008518 <_fflush_r+0x74>)
 c008508:	429c      	cmp	r4, r3
 c00850a:	bf08      	it	eq
 c00850c:	68ec      	ldreq	r4, [r5, #12]
 c00850e:	e7da      	b.n	c0084c6 <_fflush_r+0x22>
 c008510:	0c008dac 	.word	0x0c008dac
 c008514:	0c008dcc 	.word	0x0c008dcc
 c008518:	0c008d8c 	.word	0x0c008d8c

0c00851c <_lseek_r>:
 c00851c:	b538      	push	{r3, r4, r5, lr}
 c00851e:	4604      	mov	r4, r0
 c008520:	4d06      	ldr	r5, [pc, #24]	; (c00853c <_lseek_r+0x20>)
 c008522:	4608      	mov	r0, r1
 c008524:	4611      	mov	r1, r2
 c008526:	2200      	movs	r2, #0
 c008528:	602a      	str	r2, [r5, #0]
 c00852a:	461a      	mov	r2, r3
 c00852c:	f7f9 fd5a 	bl	c001fe4 <_lseek>
 c008530:	1c43      	adds	r3, r0, #1
 c008532:	d102      	bne.n	c00853a <_lseek_r+0x1e>
 c008534:	682b      	ldr	r3, [r5, #0]
 c008536:	b103      	cbz	r3, c00853a <_lseek_r+0x1e>
 c008538:	6023      	str	r3, [r4, #0]
 c00853a:	bd38      	pop	{r3, r4, r5, pc}
 c00853c:	30001cb4 	.word	0x30001cb4

0c008540 <__swhatbuf_r>:
 c008540:	b570      	push	{r4, r5, r6, lr}
 c008542:	460e      	mov	r6, r1
 c008544:	f9b1 100e 	ldrsh.w	r1, [r1, #14]
 c008548:	b096      	sub	sp, #88	; 0x58
 c00854a:	4614      	mov	r4, r2
 c00854c:	2900      	cmp	r1, #0
 c00854e:	461d      	mov	r5, r3
 c008550:	da08      	bge.n	c008564 <__swhatbuf_r+0x24>
 c008552:	f9b6 300c 	ldrsh.w	r3, [r6, #12]
 c008556:	2200      	movs	r2, #0
 c008558:	602a      	str	r2, [r5, #0]
 c00855a:	061a      	lsls	r2, r3, #24
 c00855c:	d410      	bmi.n	c008580 <__swhatbuf_r+0x40>
 c00855e:	f44f 6380 	mov.w	r3, #1024	; 0x400
 c008562:	e00e      	b.n	c008582 <__swhatbuf_r+0x42>
 c008564:	466a      	mov	r2, sp
 c008566:	f000 f921 	bl	c0087ac <_fstat_r>
 c00856a:	2800      	cmp	r0, #0
 c00856c:	dbf1      	blt.n	c008552 <__swhatbuf_r+0x12>
 c00856e:	9a01      	ldr	r2, [sp, #4]
 c008570:	f402 4270 	and.w	r2, r2, #61440	; 0xf000
 c008574:	f5a2 5300 	sub.w	r3, r2, #8192	; 0x2000
 c008578:	425a      	negs	r2, r3
 c00857a:	415a      	adcs	r2, r3
 c00857c:	602a      	str	r2, [r5, #0]
 c00857e:	e7ee      	b.n	c00855e <__swhatbuf_r+0x1e>
 c008580:	2340      	movs	r3, #64	; 0x40
 c008582:	2000      	movs	r0, #0
 c008584:	6023      	str	r3, [r4, #0]
 c008586:	b016      	add	sp, #88	; 0x58
 c008588:	bd70      	pop	{r4, r5, r6, pc}
	...

0c00858c <__smakebuf_r>:
 c00858c:	898b      	ldrh	r3, [r1, #12]
 c00858e:	b573      	push	{r0, r1, r4, r5, r6, lr}
 c008590:	079d      	lsls	r5, r3, #30
 c008592:	4606      	mov	r6, r0
 c008594:	460c      	mov	r4, r1
 c008596:	d507      	bpl.n	c0085a8 <__smakebuf_r+0x1c>
 c008598:	f104 0347 	add.w	r3, r4, #71	; 0x47
 c00859c:	6023      	str	r3, [r4, #0]
 c00859e:	6123      	str	r3, [r4, #16]
 c0085a0:	2301      	movs	r3, #1
 c0085a2:	6163      	str	r3, [r4, #20]
 c0085a4:	b002      	add	sp, #8
 c0085a6:	bd70      	pop	{r4, r5, r6, pc}
 c0085a8:	ab01      	add	r3, sp, #4
 c0085aa:	466a      	mov	r2, sp
 c0085ac:	f7ff ffc8 	bl	c008540 <__swhatbuf_r>
 c0085b0:	9900      	ldr	r1, [sp, #0]
 c0085b2:	4605      	mov	r5, r0
 c0085b4:	4630      	mov	r0, r6
 c0085b6:	f7ff f8fb 	bl	c0077b0 <_malloc_r>
 c0085ba:	b948      	cbnz	r0, c0085d0 <__smakebuf_r+0x44>
 c0085bc:	f9b4 300c 	ldrsh.w	r3, [r4, #12]
 c0085c0:	059a      	lsls	r2, r3, #22
 c0085c2:	d4ef      	bmi.n	c0085a4 <__smakebuf_r+0x18>
 c0085c4:	f023 0303 	bic.w	r3, r3, #3
 c0085c8:	f043 0302 	orr.w	r3, r3, #2
 c0085cc:	81a3      	strh	r3, [r4, #12]
 c0085ce:	e7e3      	b.n	c008598 <__smakebuf_r+0xc>
 c0085d0:	4b0d      	ldr	r3, [pc, #52]	; (c008608 <__smakebuf_r+0x7c>)
 c0085d2:	62b3      	str	r3, [r6, #40]	; 0x28
 c0085d4:	89a3      	ldrh	r3, [r4, #12]
 c0085d6:	6020      	str	r0, [r4, #0]
 c0085d8:	f043 0380 	orr.w	r3, r3, #128	; 0x80
 c0085dc:	6120      	str	r0, [r4, #16]
 c0085de:	81a3      	strh	r3, [r4, #12]
 c0085e0:	9b00      	ldr	r3, [sp, #0]
 c0085e2:	6163      	str	r3, [r4, #20]
 c0085e4:	9b01      	ldr	r3, [sp, #4]
 c0085e6:	b15b      	cbz	r3, c008600 <__smakebuf_r+0x74>
 c0085e8:	f9b4 100e 	ldrsh.w	r1, [r4, #14]
 c0085ec:	4630      	mov	r0, r6
 c0085ee:	f000 f8ef 	bl	c0087d0 <_isatty_r>
 c0085f2:	b128      	cbz	r0, c008600 <__smakebuf_r+0x74>
 c0085f4:	89a3      	ldrh	r3, [r4, #12]
 c0085f6:	f023 0303 	bic.w	r3, r3, #3
 c0085fa:	f043 0301 	orr.w	r3, r3, #1
 c0085fe:	81a3      	strh	r3, [r4, #12]
 c008600:	89a0      	ldrh	r0, [r4, #12]
 c008602:	4305      	orrs	r5, r0
 c008604:	81a5      	strh	r5, [r4, #12]
 c008606:	e7cd      	b.n	c0085a4 <__smakebuf_r+0x18>
 c008608:	0c0075c9 	.word	0x0c0075c9

0c00860c <memchr>:
 c00860c:	b2c9      	uxtb	r1, r1
 c00860e:	4402      	add	r2, r0
 c008610:	b510      	push	{r4, lr}
 c008612:	4290      	cmp	r0, r2
 c008614:	4603      	mov	r3, r0
 c008616:	d101      	bne.n	c00861c <memchr+0x10>
 c008618:	2300      	movs	r3, #0
 c00861a:	e003      	b.n	c008624 <memchr+0x18>
 c00861c:	781c      	ldrb	r4, [r3, #0]
 c00861e:	3001      	adds	r0, #1
 c008620:	428c      	cmp	r4, r1
 c008622:	d1f6      	bne.n	c008612 <memchr+0x6>
 c008624:	4618      	mov	r0, r3
 c008626:	bd10      	pop	{r4, pc}

0c008628 <memcpy>:
 c008628:	440a      	add	r2, r1
 c00862a:	1e43      	subs	r3, r0, #1
 c00862c:	4291      	cmp	r1, r2
 c00862e:	d100      	bne.n	c008632 <memcpy+0xa>
 c008630:	4770      	bx	lr
 c008632:	b510      	push	{r4, lr}
 c008634:	f811 4b01 	ldrb.w	r4, [r1], #1
 c008638:	4291      	cmp	r1, r2
 c00863a:	f803 4f01 	strb.w	r4, [r3, #1]!
 c00863e:	d1f9      	bne.n	c008634 <memcpy+0xc>
 c008640:	bd10      	pop	{r4, pc}

0c008642 <memmove>:
 c008642:	4288      	cmp	r0, r1
 c008644:	b510      	push	{r4, lr}
 c008646:	eb01 0402 	add.w	r4, r1, r2
 c00864a:	d902      	bls.n	c008652 <memmove+0x10>
 c00864c:	4284      	cmp	r4, r0
 c00864e:	4623      	mov	r3, r4
 c008650:	d807      	bhi.n	c008662 <memmove+0x20>
 c008652:	1e43      	subs	r3, r0, #1
 c008654:	42a1      	cmp	r1, r4
 c008656:	d008      	beq.n	c00866a <memmove+0x28>
 c008658:	f811 2b01 	ldrb.w	r2, [r1], #1
 c00865c:	f803 2f01 	strb.w	r2, [r3, #1]!
 c008660:	e7f8      	b.n	c008654 <memmove+0x12>
 c008662:	4402      	add	r2, r0
 c008664:	4601      	mov	r1, r0
 c008666:	428a      	cmp	r2, r1
 c008668:	d100      	bne.n	c00866c <memmove+0x2a>
 c00866a:	bd10      	pop	{r4, pc}
 c00866c:	f813 4d01 	ldrb.w	r4, [r3, #-1]!
 c008670:	f802 4d01 	strb.w	r4, [r2, #-1]!
 c008674:	e7f7      	b.n	c008666 <memmove+0x24>
	...

0c008678 <__malloc_lock>:
 c008678:	4801      	ldr	r0, [pc, #4]	; (c008680 <__malloc_lock+0x8>)
 c00867a:	f7ff b877 	b.w	c00776c <__retarget_lock_acquire_recursive>
 c00867e:	bf00      	nop
 c008680:	30001ca8 	.word	0x30001ca8

0c008684 <__malloc_unlock>:
 c008684:	4801      	ldr	r0, [pc, #4]	; (c00868c <__malloc_unlock+0x8>)
 c008686:	f7ff b872 	b.w	c00776e <__retarget_lock_release_recursive>
 c00868a:	bf00      	nop
 c00868c:	30001ca8 	.word	0x30001ca8

0c008690 <_free_r>:
 c008690:	b537      	push	{r0, r1, r2, r4, r5, lr}
 c008692:	2900      	cmp	r1, #0
 c008694:	d043      	beq.n	c00871e <_free_r+0x8e>
 c008696:	f851 3c04 	ldr.w	r3, [r1, #-4]
 c00869a:	1f0c      	subs	r4, r1, #4
 c00869c:	9001      	str	r0, [sp, #4]
 c00869e:	2b00      	cmp	r3, #0
 c0086a0:	bfb8      	it	lt
 c0086a2:	18e4      	addlt	r4, r4, r3
 c0086a4:	f7ff ffe8 	bl	c008678 <__malloc_lock>
 c0086a8:	4a1e      	ldr	r2, [pc, #120]	; (c008724 <_free_r+0x94>)
 c0086aa:	9801      	ldr	r0, [sp, #4]
 c0086ac:	6813      	ldr	r3, [r2, #0]
 c0086ae:	b933      	cbnz	r3, c0086be <_free_r+0x2e>
 c0086b0:	6063      	str	r3, [r4, #4]
 c0086b2:	6014      	str	r4, [r2, #0]
 c0086b4:	b003      	add	sp, #12
 c0086b6:	e8bd 4030 	ldmia.w	sp!, {r4, r5, lr}
 c0086ba:	f7ff bfe3 	b.w	c008684 <__malloc_unlock>
 c0086be:	42a3      	cmp	r3, r4
 c0086c0:	d908      	bls.n	c0086d4 <_free_r+0x44>
 c0086c2:	6825      	ldr	r5, [r4, #0]
 c0086c4:	1961      	adds	r1, r4, r5
 c0086c6:	428b      	cmp	r3, r1
 c0086c8:	bf01      	itttt	eq
 c0086ca:	6819      	ldreq	r1, [r3, #0]
 c0086cc:	685b      	ldreq	r3, [r3, #4]
 c0086ce:	1949      	addeq	r1, r1, r5
 c0086d0:	6021      	streq	r1, [r4, #0]
 c0086d2:	e7ed      	b.n	c0086b0 <_free_r+0x20>
 c0086d4:	461a      	mov	r2, r3
 c0086d6:	685b      	ldr	r3, [r3, #4]
 c0086d8:	b10b      	cbz	r3, c0086de <_free_r+0x4e>
 c0086da:	42a3      	cmp	r3, r4
 c0086dc:	d9fa      	bls.n	c0086d4 <_free_r+0x44>
 c0086de:	6811      	ldr	r1, [r2, #0]
 c0086e0:	1855      	adds	r5, r2, r1
 c0086e2:	42a5      	cmp	r5, r4
 c0086e4:	d10b      	bne.n	c0086fe <_free_r+0x6e>
 c0086e6:	6824      	ldr	r4, [r4, #0]
 c0086e8:	4421      	add	r1, r4
 c0086ea:	1854      	adds	r4, r2, r1
 c0086ec:	6011      	str	r1, [r2, #0]
 c0086ee:	42a3      	cmp	r3, r4
 c0086f0:	d1e0      	bne.n	c0086b4 <_free_r+0x24>
 c0086f2:	681c      	ldr	r4, [r3, #0]
 c0086f4:	685b      	ldr	r3, [r3, #4]
 c0086f6:	4421      	add	r1, r4
 c0086f8:	6053      	str	r3, [r2, #4]
 c0086fa:	6011      	str	r1, [r2, #0]
 c0086fc:	e7da      	b.n	c0086b4 <_free_r+0x24>
 c0086fe:	d902      	bls.n	c008706 <_free_r+0x76>
 c008700:	230c      	movs	r3, #12
 c008702:	6003      	str	r3, [r0, #0]
 c008704:	e7d6      	b.n	c0086b4 <_free_r+0x24>
 c008706:	6825      	ldr	r5, [r4, #0]
 c008708:	1961      	adds	r1, r4, r5
 c00870a:	428b      	cmp	r3, r1
 c00870c:	bf02      	ittt	eq
 c00870e:	6819      	ldreq	r1, [r3, #0]
 c008710:	685b      	ldreq	r3, [r3, #4]
 c008712:	1949      	addeq	r1, r1, r5
 c008714:	6063      	str	r3, [r4, #4]
 c008716:	bf08      	it	eq
 c008718:	6021      	streq	r1, [r4, #0]
 c00871a:	6054      	str	r4, [r2, #4]
 c00871c:	e7ca      	b.n	c0086b4 <_free_r+0x24>
 c00871e:	b003      	add	sp, #12
 c008720:	bd30      	pop	{r4, r5, pc}
 c008722:	bf00      	nop
 c008724:	30001cac 	.word	0x30001cac

0c008728 <_realloc_r>:
 c008728:	e92d 41f0 	stmdb	sp!, {r4, r5, r6, r7, r8, lr}
 c00872c:	4680      	mov	r8, r0
 c00872e:	4614      	mov	r4, r2
 c008730:	460e      	mov	r6, r1
 c008732:	b921      	cbnz	r1, c00873e <_realloc_r+0x16>
 c008734:	4611      	mov	r1, r2
 c008736:	e8bd 41f0 	ldmia.w	sp!, {r4, r5, r6, r7, r8, lr}
 c00873a:	f7ff b839 	b.w	c0077b0 <_malloc_r>
 c00873e:	b92a      	cbnz	r2, c00874c <_realloc_r+0x24>
 c008740:	4625      	mov	r5, r4
 c008742:	f7ff ffa5 	bl	c008690 <_free_r>
 c008746:	4628      	mov	r0, r5
 c008748:	e8bd 81f0 	ldmia.w	sp!, {r4, r5, r6, r7, r8, pc}
 c00874c:	f000 f850 	bl	c0087f0 <_malloc_usable_size_r>
 c008750:	4284      	cmp	r4, r0
 c008752:	4607      	mov	r7, r0
 c008754:	d802      	bhi.n	c00875c <_realloc_r+0x34>
 c008756:	ebb4 0f50 	cmp.w	r4, r0, lsr #1
 c00875a:	d812      	bhi.n	c008782 <_realloc_r+0x5a>
 c00875c:	4621      	mov	r1, r4
 c00875e:	4640      	mov	r0, r8
 c008760:	f7ff f826 	bl	c0077b0 <_malloc_r>
 c008764:	4605      	mov	r5, r0
 c008766:	2800      	cmp	r0, #0
 c008768:	d0ed      	beq.n	c008746 <_realloc_r+0x1e>
 c00876a:	42bc      	cmp	r4, r7
 c00876c:	4622      	mov	r2, r4
 c00876e:	4631      	mov	r1, r6
 c008770:	bf28      	it	cs
 c008772:	463a      	movcs	r2, r7
 c008774:	f7ff ff58 	bl	c008628 <memcpy>
 c008778:	4631      	mov	r1, r6
 c00877a:	4640      	mov	r0, r8
 c00877c:	f7ff ff88 	bl	c008690 <_free_r>
 c008780:	e7e1      	b.n	c008746 <_realloc_r+0x1e>
 c008782:	4635      	mov	r5, r6
 c008784:	e7df      	b.n	c008746 <_realloc_r+0x1e>
	...

0c008788 <_read_r>:
 c008788:	b538      	push	{r3, r4, r5, lr}
 c00878a:	4604      	mov	r4, r0
 c00878c:	4d06      	ldr	r5, [pc, #24]	; (c0087a8 <_read_r+0x20>)
 c00878e:	4608      	mov	r0, r1
 c008790:	4611      	mov	r1, r2
 c008792:	2200      	movs	r2, #0
 c008794:	602a      	str	r2, [r5, #0]
 c008796:	461a      	mov	r2, r3
 c008798:	f7f9 fbc4 	bl	c001f24 <_read>
 c00879c:	1c43      	adds	r3, r0, #1
 c00879e:	d102      	bne.n	c0087a6 <_read_r+0x1e>
 c0087a0:	682b      	ldr	r3, [r5, #0]
 c0087a2:	b103      	cbz	r3, c0087a6 <_read_r+0x1e>
 c0087a4:	6023      	str	r3, [r4, #0]
 c0087a6:	bd38      	pop	{r3, r4, r5, pc}
 c0087a8:	30001cb4 	.word	0x30001cb4

0c0087ac <_fstat_r>:
 c0087ac:	b538      	push	{r3, r4, r5, lr}
 c0087ae:	2300      	movs	r3, #0
 c0087b0:	4d06      	ldr	r5, [pc, #24]	; (c0087cc <_fstat_r+0x20>)
 c0087b2:	4604      	mov	r4, r0
 c0087b4:	4608      	mov	r0, r1
 c0087b6:	4611      	mov	r1, r2
 c0087b8:	602b      	str	r3, [r5, #0]
 c0087ba:	f7f9 fbf8 	bl	c001fae <_fstat>
 c0087be:	1c43      	adds	r3, r0, #1
 c0087c0:	d102      	bne.n	c0087c8 <_fstat_r+0x1c>
 c0087c2:	682b      	ldr	r3, [r5, #0]
 c0087c4:	b103      	cbz	r3, c0087c8 <_fstat_r+0x1c>
 c0087c6:	6023      	str	r3, [r4, #0]
 c0087c8:	bd38      	pop	{r3, r4, r5, pc}
 c0087ca:	bf00      	nop
 c0087cc:	30001cb4 	.word	0x30001cb4

0c0087d0 <_isatty_r>:
 c0087d0:	b538      	push	{r3, r4, r5, lr}
 c0087d2:	2300      	movs	r3, #0
 c0087d4:	4d05      	ldr	r5, [pc, #20]	; (c0087ec <_isatty_r+0x1c>)
 c0087d6:	4604      	mov	r4, r0
 c0087d8:	4608      	mov	r0, r1
 c0087da:	602b      	str	r3, [r5, #0]
 c0087dc:	f7f9 fbf7 	bl	c001fce <_isatty>
 c0087e0:	1c43      	adds	r3, r0, #1
 c0087e2:	d102      	bne.n	c0087ea <_isatty_r+0x1a>
 c0087e4:	682b      	ldr	r3, [r5, #0]
 c0087e6:	b103      	cbz	r3, c0087ea <_isatty_r+0x1a>
 c0087e8:	6023      	str	r3, [r4, #0]
 c0087ea:	bd38      	pop	{r3, r4, r5, pc}
 c0087ec:	30001cb4 	.word	0x30001cb4

0c0087f0 <_malloc_usable_size_r>:
 c0087f0:	f851 3c04 	ldr.w	r3, [r1, #-4]
 c0087f4:	1f18      	subs	r0, r3, #4
 c0087f6:	2b00      	cmp	r3, #0
 c0087f8:	bfbc      	itt	lt
 c0087fa:	580b      	ldrlt	r3, [r1, r0]
 c0087fc:	18c0      	addlt	r0, r0, r3
 c0087fe:	4770      	bx	lr

0c008800 <_init>:
 c008800:	b5f8      	push	{r3, r4, r5, r6, r7, lr}
 c008802:	bf00      	nop
 c008804:	bcf8      	pop	{r3, r4, r5, r6, r7}
 c008806:	bc08      	pop	{r3}
 c008808:	469e      	mov	lr, r3
 c00880a:	4770      	bx	lr

0c00880c <_fini>:
 c00880c:	b5f8      	push	{r3, r4, r5, r6, r7, lr}
 c00880e:	bf00      	nop
 c008810:	bcf8      	pop	{r3, r4, r5, r6, r7}
 c008812:	bc08      	pop	{r3}
 c008814:	469e      	mov	lr, r3
 c008816:	4770      	bx	lr

Disassembly of section .gnu.sgstubs:

0c03e000 <SECURE_print_Num>:
 c03e000:	e97f e97f 	sg
 c03e004:	f7c2 bfec 	b.w	c000fe0 <__acle_se_SECURE_print_Num>

0c03e008 <SECURE_SystemCoreClockUpdate>:
 c03e008:	e97f e97f 	sg
 c03e00c:	f7c4 b976 	b.w	c0022fc <__acle_se_SECURE_SystemCoreClockUpdate>

0c03e010 <SECURE_Send_Modified_Mem>:
 c03e010:	e97f e97f 	sg
 c03e014:	f7c3 b8de 	b.w	c0011d4 <__acle_se_SECURE_Send_Modified_Mem>

0c03e018 <SECURE_RegisterCallback>:
 c03e018:	e97f e97f 	sg
 c03e01c:	f7c3 bd22 	b.w	c001a64 <__acle_se_SECURE_RegisterCallback>

0c03e020 <SECURE_Send_Mem>:
 c03e020:	e97f e97f 	sg
 c03e024:	f7c3 b822 	b.w	c00106c <__acle_se_SECURE_Send_Mem>

0c03e028 <SECURE_print_Log>:
 c03e028:	e97f e97f 	sg
 c03e02c:	f7c2 bf97 	b.w	c000f5e <__acle_se_SECURE_print_Log>
	...
